ARM GAS  C:\Users\khjtony\AppData\Local\Temp\ccCj9KSS.s 			page 1


   1              		.syntax unified
   2              		.cpu cortex-m3
   3              		.fpu softvfp
   4              		.eabi_attribute 20, 1
   5              		.eabi_attribute 21, 1
   6              		.eabi_attribute 23, 3
   7              		.eabi_attribute 24, 1
   8              		.eabi_attribute 25, 1
   9              		.eabi_attribute 26, 1
  10              		.eabi_attribute 30, 1
  11              		.eabi_attribute 34, 1
  12              		.eabi_attribute 18, 4
  13              		.thumb
  14              		.file	"main.c"
  15              		.text
  16              	.Ltext0:
  17              		.cfi_sections	.debug_frame
  18              		.section	.text.main,"ax",%progbits
  19              		.align	2
  20              		.global	main
  21              		.thumb
  22              		.thumb_func
  23              		.type	main, %function
  24              	main:
  25              	.LFB63:
  26              		.file 1 ".\\main.c"
   1:.\main.c      **** /* ========================================
   2:.\main.c      ****  *
   3:.\main.c      ****  * Copyright YOUR COMPANY, THE YEAR
   4:.\main.c      ****  * All Rights Reserved
   5:.\main.c      ****  * UNPUBLISHED, LICENSED SOFTWARE.
   6:.\main.c      ****  *
   7:.\main.c      ****  * CONFIDENTIAL AND PROPRIETARY INFORMATION
   8:.\main.c      ****  * WHICH IS THE PROPERTY OF your company.
   9:.\main.c      ****  *
  10:.\main.c      ****  * ========================================
  11:.\main.c      **** */
  12:.\main.c      **** #include <project.h>
  13:.\main.c      **** 
  14:.\main.c      **** int main()
  15:.\main.c      **** {
  27              		.loc 1 15 0
  28              		.cfi_startproc
  29              		@ args = 0, pretend = 0, frame = 0
  30              		@ frame_needed = 0, uses_anonymous_args = 0
  31 0000 38B5     		push	{r3, r4, r5, lr}
  32              		.cfi_def_cfa_offset 16
  33              		.cfi_offset 3, -16
  34              		.cfi_offset 4, -12
  35              		.cfi_offset 5, -8
  36              		.cfi_offset 14, -4
  16:.\main.c      ****     CyGlobalIntEnable; /* Enable global interrupts. */
  37              		.loc 1 16 0
  38              	@ 16 ".\main.c" 1
  39 0002 62B6     		CPSIE   i
  40              	@ 0 "" 2
  41              	.LVL0:
ARM GAS  C:\Users\khjtony\AppData\Local\Temp\ccCj9KSS.s 			page 2


  17:.\main.c      ****     uint8_t value=0;
  18:.\main.c      ****     int8_t direction=1;
  19:.\main.c      ****     /* Place your initialization/startup code here (e.g. MyInst_Start()) */
  20:.\main.c      ****     WaveDAC8_1_Start();
  42              		.loc 1 20 0
  43              		.thumb
  44 0004 FFF7FEFF 		bl	WaveDAC8_1_Start
  45              	.LVL1:
  18:.\main.c      ****     /* Place your initialization/startup code here (e.g. MyInst_Start()) */
  46              		.loc 1 18 0
  47 0008 0125     		movs	r5, #1
  17:.\main.c      ****     uint8_t value=0;
  48              		.loc 1 17 0
  49 000a 0024     		movs	r4, #0
  50              	.LVL2:
  51              	.L3:
  21:.\main.c      ****     for(;;)
  22:.\main.c      ****     {
  23:.\main.c      ****         /* Place your application code here. */
  24:.\main.c      ****         
  25:.\main.c      ****         WaveDAC8_1_SetValue(value);
  52              		.loc 1 25 0
  53 000c 2046     		mov	r0, r4
  54 000e FFF7FEFF 		bl	WaveDAC8_1_VDAC8_SetValue
  55              	.LVL3:
  26:.\main.c      ****         if (value>=253){
  56              		.loc 1 26 0
  57 0012 FC2C     		cmp	r4, #252
  58 0014 02D8     		bhi	.L4
  27:.\main.c      ****             direction=-1;
  28:.\main.c      ****         }else if (value<=1){
  59              		.loc 1 28 0
  60 0016 012C     		cmp	r4, #1
  61 0018 03D8     		bhi	.L2
  62 001a 01E0     		b	.L5
  63              	.L4:
  27:.\main.c      ****             direction=-1;
  64              		.loc 1 27 0
  65 001c FF25     		movs	r5, #255
  66              	.LVL4:
  67 001e 00E0     		b	.L2
  68              	.LVL5:
  69              	.L5:
  29:.\main.c      ****             direction=1;
  70              		.loc 1 29 0
  71 0020 0125     		movs	r5, #1
  72              	.LVL6:
  73              	.L2:
  30:.\main.c      ****         }
  31:.\main.c      ****         value+=direction;
  74              		.loc 1 31 0
  75 0022 2C44     		add	r4, r4, r5
  76              	.LVL7:
  77 0024 E4B2     		uxtb	r4, r4
  78              	.LVL8:
  32:.\main.c      ****         CyDelay(100);
  79              		.loc 1 32 0
ARM GAS  C:\Users\khjtony\AppData\Local\Temp\ccCj9KSS.s 			page 3


  80 0026 6420     		movs	r0, #100
  81 0028 FFF7FEFF 		bl	CyDelay
  82              	.LVL9:
  33:.\main.c      ****         
  34:.\main.c      ****         
  35:.\main.c      ****     }
  83              		.loc 1 35 0
  84 002c EEE7     		b	.L3
  85              		.cfi_endproc
  86              	.LFE63:
  87              		.size	main, .-main
  88 002e 00BF     		.text
  89              	.Letext0:
  90              		.file 2 "c:\\program files (x86)\\cypress\\psoc creator\\3.3\\psoc creator\\import\\gnu\\arm\\4.9.
  91              		.file 3 "c:\\program files (x86)\\cypress\\psoc creator\\3.3\\psoc creator\\import\\gnu\\arm\\4.9.
  92              		.file 4 "Generated_Source\\PSoC5/cytypes.h"
  93              		.file 5 "Generated_Source\\PSoC5/core_cm3.h"
  94              		.file 6 "Generated_Source\\PSoC5/WaveDAC8_1.h"
  95              		.file 7 "Generated_Source\\PSoC5/WaveDAC8_1_VDAC8.h"
  96              		.file 8 "Generated_Source\\PSoC5/CyLib.h"