ARM GAS  D:\Windows\AppData\Local\Temp\ccEjsxEu.s 			page 1


   1              		.syntax unified
   2              		.cpu cortex-m3
   3              		.fpu softvfp
   4              		.eabi_attribute 20, 1
   5              		.eabi_attribute 21, 1
   6              		.eabi_attribute 23, 3
   7              		.eabi_attribute 24, 1
   8              		.eabi_attribute 25, 1
   9              		.eabi_attribute 26, 1
  10              		.eabi_attribute 30, 6
  11              		.eabi_attribute 34, 1
  12              		.eabi_attribute 18, 4
  13              		.thumb
  14              		.file	"can_manga.c"
  15              		.text
  16              	.Ltext0:
  17              		.cfi_sections	.debug_frame
  18              		.global	CAPACITOR_VOLT
  19              		.bss
  20              		.type	CAPACITOR_VOLT, %object
  21              		.size	CAPACITOR_VOLT, 1
  22              	CAPACITOR_VOLT:
  23 0000 00       		.space	1
  24              		.global	CURTIS_FAULT_CHECK
  25              		.type	CURTIS_FAULT_CHECK, %object
  26              		.size	CURTIS_FAULT_CHECK, 1
  27              	CURTIS_FAULT_CHECK:
  28 0001 00       		.space	1
  29              		.global	CURTIS_HEART_BEAT_CHECK
  30              		.type	CURTIS_HEART_BEAT_CHECK, %object
  31              		.size	CURTIS_HEART_BEAT_CHECK, 1
  32              	CURTIS_HEART_BEAT_CHECK:
  33 0002 00       		.space	1
  34              		.global	ACK_RX
  35              		.type	ACK_RX, %object
  36              		.size	ACK_RX, 1
  37              	ACK_RX:
  38 0003 00       		.space	1
  39              		.global	ERROR_TOLERANCE
  40              		.type	ERROR_TOLERANCE, %object
  41              		.size	ERROR_TOLERANCE, 1
  42              	ERROR_TOLERANCE:
  43 0004 00       		.space	1
  44              		.global	ABS_MOTOR_RPM
  45 0005 00       		.align	1
  46              		.type	ABS_MOTOR_RPM, %object
  47              		.size	ABS_MOTOR_RPM, 2
  48              	ABS_MOTOR_RPM:
  49 0006 0000     		.space	2
  50              		.global	THROTTLE_CHECK_BIT
  51              		.align	1
  52              		.type	THROTTLE_CHECK_BIT, %object
  53              		.size	THROTTLE_CHECK_BIT, 2
  54              	THROTTLE_CHECK_BIT:
  55 0008 0000     		.space	2
  56              		.global	THROTTLE_HIGH
  57              		.type	THROTTLE_HIGH, %object
ARM GAS  D:\Windows\AppData\Local\Temp\ccEjsxEu.s 			page 2


  58              		.size	THROTTLE_HIGH, 1
  59              	THROTTLE_HIGH:
  60 000a 00       		.space	1
  61              		.global	THROTTLE_LOW
  62              		.type	THROTTLE_LOW, %object
  63              		.size	THROTTLE_LOW, 1
  64              	THROTTLE_LOW:
  65 000b 00       		.space	1
  66              		.global	BMS_TEMP
  67              		.type	BMS_TEMP, %object
  68              		.size	BMS_TEMP, 1
  69              	BMS_TEMP:
  70 000c 00       		.space	1
  71              		.global	MTR_TEMP
  72 000d 00       		.align	1
  73              		.type	MTR_TEMP, %object
  74              		.size	MTR_TEMP, 2
  75              	MTR_TEMP:
  76 000e 0000     		.space	2
  77              		.global	MTR_CTRL_TEMP
  78              		.align	1
  79              		.type	MTR_CTRL_TEMP, %object
  80              		.size	MTR_CTRL_TEMP, 2
  81              	MTR_CTRL_TEMP:
  82 0010 0000     		.space	2
  83              		.global	BMS_VOLTAGE
  84 0012 0000     		.align	2
  85              		.type	BMS_VOLTAGE, %object
  86              		.size	BMS_VOLTAGE, 4
  87              	BMS_VOLTAGE:
  88 0014 00000000 		.space	4
  89              		.global	SoC
  90              		.type	SoC, %object
  91              		.size	SoC, 1
  92              	SoC:
  93 0018 00       		.space	1
  94 0019 000000   		.section	.text.getCapacitorVoltage,"ax",%progbits
  95              		.align	2
  96              		.global	getCapacitorVoltage
  97              		.thumb
  98              		.thumb_func
  99              		.type	getCapacitorVoltage, %function
 100              	getCapacitorVoltage:
 101              	.LFB63:
 102              		.file 1 "can_manga.c"
   1:can_manga.c   **** /* ========================================
   2:can_manga.c   ****  * Can API for FRUCD
   3:can_manga.c   ****  * Dustin Mai, Schuyler Alschuler 2016 - 2017
   4:can_manga.c   ****  * ========================================
   5:can_manga.c   **** */
   6:can_manga.c   **** 
   7:can_manga.c   **** #include "CAN.h"
   8:can_manga.c   **** #include "can_manga.h"
   9:can_manga.c   **** #include "led_manager.h"
  10:can_manga.c   **** 
  11:can_manga.c   **** volatile uint8_t CAPACITOR_VOLT = 0;
  12:can_manga.c   **** volatile uint8_t CURTIS_FAULT_CHECK = 0;
ARM GAS  D:\Windows\AppData\Local\Temp\ccEjsxEu.s 			page 3


  13:can_manga.c   **** volatile uint8_t CURTIS_HEART_BEAT_CHECK = 0;
  14:can_manga.c   **** volatile uint8_t ACK_RX = 0;
  15:can_manga.c   **** volatile uint8_t ERROR_TOLERANCE = 0;
  16:can_manga.c   **** volatile uint16_t ABS_MOTOR_RPM = 0;
  17:can_manga.c   **** volatile uint16_t THROTTLE_CHECK_BIT = 0;
  18:can_manga.c   **** volatile uint8_t THROTTLE_HIGH = 0;
  19:can_manga.c   **** volatile uint8_t THROTTLE_LOW = 0;
  20:can_manga.c   **** volatile uint8_t BMS_TEMP = 0x00;
  21:can_manga.c   **** volatile uint16_t MTR_TEMP = 0x00;
  22:can_manga.c   **** volatile uint16_t MTR_CTRL_TEMP = 0x00;
  23:can_manga.c   **** volatile uint32_t BMS_VOLTAGE = 0;
  24:can_manga.c   **** volatile uint8_t SoC = 0;
  25:can_manga.c   **** 
  26:can_manga.c   **** uint8_t getCapacitorVoltage() {
 103              		.loc 1 26 0
 104              		.cfi_startproc
 105              		@ args = 0, pretend = 0, frame = 0
 106              		@ frame_needed = 1, uses_anonymous_args = 0
 107              		@ link register save eliminated.
 108 0000 80B4     		push	{r7}
 109              		.cfi_def_cfa_offset 4
 110              		.cfi_offset 7, -4
 111 0002 00AF     		add	r7, sp, #0
 112              		.cfi_def_cfa_register 7
  27:can_manga.c   ****     return CAPACITOR_VOLT;
 113              		.loc 1 27 0
 114 0004 034B     		ldr	r3, .L3
 115 0006 1B78     		ldrb	r3, [r3]
 116 0008 DBB2     		uxtb	r3, r3
  28:can_manga.c   **** }
 117              		.loc 1 28 0
 118 000a 1846     		mov	r0, r3
 119 000c BD46     		mov	sp, r7
 120              		.cfi_def_cfa_register 13
 121              		@ sp needed
 122 000e 5DF8047B 		ldr	r7, [sp], #4
 123              		.cfi_restore 7
 124              		.cfi_def_cfa_offset 0
 125 0012 7047     		bx	lr
 126              	.L4:
 127              		.align	2
 128              	.L3:
 129 0014 00000000 		.word	CAPACITOR_VOLT
 130              		.cfi_endproc
 131              	.LFE63:
 132              		.size	getCapacitorVoltage, .-getCapacitorVoltage
 133              		.section	.text.getCurtisFaultCheck,"ax",%progbits
 134              		.align	2
 135              		.global	getCurtisFaultCheck
 136              		.thumb
 137              		.thumb_func
 138              		.type	getCurtisFaultCheck, %function
 139              	getCurtisFaultCheck:
 140              	.LFB64:
  29:can_manga.c   **** 
  30:can_manga.c   **** uint8_t getCurtisFaultCheck() {
 141              		.loc 1 30 0
ARM GAS  D:\Windows\AppData\Local\Temp\ccEjsxEu.s 			page 4


 142              		.cfi_startproc
 143              		@ args = 0, pretend = 0, frame = 0
 144              		@ frame_needed = 1, uses_anonymous_args = 0
 145              		@ link register save eliminated.
 146 0000 80B4     		push	{r7}
 147              		.cfi_def_cfa_offset 4
 148              		.cfi_offset 7, -4
 149 0002 00AF     		add	r7, sp, #0
 150              		.cfi_def_cfa_register 7
  31:can_manga.c   ****     return CURTIS_FAULT_CHECK;
 151              		.loc 1 31 0
 152 0004 034B     		ldr	r3, .L7
 153 0006 1B78     		ldrb	r3, [r3]
 154 0008 DBB2     		uxtb	r3, r3
  32:can_manga.c   **** }
 155              		.loc 1 32 0
 156 000a 1846     		mov	r0, r3
 157 000c BD46     		mov	sp, r7
 158              		.cfi_def_cfa_register 13
 159              		@ sp needed
 160 000e 5DF8047B 		ldr	r7, [sp], #4
 161              		.cfi_restore 7
 162              		.cfi_def_cfa_offset 0
 163 0012 7047     		bx	lr
 164              	.L8:
 165              		.align	2
 166              	.L7:
 167 0014 00000000 		.word	CURTIS_FAULT_CHECK
 168              		.cfi_endproc
 169              	.LFE64:
 170              		.size	getCurtisFaultCheck, .-getCurtisFaultCheck
 171              		.section	.text.getCurtisHeartBeatCheck,"ax",%progbits
 172              		.align	2
 173              		.global	getCurtisHeartBeatCheck
 174              		.thumb
 175              		.thumb_func
 176              		.type	getCurtisHeartBeatCheck, %function
 177              	getCurtisHeartBeatCheck:
 178              	.LFB65:
  33:can_manga.c   **** 
  34:can_manga.c   **** uint8_t getCurtisHeartBeatCheck() {
 179              		.loc 1 34 0
 180              		.cfi_startproc
 181              		@ args = 0, pretend = 0, frame = 0
 182              		@ frame_needed = 1, uses_anonymous_args = 0
 183              		@ link register save eliminated.
 184 0000 80B4     		push	{r7}
 185              		.cfi_def_cfa_offset 4
 186              		.cfi_offset 7, -4
 187 0002 00AF     		add	r7, sp, #0
 188              		.cfi_def_cfa_register 7
  35:can_manga.c   ****     return CURTIS_HEART_BEAT_CHECK;
 189              		.loc 1 35 0
 190 0004 034B     		ldr	r3, .L11
 191 0006 1B78     		ldrb	r3, [r3]
 192 0008 DBB2     		uxtb	r3, r3
  36:can_manga.c   **** }
ARM GAS  D:\Windows\AppData\Local\Temp\ccEjsxEu.s 			page 5


 193              		.loc 1 36 0
 194 000a 1846     		mov	r0, r3
 195 000c BD46     		mov	sp, r7
 196              		.cfi_def_cfa_register 13
 197              		@ sp needed
 198 000e 5DF8047B 		ldr	r7, [sp], #4
 199              		.cfi_restore 7
 200              		.cfi_def_cfa_offset 0
 201 0012 7047     		bx	lr
 202              	.L12:
 203              		.align	2
 204              	.L11:
 205 0014 00000000 		.word	CURTIS_HEART_BEAT_CHECK
 206              		.cfi_endproc
 207              	.LFE65:
 208              		.size	getCurtisHeartBeatCheck, .-getCurtisHeartBeatCheck
 209              		.section	.text.getAckRx,"ax",%progbits
 210              		.align	2
 211              		.global	getAckRx
 212              		.thumb
 213              		.thumb_func
 214              		.type	getAckRx, %function
 215              	getAckRx:
 216              	.LFB66:
  37:can_manga.c   **** 
  38:can_manga.c   **** uint8_t getAckRx() {
 217              		.loc 1 38 0
 218              		.cfi_startproc
 219              		@ args = 0, pretend = 0, frame = 0
 220              		@ frame_needed = 1, uses_anonymous_args = 0
 221              		@ link register save eliminated.
 222 0000 80B4     		push	{r7}
 223              		.cfi_def_cfa_offset 4
 224              		.cfi_offset 7, -4
 225 0002 00AF     		add	r7, sp, #0
 226              		.cfi_def_cfa_register 7
  39:can_manga.c   ****     return ACK_RX;
 227              		.loc 1 39 0
 228 0004 034B     		ldr	r3, .L15
 229 0006 1B78     		ldrb	r3, [r3]
 230 0008 DBB2     		uxtb	r3, r3
  40:can_manga.c   **** }
 231              		.loc 1 40 0
 232 000a 1846     		mov	r0, r3
 233 000c BD46     		mov	sp, r7
 234              		.cfi_def_cfa_register 13
 235              		@ sp needed
 236 000e 5DF8047B 		ldr	r7, [sp], #4
 237              		.cfi_restore 7
 238              		.cfi_def_cfa_offset 0
 239 0012 7047     		bx	lr
 240              	.L16:
 241              		.align	2
 242              	.L15:
 243 0014 00000000 		.word	ACK_RX
 244              		.cfi_endproc
 245              	.LFE66:
ARM GAS  D:\Windows\AppData\Local\Temp\ccEjsxEu.s 			page 6


 246              		.size	getAckRx, .-getAckRx
 247              		.section	.text.getErrorTolerance,"ax",%progbits
 248              		.align	2
 249              		.global	getErrorTolerance
 250              		.thumb
 251              		.thumb_func
 252              		.type	getErrorTolerance, %function
 253              	getErrorTolerance:
 254              	.LFB67:
  41:can_manga.c   **** 
  42:can_manga.c   **** uint8_t getErrorTolerance() {
 255              		.loc 1 42 0
 256              		.cfi_startproc
 257              		@ args = 0, pretend = 0, frame = 0
 258              		@ frame_needed = 1, uses_anonymous_args = 0
 259              		@ link register save eliminated.
 260 0000 80B4     		push	{r7}
 261              		.cfi_def_cfa_offset 4
 262              		.cfi_offset 7, -4
 263 0002 00AF     		add	r7, sp, #0
 264              		.cfi_def_cfa_register 7
  43:can_manga.c   ****     return ERROR_TOLERANCE;
 265              		.loc 1 43 0
 266 0004 034B     		ldr	r3, .L19
 267 0006 1B78     		ldrb	r3, [r3]
 268 0008 DBB2     		uxtb	r3, r3
  44:can_manga.c   **** }
 269              		.loc 1 44 0
 270 000a 1846     		mov	r0, r3
 271 000c BD46     		mov	sp, r7
 272              		.cfi_def_cfa_register 13
 273              		@ sp needed
 274 000e 5DF8047B 		ldr	r7, [sp], #4
 275              		.cfi_restore 7
 276              		.cfi_def_cfa_offset 0
 277 0012 7047     		bx	lr
 278              	.L20:
 279              		.align	2
 280              	.L19:
 281 0014 00000000 		.word	ERROR_TOLERANCE
 282              		.cfi_endproc
 283              	.LFE67:
 284              		.size	getErrorTolerance, .-getErrorTolerance
 285              		.section	.text.getABSMotorRPM,"ax",%progbits
 286              		.align	2
 287              		.global	getABSMotorRPM
 288              		.thumb
 289              		.thumb_func
 290              		.type	getABSMotorRPM, %function
 291              	getABSMotorRPM:
 292              	.LFB68:
  45:can_manga.c   **** 
  46:can_manga.c   **** uint8_t getABSMotorRPM() {
 293              		.loc 1 46 0
 294              		.cfi_startproc
 295              		@ args = 0, pretend = 0, frame = 0
 296              		@ frame_needed = 1, uses_anonymous_args = 0
ARM GAS  D:\Windows\AppData\Local\Temp\ccEjsxEu.s 			page 7


 297              		@ link register save eliminated.
 298 0000 80B4     		push	{r7}
 299              		.cfi_def_cfa_offset 4
 300              		.cfi_offset 7, -4
 301 0002 00AF     		add	r7, sp, #0
 302              		.cfi_def_cfa_register 7
  47:can_manga.c   ****     return ABS_MOTOR_RPM;
 303              		.loc 1 47 0
 304 0004 044B     		ldr	r3, .L23
 305 0006 1B88     		ldrh	r3, [r3]	@ movhi
 306 0008 9BB2     		uxth	r3, r3
 307 000a DBB2     		uxtb	r3, r3
  48:can_manga.c   **** }
 308              		.loc 1 48 0
 309 000c 1846     		mov	r0, r3
 310 000e BD46     		mov	sp, r7
 311              		.cfi_def_cfa_register 13
 312              		@ sp needed
 313 0010 5DF8047B 		ldr	r7, [sp], #4
 314              		.cfi_restore 7
 315              		.cfi_def_cfa_offset 0
 316 0014 7047     		bx	lr
 317              	.L24:
 318 0016 00BF     		.align	2
 319              	.L23:
 320 0018 00000000 		.word	ABS_MOTOR_RPM
 321              		.cfi_endproc
 322              	.LFE68:
 323              		.size	getABSMotorRPM, .-getABSMotorRPM
 324              		.section	.text.getPedalLow,"ax",%progbits
 325              		.align	2
 326              		.global	getPedalLow
 327              		.thumb
 328              		.thumb_func
 329              		.type	getPedalLow, %function
 330              	getPedalLow:
 331              	.LFB69:
  49:can_manga.c   **** 
  50:can_manga.c   **** uint8_t getPedalLow() {
 332              		.loc 1 50 0
 333              		.cfi_startproc
 334              		@ args = 0, pretend = 0, frame = 0
 335              		@ frame_needed = 1, uses_anonymous_args = 0
 336              		@ link register save eliminated.
 337 0000 80B4     		push	{r7}
 338              		.cfi_def_cfa_offset 4
 339              		.cfi_offset 7, -4
 340 0002 00AF     		add	r7, sp, #0
 341              		.cfi_def_cfa_register 7
  51:can_manga.c   ****     return THROTTLE_LOW;
 342              		.loc 1 51 0
 343 0004 034B     		ldr	r3, .L27
 344 0006 1B78     		ldrb	r3, [r3]
 345 0008 DBB2     		uxtb	r3, r3
  52:can_manga.c   **** }
 346              		.loc 1 52 0
 347 000a 1846     		mov	r0, r3
ARM GAS  D:\Windows\AppData\Local\Temp\ccEjsxEu.s 			page 8


 348 000c BD46     		mov	sp, r7
 349              		.cfi_def_cfa_register 13
 350              		@ sp needed
 351 000e 5DF8047B 		ldr	r7, [sp], #4
 352              		.cfi_restore 7
 353              		.cfi_def_cfa_offset 0
 354 0012 7047     		bx	lr
 355              	.L28:
 356              		.align	2
 357              	.L27:
 358 0014 00000000 		.word	THROTTLE_LOW
 359              		.cfi_endproc
 360              	.LFE69:
 361              		.size	getPedalLow, .-getPedalLow
 362              		.section	.text.getPedalHigh,"ax",%progbits
 363              		.align	2
 364              		.global	getPedalHigh
 365              		.thumb
 366              		.thumb_func
 367              		.type	getPedalHigh, %function
 368              	getPedalHigh:
 369              	.LFB70:
  53:can_manga.c   **** 
  54:can_manga.c   **** uint8_t getPedalHigh() {
 370              		.loc 1 54 0
 371              		.cfi_startproc
 372              		@ args = 0, pretend = 0, frame = 0
 373              		@ frame_needed = 1, uses_anonymous_args = 0
 374              		@ link register save eliminated.
 375 0000 80B4     		push	{r7}
 376              		.cfi_def_cfa_offset 4
 377              		.cfi_offset 7, -4
 378 0002 00AF     		add	r7, sp, #0
 379              		.cfi_def_cfa_register 7
  55:can_manga.c   ****     return THROTTLE_HIGH;
 380              		.loc 1 55 0
 381 0004 034B     		ldr	r3, .L31
 382 0006 1B78     		ldrb	r3, [r3]
 383 0008 DBB2     		uxtb	r3, r3
  56:can_manga.c   **** }
 384              		.loc 1 56 0
 385 000a 1846     		mov	r0, r3
 386 000c BD46     		mov	sp, r7
 387              		.cfi_def_cfa_register 13
 388              		@ sp needed
 389 000e 5DF8047B 		ldr	r7, [sp], #4
 390              		.cfi_restore 7
 391              		.cfi_def_cfa_offset 0
 392 0012 7047     		bx	lr
 393              	.L32:
 394              		.align	2
 395              	.L31:
 396 0014 00000000 		.word	THROTTLE_HIGH
 397              		.cfi_endproc
 398              	.LFE70:
 399              		.size	getPedalHigh, .-getPedalHigh
 400              		.section	.text.can_receive,"ax",%progbits
ARM GAS  D:\Windows\AppData\Local\Temp\ccEjsxEu.s 			page 9


 401              		.align	2
 402              		.global	can_receive
 403              		.thumb
 404              		.thumb_func
 405              		.type	can_receive, %function
 406              	can_receive:
 407              	.LFB71:
  57:can_manga.c   **** 
  58:can_manga.c   **** void can_receive(uint8_t *msg, int ID) {
 408              		.loc 1 58 0
 409              		.cfi_startproc
 410              		@ args = 0, pretend = 0, frame = 16
 411              		@ frame_needed = 1, uses_anonymous_args = 0
 412 0000 80B5     		push	{r7, lr}
 413              		.cfi_def_cfa_offset 8
 414              		.cfi_offset 7, -8
 415              		.cfi_offset 14, -4
 416 0002 84B0     		sub	sp, sp, #16
 417              		.cfi_def_cfa_offset 24
 418 0004 00AF     		add	r7, sp, #0
 419              		.cfi_def_cfa_register 7
 420 0006 7860     		str	r0, [r7, #4]
 421 0008 3960     		str	r1, [r7]
  59:can_manga.c   ****     uint8 InterruptState = CyEnterCriticalSection();
 422              		.loc 1 59 0
 423 000a FFF7FEFF 		bl	CyEnterCriticalSection
 424 000e 0346     		mov	r3, r0
 425 0010 FB73     		strb	r3, [r7, #15]
  60:can_manga.c   ****     
  61:can_manga.c   ****     switch (ID) {
 426              		.loc 1 61 0
 427 0012 3B68     		ldr	r3, [r7]
 428 0014 40F24722 		movw	r2, #583
 429 0018 9342     		cmp	r3, r2
 430 001a 00F08B80 		beq	.L35
 431 001e B3F5127F 		cmp	r3, #584
 432 0022 09DA     		bge	.L36
 433 0024 B3F5007F 		cmp	r3, #512
 434 0028 6AD0     		beq	.L37
 435 002a 40F20122 		movw	r2, #513
 436 002e 9342     		cmp	r3, r2
 437 0030 61D0     		beq	.L38
 438 0032 A62B     		cmp	r3, #166
 439 0034 3FD0     		beq	.L39
  62:can_manga.c   ****         case 0x566:    //Curtis Status 566
  63:can_manga.c   ****             CAPACITOR_VOLT = msg[CAN_DATA_BYTE_1];
  64:can_manga.c   ****             ABS_MOTOR_RPM = msg[CAN_DATA_BYTE_3] << 8;  //high byte
  65:can_manga.c   ****             ABS_MOTOR_RPM = ABS_MOTOR_RPM | msg[CAN_DATA_BYTE_4];       //low byte
  66:can_manga.c   ****             MTR_TEMP = msg[CAN_DATA_BYTE_5] << 8;
  67:can_manga.c   ****             MTR_TEMP = MTR_TEMP | msg[CAN_DATA_BYTE_6];
  68:can_manga.c   ****             //led_write_tach(ABS_MOTOR_RPM);
  69:can_manga.c   ****             //led_write_b2(MTR_TEMP);
  70:can_manga.c   ****             break;
  71:can_manga.c   ****         case 0x0A6:
  72:can_manga.c   ****             CURTIS_FAULT_CHECK = 0x1;
  73:can_manga.c   ****             break;
  74:can_manga.c   ****         case 0x726:
ARM GAS  D:\Windows\AppData\Local\Temp\ccEjsxEu.s 			page 10


  75:can_manga.c   ****             CURTIS_HEART_BEAT_CHECK = 0x1;
  76:can_manga.c   ****             break;
  77:can_manga.c   ****         case 0x666:    //Curtis Recieve
  78:can_manga.c   ****             ACK_RX = msg[CAN_DATA_BYTE_1];
  79:can_manga.c   ****             MTR_CTRL_TEMP = msg[CAN_DATA_BYTE_7] << 8;
  80:can_manga.c   ****             MTR_CTRL_TEMP = MTR_CTRL_TEMP | msg[CAN_DATA_BYTE_8];
  81:can_manga.c   ****             //led_write_b3(MTR_CTRL_TEMP);
  82:can_manga.c   ****             break;
  83:can_manga.c   ****         case 0x201:
  84:can_manga.c   ****             ERROR_TOLERANCE = msg[CAN_DATA_BYTE_1];
  85:can_manga.c   ****             break;
  86:can_manga.c   ****         case 0x200: 
  87:can_manga.c   ****             THROTTLE_CHECK_BIT = msg[CAN_DATA_BYTE_1];
  88:can_manga.c   ****             THROTTLE_HIGH = msg[CAN_DATA_BYTE_2];
  89:can_manga.c   ****             THROTTLE_LOW = msg[CAN_DATA_BYTE_3];
  90:can_manga.c   ****             break;
  91:can_manga.c   ****         case 0x488:     //BMS_TEMP
  92:can_manga.c   ****             BMS_TEMP = msg[CAN_DATA_BYTE_8];    //recieved as hex, read in decimal
  93:can_manga.c   ****             led_write_b1(BMS_TEMP);
  94:can_manga.c   ****             break;
  95:can_manga.c   ****         case 0x247:     //sensor_status SoC pct
  96:can_manga.c   ****             SoC = msg[CAN_DATA_BYTE_7];
  97:can_manga.c   ****             led_write_c1(SoC);
  98:can_manga.c   ****             break;
  99:can_manga.c   ****         default:
 100:can_manga.c   ****             break;
 440              		.loc 1 100 0
 441 0036 88E0     		b	.L45
 442              	.L36:
  61:can_manga.c   ****         case 0x566:    //Curtis Status 566
 443              		.loc 1 61 0
 444 0038 40F26652 		movw	r2, #1382
 445 003c 9342     		cmp	r3, r2
 446 003e 10D0     		beq	.L40
 447 0040 40F26652 		movw	r2, #1382
 448 0044 9342     		cmp	r3, r2
 449 0046 03DC     		bgt	.L41
 450 0048 B3F5916F 		cmp	r3, #1160
 451 004c 67D0     		beq	.L42
 452              		.loc 1 100 0
 453 004e 7CE0     		b	.L45
 454              	.L41:
  61:can_manga.c   ****         case 0x566:    //Curtis Status 566
 455              		.loc 1 61 0
 456 0050 40F26662 		movw	r2, #1638
 457 0054 9342     		cmp	r3, r2
 458 0056 36D0     		beq	.L43
 459 0058 40F22672 		movw	r2, #1830
 460 005c 9342     		cmp	r3, r2
 461 005e 2ED0     		beq	.L44
 462              		.loc 1 100 0
 463 0060 73E0     		b	.L45
 464              	.L40:
  63:can_manga.c   ****             ABS_MOTOR_RPM = msg[CAN_DATA_BYTE_3] << 8;  //high byte
 465              		.loc 1 63 0
 466 0062 7B68     		ldr	r3, [r7, #4]
 467 0064 DA78     		ldrb	r2, [r3, #3]	@ zero_extendqisi2
ARM GAS  D:\Windows\AppData\Local\Temp\ccEjsxEu.s 			page 11


 468 0066 3C4B     		ldr	r3, .L46
 469 0068 1A70     		strb	r2, [r3]
  64:can_manga.c   ****             ABS_MOTOR_RPM = ABS_MOTOR_RPM | msg[CAN_DATA_BYTE_4];       //low byte
 470              		.loc 1 64 0
 471 006a 7B68     		ldr	r3, [r7, #4]
 472 006c 0133     		adds	r3, r3, #1
 473 006e 1B78     		ldrb	r3, [r3]	@ zero_extendqisi2
 474 0070 9BB2     		uxth	r3, r3
 475 0072 1B02     		lsls	r3, r3, #8
 476 0074 9AB2     		uxth	r2, r3
 477 0076 394B     		ldr	r3, .L46+4
 478 0078 1A80     		strh	r2, [r3]	@ movhi
  65:can_manga.c   ****             MTR_TEMP = msg[CAN_DATA_BYTE_5] << 8;
 479              		.loc 1 65 0
 480 007a 7B68     		ldr	r3, [r7, #4]
 481 007c 1B78     		ldrb	r3, [r3]	@ zero_extendqisi2
 482 007e 9AB2     		uxth	r2, r3
 483 0080 364B     		ldr	r3, .L46+4
 484 0082 1B88     		ldrh	r3, [r3]	@ movhi
 485 0084 9BB2     		uxth	r3, r3
 486 0086 1343     		orrs	r3, r3, r2
 487 0088 9AB2     		uxth	r2, r3
 488 008a 344B     		ldr	r3, .L46+4
 489 008c 1A80     		strh	r2, [r3]	@ movhi
  66:can_manga.c   ****             MTR_TEMP = MTR_TEMP | msg[CAN_DATA_BYTE_6];
 490              		.loc 1 66 0
 491 008e 7B68     		ldr	r3, [r7, #4]
 492 0090 0733     		adds	r3, r3, #7
 493 0092 1B78     		ldrb	r3, [r3]	@ zero_extendqisi2
 494 0094 9BB2     		uxth	r3, r3
 495 0096 1B02     		lsls	r3, r3, #8
 496 0098 9AB2     		uxth	r2, r3
 497 009a 314B     		ldr	r3, .L46+8
 498 009c 1A80     		strh	r2, [r3]	@ movhi
  67:can_manga.c   ****             //led_write_tach(ABS_MOTOR_RPM);
 499              		.loc 1 67 0
 500 009e 7B68     		ldr	r3, [r7, #4]
 501 00a0 0633     		adds	r3, r3, #6
 502 00a2 1B78     		ldrb	r3, [r3]	@ zero_extendqisi2
 503 00a4 9AB2     		uxth	r2, r3
 504 00a6 2E4B     		ldr	r3, .L46+8
 505 00a8 1B88     		ldrh	r3, [r3]	@ movhi
 506 00aa 9BB2     		uxth	r3, r3
 507 00ac 1343     		orrs	r3, r3, r2
 508 00ae 9AB2     		uxth	r2, r3
 509 00b0 2B4B     		ldr	r3, .L46+8
 510 00b2 1A80     		strh	r2, [r3]	@ movhi
  70:can_manga.c   ****         case 0x0A6:
 511              		.loc 1 70 0
 512 00b4 49E0     		b	.L45
 513              	.L39:
  72:can_manga.c   ****             break;
 514              		.loc 1 72 0
 515 00b6 2B4B     		ldr	r3, .L46+12
 516 00b8 0122     		movs	r2, #1
 517 00ba 1A70     		strb	r2, [r3]
  73:can_manga.c   ****         case 0x726:
ARM GAS  D:\Windows\AppData\Local\Temp\ccEjsxEu.s 			page 12


 518              		.loc 1 73 0
 519 00bc 45E0     		b	.L45
 520              	.L44:
  75:can_manga.c   ****             break;
 521              		.loc 1 75 0
 522 00be 2A4B     		ldr	r3, .L46+16
 523 00c0 0122     		movs	r2, #1
 524 00c2 1A70     		strb	r2, [r3]
  76:can_manga.c   ****         case 0x666:    //Curtis Recieve
 525              		.loc 1 76 0
 526 00c4 41E0     		b	.L45
 527              	.L43:
  78:can_manga.c   ****             MTR_CTRL_TEMP = msg[CAN_DATA_BYTE_7] << 8;
 528              		.loc 1 78 0
 529 00c6 7B68     		ldr	r3, [r7, #4]
 530 00c8 DA78     		ldrb	r2, [r3, #3]	@ zero_extendqisi2
 531 00ca 284B     		ldr	r3, .L46+20
 532 00cc 1A70     		strb	r2, [r3]
  79:can_manga.c   ****             MTR_CTRL_TEMP = MTR_CTRL_TEMP | msg[CAN_DATA_BYTE_8];
 533              		.loc 1 79 0
 534 00ce 7B68     		ldr	r3, [r7, #4]
 535 00d0 0533     		adds	r3, r3, #5
 536 00d2 1B78     		ldrb	r3, [r3]	@ zero_extendqisi2
 537 00d4 9BB2     		uxth	r3, r3
 538 00d6 1B02     		lsls	r3, r3, #8
 539 00d8 9AB2     		uxth	r2, r3
 540 00da 254B     		ldr	r3, .L46+24
 541 00dc 1A80     		strh	r2, [r3]	@ movhi
  80:can_manga.c   ****             //led_write_b3(MTR_CTRL_TEMP);
 542              		.loc 1 80 0
 543 00de 7B68     		ldr	r3, [r7, #4]
 544 00e0 0433     		adds	r3, r3, #4
 545 00e2 1B78     		ldrb	r3, [r3]	@ zero_extendqisi2
 546 00e4 9AB2     		uxth	r2, r3
 547 00e6 224B     		ldr	r3, .L46+24
 548 00e8 1B88     		ldrh	r3, [r3]	@ movhi
 549 00ea 9BB2     		uxth	r3, r3
 550 00ec 1343     		orrs	r3, r3, r2
 551 00ee 9AB2     		uxth	r2, r3
 552 00f0 1F4B     		ldr	r3, .L46+24
 553 00f2 1A80     		strh	r2, [r3]	@ movhi
  82:can_manga.c   ****         case 0x201:
 554              		.loc 1 82 0
 555 00f4 29E0     		b	.L45
 556              	.L38:
  84:can_manga.c   ****             break;
 557              		.loc 1 84 0
 558 00f6 7B68     		ldr	r3, [r7, #4]
 559 00f8 DA78     		ldrb	r2, [r3, #3]	@ zero_extendqisi2
 560 00fa 1E4B     		ldr	r3, .L46+28
 561 00fc 1A70     		strb	r2, [r3]
  85:can_manga.c   ****         case 0x200: 
 562              		.loc 1 85 0
 563 00fe 24E0     		b	.L45
 564              	.L37:
  87:can_manga.c   ****             THROTTLE_HIGH = msg[CAN_DATA_BYTE_2];
 565              		.loc 1 87 0
ARM GAS  D:\Windows\AppData\Local\Temp\ccEjsxEu.s 			page 13


 566 0100 7B68     		ldr	r3, [r7, #4]
 567 0102 0333     		adds	r3, r3, #3
 568 0104 1B78     		ldrb	r3, [r3]	@ zero_extendqisi2
 569 0106 9AB2     		uxth	r2, r3
 570 0108 1B4B     		ldr	r3, .L46+32
 571 010a 1A80     		strh	r2, [r3]	@ movhi
  88:can_manga.c   ****             THROTTLE_LOW = msg[CAN_DATA_BYTE_3];
 572              		.loc 1 88 0
 573 010c 7B68     		ldr	r3, [r7, #4]
 574 010e 9A78     		ldrb	r2, [r3, #2]	@ zero_extendqisi2
 575 0110 1A4B     		ldr	r3, .L46+36
 576 0112 1A70     		strb	r2, [r3]
  89:can_manga.c   ****             break;
 577              		.loc 1 89 0
 578 0114 7B68     		ldr	r3, [r7, #4]
 579 0116 5A78     		ldrb	r2, [r3, #1]	@ zero_extendqisi2
 580 0118 194B     		ldr	r3, .L46+40
 581 011a 1A70     		strb	r2, [r3]
  90:can_manga.c   ****         case 0x488:     //BMS_TEMP
 582              		.loc 1 90 0
 583 011c 15E0     		b	.L45
 584              	.L42:
  92:can_manga.c   ****             led_write_b1(BMS_TEMP);
 585              		.loc 1 92 0
 586 011e 7B68     		ldr	r3, [r7, #4]
 587 0120 1A79     		ldrb	r2, [r3, #4]	@ zero_extendqisi2
 588 0122 184B     		ldr	r3, .L46+44
 589 0124 1A70     		strb	r2, [r3]
  93:can_manga.c   ****             break;
 590              		.loc 1 93 0
 591 0126 174B     		ldr	r3, .L46+44
 592 0128 1B78     		ldrb	r3, [r3]
 593 012a DBB2     		uxtb	r3, r3
 594 012c 1846     		mov	r0, r3
 595 012e FFF7FEFF 		bl	led_write_b1
  94:can_manga.c   ****         case 0x247:     //sensor_status SoC pct
 596              		.loc 1 94 0
 597 0132 0AE0     		b	.L45
 598              	.L35:
  96:can_manga.c   ****             led_write_c1(SoC);
 599              		.loc 1 96 0
 600 0134 7B68     		ldr	r3, [r7, #4]
 601 0136 5A79     		ldrb	r2, [r3, #5]	@ zero_extendqisi2
 602 0138 134B     		ldr	r3, .L46+48
 603 013a 1A70     		strb	r2, [r3]
  97:can_manga.c   ****             break;
 604              		.loc 1 97 0
 605 013c 124B     		ldr	r3, .L46+48
 606 013e 1B78     		ldrb	r3, [r3]
 607 0140 DBB2     		uxtb	r3, r3
 608 0142 1846     		mov	r0, r3
 609 0144 FFF7FEFF 		bl	led_write_c1
  98:can_manga.c   ****         default:
 610              		.loc 1 98 0
 611 0148 00BF     		nop
 612              	.L45:
 101:can_manga.c   ****     } //switch
ARM GAS  D:\Windows\AppData\Local\Temp\ccEjsxEu.s 			page 14


 102:can_manga.c   ****     CyExitCriticalSection(InterruptState);
 613              		.loc 1 102 0
 614 014a FB7B     		ldrb	r3, [r7, #15]	@ zero_extendqisi2
 615 014c 1846     		mov	r0, r3
 616 014e FFF7FEFF 		bl	CyExitCriticalSection
 103:can_manga.c   **** }
 617              		.loc 1 103 0
 618 0152 1037     		adds	r7, r7, #16
 619              		.cfi_def_cfa_offset 8
 620 0154 BD46     		mov	sp, r7
 621              		.cfi_def_cfa_register 13
 622              		@ sp needed
 623 0156 80BD     		pop	{r7, pc}
 624              	.L47:
 625              		.align	2
 626              	.L46:
 627 0158 00000000 		.word	CAPACITOR_VOLT
 628 015c 00000000 		.word	ABS_MOTOR_RPM
 629 0160 00000000 		.word	MTR_TEMP
 630 0164 00000000 		.word	CURTIS_FAULT_CHECK
 631 0168 00000000 		.word	CURTIS_HEART_BEAT_CHECK
 632 016c 00000000 		.word	ACK_RX
 633 0170 00000000 		.word	MTR_CTRL_TEMP
 634 0174 00000000 		.word	ERROR_TOLERANCE
 635 0178 00000000 		.word	THROTTLE_CHECK_BIT
 636 017c 00000000 		.word	THROTTLE_HIGH
 637 0180 00000000 		.word	THROTTLE_LOW
 638 0184 00000000 		.word	BMS_TEMP
 639 0188 00000000 		.word	SoC
 640              		.cfi_endproc
 641              	.LFE71:
 642              		.size	can_receive, .-can_receive
 643              		.section	.text.can_test_send,"ax",%progbits
 644              		.align	2
 645              		.global	can_test_send
 646              		.thumb
 647              		.thumb_func
 648              		.type	can_test_send, %function
 649              	can_test_send:
 650              	.LFB72:
 104:can_manga.c   **** 
 105:can_manga.c   **** void can_test_send()
 106:can_manga.c   **** {
 651              		.loc 1 106 0
 652              		.cfi_startproc
 653              		@ args = 0, pretend = 0, frame = 16
 654              		@ frame_needed = 1, uses_anonymous_args = 0
 655 0000 80B5     		push	{r7, lr}
 656              		.cfi_def_cfa_offset 8
 657              		.cfi_offset 7, -8
 658              		.cfi_offset 14, -4
 659 0002 84B0     		sub	sp, sp, #16
 660              		.cfi_def_cfa_offset 24
 661 0004 00AF     		add	r7, sp, #0
 662              		.cfi_def_cfa_register 7
 107:can_manga.c   ****     //CAN_1_DATA_BYTES_MSG msg;
 108:can_manga.c   ****     CAN_TX_MSG HeartB;
ARM GAS  D:\Windows\AppData\Local\Temp\ccEjsxEu.s 			page 15


 109:can_manga.c   ****     
 110:can_manga.c   ****     HeartB.id = 0x300;
 663              		.loc 1 110 0
 664 0006 4FF44073 		mov	r3, #768
 665 000a 7B60     		str	r3, [r7, #4]
 111:can_manga.c   ****     HeartB.rtr = 0;
 666              		.loc 1 111 0
 667 000c 0023     		movs	r3, #0
 668 000e 3B72     		strb	r3, [r7, #8]
 112:can_manga.c   ****     HeartB.ide = 0;
 669              		.loc 1 112 0
 670 0010 0023     		movs	r3, #0
 671 0012 7B72     		strb	r3, [r7, #9]
 113:can_manga.c   ****     HeartB.dlc = 1;
 672              		.loc 1 113 0
 673 0014 0123     		movs	r3, #1
 674 0016 BB72     		strb	r3, [r7, #10]
 114:can_manga.c   ****     
 115:can_manga.c   ****     HeartB.irq = 0;
 675              		.loc 1 115 0
 676 0018 0023     		movs	r3, #0
 677 001a FB72     		strb	r3, [r7, #11]
 116:can_manga.c   ****     
 117:can_manga.c   ****     HeartB.msg->byte[0] = (uint8) 1;
 678              		.loc 1 117 0
 679 001c FB68     		ldr	r3, [r7, #12]
 680 001e 0122     		movs	r2, #1
 681 0020 1A70     		strb	r2, [r3]
 118:can_manga.c   ****     HeartB.msg->byte[1] = (uint8) 1;
 682              		.loc 1 118 0
 683 0022 FB68     		ldr	r3, [r7, #12]
 684 0024 0122     		movs	r2, #1
 685 0026 5A70     		strb	r2, [r3, #1]
 119:can_manga.c   ****     HeartB.msg->byte[2] = (uint8) 1;
 686              		.loc 1 119 0
 687 0028 FB68     		ldr	r3, [r7, #12]
 688 002a 0122     		movs	r2, #1
 689 002c 9A70     		strb	r2, [r3, #2]
 120:can_manga.c   ****     HeartB.msg->byte[3] = (uint8) 1;
 690              		.loc 1 120 0
 691 002e FB68     		ldr	r3, [r7, #12]
 692 0030 0122     		movs	r2, #1
 693 0032 DA70     		strb	r2, [r3, #3]
 121:can_manga.c   ****     HeartB.msg->byte[4] = (uint8) 1;
 694              		.loc 1 121 0
 695 0034 FB68     		ldr	r3, [r7, #12]
 696 0036 0122     		movs	r2, #1
 697 0038 1A71     		strb	r2, [r3, #4]
 122:can_manga.c   ****     HeartB.msg->byte[5] = (uint8) 1;
 698              		.loc 1 122 0
 699 003a FB68     		ldr	r3, [r7, #12]
 700 003c 0122     		movs	r2, #1
 701 003e 5A71     		strb	r2, [r3, #5]
 123:can_manga.c   ****     HeartB.msg->byte[6] = (uint8) 1;
 702              		.loc 1 123 0
 703 0040 FB68     		ldr	r3, [r7, #12]
 704 0042 0122     		movs	r2, #1
ARM GAS  D:\Windows\AppData\Local\Temp\ccEjsxEu.s 			page 16


 705 0044 9A71     		strb	r2, [r3, #6]
 124:can_manga.c   ****     HeartB.msg->byte[7] = (uint8) 1;
 706              		.loc 1 124 0
 707 0046 FB68     		ldr	r3, [r7, #12]
 708 0048 0122     		movs	r2, #1
 709 004a DA71     		strb	r2, [r3, #7]
 125:can_manga.c   ****     
 126:can_manga.c   ****     CAN_SendMsg(&HeartB);
 710              		.loc 1 126 0
 711 004c 3B1D     		adds	r3, r7, #4
 712 004e 1846     		mov	r0, r3
 713 0050 FFF7FEFF 		bl	CAN_SendMsg
 127:can_manga.c   **** }
 714              		.loc 1 127 0
 715 0054 1037     		adds	r7, r7, #16
 716              		.cfi_def_cfa_offset 8
 717 0056 BD46     		mov	sp, r7
 718              		.cfi_def_cfa_register 13
 719              		@ sp needed
 720 0058 80BD     		pop	{r7, pc}
 721              		.cfi_endproc
 722              	.LFE72:
 723              		.size	can_test_send, .-can_test_send
 724 005a 00BF     		.section	.text.can_send,"ax",%progbits
 725              		.align	2
 726              		.global	can_send
 727              		.thumb
 728              		.thumb_func
 729              		.type	can_send, %function
 730              	can_send:
 731              	.LFB73:
 128:can_manga.c   **** 
 129:can_manga.c   **** void can_send(uint8_t data[8], uint32_t ID)
 130:can_manga.c   **** {
 732              		.loc 1 130 0
 733              		.cfi_startproc
 734              		@ args = 0, pretend = 0, frame = 32
 735              		@ frame_needed = 1, uses_anonymous_args = 0
 736 0000 80B5     		push	{r7, lr}
 737              		.cfi_def_cfa_offset 8
 738              		.cfi_offset 7, -8
 739              		.cfi_offset 14, -4
 740 0002 88B0     		sub	sp, sp, #32
 741              		.cfi_def_cfa_offset 40
 742 0004 00AF     		add	r7, sp, #0
 743              		.cfi_def_cfa_register 7
 744 0006 7860     		str	r0, [r7, #4]
 745 0008 3960     		str	r1, [r7]
 131:can_manga.c   ****     uint8_t i;
 132:can_manga.c   **** 	CAN_TX_MSG message;
 133:can_manga.c   **** 	CAN_DATA_BYTES_MSG payload;
 134:can_manga.c   **** 	message.id = ID; 
 746              		.loc 1 134 0
 747 000a 3B68     		ldr	r3, [r7]
 748 000c 3B61     		str	r3, [r7, #16]
 135:can_manga.c   **** 	message.rtr = 0;
 749              		.loc 1 135 0
ARM GAS  D:\Windows\AppData\Local\Temp\ccEjsxEu.s 			page 17


 750 000e 0023     		movs	r3, #0
 751 0010 3B75     		strb	r3, [r7, #20]
 136:can_manga.c   **** 	message.ide = 0;
 752              		.loc 1 136 0
 753 0012 0023     		movs	r3, #0
 754 0014 7B75     		strb	r3, [r7, #21]
 137:can_manga.c   **** 	message.dlc = 0x08;
 755              		.loc 1 137 0
 756 0016 0823     		movs	r3, #8
 757 0018 BB75     		strb	r3, [r7, #22]
 138:can_manga.c   **** 	message.irq = 0;
 758              		.loc 1 138 0
 759 001a 0023     		movs	r3, #0
 760 001c FB75     		strb	r3, [r7, #23]
 139:can_manga.c   **** 	message.msg = &payload;
 761              		.loc 1 139 0
 762 001e 07F10803 		add	r3, r7, #8
 763 0022 BB61     		str	r3, [r7, #24]
 140:can_manga.c   **** 	for(i=0;i<8;i++)
 764              		.loc 1 140 0
 765 0024 0023     		movs	r3, #0
 766 0026 FB77     		strb	r3, [r7, #31]
 767 0028 0CE0     		b	.L50
 768              	.L51:
 141:can_manga.c   **** 		payload.byte[i] = data[i];
 769              		.loc 1 141 0 discriminator 3
 770 002a FB7F     		ldrb	r3, [r7, #31]	@ zero_extendqisi2
 771 002c FA7F     		ldrb	r2, [r7, #31]	@ zero_extendqisi2
 772 002e 7968     		ldr	r1, [r7, #4]
 773 0030 0A44     		add	r2, r2, r1
 774 0032 1278     		ldrb	r2, [r2]	@ zero_extendqisi2
 775 0034 07F12001 		add	r1, r7, #32
 776 0038 0B44     		add	r3, r3, r1
 777 003a 03F8182C 		strb	r2, [r3, #-24]
 140:can_manga.c   **** 	for(i=0;i<8;i++)
 778              		.loc 1 140 0 discriminator 3
 779 003e FB7F     		ldrb	r3, [r7, #31]	@ zero_extendqisi2
 780 0040 0133     		adds	r3, r3, #1
 781 0042 FB77     		strb	r3, [r7, #31]
 782              	.L50:
 140:can_manga.c   **** 	for(i=0;i<8;i++)
 783              		.loc 1 140 0 is_stmt 0 discriminator 1
 784 0044 FB7F     		ldrb	r3, [r7, #31]	@ zero_extendqisi2
 785 0046 072B     		cmp	r3, #7
 786 0048 EFD9     		bls	.L51
 142:can_manga.c   **** 	CAN_SendMsg(&message); 
 787              		.loc 1 142 0 is_stmt 1
 788 004a 07F11003 		add	r3, r7, #16
 789 004e 1846     		mov	r0, r3
 790 0050 FFF7FEFF 		bl	CAN_SendMsg
 143:can_manga.c   **** }
 791              		.loc 1 143 0
 792 0054 2037     		adds	r7, r7, #32
 793              		.cfi_def_cfa_offset 8
 794 0056 BD46     		mov	sp, r7
 795              		.cfi_def_cfa_register 13
 796              		@ sp needed
ARM GAS  D:\Windows\AppData\Local\Temp\ccEjsxEu.s 			page 18


 797 0058 80BD     		pop	{r7, pc}
 798              		.cfi_endproc
 799              	.LFE73:
 800              		.size	can_send, .-can_send
 801 005a 00BF     		.section	.text.can_send_status,"ax",%progbits
 802              		.align	2
 803              		.global	can_send_status
 804              		.thumb
 805              		.thumb_func
 806              		.type	can_send_status, %function
 807              	can_send_status:
 808              	.LFB74:
 144:can_manga.c   **** 
 145:can_manga.c   **** void can_send_status(
 146:can_manga.c   ****     uint8_t state,
 147:can_manga.c   ****     uint8_t errorState)
 148:can_manga.c   **** {
 809              		.loc 1 148 0
 810              		.cfi_startproc
 811              		@ args = 0, pretend = 0, frame = 16
 812              		@ frame_needed = 1, uses_anonymous_args = 0
 813 0000 80B5     		push	{r7, lr}
 814              		.cfi_def_cfa_offset 8
 815              		.cfi_offset 7, -8
 816              		.cfi_offset 14, -4
 817 0002 84B0     		sub	sp, sp, #16
 818              		.cfi_def_cfa_offset 24
 819 0004 00AF     		add	r7, sp, #0
 820              		.cfi_def_cfa_register 7
 821 0006 0346     		mov	r3, r0
 822 0008 0A46     		mov	r2, r1
 823 000a FB71     		strb	r3, [r7, #7]
 824 000c 1346     		mov	r3, r2
 825 000e BB71     		strb	r3, [r7, #6]
 149:can_manga.c   ****     //max and min voltage means the voltage of single cell
 150:can_manga.c   ****         uint8_t data[8];
 151:can_manga.c   ****         
 152:can_manga.c   ****         data[0] = state;
 826              		.loc 1 152 0
 827 0010 FB79     		ldrb	r3, [r7, #7]
 828 0012 3B72     		strb	r3, [r7, #8]
 153:can_manga.c   ****         data[1] = errorState;
 829              		.loc 1 153 0
 830 0014 BB79     		ldrb	r3, [r7, #6]
 831 0016 7B72     		strb	r3, [r7, #9]
 154:can_manga.c   ****         
 155:can_manga.c   ****         data[2] = 0;
 832              		.loc 1 155 0
 833 0018 0023     		movs	r3, #0
 834 001a BB72     		strb	r3, [r7, #10]
 156:can_manga.c   ****         data[3] = 0;
 835              		.loc 1 156 0
 836 001c 0023     		movs	r3, #0
 837 001e FB72     		strb	r3, [r7, #11]
 157:can_manga.c   ****         
 158:can_manga.c   ****         data[4] = 0;
 838              		.loc 1 158 0
ARM GAS  D:\Windows\AppData\Local\Temp\ccEjsxEu.s 			page 19


 839 0020 0023     		movs	r3, #0
 840 0022 3B73     		strb	r3, [r7, #12]
 159:can_manga.c   ****         data[5] = 0;
 841              		.loc 1 159 0
 842 0024 0023     		movs	r3, #0
 843 0026 7B73     		strb	r3, [r7, #13]
 160:can_manga.c   ****         data[6] = 0;
 844              		.loc 1 160 0
 845 0028 0023     		movs	r3, #0
 846 002a BB73     		strb	r3, [r7, #14]
 161:can_manga.c   ****         data[7] = 0;
 847              		.loc 1 161 0
 848 002c 0023     		movs	r3, #0
 849 002e FB73     		strb	r3, [r7, #15]
 162:can_manga.c   **** 
 163:can_manga.c   ****         can_send(data, 0x626);
 850              		.loc 1 163 0
 851 0030 07F10803 		add	r3, r7, #8
 852 0034 1846     		mov	r0, r3
 853 0036 40F22661 		movw	r1, #1574
 854 003a FFF7FEFF 		bl	can_send
 164:can_manga.c   **** 
 165:can_manga.c   ****         
 166:can_manga.c   **** } // can_send_status()
 855              		.loc 1 166 0
 856 003e 1037     		adds	r7, r7, #16
 857              		.cfi_def_cfa_offset 8
 858 0040 BD46     		mov	sp, r7
 859              		.cfi_def_cfa_register 13
 860              		@ sp needed
 861 0042 80BD     		pop	{r7, pc}
 862              		.cfi_endproc
 863              	.LFE74:
 864              		.size	can_send_status, .-can_send_status
 865              		.section	.text.can_send_cmd,"ax",%progbits
 866              		.align	2
 867              		.global	can_send_cmd
 868              		.thumb
 869              		.thumb_func
 870              		.type	can_send_cmd, %function
 871              	can_send_cmd:
 872              	.LFB75:
 167:can_manga.c   **** 
 168:can_manga.c   **** void can_send_cmd(
 169:can_manga.c   ****     uint8_t SetInterlock,
 170:can_manga.c   ****     uint16_t VCL_Throttle_High,
 171:can_manga.c   ****     uint16_t VCL_Throttle_Low
 172:can_manga.c   **** )
 173:can_manga.c   **** {
 873              		.loc 1 173 0
 874              		.cfi_startproc
 875              		@ args = 0, pretend = 0, frame = 16
 876              		@ frame_needed = 1, uses_anonymous_args = 0
 877 0000 80B5     		push	{r7, lr}
 878              		.cfi_def_cfa_offset 8
 879              		.cfi_offset 7, -8
 880              		.cfi_offset 14, -4
ARM GAS  D:\Windows\AppData\Local\Temp\ccEjsxEu.s 			page 20


 881 0002 84B0     		sub	sp, sp, #16
 882              		.cfi_def_cfa_offset 24
 883 0004 00AF     		add	r7, sp, #0
 884              		.cfi_def_cfa_register 7
 885 0006 0346     		mov	r3, r0
 886 0008 FB71     		strb	r3, [r7, #7]
 887 000a 0B46     		mov	r3, r1	@ movhi
 888 000c BB80     		strh	r3, [r7, #4]	@ movhi
 889 000e 1346     		mov	r3, r2	@ movhi
 890 0010 7B80     		strh	r3, [r7, #2]	@ movhi
 174:can_manga.c   ****     //max and min voltage means the voltage of single cell
 175:can_manga.c   ****         
 176:can_manga.c   ****         uint8_t data[8];
 177:can_manga.c   ****         
 178:can_manga.c   ****         data[0] = SetInterlock;
 891              		.loc 1 178 0
 892 0012 FB79     		ldrb	r3, [r7, #7]
 893 0014 3B72     		strb	r3, [r7, #8]
 179:can_manga.c   ****         
 180:can_manga.c   ****         data[1] = VCL_Throttle_High;
 894              		.loc 1 180 0
 895 0016 BB88     		ldrh	r3, [r7, #4]	@ movhi
 896 0018 DBB2     		uxtb	r3, r3
 897 001a 7B72     		strb	r3, [r7, #9]
 181:can_manga.c   ****         data[2] = VCL_Throttle_Low;
 898              		.loc 1 181 0
 899 001c 7B88     		ldrh	r3, [r7, #2]	@ movhi
 900 001e DBB2     		uxtb	r3, r3
 901 0020 BB72     		strb	r3, [r7, #10]
 182:can_manga.c   ****         
 183:can_manga.c   ****         data[3] = 0;
 902              		.loc 1 183 0
 903 0022 0023     		movs	r3, #0
 904 0024 FB72     		strb	r3, [r7, #11]
 184:can_manga.c   ****         data[4] = 0;
 905              		.loc 1 184 0
 906 0026 0023     		movs	r3, #0
 907 0028 3B73     		strb	r3, [r7, #12]
 185:can_manga.c   ****         
 186:can_manga.c   ****         data[5] = 0;
 908              		.loc 1 186 0
 909 002a 0023     		movs	r3, #0
 910 002c 7B73     		strb	r3, [r7, #13]
 187:can_manga.c   ****         data[6] = 0;
 911              		.loc 1 187 0
 912 002e 0023     		movs	r3, #0
 913 0030 BB73     		strb	r3, [r7, #14]
 188:can_manga.c   ****         data[7] = 0;
 914              		.loc 1 188 0
 915 0032 0023     		movs	r3, #0
 916 0034 FB73     		strb	r3, [r7, #15]
 189:can_manga.c   **** 
 190:can_manga.c   ****         can_send(data, 0x766);
 917              		.loc 1 190 0
 918 0036 07F10803 		add	r3, r7, #8
 919 003a 1846     		mov	r0, r3
 920 003c 40F26671 		movw	r1, #1894
ARM GAS  D:\Windows\AppData\Local\Temp\ccEjsxEu.s 			page 21


 921 0040 FFF7FEFF 		bl	can_send
 191:can_manga.c   ****         CyDelay(1);
 922              		.loc 1 191 0
 923 0044 0120     		movs	r0, #1
 924 0046 FFF7FEFF 		bl	CyDelay
 192:can_manga.c   **** 
 193:can_manga.c   **** } // can_send_cmd()
 925              		.loc 1 193 0
 926 004a 1037     		adds	r7, r7, #16
 927              		.cfi_def_cfa_offset 8
 928 004c BD46     		mov	sp, r7
 929              		.cfi_def_cfa_register 13
 930              		@ sp needed
 931 004e 80BD     		pop	{r7, pc}
 932              		.cfi_endproc
 933              	.LFE75:
 934              		.size	can_send_cmd, .-can_send_cmd
 935              		.text
 936              	.Letext0:
 937              		.file 2 "d:\\programming\\cypress\\psoc creator\\4.0\\psoc creator\\import\\gnu\\arm\\4.9.3\\arm-n
 938              		.file 3 "d:\\programming\\cypress\\psoc creator\\4.0\\psoc creator\\import\\gnu\\arm\\4.9.3\\arm-n
 939              		.file 4 "Generated_Source\\PSoC5/cytypes.h"
 940              		.file 5 "Generated_Source\\PSoC5/CAN.h"
 941              		.file 6 "Generated_Source\\PSoC5/core_cm3.h"