ARM GAS  D:\Windows\AppData\Local\Temp\ccxctkJs.s 			page 1


   1              		.syntax unified
   2              		.cpu cortex-m3
   3              		.fpu softvfp
   4              		.eabi_attribute 20, 1
   5              		.eabi_attribute 21, 1
   6              		.eabi_attribute 23, 3
   7              		.eabi_attribute 24, 1
   8              		.eabi_attribute 25, 1
   9              		.eabi_attribute 26, 1
  10              		.eabi_attribute 30, 6
  11              		.eabi_attribute 34, 1
  12              		.eabi_attribute 18, 4
  13              		.thumb
  14              		.file	"CAN_TX_RX_func.c"
  15              		.text
  16              	.Ltext0:
  17              		.cfi_sections	.debug_frame
  18              		.section	.text.CAN_SendMsg,"ax",%progbits
  19              		.align	2
  20              		.global	CAN_SendMsg
  21              		.thumb
  22              		.thumb_func
  23              		.type	CAN_SendMsg, %function
  24              	CAN_SendMsg:
  25              	.LFB0:
  26              		.file 1 "Generated_Source\\PSoC5\\CAN_TX_RX_func.c"
   1:Generated_Source\PSoC5/CAN_TX_RX_func.c **** /*******************************************************************************
   2:Generated_Source\PSoC5/CAN_TX_RX_func.c **** * File Name: CAN_TX_RX_func.c
   3:Generated_Source\PSoC5/CAN_TX_RX_func.c **** * Version 3.0
   4:Generated_Source\PSoC5/CAN_TX_RX_func.c **** *
   5:Generated_Source\PSoC5/CAN_TX_RX_func.c **** * Description:
   6:Generated_Source\PSoC5/CAN_TX_RX_func.c **** *  There are functions process "Full" Receive and Transmit mailboxes:
   7:Generated_Source\PSoC5/CAN_TX_RX_func.c **** *     - CAN_SendMsg0-7();
   8:Generated_Source\PSoC5/CAN_TX_RX_func.c **** *     - CAN_ReceiveMsg0-15();
   9:Generated_Source\PSoC5/CAN_TX_RX_func.c **** *  Transmission of message, and receive routine for "Basic" mailboxes:
  10:Generated_Source\PSoC5/CAN_TX_RX_func.c **** *     - CAN_SendMsg();
  11:Generated_Source\PSoC5/CAN_TX_RX_func.c **** *     - CAN_TxCancel();
  12:Generated_Source\PSoC5/CAN_TX_RX_func.c **** *     - CAN_ReceiveMsg();
  13:Generated_Source\PSoC5/CAN_TX_RX_func.c **** *
  14:Generated_Source\PSoC5/CAN_TX_RX_func.c **** *  Note:
  15:Generated_Source\PSoC5/CAN_TX_RX_func.c **** *   None
  16:Generated_Source\PSoC5/CAN_TX_RX_func.c **** *
  17:Generated_Source\PSoC5/CAN_TX_RX_func.c **** ********************************************************************************
  18:Generated_Source\PSoC5/CAN_TX_RX_func.c **** * Copyright 2008-2015, Cypress Semiconductor Corporation.  All rights reserved.
  19:Generated_Source\PSoC5/CAN_TX_RX_func.c **** * You may use this file only in accordance with the license, terms, conditions,
  20:Generated_Source\PSoC5/CAN_TX_RX_func.c **** * disclaimers, and limitations in the end user license agreement accompanying
  21:Generated_Source\PSoC5/CAN_TX_RX_func.c **** * the software package with which this file was provided.
  22:Generated_Source\PSoC5/CAN_TX_RX_func.c **** *******************************************************************************/
  23:Generated_Source\PSoC5/CAN_TX_RX_func.c **** 
  24:Generated_Source\PSoC5/CAN_TX_RX_func.c **** #include "CAN.h"
  25:Generated_Source\PSoC5/CAN_TX_RX_func.c **** #include "cyapicallbacks.h"
  26:Generated_Source\PSoC5/CAN_TX_RX_func.c **** 
  27:Generated_Source\PSoC5/CAN_TX_RX_func.c **** /* `#START TX_RX_FUNCTION` */
  28:Generated_Source\PSoC5/CAN_TX_RX_func.c **** #include "can_manga.h"
  29:Generated_Source\PSoC5/CAN_TX_RX_func.c **** 
  30:Generated_Source\PSoC5/CAN_TX_RX_func.c **** #define buffer_LEN 8
  31:Generated_Source\PSoC5/CAN_TX_RX_func.c **** extern uint8_t can_buffer[];
ARM GAS  D:\Windows\AppData\Local\Temp\ccxctkJs.s 			page 2


  32:Generated_Source\PSoC5/CAN_TX_RX_func.c **** /* `#END` */
  33:Generated_Source\PSoC5/CAN_TX_RX_func.c **** 
  34:Generated_Source\PSoC5/CAN_TX_RX_func.c **** 
  35:Generated_Source\PSoC5/CAN_TX_RX_func.c **** /*******************************************************************************
  36:Generated_Source\PSoC5/CAN_TX_RX_func.c **** * FUNCTION NAME:   CAN_SendMsg
  37:Generated_Source\PSoC5/CAN_TX_RX_func.c **** ********************************************************************************
  38:Generated_Source\PSoC5/CAN_TX_RX_func.c **** *
  39:Generated_Source\PSoC5/CAN_TX_RX_func.c **** * Summary:
  40:Generated_Source\PSoC5/CAN_TX_RX_func.c **** *  This function is Send Message from one of Basic mailboxes. The function loops
  41:Generated_Source\PSoC5/CAN_TX_RX_func.c **** *  through the transmit message buffer designed as Basic CAN mailboxes for the
  42:Generated_Source\PSoC5/CAN_TX_RX_func.c **** *  first free available and sends from it. The number of retries is limited.
  43:Generated_Source\PSoC5/CAN_TX_RX_func.c **** *
  44:Generated_Source\PSoC5/CAN_TX_RX_func.c **** * Parameters:
  45:Generated_Source\PSoC5/CAN_TX_RX_func.c **** *  message: The pointer to a structure that contains all required data to send
  46:Generated_Source\PSoC5/CAN_TX_RX_func.c **** *           messages.
  47:Generated_Source\PSoC5/CAN_TX_RX_func.c **** *
  48:Generated_Source\PSoC5/CAN_TX_RX_func.c **** * Return:
  49:Generated_Source\PSoC5/CAN_TX_RX_func.c **** *  Indication if message has been sent.
  50:Generated_Source\PSoC5/CAN_TX_RX_func.c **** *   Define                             Description
  51:Generated_Source\PSoC5/CAN_TX_RX_func.c **** *    CYRET_SUCCESS                      The function passed successfully
  52:Generated_Source\PSoC5/CAN_TX_RX_func.c **** *    CAN_FAIL              The function failed
  53:Generated_Source\PSoC5/CAN_TX_RX_func.c **** *
  54:Generated_Source\PSoC5/CAN_TX_RX_func.c **** *******************************************************************************/
  55:Generated_Source\PSoC5/CAN_TX_RX_func.c **** uint8 CAN_SendMsg(const CAN_TX_MSG *message) 
  56:Generated_Source\PSoC5/CAN_TX_RX_func.c **** {
  27              		.loc 1 56 0
  28              		.cfi_startproc
  29              		@ args = 0, pretend = 0, frame = 24
  30              		@ frame_needed = 1, uses_anonymous_args = 0
  31              		@ link register save eliminated.
  32 0000 80B4     		push	{r7}
  33              		.cfi_def_cfa_offset 4
  34              		.cfi_offset 7, -4
  35 0002 87B0     		sub	sp, sp, #28
  36              		.cfi_def_cfa_offset 32
  37 0004 00AF     		add	r7, sp, #0
  38              		.cfi_def_cfa_register 7
  39 0006 7860     		str	r0, [r7, #4]
  57:Generated_Source\PSoC5/CAN_TX_RX_func.c ****     uint8 i, j, shift;
  58:Generated_Source\PSoC5/CAN_TX_RX_func.c ****     uint8 retry = 0u;
  40              		.loc 1 58 0
  41 0008 0023     		movs	r3, #0
  42 000a 3B75     		strb	r3, [r7, #20]
  59:Generated_Source\PSoC5/CAN_TX_RX_func.c ****     uint8 result = CAN_FAIL;
  43              		.loc 1 59 0
  44 000c 0123     		movs	r3, #1
  45 000e FB74     		strb	r3, [r7, #19]
  60:Generated_Source\PSoC5/CAN_TX_RX_func.c ****     uint32 regTemp;
  61:Generated_Source\PSoC5/CAN_TX_RX_func.c **** 
  62:Generated_Source\PSoC5/CAN_TX_RX_func.c ****     while (retry < CAN_RETRY_NUMBER)
  46              		.loc 1 62 0
  47 0010 A2E0     		b	.L2
  48              	.L21:
  63:Generated_Source\PSoC5/CAN_TX_RX_func.c ****     {
  64:Generated_Source\PSoC5/CAN_TX_RX_func.c ****         shift = 1u;    /* Start from first mailbox */
  49              		.loc 1 64 0
  50 0012 0123     		movs	r3, #1
ARM GAS  D:\Windows\AppData\Local\Temp\ccxctkJs.s 			page 3


  51 0014 7B75     		strb	r3, [r7, #21]
  65:Generated_Source\PSoC5/CAN_TX_RX_func.c ****         for (i = 0u; i < CAN_NUMBER_OF_TX_MAILBOXES; i++)
  52              		.loc 1 65 0
  53 0016 0023     		movs	r3, #0
  54 0018 FB75     		strb	r3, [r7, #23]
  55 001a 92E0     		b	.L3
  56              	.L18:
  66:Generated_Source\PSoC5/CAN_TX_RX_func.c ****         {
  67:Generated_Source\PSoC5/CAN_TX_RX_func.c ****             /* Find Basic TX mailboxes */
  68:Generated_Source\PSoC5/CAN_TX_RX_func.c ****             if ((CAN_TX_MAILBOX_TYPE & shift) == 0u)
  57              		.loc 1 68 0
  58 001c 7B7D     		ldrb	r3, [r7, #21]
  59 001e 03F00303 		and	r3, r3, #3
  60 0022 DBB2     		uxtb	r3, r3
  61 0024 002B     		cmp	r3, #0
  62 0026 40F08280 		bne	.L4
  69:Generated_Source\PSoC5/CAN_TX_RX_func.c ****             {
  70:Generated_Source\PSoC5/CAN_TX_RX_func.c ****                 /* Find free mailbox */
  71:Generated_Source\PSoC5/CAN_TX_RX_func.c ****                 #if (CY_PSOC3 || CY_PSOC5)
  72:Generated_Source\PSoC5/CAN_TX_RX_func.c ****                     if ((CAN_BUF_SR_REG.byte[2] & shift) == 0u)
  63              		.loc 1 72 0
  64 002a 514B     		ldr	r3, .L23
  65 002c 9B78     		ldrb	r3, [r3, #2]
  66 002e DAB2     		uxtb	r2, r3
  67 0030 7B7D     		ldrb	r3, [r7, #21]
  68 0032 1340     		ands	r3, r3, r2
  69 0034 DBB2     		uxtb	r3, r3
  70 0036 002B     		cmp	r3, #0
  71 0038 79D1     		bne	.L4
  73:Generated_Source\PSoC5/CAN_TX_RX_func.c ****                 #else  /* CY_PSOC4 */
  74:Generated_Source\PSoC5/CAN_TX_RX_func.c ****                     if ((CAN_BUF_SR_REG &
  75:Generated_Source\PSoC5/CAN_TX_RX_func.c ****                         (uint32) ((uint32) shift << CAN_TWO_BYTE_OFFSET)) == 0u)
  76:Generated_Source\PSoC5/CAN_TX_RX_func.c ****                 #endif /* CY_PSOC3 || CY_PSOC5 */
  77:Generated_Source\PSoC5/CAN_TX_RX_func.c ****                     {
  78:Generated_Source\PSoC5/CAN_TX_RX_func.c ****                         regTemp = 0u;
  72              		.loc 1 78 0
  73 003a 0023     		movs	r3, #0
  74 003c FB60     		str	r3, [r7, #12]
  79:Generated_Source\PSoC5/CAN_TX_RX_func.c **** 
  80:Generated_Source\PSoC5/CAN_TX_RX_func.c ****                         /* Set message parameters */
  81:Generated_Source\PSoC5/CAN_TX_RX_func.c ****                         if (message->rtr != CAN_STANDARD_MESSAGE)
  75              		.loc 1 81 0
  76 003e 7B68     		ldr	r3, [r7, #4]
  77 0040 1B79     		ldrb	r3, [r3, #4]	@ zero_extendqisi2
  78 0042 002B     		cmp	r3, #0
  79 0044 02D0     		beq	.L5
  82:Generated_Source\PSoC5/CAN_TX_RX_func.c ****                         {
  83:Generated_Source\PSoC5/CAN_TX_RX_func.c ****                             regTemp = CAN_TX_RTR_MASK;    /* RTR message Enable */
  80              		.loc 1 83 0
  81 0046 4FF40013 		mov	r3, #2097152
  82 004a FB60     		str	r3, [r7, #12]
  83              	.L5:
  84:Generated_Source\PSoC5/CAN_TX_RX_func.c ****                         }
  85:Generated_Source\PSoC5/CAN_TX_RX_func.c **** 
  86:Generated_Source\PSoC5/CAN_TX_RX_func.c ****                         if (message->ide == CAN_STANDARD_MESSAGE)
  84              		.loc 1 86 0
  85 004c 7B68     		ldr	r3, [r7, #4]
ARM GAS  D:\Windows\AppData\Local\Temp\ccxctkJs.s 			page 4


  86 004e 5B79     		ldrb	r3, [r3, #5]	@ zero_extendqisi2
  87 0050 002B     		cmp	r3, #0
  88 0052 09D1     		bne	.L6
  87:Generated_Source\PSoC5/CAN_TX_RX_func.c ****                         {
  88:Generated_Source\PSoC5/CAN_TX_RX_func.c ****                             CAN_SET_TX_ID_STANDARD_MSG(i, message->id);
  89              		.loc 1 88 0
  90 0054 FB7D     		ldrb	r3, [r7, #23]	@ zero_extendqisi2
  91 0056 1A01     		lsls	r2, r3, #4
  92 0058 464B     		ldr	r3, .L23+4
  93 005a 1344     		add	r3, r3, r2
  94 005c 0433     		adds	r3, r3, #4
  95 005e 7A68     		ldr	r2, [r7, #4]
  96 0060 1268     		ldr	r2, [r2]
  97 0062 5205     		lsls	r2, r2, #21
  98 0064 1A60     		str	r2, [r3]
  99 0066 0CE0     		b	.L7
 100              	.L6:
  89:Generated_Source\PSoC5/CAN_TX_RX_func.c ****                         }
  90:Generated_Source\PSoC5/CAN_TX_RX_func.c ****                         else
  91:Generated_Source\PSoC5/CAN_TX_RX_func.c ****                         {
  92:Generated_Source\PSoC5/CAN_TX_RX_func.c ****                             regTemp |= CAN_TX_IDE_MASK;
 101              		.loc 1 92 0
 102 0068 FB68     		ldr	r3, [r7, #12]
 103 006a 43F48013 		orr	r3, r3, #1048576
 104 006e FB60     		str	r3, [r7, #12]
  93:Generated_Source\PSoC5/CAN_TX_RX_func.c ****                             CAN_SET_TX_ID_EXTENDED_MSG(i, message->id);
 105              		.loc 1 93 0
 106 0070 FB7D     		ldrb	r3, [r7, #23]	@ zero_extendqisi2
 107 0072 1A01     		lsls	r2, r3, #4
 108 0074 3F4B     		ldr	r3, .L23+4
 109 0076 1344     		add	r3, r3, r2
 110 0078 0433     		adds	r3, r3, #4
 111 007a 7A68     		ldr	r2, [r7, #4]
 112 007c 1268     		ldr	r2, [r2]
 113 007e D200     		lsls	r2, r2, #3
 114 0080 1A60     		str	r2, [r3]
 115              	.L7:
  94:Generated_Source\PSoC5/CAN_TX_RX_func.c ****                         }
  95:Generated_Source\PSoC5/CAN_TX_RX_func.c **** 
  96:Generated_Source\PSoC5/CAN_TX_RX_func.c ****                         if (message->dlc < CAN_TX_DLC_MAX_VALUE)
 116              		.loc 1 96 0
 117 0082 7B68     		ldr	r3, [r7, #4]
 118 0084 9B79     		ldrb	r3, [r3, #6]	@ zero_extendqisi2
 119 0086 072B     		cmp	r3, #7
 120 0088 06D8     		bhi	.L8
  97:Generated_Source\PSoC5/CAN_TX_RX_func.c ****                         {
  98:Generated_Source\PSoC5/CAN_TX_RX_func.c ****                             regTemp |= ((uint32) message->dlc) << CAN_TWO_BYTE_OFFSET;
 121              		.loc 1 98 0
 122 008a 7B68     		ldr	r3, [r7, #4]
 123 008c 9B79     		ldrb	r3, [r3, #6]	@ zero_extendqisi2
 124 008e 1B04     		lsls	r3, r3, #16
 125 0090 FA68     		ldr	r2, [r7, #12]
 126 0092 1343     		orrs	r3, r3, r2
 127 0094 FB60     		str	r3, [r7, #12]
 128 0096 03E0     		b	.L9
 129              	.L8:
  99:Generated_Source\PSoC5/CAN_TX_RX_func.c ****                         }
ARM GAS  D:\Windows\AppData\Local\Temp\ccxctkJs.s 			page 5


 100:Generated_Source\PSoC5/CAN_TX_RX_func.c ****                         else
 101:Generated_Source\PSoC5/CAN_TX_RX_func.c ****                         {
 102:Generated_Source\PSoC5/CAN_TX_RX_func.c ****                             regTemp |= CAN_TX_DLC_UPPER_VALUE;
 130              		.loc 1 102 0
 131 0098 FB68     		ldr	r3, [r7, #12]
 132 009a 43F40023 		orr	r3, r3, #524288
 133 009e FB60     		str	r3, [r7, #12]
 134              	.L9:
 103:Generated_Source\PSoC5/CAN_TX_RX_func.c ****                         }
 104:Generated_Source\PSoC5/CAN_TX_RX_func.c **** 
 105:Generated_Source\PSoC5/CAN_TX_RX_func.c ****                         if (message->irq != CAN_TRANSMIT_INT_DISABLE)
 135              		.loc 1 105 0
 136 00a0 7B68     		ldr	r3, [r7, #4]
 137 00a2 DB79     		ldrb	r3, [r3, #7]	@ zero_extendqisi2
 138 00a4 002B     		cmp	r3, #0
 139 00a6 03D0     		beq	.L10
 106:Generated_Source\PSoC5/CAN_TX_RX_func.c ****                         {
 107:Generated_Source\PSoC5/CAN_TX_RX_func.c ****                             regTemp |= CAN_TX_INT_ENABLE_MASK;    /* Transmit Interrupt Enable */
 140              		.loc 1 107 0
 141 00a8 FB68     		ldr	r3, [r7, #12]
 142 00aa 43F00403 		orr	r3, r3, #4
 143 00ae FB60     		str	r3, [r7, #12]
 144              	.L10:
 108:Generated_Source\PSoC5/CAN_TX_RX_func.c ****                         }
 109:Generated_Source\PSoC5/CAN_TX_RX_func.c **** 
 110:Generated_Source\PSoC5/CAN_TX_RX_func.c ****                         for (j = 0u; (j < message->dlc) && (j < CAN_TX_DLC_MAX_VALUE); j++)
 145              		.loc 1 110 0
 146 00b0 0023     		movs	r3, #0
 147 00b2 BB75     		strb	r3, [r7, #22]
 148 00b4 17E0     		b	.L11
 149              	.L15:
 111:Generated_Source\PSoC5/CAN_TX_RX_func.c ****                         {
 112:Generated_Source\PSoC5/CAN_TX_RX_func.c ****                             #if (CY_PSOC3 || CY_PSOC5)
 113:Generated_Source\PSoC5/CAN_TX_RX_func.c ****                                 CAN_TX_DATA_BYTE(i, j) = message->msg->byte[j];
 150              		.loc 1 113 0
 151 00b6 FB7D     		ldrb	r3, [r7, #23]	@ zero_extendqisi2
 152 00b8 1A01     		lsls	r2, r3, #4
 153 00ba 2E4B     		ldr	r3, .L23+4
 154 00bc 1344     		add	r3, r3, r2
 155 00be BA7D     		ldrb	r2, [r7, #22]	@ zero_extendqisi2
 156 00c0 032A     		cmp	r2, #3
 157 00c2 03D9     		bls	.L12
 158              		.loc 1 113 0 is_stmt 0 discriminator 1
 159 00c4 BA7D     		ldrb	r2, [r7, #22]	@ zero_extendqisi2
 160 00c6 C2F10B02 		rsb	r2, r2, #11
 161 00ca 02E0     		b	.L13
 162              	.L12:
 163              		.loc 1 113 0 discriminator 2
 164 00cc BA7D     		ldrb	r2, [r7, #22]	@ zero_extendqisi2
 165 00ce C2F10302 		rsb	r2, r2, #3
 166              	.L13:
 167              		.loc 1 113 0 discriminator 4
 168 00d2 7968     		ldr	r1, [r7, #4]
 169 00d4 8868     		ldr	r0, [r1, #8]
 170 00d6 B97D     		ldrb	r1, [r7, #22]	@ zero_extendqisi2
 171 00d8 415C     		ldrb	r1, [r0, r1]	@ zero_extendqisi2
 172 00da 1344     		add	r3, r3, r2
ARM GAS  D:\Windows\AppData\Local\Temp\ccxctkJs.s 			page 6


 173 00dc 0A46     		mov	r2, r1
 174 00de 1A72     		strb	r2, [r3, #8]
 110:Generated_Source\PSoC5/CAN_TX_RX_func.c ****                         {
 175              		.loc 1 110 0 is_stmt 1 discriminator 4
 176 00e0 BB7D     		ldrb	r3, [r7, #22]	@ zero_extendqisi2
 177 00e2 0133     		adds	r3, r3, #1
 178 00e4 BB75     		strb	r3, [r7, #22]
 179              	.L11:
 110:Generated_Source\PSoC5/CAN_TX_RX_func.c ****                         {
 180              		.loc 1 110 0 is_stmt 0 discriminator 2
 181 00e6 7B68     		ldr	r3, [r7, #4]
 182 00e8 9B79     		ldrb	r3, [r3, #6]	@ zero_extendqisi2
 183 00ea BA7D     		ldrb	r2, [r7, #22]	@ zero_extendqisi2
 184 00ec 9A42     		cmp	r2, r3
 185 00ee 02D2     		bcs	.L14
 110:Generated_Source\PSoC5/CAN_TX_RX_func.c ****                         {
 186              		.loc 1 110 0 discriminator 3
 187 00f0 BB7D     		ldrb	r3, [r7, #22]	@ zero_extendqisi2
 188 00f2 072B     		cmp	r3, #7
 189 00f4 DFD9     		bls	.L15
 190              	.L14:
 114:Generated_Source\PSoC5/CAN_TX_RX_func.c ****                             #else /* CY_PSOC4 */
 115:Generated_Source\PSoC5/CAN_TX_RX_func.c ****                                 CAN_TX_DATA_BYTE(i, j, message->msg->byte[j]);
 116:Generated_Source\PSoC5/CAN_TX_RX_func.c ****                             #endif /* CY_PSOC3 || CY_PSOC5 */
 117:Generated_Source\PSoC5/CAN_TX_RX_func.c ****                         }
 118:Generated_Source\PSoC5/CAN_TX_RX_func.c **** 
 119:Generated_Source\PSoC5/CAN_TX_RX_func.c ****                         /* Disable isr */
 120:Generated_Source\PSoC5/CAN_TX_RX_func.c ****     CyIntDisable(CAN_ISR_NUMBER);
 191              		.loc 1 120 0 is_stmt 1
 192 00f6 204B     		ldr	r3, .L23+8
 193 00f8 4FF48032 		mov	r2, #65536
 194 00fc 1A60     		str	r2, [r3]
 121:Generated_Source\PSoC5/CAN_TX_RX_func.c **** 
 122:Generated_Source\PSoC5/CAN_TX_RX_func.c ****                         /* WPN[23] and WPN[3] set to 1 for write to CAN Control reg */
 123:Generated_Source\PSoC5/CAN_TX_RX_func.c ****                         CY_SET_REG32(CAN_TX_CMD_PTR(i), (regTemp | CAN_TX_WPN_SET));
 195              		.loc 1 123 0
 196 00fe FB7D     		ldrb	r3, [r7, #23]	@ zero_extendqisi2
 197 0100 1A01     		lsls	r2, r3, #4
 198 0102 1C4B     		ldr	r3, .L23+4
 199 0104 1344     		add	r3, r3, r2
 200 0106 1A46     		mov	r2, r3
 201 0108 FB68     		ldr	r3, [r7, #12]
 202 010a 43F40003 		orr	r3, r3, #8388608
 203 010e 43F00803 		orr	r3, r3, #8
 204 0112 1360     		str	r3, [r2]
 124:Generated_Source\PSoC5/CAN_TX_RX_func.c **** 
 125:Generated_Source\PSoC5/CAN_TX_RX_func.c ****                         #if (CY_PSOC3 || CY_PSOC5)
 126:Generated_Source\PSoC5/CAN_TX_RX_func.c ****                             CY_SET_REG32(CAN_TX_CMD_PTR(i), CAN_SEND_MESSAGE);
 205              		.loc 1 126 0
 206 0114 FB7D     		ldrb	r3, [r7, #23]	@ zero_extendqisi2
 207 0116 1A01     		lsls	r2, r3, #4
 208 0118 164B     		ldr	r3, .L23+4
 209 011a 1344     		add	r3, r3, r2
 210 011c 1A46     		mov	r2, r3
 211 011e 0123     		movs	r3, #1
 212 0120 1360     		str	r3, [r2]
 127:Generated_Source\PSoC5/CAN_TX_RX_func.c ****                         #else /* CY_PSOC4 */
ARM GAS  D:\Windows\AppData\Local\Temp\ccxctkJs.s 			page 7


 128:Generated_Source\PSoC5/CAN_TX_RX_func.c ****                             if (message->sst != CAN_STANDARD_MESSAGE)
 129:Generated_Source\PSoC5/CAN_TX_RX_func.c ****                             {
 130:Generated_Source\PSoC5/CAN_TX_RX_func.c ****                                 /* Single Shot Transmission */
 131:Generated_Source\PSoC5/CAN_TX_RX_func.c ****                                 CAN_TX_CMD_REG(i) |= CAN_SEND_MESSAGE |
 132:Generated_Source\PSoC5/CAN_TX_RX_func.c ****                                 CAN_TX_ABORT_MASK;
 133:Generated_Source\PSoC5/CAN_TX_RX_func.c ****                             }
 134:Generated_Source\PSoC5/CAN_TX_RX_func.c ****                             else
 135:Generated_Source\PSoC5/CAN_TX_RX_func.c ****                             {
 136:Generated_Source\PSoC5/CAN_TX_RX_func.c ****                                 CAN_TX_CMD_REG(i) |= CAN_SEND_MESSAGE;
 137:Generated_Source\PSoC5/CAN_TX_RX_func.c ****                             }
 138:Generated_Source\PSoC5/CAN_TX_RX_func.c ****                         #endif /* CY_PSOC3 || CY_PSOC5 */
 139:Generated_Source\PSoC5/CAN_TX_RX_func.c **** 
 140:Generated_Source\PSoC5/CAN_TX_RX_func.c ****                         /* Enable isr */
 141:Generated_Source\PSoC5/CAN_TX_RX_func.c ****     CyIntEnable(CAN_ISR_NUMBER);
 213              		.loc 1 141 0
 214 0122 164B     		ldr	r3, .L23+12
 215 0124 4FF48032 		mov	r2, #65536
 216 0128 1A60     		str	r2, [r3]
 142:Generated_Source\PSoC5/CAN_TX_RX_func.c **** 
 143:Generated_Source\PSoC5/CAN_TX_RX_func.c ****                         result = CYRET_SUCCESS;
 217              		.loc 1 143 0
 218 012a 0023     		movs	r3, #0
 219 012c FB74     		strb	r3, [r7, #19]
 220              	.L4:
 144:Generated_Source\PSoC5/CAN_TX_RX_func.c ****                     }
 145:Generated_Source\PSoC5/CAN_TX_RX_func.c ****             }
 146:Generated_Source\PSoC5/CAN_TX_RX_func.c ****             shift <<= 1u;
 221              		.loc 1 146 0
 222 012e 7B7D     		ldrb	r3, [r7, #21]
 223 0130 5B00     		lsls	r3, r3, #1
 224 0132 7B75     		strb	r3, [r7, #21]
 147:Generated_Source\PSoC5/CAN_TX_RX_func.c ****             if (result == CYRET_SUCCESS)
 225              		.loc 1 147 0
 226 0134 FB7C     		ldrb	r3, [r7, #19]	@ zero_extendqisi2
 227 0136 002B     		cmp	r3, #0
 228 0138 00D1     		bne	.L16
 148:Generated_Source\PSoC5/CAN_TX_RX_func.c ****             {
 149:Generated_Source\PSoC5/CAN_TX_RX_func.c ****                 break;
 229              		.loc 1 149 0
 230 013a 06E0     		b	.L17
 231              	.L16:
  65:Generated_Source\PSoC5/CAN_TX_RX_func.c ****         {
 232              		.loc 1 65 0 discriminator 2
 233 013c FB7D     		ldrb	r3, [r7, #23]	@ zero_extendqisi2
 234 013e 0133     		adds	r3, r3, #1
 235 0140 FB75     		strb	r3, [r7, #23]
 236              	.L3:
  65:Generated_Source\PSoC5/CAN_TX_RX_func.c ****         {
 237              		.loc 1 65 0 is_stmt 0 discriminator 1
 238 0142 FB7D     		ldrb	r3, [r7, #23]	@ zero_extendqisi2
 239 0144 072B     		cmp	r3, #7
 240 0146 7FF669AF 		bls	.L18
 241              	.L17:
 150:Generated_Source\PSoC5/CAN_TX_RX_func.c ****             }
 151:Generated_Source\PSoC5/CAN_TX_RX_func.c ****         }
 152:Generated_Source\PSoC5/CAN_TX_RX_func.c ****         if (result == CYRET_SUCCESS)
 242              		.loc 1 152 0 is_stmt 1
ARM GAS  D:\Windows\AppData\Local\Temp\ccxctkJs.s 			page 8


 243 014a FB7C     		ldrb	r3, [r7, #19]	@ zero_extendqisi2
 244 014c 002B     		cmp	r3, #0
 245 014e 00D1     		bne	.L19
 153:Generated_Source\PSoC5/CAN_TX_RX_func.c ****         {
 154:Generated_Source\PSoC5/CAN_TX_RX_func.c ****             break;
 246              		.loc 1 154 0
 247 0150 06E0     		b	.L20
 248              	.L19:
 155:Generated_Source\PSoC5/CAN_TX_RX_func.c ****         }
 156:Generated_Source\PSoC5/CAN_TX_RX_func.c ****         else
 157:Generated_Source\PSoC5/CAN_TX_RX_func.c ****         {
 158:Generated_Source\PSoC5/CAN_TX_RX_func.c ****             retry++;
 249              		.loc 1 158 0
 250 0152 3B7D     		ldrb	r3, [r7, #20]	@ zero_extendqisi2
 251 0154 0133     		adds	r3, r3, #1
 252 0156 3B75     		strb	r3, [r7, #20]
 253              	.L2:
  62:Generated_Source\PSoC5/CAN_TX_RX_func.c ****     {
 254              		.loc 1 62 0
 255 0158 3B7D     		ldrb	r3, [r7, #20]	@ zero_extendqisi2
 256 015a 022B     		cmp	r3, #2
 257 015c 7FF659AF 		bls	.L21
 258              	.L20:
 159:Generated_Source\PSoC5/CAN_TX_RX_func.c ****         }
 160:Generated_Source\PSoC5/CAN_TX_RX_func.c ****     }
 161:Generated_Source\PSoC5/CAN_TX_RX_func.c **** 
 162:Generated_Source\PSoC5/CAN_TX_RX_func.c ****     return (result);
 259              		.loc 1 162 0
 260 0160 FB7C     		ldrb	r3, [r7, #19]	@ zero_extendqisi2
 163:Generated_Source\PSoC5/CAN_TX_RX_func.c **** }
 261              		.loc 1 163 0
 262 0162 1846     		mov	r0, r3
 263 0164 1C37     		adds	r7, r7, #28
 264              		.cfi_def_cfa_offset 4
 265 0166 BD46     		mov	sp, r7
 266              		.cfi_def_cfa_register 13
 267              		@ sp needed
 268 0168 5DF8047B 		ldr	r7, [sp], #4
 269              		.cfi_restore 7
 270              		.cfi_def_cfa_offset 0
 271 016c 7047     		bx	lr
 272              	.L24:
 273 016e 00BF     		.align	2
 274              	.L23:
 275 0170 08A00040 		.word	1073782792
 276 0174 20A00040 		.word	1073782816
 277 0178 80E100E0 		.word	-536813184
 278 017c 00E100E0 		.word	-536813312
 279              		.cfi_endproc
 280              	.LFE0:
 281              		.size	CAN_SendMsg, .-CAN_SendMsg
 282              		.section	.text.CAN_TxCancel,"ax",%progbits
 283              		.align	2
 284              		.global	CAN_TxCancel
 285              		.thumb
 286              		.thumb_func
 287              		.type	CAN_TxCancel, %function
ARM GAS  D:\Windows\AppData\Local\Temp\ccxctkJs.s 			page 9


 288              	CAN_TxCancel:
 289              	.LFB1:
 164:Generated_Source\PSoC5/CAN_TX_RX_func.c **** 
 165:Generated_Source\PSoC5/CAN_TX_RX_func.c **** 
 166:Generated_Source\PSoC5/CAN_TX_RX_func.c **** /*******************************************************************************
 167:Generated_Source\PSoC5/CAN_TX_RX_func.c **** * FUNCTION NAME:   CAN_TxCancel
 168:Generated_Source\PSoC5/CAN_TX_RX_func.c **** ********************************************************************************
 169:Generated_Source\PSoC5/CAN_TX_RX_func.c **** *
 170:Generated_Source\PSoC5/CAN_TX_RX_func.c **** * Summary:
 171:Generated_Source\PSoC5/CAN_TX_RX_func.c **** *  This function cancels transmission of a message that has been queued to be
 172:Generated_Source\PSoC5/CAN_TX_RX_func.c **** *  transmitted. Values between 0 and 7 are valid.
 173:Generated_Source\PSoC5/CAN_TX_RX_func.c **** *
 174:Generated_Source\PSoC5/CAN_TX_RX_func.c **** * Parameters:
 175:Generated_Source\PSoC5/CAN_TX_RX_func.c **** *  bufferId: The mailbox number.
 176:Generated_Source\PSoC5/CAN_TX_RX_func.c **** *
 177:Generated_Source\PSoC5/CAN_TX_RX_func.c **** * Return:
 178:Generated_Source\PSoC5/CAN_TX_RX_func.c **** *  None.
 179:Generated_Source\PSoC5/CAN_TX_RX_func.c **** *
 180:Generated_Source\PSoC5/CAN_TX_RX_func.c **** *******************************************************************************/
 181:Generated_Source\PSoC5/CAN_TX_RX_func.c **** void CAN_TxCancel(uint8 bufferId) 
 182:Generated_Source\PSoC5/CAN_TX_RX_func.c **** {
 290              		.loc 1 182 0
 291              		.cfi_startproc
 292              		@ args = 0, pretend = 0, frame = 8
 293              		@ frame_needed = 1, uses_anonymous_args = 0
 294              		@ link register save eliminated.
 295 0000 80B4     		push	{r7}
 296              		.cfi_def_cfa_offset 4
 297              		.cfi_offset 7, -4
 298 0002 83B0     		sub	sp, sp, #12
 299              		.cfi_def_cfa_offset 16
 300 0004 00AF     		add	r7, sp, #0
 301              		.cfi_def_cfa_register 7
 302 0006 0346     		mov	r3, r0
 303 0008 FB71     		strb	r3, [r7, #7]
 183:Generated_Source\PSoC5/CAN_TX_RX_func.c ****     if (bufferId < CAN_NUMBER_OF_TX_MAILBOXES)
 304              		.loc 1 183 0
 305 000a FB79     		ldrb	r3, [r7, #7]	@ zero_extendqisi2
 306 000c 072B     		cmp	r3, #7
 307 000e 12D8     		bhi	.L25
 184:Generated_Source\PSoC5/CAN_TX_RX_func.c ****     {
 185:Generated_Source\PSoC5/CAN_TX_RX_func.c ****         CAN_TX_ABORT_MESSAGE(bufferId);
 308              		.loc 1 185 0
 309 0010 FB79     		ldrb	r3, [r7, #7]	@ zero_extendqisi2
 310 0012 1A01     		lsls	r2, r3, #4
 311 0014 0A4B     		ldr	r3, .L27
 312 0016 1344     		add	r3, r3, r2
 313 0018 FA79     		ldrb	r2, [r7, #7]	@ zero_extendqisi2
 314 001a 1101     		lsls	r1, r2, #4
 315 001c 084A     		ldr	r2, .L27
 316 001e 0A44     		add	r2, r2, r1
 317 0020 1278     		ldrb	r2, [r2]
 318 0022 D2B2     		uxtb	r2, r2
 319 0024 D2B2     		uxtb	r2, r2
 320 0026 22F00302 		bic	r2, r2, #3
 321 002a D2B2     		uxtb	r2, r2
 322 002c 42F00202 		orr	r2, r2, #2
ARM GAS  D:\Windows\AppData\Local\Temp\ccxctkJs.s 			page 10


 323 0030 D2B2     		uxtb	r2, r2
 324 0032 D2B2     		uxtb	r2, r2
 325 0034 1A70     		strb	r2, [r3]
 326              	.L25:
 186:Generated_Source\PSoC5/CAN_TX_RX_func.c ****     }
 187:Generated_Source\PSoC5/CAN_TX_RX_func.c **** }
 327              		.loc 1 187 0
 328 0036 0C37     		adds	r7, r7, #12
 329              		.cfi_def_cfa_offset 4
 330 0038 BD46     		mov	sp, r7
 331              		.cfi_def_cfa_register 13
 332              		@ sp needed
 333 003a 5DF8047B 		ldr	r7, [sp], #4
 334              		.cfi_restore 7
 335              		.cfi_def_cfa_offset 0
 336 003e 7047     		bx	lr
 337              	.L28:
 338              		.align	2
 339              	.L27:
 340 0040 20A00040 		.word	1073782816
 341              		.cfi_endproc
 342              	.LFE1:
 343              		.size	CAN_TxCancel, .-CAN_TxCancel
 344              		.section	.text.CAN_SendMsgDash_status,"ax",%progbits
 345              		.align	2
 346              		.global	CAN_SendMsgDash_status
 347              		.thumb
 348              		.thumb_func
 349              		.type	CAN_SendMsgDash_status, %function
 350              	CAN_SendMsgDash_status:
 351              	.LFB2:
 188:Generated_Source\PSoC5/CAN_TX_RX_func.c **** 
 189:Generated_Source\PSoC5/CAN_TX_RX_func.c **** 
 190:Generated_Source\PSoC5/CAN_TX_RX_func.c **** #if (CAN_TX0_FUNC_ENABLE)
 191:Generated_Source\PSoC5/CAN_TX_RX_func.c ****     /*******************************************************************************
 192:Generated_Source\PSoC5/CAN_TX_RX_func.c ****     * FUNCTION NAME:   CAN_SendMsgDash_status
 193:Generated_Source\PSoC5/CAN_TX_RX_func.c ****     ********************************************************************************
 194:Generated_Source\PSoC5/CAN_TX_RX_func.c ****     *
 195:Generated_Source\PSoC5/CAN_TX_RX_func.c ****     * Summary:
 196:Generated_Source\PSoC5/CAN_TX_RX_func.c ****     *  This function is the entry point to Transmit Message 0. The function checks
 197:Generated_Source\PSoC5/CAN_TX_RX_func.c ****     *  if mailbox 0 doesn't already have un-transmitted messages waiting for
 198:Generated_Source\PSoC5/CAN_TX_RX_func.c ****     *  arbitration. If not initiate transmission of the message.
 199:Generated_Source\PSoC5/CAN_TX_RX_func.c ****     *  Generated only for the Transmit mailbox designed as Full.
 200:Generated_Source\PSoC5/CAN_TX_RX_func.c ****     *
 201:Generated_Source\PSoC5/CAN_TX_RX_func.c ****     * Parameters:
 202:Generated_Source\PSoC5/CAN_TX_RX_func.c ****     *  None.
 203:Generated_Source\PSoC5/CAN_TX_RX_func.c ****     *
 204:Generated_Source\PSoC5/CAN_TX_RX_func.c ****     * Return:
 205:Generated_Source\PSoC5/CAN_TX_RX_func.c ****     *  Indication if Message has been sent.
 206:Generated_Source\PSoC5/CAN_TX_RX_func.c ****     *   Define                             Description
 207:Generated_Source\PSoC5/CAN_TX_RX_func.c ****     *    CYRET_SUCCESS                      The function passed successfully
 208:Generated_Source\PSoC5/CAN_TX_RX_func.c ****     *    CAN_FAIL              The function failed
 209:Generated_Source\PSoC5/CAN_TX_RX_func.c ****     *
 210:Generated_Source\PSoC5/CAN_TX_RX_func.c ****     *******************************************************************************/
 211:Generated_Source\PSoC5/CAN_TX_RX_func.c ****     uint8 CAN_SendMsgDash_status(void) 
 212:Generated_Source\PSoC5/CAN_TX_RX_func.c ****     {
 352              		.loc 1 212 0
ARM GAS  D:\Windows\AppData\Local\Temp\ccxctkJs.s 			page 11


 353              		.cfi_startproc
 354              		@ args = 0, pretend = 0, frame = 8
 355              		@ frame_needed = 1, uses_anonymous_args = 0
 356              		@ link register save eliminated.
 357 0000 80B4     		push	{r7}
 358              		.cfi_def_cfa_offset 4
 359              		.cfi_offset 7, -4
 360 0002 83B0     		sub	sp, sp, #12
 361              		.cfi_def_cfa_offset 16
 362 0004 00AF     		add	r7, sp, #0
 363              		.cfi_def_cfa_register 7
 213:Generated_Source\PSoC5/CAN_TX_RX_func.c ****         uint8 result = CYRET_SUCCESS;
 364              		.loc 1 213 0
 365 0006 0023     		movs	r3, #0
 366 0008 FB71     		strb	r3, [r7, #7]
 214:Generated_Source\PSoC5/CAN_TX_RX_func.c **** 
 215:Generated_Source\PSoC5/CAN_TX_RX_func.c ****         #if (CY_PSOC3 || CY_PSOC5)
 216:Generated_Source\PSoC5/CAN_TX_RX_func.c ****             if ((CAN_TX[0u].txcmd.byte[0u] & CAN_TX_REQUEST_PENDING) != 0u)
 367              		.loc 1 216 0
 368 000a 184B     		ldr	r3, .L37
 369 000c 1B78     		ldrb	r3, [r3]
 370 000e DBB2     		uxtb	r3, r3
 371 0010 03F00103 		and	r3, r3, #1
 372 0014 002B     		cmp	r3, #0
 373 0016 02D0     		beq	.L30
 217:Generated_Source\PSoC5/CAN_TX_RX_func.c ****         #else  /* CY_PSOC4 */
 218:Generated_Source\PSoC5/CAN_TX_RX_func.c ****             if ((CAN_TX_CMD_REG(0u) & CAN_TX_REQUEST_PENDING) != 0u)
 219:Generated_Source\PSoC5/CAN_TX_RX_func.c ****         #endif /* CY_PSOC3 || CY_PSOC5 */
 220:Generated_Source\PSoC5/CAN_TX_RX_func.c ****             {
 221:Generated_Source\PSoC5/CAN_TX_RX_func.c ****                 result = CAN_FAIL;
 374              		.loc 1 221 0
 375 0018 0123     		movs	r3, #1
 376 001a FB71     		strb	r3, [r7, #7]
 377 001c 1EE0     		b	.L31
 378              	.L30:
 379              	.LBB2:
 222:Generated_Source\PSoC5/CAN_TX_RX_func.c ****             }
 223:Generated_Source\PSoC5/CAN_TX_RX_func.c ****             else
 224:Generated_Source\PSoC5/CAN_TX_RX_func.c ****             {
 225:Generated_Source\PSoC5/CAN_TX_RX_func.c ****                 /* `#START MESSAGE_Dash_status_TRASMITTED` */
 226:Generated_Source\PSoC5/CAN_TX_RX_func.c ****                 uint8_t i;
 227:Generated_Source\PSoC5/CAN_TX_RX_func.c **** 
 228:Generated_Source\PSoC5/CAN_TX_RX_func.c **** 				for(i=0; i<buffer_LEN; i++)
 380              		.loc 1 228 0
 381 001e 0023     		movs	r3, #0
 382 0020 BB71     		strb	r3, [r7, #6]
 383 0022 12E0     		b	.L32
 384              	.L35:
 229:Generated_Source\PSoC5/CAN_TX_RX_func.c **** 					CAN_TX_DATA_BYTE(0,i) = can_buffer[i];
 385              		.loc 1 229 0
 386 0024 1149     		ldr	r1, .L37
 387 0026 BB79     		ldrb	r3, [r7, #6]	@ zero_extendqisi2
 388 0028 032B     		cmp	r3, #3
 389 002a 03D9     		bls	.L33
 390              		.loc 1 229 0 is_stmt 0 discriminator 1
 391 002c BB79     		ldrb	r3, [r7, #6]	@ zero_extendqisi2
 392 002e C3F10B03 		rsb	r3, r3, #11
ARM GAS  D:\Windows\AppData\Local\Temp\ccxctkJs.s 			page 12


 393 0032 02E0     		b	.L34
 394              	.L33:
 395              		.loc 1 229 0 discriminator 2
 396 0034 BB79     		ldrb	r3, [r7, #6]	@ zero_extendqisi2
 397 0036 C3F10303 		rsb	r3, r3, #3
 398              	.L34:
 399              		.loc 1 229 0 discriminator 4
 400 003a BA79     		ldrb	r2, [r7, #6]	@ zero_extendqisi2
 401 003c 0C48     		ldr	r0, .L37+4
 402 003e 825C     		ldrb	r2, [r0, r2]	@ zero_extendqisi2
 403 0040 0B44     		add	r3, r3, r1
 404 0042 1A72     		strb	r2, [r3, #8]
 228:Generated_Source\PSoC5/CAN_TX_RX_func.c **** 					CAN_TX_DATA_BYTE(0,i) = can_buffer[i];
 405              		.loc 1 228 0 is_stmt 1 discriminator 4
 406 0044 BB79     		ldrb	r3, [r7, #6]	@ zero_extendqisi2
 407 0046 0133     		adds	r3, r3, #1
 408 0048 BB71     		strb	r3, [r7, #6]
 409              	.L32:
 228:Generated_Source\PSoC5/CAN_TX_RX_func.c **** 					CAN_TX_DATA_BYTE(0,i) = can_buffer[i];
 410              		.loc 1 228 0 is_stmt 0 discriminator 2
 411 004a BB79     		ldrb	r3, [r7, #6]	@ zero_extendqisi2
 412 004c 072B     		cmp	r3, #7
 413 004e E9D9     		bls	.L35
 230:Generated_Source\PSoC5/CAN_TX_RX_func.c ****                 /* `#END` */
 231:Generated_Source\PSoC5/CAN_TX_RX_func.c **** 
 232:Generated_Source\PSoC5/CAN_TX_RX_func.c ****                 #ifdef CAN_SEND_MSG_Dash_status_CALLBACK
 233:Generated_Source\PSoC5/CAN_TX_RX_func.c ****                     CAN_SendMsg_Dash_status_Callback();
 234:Generated_Source\PSoC5/CAN_TX_RX_func.c ****                 #endif /* CAN_SEND_MSG_Dash_status_CALLBACK */
 235:Generated_Source\PSoC5/CAN_TX_RX_func.c **** 
 236:Generated_Source\PSoC5/CAN_TX_RX_func.c ****                 CY_SET_REG32(CAN_TX_CMD_PTR(0u),
 414              		.loc 1 236 0 is_stmt 1
 415 0050 064A     		ldr	r2, .L37
 416 0052 064B     		ldr	r3, .L37
 417 0054 1B68     		ldr	r3, [r3]
 418 0056 43F00103 		orr	r3, r3, #1
 419 005a 1360     		str	r3, [r2]
 420              	.L31:
 421              	.LBE2:
 237:Generated_Source\PSoC5/CAN_TX_RX_func.c ****                 CY_GET_REG32(CAN_TX_CMD_PTR(0u)) | CAN_SEND_MESSAGE);
 238:Generated_Source\PSoC5/CAN_TX_RX_func.c ****             }
 239:Generated_Source\PSoC5/CAN_TX_RX_func.c **** 
 240:Generated_Source\PSoC5/CAN_TX_RX_func.c ****         return (result);
 422              		.loc 1 240 0
 423 005c FB79     		ldrb	r3, [r7, #7]	@ zero_extendqisi2
 241:Generated_Source\PSoC5/CAN_TX_RX_func.c ****     }
 424              		.loc 1 241 0
 425 005e 1846     		mov	r0, r3
 426 0060 0C37     		adds	r7, r7, #12
 427              		.cfi_def_cfa_offset 4
 428 0062 BD46     		mov	sp, r7
 429              		.cfi_def_cfa_register 13
 430              		@ sp needed
 431 0064 5DF8047B 		ldr	r7, [sp], #4
 432              		.cfi_restore 7
 433              		.cfi_def_cfa_offset 0
 434 0068 7047     		bx	lr
 435              	.L38:
ARM GAS  D:\Windows\AppData\Local\Temp\ccxctkJs.s 			page 13


 436 006a 00BF     		.align	2
 437              	.L37:
 438 006c 20A00040 		.word	1073782816
 439 0070 00000000 		.word	can_buffer
 440              		.cfi_endproc
 441              	.LFE2:
 442              		.size	CAN_SendMsgDash_status, .-CAN_SendMsgDash_status
 443              		.section	.text.CAN_SendMsgDash_cmd,"ax",%progbits
 444              		.align	2
 445              		.global	CAN_SendMsgDash_cmd
 446              		.thumb
 447              		.thumb_func
 448              		.type	CAN_SendMsgDash_cmd, %function
 449              	CAN_SendMsgDash_cmd:
 450              	.LFB3:
 242:Generated_Source\PSoC5/CAN_TX_RX_func.c **** #endif /* CAN_TX0_FUNC_ENABLE */
 243:Generated_Source\PSoC5/CAN_TX_RX_func.c **** 
 244:Generated_Source\PSoC5/CAN_TX_RX_func.c **** 
 245:Generated_Source\PSoC5/CAN_TX_RX_func.c **** #if (CAN_TX1_FUNC_ENABLE)
 246:Generated_Source\PSoC5/CAN_TX_RX_func.c ****     /*******************************************************************************
 247:Generated_Source\PSoC5/CAN_TX_RX_func.c ****     * FUNCTION NAME:   CAN_SendMsgDash_cmd
 248:Generated_Source\PSoC5/CAN_TX_RX_func.c ****     ********************************************************************************
 249:Generated_Source\PSoC5/CAN_TX_RX_func.c ****     *
 250:Generated_Source\PSoC5/CAN_TX_RX_func.c ****     * Summary:
 251:Generated_Source\PSoC5/CAN_TX_RX_func.c ****     *  This function is the entry point to Transmit Message 1. The function checks
 252:Generated_Source\PSoC5/CAN_TX_RX_func.c ****     *  if mailbox 1 doesn't already have un-transmitted messages waiting for
 253:Generated_Source\PSoC5/CAN_TX_RX_func.c ****     *  arbitration. If not initiate transmission of the message.
 254:Generated_Source\PSoC5/CAN_TX_RX_func.c ****     *  Generated only for the Transmit mailbox designed as Full.
 255:Generated_Source\PSoC5/CAN_TX_RX_func.c ****     *
 256:Generated_Source\PSoC5/CAN_TX_RX_func.c ****     * Parameters:
 257:Generated_Source\PSoC5/CAN_TX_RX_func.c ****     *  None.
 258:Generated_Source\PSoC5/CAN_TX_RX_func.c ****     *
 259:Generated_Source\PSoC5/CAN_TX_RX_func.c ****     * Return:
 260:Generated_Source\PSoC5/CAN_TX_RX_func.c ****     *  Indication if Message has been sent.
 261:Generated_Source\PSoC5/CAN_TX_RX_func.c ****     *   Define                             Description
 262:Generated_Source\PSoC5/CAN_TX_RX_func.c ****     *    CYRET_SUCCESS                      The function passed successfully
 263:Generated_Source\PSoC5/CAN_TX_RX_func.c ****     *    CAN_FAIL              The function failed
 264:Generated_Source\PSoC5/CAN_TX_RX_func.c ****     *
 265:Generated_Source\PSoC5/CAN_TX_RX_func.c ****     *******************************************************************************/
 266:Generated_Source\PSoC5/CAN_TX_RX_func.c ****     uint8 CAN_SendMsgDash_cmd(void) 
 267:Generated_Source\PSoC5/CAN_TX_RX_func.c ****     {
 451              		.loc 1 267 0
 452              		.cfi_startproc
 453              		@ args = 0, pretend = 0, frame = 8
 454              		@ frame_needed = 1, uses_anonymous_args = 0
 455              		@ link register save eliminated.
 456 0000 80B4     		push	{r7}
 457              		.cfi_def_cfa_offset 4
 458              		.cfi_offset 7, -4
 459 0002 83B0     		sub	sp, sp, #12
 460              		.cfi_def_cfa_offset 16
 461 0004 00AF     		add	r7, sp, #0
 462              		.cfi_def_cfa_register 7
 268:Generated_Source\PSoC5/CAN_TX_RX_func.c ****         uint8 result = CYRET_SUCCESS;
 463              		.loc 1 268 0
 464 0006 0023     		movs	r3, #0
 465 0008 FB71     		strb	r3, [r7, #7]
ARM GAS  D:\Windows\AppData\Local\Temp\ccxctkJs.s 			page 14


 269:Generated_Source\PSoC5/CAN_TX_RX_func.c **** 
 270:Generated_Source\PSoC5/CAN_TX_RX_func.c ****         #if (CY_PSOC3 || CY_PSOC5)
 271:Generated_Source\PSoC5/CAN_TX_RX_func.c ****             if ((CAN_TX[1u].txcmd.byte[0u] & CAN_TX_REQUEST_PENDING) != 0u)
 466              		.loc 1 271 0
 467 000a 184B     		ldr	r3, .L47
 468 000c 1B78     		ldrb	r3, [r3]
 469 000e DBB2     		uxtb	r3, r3
 470 0010 03F00103 		and	r3, r3, #1
 471 0014 002B     		cmp	r3, #0
 472 0016 02D0     		beq	.L40
 272:Generated_Source\PSoC5/CAN_TX_RX_func.c ****         #else  /* CY_PSOC4 */
 273:Generated_Source\PSoC5/CAN_TX_RX_func.c ****             if ((CAN_TX_CMD_REG(1u) & CAN_TX_REQUEST_PENDING) != 0u)
 274:Generated_Source\PSoC5/CAN_TX_RX_func.c ****         #endif /* CY_PSOC3 || CY_PSOC5 */
 275:Generated_Source\PSoC5/CAN_TX_RX_func.c ****             {
 276:Generated_Source\PSoC5/CAN_TX_RX_func.c ****                 result = CAN_FAIL;
 473              		.loc 1 276 0
 474 0018 0123     		movs	r3, #1
 475 001a FB71     		strb	r3, [r7, #7]
 476 001c 1EE0     		b	.L41
 477              	.L40:
 478              	.LBB3:
 277:Generated_Source\PSoC5/CAN_TX_RX_func.c ****             }
 278:Generated_Source\PSoC5/CAN_TX_RX_func.c ****             else
 279:Generated_Source\PSoC5/CAN_TX_RX_func.c ****             {
 280:Generated_Source\PSoC5/CAN_TX_RX_func.c ****                 /* `#START MESSAGE_Dash_cmd_TRASMITTED` */
 281:Generated_Source\PSoC5/CAN_TX_RX_func.c ****                 uint8_t i;
 282:Generated_Source\PSoC5/CAN_TX_RX_func.c **** 
 283:Generated_Source\PSoC5/CAN_TX_RX_func.c **** 				for(i=0; i<buffer_LEN; i++)
 479              		.loc 1 283 0
 480 001e 0023     		movs	r3, #0
 481 0020 BB71     		strb	r3, [r7, #6]
 482 0022 12E0     		b	.L42
 483              	.L45:
 284:Generated_Source\PSoC5/CAN_TX_RX_func.c **** 					CAN_TX_DATA_BYTE(1,i) = can_buffer[i];
 484              		.loc 1 284 0
 485 0024 1149     		ldr	r1, .L47
 486 0026 BB79     		ldrb	r3, [r7, #6]	@ zero_extendqisi2
 487 0028 032B     		cmp	r3, #3
 488 002a 03D9     		bls	.L43
 489              		.loc 1 284 0 is_stmt 0 discriminator 1
 490 002c BB79     		ldrb	r3, [r7, #6]	@ zero_extendqisi2
 491 002e C3F10B03 		rsb	r3, r3, #11
 492 0032 02E0     		b	.L44
 493              	.L43:
 494              		.loc 1 284 0 discriminator 2
 495 0034 BB79     		ldrb	r3, [r7, #6]	@ zero_extendqisi2
 496 0036 C3F10303 		rsb	r3, r3, #3
 497              	.L44:
 498              		.loc 1 284 0 discriminator 4
 499 003a BA79     		ldrb	r2, [r7, #6]	@ zero_extendqisi2
 500 003c 0C48     		ldr	r0, .L47+4
 501 003e 825C     		ldrb	r2, [r0, r2]	@ zero_extendqisi2
 502 0040 0B44     		add	r3, r3, r1
 503 0042 1A72     		strb	r2, [r3, #8]
 283:Generated_Source\PSoC5/CAN_TX_RX_func.c **** 					CAN_TX_DATA_BYTE(1,i) = can_buffer[i];
 504              		.loc 1 283 0 is_stmt 1 discriminator 4
 505 0044 BB79     		ldrb	r3, [r7, #6]	@ zero_extendqisi2
ARM GAS  D:\Windows\AppData\Local\Temp\ccxctkJs.s 			page 15


 506 0046 0133     		adds	r3, r3, #1
 507 0048 BB71     		strb	r3, [r7, #6]
 508              	.L42:
 283:Generated_Source\PSoC5/CAN_TX_RX_func.c **** 					CAN_TX_DATA_BYTE(1,i) = can_buffer[i];
 509              		.loc 1 283 0 is_stmt 0 discriminator 2
 510 004a BB79     		ldrb	r3, [r7, #6]	@ zero_extendqisi2
 511 004c 072B     		cmp	r3, #7
 512 004e E9D9     		bls	.L45
 285:Generated_Source\PSoC5/CAN_TX_RX_func.c ****                 /* `#END` */
 286:Generated_Source\PSoC5/CAN_TX_RX_func.c **** 
 287:Generated_Source\PSoC5/CAN_TX_RX_func.c ****                 #ifdef CAN_SEND_MSG_Dash_cmd_CALLBACK
 288:Generated_Source\PSoC5/CAN_TX_RX_func.c ****                     CAN_SendMsg_Dash_cmd_Callback();
 289:Generated_Source\PSoC5/CAN_TX_RX_func.c ****                 #endif /* CAN_SEND_MSG_Dash_cmd_CALLBACK */
 290:Generated_Source\PSoC5/CAN_TX_RX_func.c **** 
 291:Generated_Source\PSoC5/CAN_TX_RX_func.c ****                 CY_SET_REG32(CAN_TX_CMD_PTR(1u),
 513              		.loc 1 291 0 is_stmt 1
 514 0050 064A     		ldr	r2, .L47
 515 0052 064B     		ldr	r3, .L47
 516 0054 1B68     		ldr	r3, [r3]
 517 0056 43F00103 		orr	r3, r3, #1
 518 005a 1360     		str	r3, [r2]
 519              	.L41:
 520              	.LBE3:
 292:Generated_Source\PSoC5/CAN_TX_RX_func.c ****                 CY_GET_REG32(CAN_TX_CMD_PTR(1u)) | CAN_SEND_MESSAGE);
 293:Generated_Source\PSoC5/CAN_TX_RX_func.c ****             }
 294:Generated_Source\PSoC5/CAN_TX_RX_func.c **** 
 295:Generated_Source\PSoC5/CAN_TX_RX_func.c ****         return (result);
 521              		.loc 1 295 0
 522 005c FB79     		ldrb	r3, [r7, #7]	@ zero_extendqisi2
 296:Generated_Source\PSoC5/CAN_TX_RX_func.c ****     }
 523              		.loc 1 296 0
 524 005e 1846     		mov	r0, r3
 525 0060 0C37     		adds	r7, r7, #12
 526              		.cfi_def_cfa_offset 4
 527 0062 BD46     		mov	sp, r7
 528              		.cfi_def_cfa_register 13
 529              		@ sp needed
 530 0064 5DF8047B 		ldr	r7, [sp], #4
 531              		.cfi_restore 7
 532              		.cfi_def_cfa_offset 0
 533 0068 7047     		bx	lr
 534              	.L48:
 535 006a 00BF     		.align	2
 536              	.L47:
 537 006c 30A00040 		.word	1073782832
 538 0070 00000000 		.word	can_buffer
 539              		.cfi_endproc
 540              	.LFE3:
 541              		.size	CAN_SendMsgDash_cmd, .-CAN_SendMsgDash_cmd
 542              		.section	.text.CAN_ReceiveMsg,"ax",%progbits
 543              		.align	2
 544              		.global	CAN_ReceiveMsg
 545              		.thumb
 546              		.thumb_func
 547              		.type	CAN_ReceiveMsg, %function
 548              	CAN_ReceiveMsg:
 549              	.LFB4:
ARM GAS  D:\Windows\AppData\Local\Temp\ccxctkJs.s 			page 16


 297:Generated_Source\PSoC5/CAN_TX_RX_func.c **** #endif /* CAN_TX1_FUNC_ENABLE */
 298:Generated_Source\PSoC5/CAN_TX_RX_func.c **** 
 299:Generated_Source\PSoC5/CAN_TX_RX_func.c **** 
 300:Generated_Source\PSoC5/CAN_TX_RX_func.c **** #if (CAN_TX2_FUNC_ENABLE)
 301:Generated_Source\PSoC5/CAN_TX_RX_func.c ****     /*******************************************************************************
 302:Generated_Source\PSoC5/CAN_TX_RX_func.c ****     * FUNCTION NAME:   CAN_SendMsg2
 303:Generated_Source\PSoC5/CAN_TX_RX_func.c ****     ********************************************************************************
 304:Generated_Source\PSoC5/CAN_TX_RX_func.c ****     *
 305:Generated_Source\PSoC5/CAN_TX_RX_func.c ****     * Summary:
 306:Generated_Source\PSoC5/CAN_TX_RX_func.c ****     *  This function is the entry point to Transmit Message 2. The function checks
 307:Generated_Source\PSoC5/CAN_TX_RX_func.c ****     *  if mailbox 2 doesn't already have un-transmitted messages waiting for
 308:Generated_Source\PSoC5/CAN_TX_RX_func.c ****     *  arbitration. If not initiate transmission of the message.
 309:Generated_Source\PSoC5/CAN_TX_RX_func.c ****     *  Generated only for the Transmit mailbox designed as Full.
 310:Generated_Source\PSoC5/CAN_TX_RX_func.c ****     *
 311:Generated_Source\PSoC5/CAN_TX_RX_func.c ****     * Parameters:
 312:Generated_Source\PSoC5/CAN_TX_RX_func.c ****     *  None.
 313:Generated_Source\PSoC5/CAN_TX_RX_func.c ****     *
 314:Generated_Source\PSoC5/CAN_TX_RX_func.c ****     * Return:
 315:Generated_Source\PSoC5/CAN_TX_RX_func.c ****     *  Indication if Message has been sent.
 316:Generated_Source\PSoC5/CAN_TX_RX_func.c ****     *   Define                             Description
 317:Generated_Source\PSoC5/CAN_TX_RX_func.c ****     *    CYRET_SUCCESS                      The function passed successfully
 318:Generated_Source\PSoC5/CAN_TX_RX_func.c ****     *    CAN_FAIL              The function failed
 319:Generated_Source\PSoC5/CAN_TX_RX_func.c ****     *
 320:Generated_Source\PSoC5/CAN_TX_RX_func.c ****     *******************************************************************************/
 321:Generated_Source\PSoC5/CAN_TX_RX_func.c ****     uint8 CAN_SendMsg2(void) 
 322:Generated_Source\PSoC5/CAN_TX_RX_func.c ****     {
 323:Generated_Source\PSoC5/CAN_TX_RX_func.c ****         uint8 result = CYRET_SUCCESS;
 324:Generated_Source\PSoC5/CAN_TX_RX_func.c **** 
 325:Generated_Source\PSoC5/CAN_TX_RX_func.c ****         #if (CY_PSOC3 || CY_PSOC5)
 326:Generated_Source\PSoC5/CAN_TX_RX_func.c ****             if ((CAN_TX[2u].txcmd.byte[0u] & CAN_TX_REQUEST_PENDING) != 0u)
 327:Generated_Source\PSoC5/CAN_TX_RX_func.c ****         #else  /* CY_PSOC4 */
 328:Generated_Source\PSoC5/CAN_TX_RX_func.c ****             if ((CAN_TX_CMD_REG(2u) & CAN_TX_REQUEST_PENDING) != 0u)
 329:Generated_Source\PSoC5/CAN_TX_RX_func.c ****         #endif /* CY_PSOC3 || CY_PSOC5 */
 330:Generated_Source\PSoC5/CAN_TX_RX_func.c ****             {
 331:Generated_Source\PSoC5/CAN_TX_RX_func.c ****                 result = CAN_FAIL;
 332:Generated_Source\PSoC5/CAN_TX_RX_func.c ****             }
 333:Generated_Source\PSoC5/CAN_TX_RX_func.c ****             else
 334:Generated_Source\PSoC5/CAN_TX_RX_func.c ****             {
 335:Generated_Source\PSoC5/CAN_TX_RX_func.c ****                 /* `#START MESSAGE_2_TRASMITTED` */
 336:Generated_Source\PSoC5/CAN_TX_RX_func.c **** 
 337:Generated_Source\PSoC5/CAN_TX_RX_func.c ****                 /* `#END` */
 338:Generated_Source\PSoC5/CAN_TX_RX_func.c **** 
 339:Generated_Source\PSoC5/CAN_TX_RX_func.c ****                 #ifdef CAN_SEND_MSG_2_CALLBACK
 340:Generated_Source\PSoC5/CAN_TX_RX_func.c ****                     CAN_SendMsg_2_Callback();
 341:Generated_Source\PSoC5/CAN_TX_RX_func.c ****                 #endif /* CAN_SEND_MSG_2_CALLBACK */
 342:Generated_Source\PSoC5/CAN_TX_RX_func.c **** 
 343:Generated_Source\PSoC5/CAN_TX_RX_func.c ****                 CY_SET_REG32(CAN_TX_CMD_PTR(2u),
 344:Generated_Source\PSoC5/CAN_TX_RX_func.c ****                 CY_GET_REG32(CAN_TX_CMD_PTR(2u)) | CAN_SEND_MESSAGE);
 345:Generated_Source\PSoC5/CAN_TX_RX_func.c ****             }
 346:Generated_Source\PSoC5/CAN_TX_RX_func.c **** 
 347:Generated_Source\PSoC5/CAN_TX_RX_func.c ****         return (result);
 348:Generated_Source\PSoC5/CAN_TX_RX_func.c ****     }
 349:Generated_Source\PSoC5/CAN_TX_RX_func.c **** #endif /* CAN_TX2_FUNC_ENABLE */
 350:Generated_Source\PSoC5/CAN_TX_RX_func.c **** 
 351:Generated_Source\PSoC5/CAN_TX_RX_func.c **** 
 352:Generated_Source\PSoC5/CAN_TX_RX_func.c **** #if (CAN_TX3_FUNC_ENABLE)
 353:Generated_Source\PSoC5/CAN_TX_RX_func.c ****     /*******************************************************************************
ARM GAS  D:\Windows\AppData\Local\Temp\ccxctkJs.s 			page 17


 354:Generated_Source\PSoC5/CAN_TX_RX_func.c ****     * FUNCTION NAME:   CAN_SendMsg3
 355:Generated_Source\PSoC5/CAN_TX_RX_func.c ****     ********************************************************************************
 356:Generated_Source\PSoC5/CAN_TX_RX_func.c ****     *
 357:Generated_Source\PSoC5/CAN_TX_RX_func.c ****     * Summary:
 358:Generated_Source\PSoC5/CAN_TX_RX_func.c ****     *  This function is the entry point to Transmit Message 3. The function checks
 359:Generated_Source\PSoC5/CAN_TX_RX_func.c ****     *  if mailbox 3 doesn't already have un-transmitted messages waiting for
 360:Generated_Source\PSoC5/CAN_TX_RX_func.c ****     *  arbitration. If not initiate transmission of the message.
 361:Generated_Source\PSoC5/CAN_TX_RX_func.c ****     *  Generated only for the Transmit mailbox designed as Full.
 362:Generated_Source\PSoC5/CAN_TX_RX_func.c ****     *
 363:Generated_Source\PSoC5/CAN_TX_RX_func.c ****     * Parameters:
 364:Generated_Source\PSoC5/CAN_TX_RX_func.c ****     *  None.
 365:Generated_Source\PSoC5/CAN_TX_RX_func.c ****     *
 366:Generated_Source\PSoC5/CAN_TX_RX_func.c ****     * Return:
 367:Generated_Source\PSoC5/CAN_TX_RX_func.c ****     *  Indication if Message has been sent.
 368:Generated_Source\PSoC5/CAN_TX_RX_func.c ****     *   Define                             Description
 369:Generated_Source\PSoC5/CAN_TX_RX_func.c ****     *    CYRET_SUCCESS                      The function passed successfully
 370:Generated_Source\PSoC5/CAN_TX_RX_func.c ****     *    CAN_FAIL              The function failed
 371:Generated_Source\PSoC5/CAN_TX_RX_func.c ****     *
 372:Generated_Source\PSoC5/CAN_TX_RX_func.c ****     *******************************************************************************/
 373:Generated_Source\PSoC5/CAN_TX_RX_func.c ****     uint8 CAN_SendMsg3(void) 
 374:Generated_Source\PSoC5/CAN_TX_RX_func.c ****     {
 375:Generated_Source\PSoC5/CAN_TX_RX_func.c ****         uint8 result = CYRET_SUCCESS;
 376:Generated_Source\PSoC5/CAN_TX_RX_func.c **** 
 377:Generated_Source\PSoC5/CAN_TX_RX_func.c ****         #if (CY_PSOC3 || CY_PSOC5)
 378:Generated_Source\PSoC5/CAN_TX_RX_func.c ****             if ((CAN_TX[3u].txcmd.byte[0u] & CAN_TX_REQUEST_PENDING) != 0u)
 379:Generated_Source\PSoC5/CAN_TX_RX_func.c ****         #else  /* CY_PSOC4 */
 380:Generated_Source\PSoC5/CAN_TX_RX_func.c ****             if ((CAN_TX_CMD_REG(3u) & CAN_TX_REQUEST_PENDING) != 0u)
 381:Generated_Source\PSoC5/CAN_TX_RX_func.c ****         #endif /* CY_PSOC3 || CY_PSOC5 */
 382:Generated_Source\PSoC5/CAN_TX_RX_func.c ****             {
 383:Generated_Source\PSoC5/CAN_TX_RX_func.c ****                 result = CAN_FAIL;
 384:Generated_Source\PSoC5/CAN_TX_RX_func.c ****             }
 385:Generated_Source\PSoC5/CAN_TX_RX_func.c ****             else
 386:Generated_Source\PSoC5/CAN_TX_RX_func.c ****             {
 387:Generated_Source\PSoC5/CAN_TX_RX_func.c ****                 /* `#START MESSAGE_3_TRASMITTED` */
 388:Generated_Source\PSoC5/CAN_TX_RX_func.c **** 
 389:Generated_Source\PSoC5/CAN_TX_RX_func.c ****                 /* `#END` */
 390:Generated_Source\PSoC5/CAN_TX_RX_func.c **** 
 391:Generated_Source\PSoC5/CAN_TX_RX_func.c ****                 #ifdef CAN_SEND_MSG_3_CALLBACK
 392:Generated_Source\PSoC5/CAN_TX_RX_func.c ****                     CAN_SendMsg_3_Callback();
 393:Generated_Source\PSoC5/CAN_TX_RX_func.c ****                 #endif /* CAN_SEND_MSG_3_CALLBACK */
 394:Generated_Source\PSoC5/CAN_TX_RX_func.c **** 
 395:Generated_Source\PSoC5/CAN_TX_RX_func.c ****                 CY_SET_REG32(CAN_TX_CMD_PTR(3u),
 396:Generated_Source\PSoC5/CAN_TX_RX_func.c ****                 CY_GET_REG32(CAN_TX_CMD_PTR(3u)) | CAN_SEND_MESSAGE);
 397:Generated_Source\PSoC5/CAN_TX_RX_func.c ****             }
 398:Generated_Source\PSoC5/CAN_TX_RX_func.c **** 
 399:Generated_Source\PSoC5/CAN_TX_RX_func.c ****         return (result);
 400:Generated_Source\PSoC5/CAN_TX_RX_func.c ****     }
 401:Generated_Source\PSoC5/CAN_TX_RX_func.c **** #endif /* CAN_TX3_FUNC_ENABLE */
 402:Generated_Source\PSoC5/CAN_TX_RX_func.c **** 
 403:Generated_Source\PSoC5/CAN_TX_RX_func.c **** 
 404:Generated_Source\PSoC5/CAN_TX_RX_func.c **** #if (CAN_TX4_FUNC_ENABLE)
 405:Generated_Source\PSoC5/CAN_TX_RX_func.c ****     /*******************************************************************************
 406:Generated_Source\PSoC5/CAN_TX_RX_func.c ****     * FUNCTION NAME:   CAN_SendMsg4
 407:Generated_Source\PSoC5/CAN_TX_RX_func.c ****     ********************************************************************************
 408:Generated_Source\PSoC5/CAN_TX_RX_func.c ****     *
 409:Generated_Source\PSoC5/CAN_TX_RX_func.c ****     * Summary:
 410:Generated_Source\PSoC5/CAN_TX_RX_func.c ****     *  This function is the entry point to Transmit Message 4. The function checks
ARM GAS  D:\Windows\AppData\Local\Temp\ccxctkJs.s 			page 18


 411:Generated_Source\PSoC5/CAN_TX_RX_func.c ****     *  if mailbox 4 doesn't already have un-transmitted messages waiting for
 412:Generated_Source\PSoC5/CAN_TX_RX_func.c ****     *  arbitration. If not initiate transmission of the message.
 413:Generated_Source\PSoC5/CAN_TX_RX_func.c ****     *  Generated only for the Transmit mailbox designed as Full.
 414:Generated_Source\PSoC5/CAN_TX_RX_func.c ****     *
 415:Generated_Source\PSoC5/CAN_TX_RX_func.c ****     * Parameters:
 416:Generated_Source\PSoC5/CAN_TX_RX_func.c ****     *  None.
 417:Generated_Source\PSoC5/CAN_TX_RX_func.c ****     *
 418:Generated_Source\PSoC5/CAN_TX_RX_func.c ****     * Return:
 419:Generated_Source\PSoC5/CAN_TX_RX_func.c ****     *  Indication if Message has been sent.
 420:Generated_Source\PSoC5/CAN_TX_RX_func.c ****     *   Define                             Description
 421:Generated_Source\PSoC5/CAN_TX_RX_func.c ****     *    CYRET_SUCCESS                      The function passed successfully
 422:Generated_Source\PSoC5/CAN_TX_RX_func.c ****     *    CAN_FAIL              The function failed
 423:Generated_Source\PSoC5/CAN_TX_RX_func.c ****     *
 424:Generated_Source\PSoC5/CAN_TX_RX_func.c ****     *******************************************************************************/
 425:Generated_Source\PSoC5/CAN_TX_RX_func.c ****     uint8 CAN_SendMsg4(void) 
 426:Generated_Source\PSoC5/CAN_TX_RX_func.c ****     {
 427:Generated_Source\PSoC5/CAN_TX_RX_func.c ****         uint8 result = CYRET_SUCCESS;
 428:Generated_Source\PSoC5/CAN_TX_RX_func.c **** 
 429:Generated_Source\PSoC5/CAN_TX_RX_func.c ****         #if (CY_PSOC3 || CY_PSOC5)
 430:Generated_Source\PSoC5/CAN_TX_RX_func.c ****             if ((CAN_TX[4u].txcmd.byte[0u] & CAN_TX_REQUEST_PENDING) != 0u)
 431:Generated_Source\PSoC5/CAN_TX_RX_func.c ****         #else  /* CY_PSOC4 */
 432:Generated_Source\PSoC5/CAN_TX_RX_func.c ****             if ((CAN_TX_CMD_REG(4u) & CAN_TX_REQUEST_PENDING) != 0u)
 433:Generated_Source\PSoC5/CAN_TX_RX_func.c ****         #endif /* CY_PSOC3 || CY_PSOC5 */
 434:Generated_Source\PSoC5/CAN_TX_RX_func.c ****             {
 435:Generated_Source\PSoC5/CAN_TX_RX_func.c ****                 result = CAN_FAIL;
 436:Generated_Source\PSoC5/CAN_TX_RX_func.c ****             }
 437:Generated_Source\PSoC5/CAN_TX_RX_func.c ****             else
 438:Generated_Source\PSoC5/CAN_TX_RX_func.c ****             {
 439:Generated_Source\PSoC5/CAN_TX_RX_func.c ****                 /* `#START MESSAGE_4_TRASMITTED` */
 440:Generated_Source\PSoC5/CAN_TX_RX_func.c **** 
 441:Generated_Source\PSoC5/CAN_TX_RX_func.c ****                 /* `#END` */
 442:Generated_Source\PSoC5/CAN_TX_RX_func.c **** 
 443:Generated_Source\PSoC5/CAN_TX_RX_func.c ****                 #ifdef CAN_SEND_MSG_4_CALLBACK
 444:Generated_Source\PSoC5/CAN_TX_RX_func.c ****                     CAN_SendMsg_4_Callback();
 445:Generated_Source\PSoC5/CAN_TX_RX_func.c ****                 #endif /* CAN_SEND_MSG_4_CALLBACK */
 446:Generated_Source\PSoC5/CAN_TX_RX_func.c **** 
 447:Generated_Source\PSoC5/CAN_TX_RX_func.c ****                 CY_SET_REG32(CAN_TX_CMD_PTR(4u),
 448:Generated_Source\PSoC5/CAN_TX_RX_func.c ****                 CY_GET_REG32(CAN_TX_CMD_PTR(4u)) | CAN_SEND_MESSAGE);
 449:Generated_Source\PSoC5/CAN_TX_RX_func.c ****             }
 450:Generated_Source\PSoC5/CAN_TX_RX_func.c **** 
 451:Generated_Source\PSoC5/CAN_TX_RX_func.c ****         return (result);
 452:Generated_Source\PSoC5/CAN_TX_RX_func.c ****     }
 453:Generated_Source\PSoC5/CAN_TX_RX_func.c **** #endif /* CAN_TX4_FUNC_ENABLE */
 454:Generated_Source\PSoC5/CAN_TX_RX_func.c **** 
 455:Generated_Source\PSoC5/CAN_TX_RX_func.c **** 
 456:Generated_Source\PSoC5/CAN_TX_RX_func.c **** #if (CAN_TX5_FUNC_ENABLE)
 457:Generated_Source\PSoC5/CAN_TX_RX_func.c ****     /*******************************************************************************
 458:Generated_Source\PSoC5/CAN_TX_RX_func.c ****     * FUNCTION NAME:   CAN_SendMsg5
 459:Generated_Source\PSoC5/CAN_TX_RX_func.c ****     ********************************************************************************
 460:Generated_Source\PSoC5/CAN_TX_RX_func.c ****     *
 461:Generated_Source\PSoC5/CAN_TX_RX_func.c ****     * Summary:
 462:Generated_Source\PSoC5/CAN_TX_RX_func.c ****     *  This function is the entry point to Transmit Message 5. The function checks
 463:Generated_Source\PSoC5/CAN_TX_RX_func.c ****     *  if mailbox 5 doesn't already have un-transmitted messages waiting for
 464:Generated_Source\PSoC5/CAN_TX_RX_func.c ****     *  arbitration. If not initiate transmission of the message.
 465:Generated_Source\PSoC5/CAN_TX_RX_func.c ****     *  Generated only for the Transmit mailbox designed as Full.
 466:Generated_Source\PSoC5/CAN_TX_RX_func.c ****     *
 467:Generated_Source\PSoC5/CAN_TX_RX_func.c ****     * Parameters:
ARM GAS  D:\Windows\AppData\Local\Temp\ccxctkJs.s 			page 19


 468:Generated_Source\PSoC5/CAN_TX_RX_func.c ****     *  None.
 469:Generated_Source\PSoC5/CAN_TX_RX_func.c ****     *
 470:Generated_Source\PSoC5/CAN_TX_RX_func.c ****     * Return:
 471:Generated_Source\PSoC5/CAN_TX_RX_func.c ****     *  Indication if Message has been sent.
 472:Generated_Source\PSoC5/CAN_TX_RX_func.c ****     *   Define                             Description
 473:Generated_Source\PSoC5/CAN_TX_RX_func.c ****     *    CYRET_SUCCESS                      The function passed successfully
 474:Generated_Source\PSoC5/CAN_TX_RX_func.c ****     *    CAN_FAIL              The function failed
 475:Generated_Source\PSoC5/CAN_TX_RX_func.c ****     *
 476:Generated_Source\PSoC5/CAN_TX_RX_func.c ****     *******************************************************************************/
 477:Generated_Source\PSoC5/CAN_TX_RX_func.c ****     uint8 CAN_SendMsg5(void) 
 478:Generated_Source\PSoC5/CAN_TX_RX_func.c ****     {
 479:Generated_Source\PSoC5/CAN_TX_RX_func.c ****         uint8 result = CYRET_SUCCESS;
 480:Generated_Source\PSoC5/CAN_TX_RX_func.c **** 
 481:Generated_Source\PSoC5/CAN_TX_RX_func.c ****         #if (CY_PSOC3 || CY_PSOC5)
 482:Generated_Source\PSoC5/CAN_TX_RX_func.c ****             if ((CAN_TX[5u].txcmd.byte[0u] & CAN_TX_REQUEST_PENDING) != 0u)
 483:Generated_Source\PSoC5/CAN_TX_RX_func.c ****         #else  /* CY_PSOC4 */
 484:Generated_Source\PSoC5/CAN_TX_RX_func.c ****             if ((CAN_TX_CMD_REG(5u) & CAN_TX_REQUEST_PENDING) != 0u)
 485:Generated_Source\PSoC5/CAN_TX_RX_func.c ****         #endif /* CY_PSOC3 || CY_PSOC5 */
 486:Generated_Source\PSoC5/CAN_TX_RX_func.c ****             {
 487:Generated_Source\PSoC5/CAN_TX_RX_func.c ****                 result = CAN_FAIL;
 488:Generated_Source\PSoC5/CAN_TX_RX_func.c ****             }
 489:Generated_Source\PSoC5/CAN_TX_RX_func.c ****             else
 490:Generated_Source\PSoC5/CAN_TX_RX_func.c ****             {
 491:Generated_Source\PSoC5/CAN_TX_RX_func.c ****                 /* `#START MESSAGE_5_TRASMITTED` */
 492:Generated_Source\PSoC5/CAN_TX_RX_func.c **** 
 493:Generated_Source\PSoC5/CAN_TX_RX_func.c ****                 /* `#END` */
 494:Generated_Source\PSoC5/CAN_TX_RX_func.c **** 
 495:Generated_Source\PSoC5/CAN_TX_RX_func.c ****                 #ifdef CAN_SEND_MSG_5_CALLBACK
 496:Generated_Source\PSoC5/CAN_TX_RX_func.c ****                     CAN_SendMsg_5_Callback();
 497:Generated_Source\PSoC5/CAN_TX_RX_func.c ****                 #endif /* CAN_SEND_MSG_5_CALLBACK */
 498:Generated_Source\PSoC5/CAN_TX_RX_func.c **** 
 499:Generated_Source\PSoC5/CAN_TX_RX_func.c ****                 CY_SET_REG32(CAN_TX_CMD_PTR(5u),
 500:Generated_Source\PSoC5/CAN_TX_RX_func.c ****                 CY_GET_REG32(CAN_TX_CMD_PTR(5u)) | CAN_SEND_MESSAGE);
 501:Generated_Source\PSoC5/CAN_TX_RX_func.c ****             }
 502:Generated_Source\PSoC5/CAN_TX_RX_func.c **** 
 503:Generated_Source\PSoC5/CAN_TX_RX_func.c ****         return (result);
 504:Generated_Source\PSoC5/CAN_TX_RX_func.c ****     }
 505:Generated_Source\PSoC5/CAN_TX_RX_func.c **** #endif /* CAN_TX5_FUNC_ENABLE */
 506:Generated_Source\PSoC5/CAN_TX_RX_func.c **** 
 507:Generated_Source\PSoC5/CAN_TX_RX_func.c **** 
 508:Generated_Source\PSoC5/CAN_TX_RX_func.c **** #if (CAN_TX6_FUNC_ENABLE)
 509:Generated_Source\PSoC5/CAN_TX_RX_func.c ****     /*******************************************************************************
 510:Generated_Source\PSoC5/CAN_TX_RX_func.c ****     * FUNCTION NAME:   CAN_SendMsg6
 511:Generated_Source\PSoC5/CAN_TX_RX_func.c ****     ********************************************************************************
 512:Generated_Source\PSoC5/CAN_TX_RX_func.c ****     *
 513:Generated_Source\PSoC5/CAN_TX_RX_func.c ****     * Summary:
 514:Generated_Source\PSoC5/CAN_TX_RX_func.c ****     *  This function is the entry point to Transmit Message 6. The function checks
 515:Generated_Source\PSoC5/CAN_TX_RX_func.c ****     *  if mailbox 6 doesn't already have un-transmitted messages waiting for
 516:Generated_Source\PSoC5/CAN_TX_RX_func.c ****     *  arbitration. If not initiate transmission of the message.
 517:Generated_Source\PSoC5/CAN_TX_RX_func.c ****     *  Generated only for the Transmit mailbox designed as Full.
 518:Generated_Source\PSoC5/CAN_TX_RX_func.c ****     *
 519:Generated_Source\PSoC5/CAN_TX_RX_func.c ****     * Parameters:
 520:Generated_Source\PSoC5/CAN_TX_RX_func.c ****     *  None.
 521:Generated_Source\PSoC5/CAN_TX_RX_func.c ****     *
 522:Generated_Source\PSoC5/CAN_TX_RX_func.c ****     * Return:
 523:Generated_Source\PSoC5/CAN_TX_RX_func.c ****     *  Indication if Message has been sent.
 524:Generated_Source\PSoC5/CAN_TX_RX_func.c ****     *   Define                             Description
ARM GAS  D:\Windows\AppData\Local\Temp\ccxctkJs.s 			page 20


 525:Generated_Source\PSoC5/CAN_TX_RX_func.c ****     *    CYRET_SUCCESS                      The function passed successfully
 526:Generated_Source\PSoC5/CAN_TX_RX_func.c ****     *    CAN_FAIL              The function failed
 527:Generated_Source\PSoC5/CAN_TX_RX_func.c ****     *
 528:Generated_Source\PSoC5/CAN_TX_RX_func.c ****     *******************************************************************************/
 529:Generated_Source\PSoC5/CAN_TX_RX_func.c ****     uint8 CAN_SendMsg6(void) 
 530:Generated_Source\PSoC5/CAN_TX_RX_func.c ****     {
 531:Generated_Source\PSoC5/CAN_TX_RX_func.c ****         uint8 result = CYRET_SUCCESS;
 532:Generated_Source\PSoC5/CAN_TX_RX_func.c **** 
 533:Generated_Source\PSoC5/CAN_TX_RX_func.c ****         #if (CY_PSOC3 || CY_PSOC5)
 534:Generated_Source\PSoC5/CAN_TX_RX_func.c ****             if ((CAN_TX[6u].txcmd.byte[0u] & CAN_TX_REQUEST_PENDING) != 0u)
 535:Generated_Source\PSoC5/CAN_TX_RX_func.c ****         #else  /* CY_PSOC4 */
 536:Generated_Source\PSoC5/CAN_TX_RX_func.c ****             if ((CAN_TX_CMD_REG(6u) & CAN_TX_REQUEST_PENDING) != 0u)
 537:Generated_Source\PSoC5/CAN_TX_RX_func.c ****         #endif /* CY_PSOC3 || CY_PSOC5 */
 538:Generated_Source\PSoC5/CAN_TX_RX_func.c ****             {
 539:Generated_Source\PSoC5/CAN_TX_RX_func.c ****                 result = CAN_FAIL;
 540:Generated_Source\PSoC5/CAN_TX_RX_func.c ****             }
 541:Generated_Source\PSoC5/CAN_TX_RX_func.c ****             else
 542:Generated_Source\PSoC5/CAN_TX_RX_func.c ****             {
 543:Generated_Source\PSoC5/CAN_TX_RX_func.c ****                 /* `#START MESSAGE_6_TRASMITTED` */
 544:Generated_Source\PSoC5/CAN_TX_RX_func.c **** 
 545:Generated_Source\PSoC5/CAN_TX_RX_func.c ****                 /* `#END` */
 546:Generated_Source\PSoC5/CAN_TX_RX_func.c **** 
 547:Generated_Source\PSoC5/CAN_TX_RX_func.c ****                 #ifdef CAN_SEND_MSG_6_CALLBACK
 548:Generated_Source\PSoC5/CAN_TX_RX_func.c ****                     CAN_SendMsg_6_Callback();
 549:Generated_Source\PSoC5/CAN_TX_RX_func.c ****                 #endif /* CAN_SEND_MSG_6_CALLBACK */
 550:Generated_Source\PSoC5/CAN_TX_RX_func.c **** 
 551:Generated_Source\PSoC5/CAN_TX_RX_func.c ****                 CY_SET_REG32(CAN_TX_CMD_PTR(6u),
 552:Generated_Source\PSoC5/CAN_TX_RX_func.c ****                 CY_GET_REG32(CAN_TX_CMD_PTR(6u)) | CAN_SEND_MESSAGE);
 553:Generated_Source\PSoC5/CAN_TX_RX_func.c ****             }
 554:Generated_Source\PSoC5/CAN_TX_RX_func.c **** 
 555:Generated_Source\PSoC5/CAN_TX_RX_func.c ****         return (result);
 556:Generated_Source\PSoC5/CAN_TX_RX_func.c ****     }
 557:Generated_Source\PSoC5/CAN_TX_RX_func.c **** #endif /* CAN_TX6_FUNC_ENABLE */
 558:Generated_Source\PSoC5/CAN_TX_RX_func.c **** 
 559:Generated_Source\PSoC5/CAN_TX_RX_func.c **** 
 560:Generated_Source\PSoC5/CAN_TX_RX_func.c **** #if (CAN_TX7_FUNC_ENABLE)
 561:Generated_Source\PSoC5/CAN_TX_RX_func.c ****     /*******************************************************************************
 562:Generated_Source\PSoC5/CAN_TX_RX_func.c ****     * FUNCTION NAME:   CAN_SendMsg7)
 563:Generated_Source\PSoC5/CAN_TX_RX_func.c ****     ********************************************************************************
 564:Generated_Source\PSoC5/CAN_TX_RX_func.c ****     *
 565:Generated_Source\PSoC5/CAN_TX_RX_func.c ****     * Summary:
 566:Generated_Source\PSoC5/CAN_TX_RX_func.c ****     *  This function is the entry point to Transmit Message 7. The function checks
 567:Generated_Source\PSoC5/CAN_TX_RX_func.c ****     *  if mailbox 7 doesn't already have un-transmitted messages waiting for
 568:Generated_Source\PSoC5/CAN_TX_RX_func.c ****     *  arbitration. If not initiate transmission of the message.
 569:Generated_Source\PSoC5/CAN_TX_RX_func.c ****     *  Generated only for the Transmit mailbox designed as Full.
 570:Generated_Source\PSoC5/CAN_TX_RX_func.c ****     *
 571:Generated_Source\PSoC5/CAN_TX_RX_func.c ****     * Parameters:
 572:Generated_Source\PSoC5/CAN_TX_RX_func.c ****     *  None.
 573:Generated_Source\PSoC5/CAN_TX_RX_func.c ****     *
 574:Generated_Source\PSoC5/CAN_TX_RX_func.c ****     * Return:
 575:Generated_Source\PSoC5/CAN_TX_RX_func.c ****     *  Indication if Message has been sent.
 576:Generated_Source\PSoC5/CAN_TX_RX_func.c ****     *   Define                             Description
 577:Generated_Source\PSoC5/CAN_TX_RX_func.c ****     *    CYRET_SUCCESS                      The function passed successfully
 578:Generated_Source\PSoC5/CAN_TX_RX_func.c ****     *    CAN_FAIL              The function failed
 579:Generated_Source\PSoC5/CAN_TX_RX_func.c ****     *
 580:Generated_Source\PSoC5/CAN_TX_RX_func.c ****     *******************************************************************************/
 581:Generated_Source\PSoC5/CAN_TX_RX_func.c ****     uint8 CAN_SendMsg7(void) 
ARM GAS  D:\Windows\AppData\Local\Temp\ccxctkJs.s 			page 21


 582:Generated_Source\PSoC5/CAN_TX_RX_func.c ****     {
 583:Generated_Source\PSoC5/CAN_TX_RX_func.c ****         uint8 result = CYRET_SUCCESS;
 584:Generated_Source\PSoC5/CAN_TX_RX_func.c **** 
 585:Generated_Source\PSoC5/CAN_TX_RX_func.c ****         #if (CY_PSOC3 || CY_PSOC5)
 586:Generated_Source\PSoC5/CAN_TX_RX_func.c ****             if ((CAN_TX[7u].txcmd.byte[0u] & CAN_TX_REQUEST_PENDING) != 0u)
 587:Generated_Source\PSoC5/CAN_TX_RX_func.c ****         #else  /* CY_PSOC4 */
 588:Generated_Source\PSoC5/CAN_TX_RX_func.c ****             if ((CAN_TX_CMD_REG(7u) & CAN_TX_REQUEST_PENDING) != 0u)
 589:Generated_Source\PSoC5/CAN_TX_RX_func.c ****         #endif /* CY_PSOC3 || CY_PSOC5 */
 590:Generated_Source\PSoC5/CAN_TX_RX_func.c ****             {
 591:Generated_Source\PSoC5/CAN_TX_RX_func.c ****                 result = CAN_FAIL;
 592:Generated_Source\PSoC5/CAN_TX_RX_func.c ****             }
 593:Generated_Source\PSoC5/CAN_TX_RX_func.c ****             else
 594:Generated_Source\PSoC5/CAN_TX_RX_func.c ****             {
 595:Generated_Source\PSoC5/CAN_TX_RX_func.c ****                 /* `#START MESSAGE_7_TRASMITTED` */
 596:Generated_Source\PSoC5/CAN_TX_RX_func.c **** 
 597:Generated_Source\PSoC5/CAN_TX_RX_func.c ****                 /* `#END` */
 598:Generated_Source\PSoC5/CAN_TX_RX_func.c **** 
 599:Generated_Source\PSoC5/CAN_TX_RX_func.c ****                 #ifdef CAN_SEND_MSG_7_CALLBACK
 600:Generated_Source\PSoC5/CAN_TX_RX_func.c ****                     CAN_SendMsg_7_Callback();
 601:Generated_Source\PSoC5/CAN_TX_RX_func.c ****                 #endif /* CAN_SEND_MSG_7_CALLBACK */
 602:Generated_Source\PSoC5/CAN_TX_RX_func.c **** 
 603:Generated_Source\PSoC5/CAN_TX_RX_func.c ****                 CY_SET_REG32(CAN_TX_CMD_PTR(7u),
 604:Generated_Source\PSoC5/CAN_TX_RX_func.c ****                 CY_GET_REG32(CAN_TX_CMD_PTR(7u)) | CAN_SEND_MESSAGE);
 605:Generated_Source\PSoC5/CAN_TX_RX_func.c ****             }
 606:Generated_Source\PSoC5/CAN_TX_RX_func.c **** 
 607:Generated_Source\PSoC5/CAN_TX_RX_func.c ****         return (result);
 608:Generated_Source\PSoC5/CAN_TX_RX_func.c ****     }
 609:Generated_Source\PSoC5/CAN_TX_RX_func.c **** #endif /* CAN_TX7_FUNC_ENABLE */
 610:Generated_Source\PSoC5/CAN_TX_RX_func.c **** 
 611:Generated_Source\PSoC5/CAN_TX_RX_func.c **** 
 612:Generated_Source\PSoC5/CAN_TX_RX_func.c **** /*******************************************************************************
 613:Generated_Source\PSoC5/CAN_TX_RX_func.c **** * FUNCTION NAME:   CAN_ReceiveMsg
 614:Generated_Source\PSoC5/CAN_TX_RX_func.c **** ********************************************************************************
 615:Generated_Source\PSoC5/CAN_TX_RX_func.c **** *
 616:Generated_Source\PSoC5/CAN_TX_RX_func.c **** * Summary:
 617:Generated_Source\PSoC5/CAN_TX_RX_func.c **** *  This function is the entry point to Receive Message Interrupt for Basic
 618:Generated_Source\PSoC5/CAN_TX_RX_func.c **** *  mailboxes. Clears the Receive particular Message interrupt flag. Generated
 619:Generated_Source\PSoC5/CAN_TX_RX_func.c **** *  only if one of the Receive mailboxes is designed as Basic.
 620:Generated_Source\PSoC5/CAN_TX_RX_func.c **** *
 621:Generated_Source\PSoC5/CAN_TX_RX_func.c **** * Parameters:
 622:Generated_Source\PSoC5/CAN_TX_RX_func.c **** *  rxMailbox: The mailbox number that trig Receive Message Interrupt.
 623:Generated_Source\PSoC5/CAN_TX_RX_func.c **** *
 624:Generated_Source\PSoC5/CAN_TX_RX_func.c **** * Return:
 625:Generated_Source\PSoC5/CAN_TX_RX_func.c **** *  None.
 626:Generated_Source\PSoC5/CAN_TX_RX_func.c **** *
 627:Generated_Source\PSoC5/CAN_TX_RX_func.c **** * Reentrant:
 628:Generated_Source\PSoC5/CAN_TX_RX_func.c **** *  Depends on the Customer code.
 629:Generated_Source\PSoC5/CAN_TX_RX_func.c **** *
 630:Generated_Source\PSoC5/CAN_TX_RX_func.c **** *******************************************************************************/
 631:Generated_Source\PSoC5/CAN_TX_RX_func.c **** void CAN_ReceiveMsg(uint8 rxMailbox) 
 632:Generated_Source\PSoC5/CAN_TX_RX_func.c **** {
 550              		.loc 1 632 0
 551              		.cfi_startproc
 552              		@ args = 0, pretend = 0, frame = 56
 553              		@ frame_needed = 1, uses_anonymous_args = 0
 554 0000 B0B5     		push	{r4, r5, r7, lr}
 555              		.cfi_def_cfa_offset 16
ARM GAS  D:\Windows\AppData\Local\Temp\ccxctkJs.s 			page 22


 556              		.cfi_offset 4, -16
 557              		.cfi_offset 5, -12
 558              		.cfi_offset 7, -8
 559              		.cfi_offset 14, -4
 560 0002 8EB0     		sub	sp, sp, #56
 561              		.cfi_def_cfa_offset 72
 562 0004 00AF     		add	r7, sp, #0
 563              		.cfi_def_cfa_register 7
 564 0006 0346     		mov	r3, r0
 565 0008 FB71     		strb	r3, [r7, #7]
 633:Generated_Source\PSoC5/CAN_TX_RX_func.c ****     #if (CY_PSOC3 || CY_PSOC5)
 634:Generated_Source\PSoC5/CAN_TX_RX_func.c ****         if ((CAN_RX[rxMailbox].rxcmd.byte[0u] & CAN_RX_ACK_MSG) != 0u)
 566              		.loc 1 634 0
 567 000a FB79     		ldrb	r3, [r7, #7]	@ zero_extendqisi2
 568 000c 5A01     		lsls	r2, r3, #5
 569 000e 324B     		ldr	r3, .L55
 570 0010 1344     		add	r3, r3, r2
 571 0012 1B78     		ldrb	r3, [r3]
 572 0014 DBB2     		uxtb	r3, r3
 573 0016 03F00103 		and	r3, r3, #1
 574 001a 002B     		cmp	r3, #0
 575 001c 59D0     		beq	.L49
 576              	.LBB4:
 635:Generated_Source\PSoC5/CAN_TX_RX_func.c ****     #else  /* CY_PSOC4 */
 636:Generated_Source\PSoC5/CAN_TX_RX_func.c ****         if ((CAN_RX_CMD_REG(rxMailbox) & CAN_RX_ACK_MSG) != 0u)
 637:Generated_Source\PSoC5/CAN_TX_RX_func.c ****     #endif /* CY_PSOC3 || CY_PSOC5 */
 638:Generated_Source\PSoC5/CAN_TX_RX_func.c ****         {
 639:Generated_Source\PSoC5/CAN_TX_RX_func.c ****             /* `#START MESSAGE_BASIC_RECEIVED` */
 640:Generated_Source\PSoC5/CAN_TX_RX_func.c ****             
 641:Generated_Source\PSoC5/CAN_TX_RX_func.c ****             // Grab message ID
 642:Generated_Source\PSoC5/CAN_TX_RX_func.c ****             int ID = CAN_GET_RX_ID(rxMailbox);
 577              		.loc 1 642 0
 578 001e FB79     		ldrb	r3, [r7, #7]	@ zero_extendqisi2
 579 0020 5A01     		lsls	r2, r3, #5
 580 0022 2D4B     		ldr	r3, .L55
 581 0024 1344     		add	r3, r3, r2
 582 0026 9B78     		ldrb	r3, [r3, #2]
 583 0028 DBB2     		uxtb	r3, r3
 584 002a 03F01003 		and	r3, r3, #16
 585 002e 1B11     		asrs	r3, r3, #4
 586 0030 002B     		cmp	r3, #0
 587 0032 07D0     		beq	.L51
 588              		.loc 1 642 0 is_stmt 0 discriminator 1
 589 0034 FB79     		ldrb	r3, [r7, #7]	@ zero_extendqisi2
 590 0036 5A01     		lsls	r2, r3, #5
 591 0038 274B     		ldr	r3, .L55
 592 003a 1344     		add	r3, r3, r2
 593 003c 0433     		adds	r3, r3, #4
 594 003e 1B68     		ldr	r3, [r3]
 595 0040 DB08     		lsrs	r3, r3, #3
 596 0042 06E0     		b	.L52
 597              	.L51:
 598              		.loc 1 642 0 discriminator 2
 599 0044 FB79     		ldrb	r3, [r7, #7]	@ zero_extendqisi2
 600 0046 5A01     		lsls	r2, r3, #5
 601 0048 234B     		ldr	r3, .L55
 602 004a 1344     		add	r3, r3, r2
ARM GAS  D:\Windows\AppData\Local\Temp\ccxctkJs.s 			page 23


 603 004c 0433     		adds	r3, r3, #4
 604 004e 1B68     		ldr	r3, [r3]
 605 0050 5B0D     		lsrs	r3, r3, #21
 606              	.L52:
 607              		.loc 1 642 0 discriminator 4
 608 0052 3B63     		str	r3, [r7, #48]
 643:Generated_Source\PSoC5/CAN_TX_RX_func.c ****             
 644:Generated_Source\PSoC5/CAN_TX_RX_func.c ****             // The variable test is just for debuging.
 645:Generated_Source\PSoC5/CAN_TX_RX_func.c ****             CAN_RX_STRUCT test = CAN_RX[rxMailbox]; 
 609              		.loc 1 645 0 is_stmt 1 discriminator 4
 610 0054 FB79     		ldrb	r3, [r7, #7]	@ zero_extendqisi2
 611 0056 5A01     		lsls	r2, r3, #5
 612 0058 1F4B     		ldr	r3, .L55
 613 005a 1344     		add	r3, r3, r2
 614 005c 07F10804 		add	r4, r7, #8
 615 0060 1D46     		mov	r5, r3
 616 0062 2868     		ldr	r0, [r5]	@ unaligned
 617 0064 6968     		ldr	r1, [r5, #4]	@ unaligned
 618 0066 AA68     		ldr	r2, [r5, #8]	@ unaligned
 619 0068 EB68     		ldr	r3, [r5, #12]	@ unaligned
 620 006a 0FC4     		stmia	r4!, {r0, r1, r2, r3}
 621 006c 2869     		ldr	r0, [r5, #16]	@ unaligned
 622 006e 6969     		ldr	r1, [r5, #20]	@ unaligned
 623 0070 AA69     		ldr	r2, [r5, #24]	@ unaligned
 624 0072 EB69     		ldr	r3, [r5, #28]	@ unaligned
 625 0074 0FC4     		stmia	r4!, {r0, r1, r2, r3}
 646:Generated_Source\PSoC5/CAN_TX_RX_func.c ****             
 647:Generated_Source\PSoC5/CAN_TX_RX_func.c ****             // Grab the data one byte at a time.
 648:Generated_Source\PSoC5/CAN_TX_RX_func.c ****             uint8_t data[8];
 649:Generated_Source\PSoC5/CAN_TX_RX_func.c ****             int i = 0;
 626              		.loc 1 649 0 discriminator 4
 627 0076 0023     		movs	r3, #0
 628 0078 7B63     		str	r3, [r7, #52]
 650:Generated_Source\PSoC5/CAN_TX_RX_func.c ****             for (i = 0; i < 8; i++)
 629              		.loc 1 650 0 discriminator 4
 630 007a 0023     		movs	r3, #0
 631 007c 7B63     		str	r3, [r7, #52]
 632 007e 11E0     		b	.L53
 633              	.L54:
 651:Generated_Source\PSoC5/CAN_TX_RX_func.c ****                 data[i] = CAN_RX[rxMailbox].rxdata.byte[i];
 634              		.loc 1 651 0 discriminator 3
 635 0080 FB79     		ldrb	r3, [r7, #7]	@ zero_extendqisi2
 636 0082 5A01     		lsls	r2, r3, #5
 637 0084 144B     		ldr	r3, .L55
 638 0086 1344     		add	r3, r3, r2
 639 0088 7A6B     		ldr	r2, [r7, #52]
 640 008a 1344     		add	r3, r3, r2
 641 008c 0833     		adds	r3, r3, #8
 642 008e 1B78     		ldrb	r3, [r3]
 643 0090 D9B2     		uxtb	r1, r3
 644 0092 07F12802 		add	r2, r7, #40
 645 0096 7B6B     		ldr	r3, [r7, #52]
 646 0098 1344     		add	r3, r3, r2
 647 009a 0A46     		mov	r2, r1
 648 009c 1A70     		strb	r2, [r3]
 650:Generated_Source\PSoC5/CAN_TX_RX_func.c ****             for (i = 0; i < 8; i++)
 649              		.loc 1 650 0 discriminator 3
ARM GAS  D:\Windows\AppData\Local\Temp\ccxctkJs.s 			page 24


 650 009e 7B6B     		ldr	r3, [r7, #52]
 651 00a0 0133     		adds	r3, r3, #1
 652 00a2 7B63     		str	r3, [r7, #52]
 653              	.L53:
 650:Generated_Source\PSoC5/CAN_TX_RX_func.c ****             for (i = 0; i < 8; i++)
 654              		.loc 1 650 0 is_stmt 0 discriminator 1
 655 00a4 7B6B     		ldr	r3, [r7, #52]
 656 00a6 072B     		cmp	r3, #7
 657 00a8 EADD     		ble	.L54
 652:Generated_Source\PSoC5/CAN_TX_RX_func.c ****             
 653:Generated_Source\PSoC5/CAN_TX_RX_func.c ****             // Do something with that data based on the ID
 654:Generated_Source\PSoC5/CAN_TX_RX_func.c ****             can_receive(data, ID);
 658              		.loc 1 654 0 is_stmt 1
 659 00aa 07F12803 		add	r3, r7, #40
 660 00ae 1846     		mov	r0, r3
 661 00b0 396B     		ldr	r1, [r7, #48]
 662 00b2 FFF7FEFF 		bl	can_receive
 655:Generated_Source\PSoC5/CAN_TX_RX_func.c ****             
 656:Generated_Source\PSoC5/CAN_TX_RX_func.c ****             /* `#END` */
 657:Generated_Source\PSoC5/CAN_TX_RX_func.c **** 
 658:Generated_Source\PSoC5/CAN_TX_RX_func.c ****             #ifdef CAN_RECEIVE_MSG_CALLBACK
 659:Generated_Source\PSoC5/CAN_TX_RX_func.c ****                 CAN_ReceiveMsg_Callback();
 660:Generated_Source\PSoC5/CAN_TX_RX_func.c ****             #endif /* CAN_RECEIVE_MSG_CALLBACK */
 661:Generated_Source\PSoC5/CAN_TX_RX_func.c **** 
 662:Generated_Source\PSoC5/CAN_TX_RX_func.c ****             #if (CY_PSOC3 || CY_PSOC5)
 663:Generated_Source\PSoC5/CAN_TX_RX_func.c ****                 CAN_RX[rxMailbox].rxcmd.byte[0u] |= CAN_RX_ACK_MSG;
 663              		.loc 1 663 0
 664 00b6 FB79     		ldrb	r3, [r7, #7]	@ zero_extendqisi2
 665 00b8 5A01     		lsls	r2, r3, #5
 666 00ba 074B     		ldr	r3, .L55
 667 00bc 1344     		add	r3, r3, r2
 668 00be FA79     		ldrb	r2, [r7, #7]	@ zero_extendqisi2
 669 00c0 5101     		lsls	r1, r2, #5
 670 00c2 054A     		ldr	r2, .L55
 671 00c4 0A44     		add	r2, r2, r1
 672 00c6 1278     		ldrb	r2, [r2]
 673 00c8 D2B2     		uxtb	r2, r2
 674 00ca 42F00102 		orr	r2, r2, #1
 675 00ce D2B2     		uxtb	r2, r2
 676 00d0 1A70     		strb	r2, [r3]
 677              	.L49:
 678              	.LBE4:
 664:Generated_Source\PSoC5/CAN_TX_RX_func.c ****             #else  /* CY_PSOC4 */
 665:Generated_Source\PSoC5/CAN_TX_RX_func.c ****                 CAN_RX_CMD_REG(rxMailbox) |= CAN_RX_ACK_MSG;
 666:Generated_Source\PSoC5/CAN_TX_RX_func.c ****             #endif /* CY_PSOC3 || CY_PSOC5 */
 667:Generated_Source\PSoC5/CAN_TX_RX_func.c ****         }
 668:Generated_Source\PSoC5/CAN_TX_RX_func.c **** }
 679              		.loc 1 668 0
 680 00d2 3837     		adds	r7, r7, #56
 681              		.cfi_def_cfa_offset 16
 682 00d4 BD46     		mov	sp, r7
 683              		.cfi_def_cfa_register 13
 684              		@ sp needed
 685 00d6 B0BD     		pop	{r4, r5, r7, pc}
 686              	.L56:
 687              		.align	2
 688              	.L55:
ARM GAS  D:\Windows\AppData\Local\Temp\ccxctkJs.s 			page 25


 689 00d8 A0A00040 		.word	1073782944
 690              		.cfi_endproc
 691              	.LFE4:
 692              		.size	CAN_ReceiveMsg, .-CAN_ReceiveMsg
 693              		.text
 694              	.Letext0:
 695              		.file 2 "d:\\programming\\cypress\\psoc creator\\4.0\\psoc creator\\import\\gnu\\arm\\4.9.3\\arm-n
 696              		.file 3 "d:\\programming\\cypress\\psoc creator\\4.0\\psoc creator\\import\\gnu\\arm\\4.9.3\\arm-n
 697              		.file 4 "Generated_Source\\PSoC5\\cytypes.h"
 698              		.file 5 "Generated_Source\\PSoC5\\CAN.h"