ARM GAS  D:\Windows\AppData\Local\Temp\ccxctkJs.s 			page 1


   1              		.syntax unified
   2              		.cpu cortex-m3
   3              		.fpu softvfp
   4              		.eabi_attribute 20, 1
   5              		.eabi_attribute 21, 1
   6              		.eabi_attribute 23, 3
   7              		.eabi_attribute 24, 1
   8              		.eabi_attribute 25, 1
   9              		.eabi_attribute 26, 1
  10              		.eabi_attribute 30, 6
  11              		.eabi_attribute 34, 1
  12              		.eabi_attribute 18, 4
  13              		.thumb
  14              		.file	"CAN_TX_RX_func.c"
  15              		.text
  16              	.Ltext0:
  17              		.cfi_sections	.debug_frame
  18              		.section	.text.CAN_SendMsg,"ax",%progbits
  19              		.align	2
  20              		.global	CAN_SendMsg
  21              		.thumb
  22              		.thumb_func
  23              		.type	CAN_SendMsg, %function
  24              	CAN_SendMsg:
  25              	.LFB0:
  26              		.file 1 "Generated_Source\\PSoC5\\CAN_TX_RX_func.c"
   1:Generated_Source\PSoC5/CAN_TX_RX_func.c **** /*******************************************************************************
   2:Generated_Source\PSoC5/CAN_TX_RX_func.c **** * File Name: CAN_TX_RX_func.c
   3:Generated_Source\PSoC5/CAN_TX_RX_func.c **** * Version 3.0
   4:Generated_Source\PSoC5/CAN_TX_RX_func.c **** *
   5:Generated_Source\PSoC5/CAN_TX_RX_func.c **** * Description:
   6:Generated_Source\PSoC5/CAN_TX_RX_func.c **** *  There are functions process "Full" Receive and Transmit mailboxes:
   7:Generated_Source\PSoC5/CAN_TX_RX_func.c **** *     - CAN_SendMsg0-7();
   8:Generated_Source\PSoC5/CAN_TX_RX_func.c **** *     - CAN_ReceiveMsg0-15();
   9:Generated_Source\PSoC5/CAN_TX_RX_func.c **** *  Transmission of message, and receive routine for "Basic" mailboxes:
  10:Generated_Source\PSoC5/CAN_TX_RX_func.c **** *     - CAN_SendMsg();
  11:Generated_Source\PSoC5/CAN_TX_RX_func.c **** *     - CAN_TxCancel();
  12:Generated_Source\PSoC5/CAN_TX_RX_func.c **** *     - CAN_ReceiveMsg();
  13:Generated_Source\PSoC5/CAN_TX_RX_func.c **** *
  14:Generated_Source\PSoC5/CAN_TX_RX_func.c **** *  Note:
  15:Generated_Source\PSoC5/CAN_TX_RX_func.c **** *   None
  16:Generated_Source\PSoC5/CAN_TX_RX_func.c **** *
  17:Generated_Source\PSoC5/CAN_TX_RX_func.c **** ********************************************************************************
  18:Generated_Source\PSoC5/CAN_TX_RX_func.c **** * Copyright 2008-2015, Cypress Semiconductor Corporation.  All rights reserved.
  19:Generated_Source\PSoC5/CAN_TX_RX_func.c **** * You may use this file only in accordance with the license, terms, conditions,
  20:Generated_Source\PSoC5/CAN_TX_RX_func.c **** * disclaimers, and limitations in the end user license agreement accompanying
  21:Generated_Source\PSoC5/CAN_TX_RX_func.c **** * the software package with which this file was provided.
  22:Generated_Source\PSoC5/CAN_TX_RX_func.c **** *******************************************************************************/
  23:Generated_Source\PSoC5/CAN_TX_RX_func.c **** 
  24:Generated_Source\PSoC5/CAN_TX_RX_func.c **** #include "CAN.h"
  25:Generated_Source\PSoC5/CAN_TX_RX_func.c **** #include "cyapicallbacks.h"
  26:Generated_Source\PSoC5/CAN_TX_RX_func.c **** 
  27:Generated_Source\PSoC5/CAN_TX_RX_func.c **** /* `#START TX_RX_FUNCTION` */
  28:Generated_Source\PSoC5/CAN_TX_RX_func.c **** #include "can_manga.h"
  29:Generated_Source\PSoC5/CAN_TX_RX_func.c **** 
  30:Generated_Source\PSoC5/CAN_TX_RX_func.c **** #define buffer_LEN 8
  31:Generated_Source\PSoC5/CAN_TX_RX_func.c **** extern uint8_t can_buffer[];
ARM GAS  D:\Windows\AppData\Local\Temp\ccxctkJs.s 			page 2


  32:Generated_Source\PSoC5/CAN_TX_RX_func.c **** /* `#END` */
  33:Generated_Source\PSoC5/CAN_TX_RX_func.c **** 
  34:Generated_Source\PSoC5/CAN_TX_RX_func.c **** 
  35:Generated_Source\PSoC5/CAN_TX_RX_func.c **** /*******************************************************************************
  36:Generated_Source\PSoC5/CAN_TX_RX_func.c **** * FUNCTION NAME:   CAN_SendMsg
  37:Generated_Source\PSoC5/CAN_TX_RX_func.c **** ********************************************************************************
  38:Generated_Source\PSoC5/CAN_TX_RX_func.c **** *
  39:Generated_Source\PSoC5/CAN_TX_RX_func.c **** * Summary:
  40:Generated_Source\PSoC5/CAN_TX_RX_func.c **** *  This function is Send Message from one of Basic mailboxes. The function loops
  41:Generated_Source\PSoC5/CAN_TX_RX_func.c **** *  through the transmit message buffer designed as Basic CAN mailboxes for the
  42:Generated_Source\PSoC5/CAN_TX_RX_func.c **** *  first free available and sends from it. The number of retries is limited.
  43:Generated_Source\PSoC5/CAN_TX_RX_func.c **** *
  44:Generated_Source\PSoC5/CAN_TX_RX_func.c **** * Parameters:
  45:Generated_Source\PSoC5/CAN_TX_RX_func.c **** *  message: The pointer to a structure that contains all required data to send
  46:Generated_Source\PSoC5/CAN_TX_RX_func.c **** *           messages.
  47:Generated_Source\PSoC5/CAN_TX_RX_func.c **** *
  48:Generated_Source\PSoC5/CAN_TX_RX_func.c **** * Return:
  49:Generated_Source\PSoC5/CAN_TX_RX_func.c **** *  Indication if message has been sent.
  50:Generated_Source\PSoC5/CAN_TX_RX_func.c **** *   Define                             Description
  51:Generated_Source\PSoC5/CAN_TX_RX_func.c **** *    CYRET_SUCCESS                      The function passed successfully
  52:Generated_Source\PSoC5/CAN_TX_RX_func.c **** *    CAN_FAIL              The function failed
  53:Generated_Source\PSoC5/CAN_TX_RX_func.c **** *
  54:Generated_Source\PSoC5/CAN_TX_RX_func.c **** *******************************************************************************/
  55:Generated_Source\PSoC5/CAN_TX_RX_func.c **** uint8 CAN_SendMsg(const CAN_TX_MSG *message) 
  56:Generated_Source\PSoC5/CAN_TX_RX_func.c **** {
  27              		.loc 1 56 0
  28              		.cfi_startproc
  29              		@ args = 0, pretend = 0, frame = 24
  30              		@ frame_needed = 1, uses_anonymous_args = 0
  31              		@ link register save eliminated.
  32 0000 80B4     		push	{r7}
  33              		.cfi_def_cfa_offset 4
  34              		.cfi_offset 7, -4
  35 0002 87B0     		sub	sp, sp, #28
  36              		.cfi_def_cfa_offset 32
  37 0004 00AF     		add	r7, sp, #0
  38              		.cfi_def_cfa_register 7
  39 0006 7860     		str	r0, [r7, #4]
  57:Generated_Source\PSoC5/CAN_TX_RX_func.c ****     uint8 i, j, shift;
  58:Generated_Source\PSoC5/CAN_TX_RX_func.c ****     uint8 retry = 0u;
  40              		.loc 1 58 0
  41 0008 0023     		movs	r3, #0
  42 000a 3B75     		strb	r3, [r7, #20]
  59:Generated_Source\PSoC5/CAN_TX_RX_func.c ****     uint8 result = CAN_FAIL;
  43              		.loc 1 59 0
  44 000c 0123     		movs	r3, #1
  45 000e FB74     		strb	r3, [r7, #19]
  60:Generated_Source\PSoC5/CAN_TX_RX_func.c ****     uint32 regTemp;
  61:Generated_Source\PSoC5/CAN_TX_RX_func.c **** 
  62:Generated_Source\PSoC5/CAN_TX_RX_func.c ****     while (retry < CAN_RETRY_NUMBER)
  46              		.loc 1 62 0
  47 0010 A2E0     		b	.L2
  48              	.L21:
  63:Generated_Source\PSoC5/CAN_TX_RX_func.c ****     {
  64:Generated_Source\PSoC5/CAN_TX_RX_func.c ****         shift = 1u;    /* Start from first mailbox */
  49              		.loc 1 64 0
  50 0012 0123     		movs	r3, #1
ARM GAS  D:\Windows\AppData\Local\Temp\ccxctkJs.s 			page 3


  51 0014 7B75     		strb	r3, [r7, #21]
  65:Generated_Source\PSoC5/CAN_TX_RX_func.c ****         for (i = 0u; i < CAN_NUMBER_OF_TX_MAILBOXES; i++)
  52              		.loc 1 65 0
  53 0016 0023     		movs	r3, #0
  54 0018 FB75     		strb	r3, [r7, #23]
  55 001a 92E0     		b	.L3
  56              	.L18:
  66:Generated_Source\PSoC5/CAN_TX_RX_func.c ****         {
  67:Generated_Source\PSoC5/CAN_TX_RX_func.c ****             /* Find Basic TX mailboxes */
  68:Generated_Source\PSoC5/CAN_TX_RX_func.c ****             if ((CAN_TX_MAILBOX_TYPE & shift) == 0u)
  57              		.loc 1 68 0
  58 001c 7B7D     		ldrb	r3, [r7, #21]
  59 001e 03F00303 		and	r3, r3, #3
  60 0022 DBB2     		uxtb	r3, r3
  61 0024 002B     		cmp	r3, #0
  62 0026 40F08280 		bne	.L4
  69:Generated_Source\PSoC5/CAN_TX_RX_func.c ****             {
  70:Generated_Source\PSoC5/CAN_TX_RX_func.c ****                 /* Find free mailbox */
  71:Generated_Source\PSoC5/CAN_TX_RX_func.c ****                 #if (CY_PSOC3 || CY_PSOC5)
  72:Generated_Source\PSoC5/CAN_TX_RX_func.c ****                     if ((CAN_BUF_SR_REG.byte[2] & shift) == 0u)
  63              		.loc 1 72 0
  64 002a 514B     		ldr	r3, .L23
  65 002c 9B78     		ldrb	r3, [r3, #2]
  66 002e DAB2     		uxtb	r2, r3
  67 0030 7B7D     		ldrb	r3, [r7, #21]
  68 0032 1340     		ands	r3, r3, r2
  69 0034 DBB2     		uxtb	r3, r3
  70 0036 002B     		cmp	r3, #0
  71 0038 79D1     		bne	.L4
  73:Generated_Source\PSoC5/CAN_TX_RX_func.c ****                 #else  /* CY_PSOC4 */
  74:Generated_Source\PSoC5/CAN_TX_RX_func.c ****                     if ((CAN_BUF_SR_REG &
  75:Generated_Source\PSoC5/CAN_TX_RX_func.c ****                         (uint32) ((uint32) shift << CAN_TWO_BYTE_OFFSET)) == 0u)
  76:Generated_Source\PSoC5/CAN_TX_RX_func.c ****                 #endif /* CY_PSOC3 || CY_PSOC5 */
  77:Generated_Source\PSoC5/CAN_TX_RX_func.c ****                     {
  78:Generated_Source\PSoC5/CAN_TX_RX_func.c ****                         regTemp = 0u;
  72              		.loc 1 78 0
  73 003a 0023     		movs	r3, #0
  74 003c FB60     		str	r3, [r7, #12]
  79:Generated_Source\PSoC5/CAN_TX_RX_func.c **** 
  80:Generated_Source\PSoC5/CAN_TX_RX_func.c ****                         /* Set message parameters */
  81:Generated_Source\PSoC5/CAN_TX_RX_func.c ****                         if (message->rtr != CAN_STANDARD_MESSAGE)
  75              		.loc 1 81 0
  76 003e 7B68     		ldr	r3, [r7, #4]
  77 0040 1B79     		ldrb	r3, [r3, #4]	@ zero_extendqisi2
  78 0042 002B     		cmp	r3, #0
  79 0044 02D0     		beq	.L5
  82:Generated_Source\PSoC5/CAN_TX_RX_func.c ****                         {
  83:Generated_Source\PSoC5/CAN_TX_RX_func.c ****                             regTemp = CAN_TX_RTR_MASK;    /* RTR message Enable */
  80              		.loc 1 83 0
  81 0046 4FF40013 		mov	r3, #2097152
  82 004a FB60     		str	r3, [r7, #12]
  83              	.L5:
  84:Generated_Source\PSoC5/CAN_TX_RX_func.c ****                         }
  85:Generated_Source\PSoC5/CAN_TX_RX_func.c **** 
  86:Generated_Source\PSoC5/CAN_TX_RX_func.c ****                         if (message->ide == CAN_STANDARD_MESSAGE)
  84              		.loc 1 86 0
  85 004c 7B68     		ldr	r3, [r7, #4]
ARM GAS  D:\Windows\AppData\Local\Temp\ccxctkJs.s 			page 4


  86 004e 5B79     		ldrb	r3, [r3, #5]	@ zero_extendqisi2
  87 0050 002B     		cmp	r3, #0
  88 0052 09D1     		bne	.L6
  87:Generated_Source\PSoC5/CAN_TX_RX_func.c ****                         {
  88:Generated_Source\PSoC5/CAN_TX_RX_func.c ****                             CAN_SET_TX_ID_STANDARD_MSG(i, message->id);
  89              		.loc 1 88 0
  90 0054 FB7D     		ldrb	r3, [r7, #23]	@ zero_extendqisi2
  91 0056 1A01     		lsls	r2, r3, #4
  92 0058 464B     		ldr	r3, .L23+4
  93 005a 1344     		add	r3, r3, r2
  94 005c 0433     		adds	r3, r3, #4
  95 005e 7A68     		ldr	r2, [r7, #4]
  96 0060 1268     		ldr	r2, [r2]
  97 0062 5205     		lsls	r2, r2, #21
  98 0064 1A60     		str	r2, [r3]
  99 0066 0CE0     		b	.L7
 100              	.L6:
  89:Generated_Source\PSoC5/CAN_TX_RX_func.c ****                         }
  90:Generated_Source\PSoC5/CAN_TX_RX_func.c ****                         else
  91:Generated_Source\PSoC5/CAN_TX_RX_func.c ****                         {
  92:Generated_Source\PSoC5/CAN_TX_RX_func.c ****                             regTemp |= CAN_TX_IDE_MASK;
 101              		.loc 1 92 0
 102 0068 FB68     		ldr	r3, [r7, #12]
 103 006a 43F48013 		orr	r3, r3, #1048576
 104 006e FB60     		str	r3, [r7, #12]
  93:Generated_Source\PSoC5/CAN_TX_RX_func.c ****                             CAN_SET_TX_ID_EXTENDED_MSG(i, message->id);
 105              		.loc 1 93 0
 106 0070 FB7D     		ldrb	r3, [r7, #23]	@ zero_extendqisi2
 107 0072 1A01     		lsls	r2, r3, #4
 108 0074 3F4B     		ldr	r3, .L23+4
 109 0076 1344     		add	r3, r3, r2
 110 0078 0433     		adds	r3, r3, #4
 111 007a 7A68     		ldr	r2, [r7, #4]
 112 007c 1268     		ldr	r2, [r2]
 113 007e D200     		lsls	r2, r2, #3
 114 0080 1A60     		str	r2, [r3]
 115              	.L7:
  94:Generated_Source\PSoC5/CAN_TX_RX_func.c ****                         }
  95:Generated_Source\PSoC5/CAN_TX_RX_func.c **** 
  96:Generated_Source\PSoC5/CAN_TX_RX_func.c ****                         if (message->dlc < CAN_TX_DLC_MAX_VALUE)
 116              		.loc 1 96 0
 117 0082 7B68     		ldr	r3, [r7, #4]
 118 0084 9B79     		ldrb	r3, [r3, #6]	@ zero_extendqisi2
 119 0086 072B     		cmp	r3, #7
 120 0088 06D8     		bhi	.L8
  97:Generated_Source\PSoC5/CAN_TX_RX_func.c ****                         {
  98:Generated_Source\PSoC5/CAN_TX_RX_func.c ****                             regTemp |= ((uint32) message->dlc) << CAN_TWO_BYTE_OFFSET;
 121              		.loc 1 98 0
 122 008a 7B68     		ldr	r3, [r7, #4]
 123 008c 9B79     		ldrb	r3, [r3, #6]	@ zero_extendqisi2
 124 008e 1B04     		lsls	r3, r3, #16
 125 0090 FA68     		ldr	r2, [r7, #12]
 126 0092 1343     		orrs	r3, r3, r2
 127 0094 FB60     		str	r3, [r7, #12]
 128 0096 03E0     		b	.L9
 129              	.L8:
  99:Generated_Source\PSoC5/CAN_TX_RX_func.c ****                         }
ARM GAS  D:\Windows\AppData\Local\Temp\ccxctkJs.s 			page 5


 100:Generated_Source\PSoC5/CAN_TX_RX_func.c ****                         else
 101:Generated_Source\PSoC5/CAN_TX_RX_func.c ****                         {
 102:Generated_Source\PSoC5/CAN_TX_RX_func.c ****                             regTemp |= CAN_TX_DLC_UPPER_VALUE;
 130              		.loc 1 102 0
 131 0098 FB68     		ldr	r3, [r7, #12]
 132 009a 43F40023 		orr	r3, r3, #524288
 133 009e FB60     		str	r3, [r7, #12]
 134              	.L9:
 103:Generated_Source\PSoC5/CAN_TX_RX_func.c ****                         }
 104:Generated_Source\PSoC5/CAN_TX_RX_func.c **** 
 105:Generated_Source\PSoC5/CAN_TX_RX_func.c ****                         if (message->irq != CAN_TRANSMIT_INT_DISABLE)
 135              		.loc 1 105 0
 136 00a0 7B68     		ldr	r3, [r7, #4]
 137 00a2 DB79     		ldrb	r3, [r3, #7]	@ zero_extendqisi2
 138 00a4 002B     		cmp	r3, #0
 139 00a6 03D0     		beq	.L10
 106:Generated_Source\PSoC5/CAN_TX_RX_func.c ****                         {
 107:Generated_Source\PSoC5/CAN_TX_RX_func.c ****                             regTemp |= CAN_TX_INT_ENABLE_MASK;    /* Transmit Interrupt Enable */
 140              		.loc 1 107 0
 141 00a8 FB68     		ldr	r3, [r7, #12]
 142 00aa 43F00403 		orr	r3, r3, #4
 143 00ae FB60     		str	r3, [r7, #12]
 144              	.L10:
 108:Generated_Source\PSoC5/CAN_TX_RX_func.c ****                         }
 109:Generated_Source\PSoC5/CAN_TX_RX_func.c **** 
 110:Generated_Source\PSoC5/CAN_TX_RX_func.c ****                         for (j = 0u; (j < message->dlc) && (j < CAN_TX_DLC_MAX_VALUE); j++)
 145              		.loc 1 110 0
 146 00b0 0023     		movs	r3, #0
 147 00b2 BB75     		strb	r3, [r7, #22]
 148 00b4 17E0     		b	.L11
 149              	.L15:
 111:Generated_Source\PSoC5/CAN_TX_RX_func.c ****                         {
 112:Generated_Source\PSoC5/CAN_TX_RX_func.c ****                             #if (CY_PSOC3 || CY_PSOC5)
 113:Generated_Source\PSoC5/CAN_TX_RX_func.c ****                                 CAN_TX_DATA_BYTE(i, j) = message->msg->byte[j];
 150              		.loc 1 113 0
 151 00b6 FB7D     		ldrb	r3, [r7, #23]	@ zero_extendqisi2
 152 00b8 1A01     		lsls	r2, r3, #4
 153 00ba 2E4B     		ldr	r3, .L23+4
 154 00bc 1344     		add	r3, r3, r2
 155 00be BA7D     		ldrb	r2, [r7, #22]	@ zero_extendqisi2
 156 00c0 032A     		cmp	r2, #3
 157 00c2 03D9     		bls	.L12
 158              		.loc 1 113 0 is_stmt 0 discriminator 1
 159 00c4 BA7D     		ldrb	r2, [r7, #22]	@ zero_extendqisi2
 160 00c6 C2F10B02 		rsb	r2, r2, #11
 161 00ca 02E0     		b	.L13
 162              	.L12:
 163              		.loc 1 113 0 discriminator 2
 164 00cc BA7D     		ldrb	r2, [r7, #22]	@ zero_extendqisi2
 165 00ce C2F10302 		rsb	r2, r2, #3
 166              	.L13:
 167              		.loc 1 113 0 discriminator 4
 168 00d2 7968     		ldr	r1, [r7, #4]
 169 00d4 8868     		ldr	r0, [r1, #8]
 170 00d6 B97D     		ldrb	r1, [r7, #22]	@ zero_extendqisi2
 171 00d8 415C     		ldrb	r1, [r0, r1]	@ zero_extendqisi2
 172 00da 1344     		add	r3, r3, r2
ARM GAS  D:\Windows\AppData\Local\Temp\ccxctkJs.s 			page 6


 173 00dc 0A46     		mov	r2, r1
 174 00de 1A72     		strb	r2, [r3, #8]
 110:Generated_Source\PSoC5/CAN_TX_RX_func.c ****                         {
 175              		.loc 1 110 0 is_stmt 1 discriminator 4
 176 00e0 BB7D     		ldrb	r3, [r7, #22]	@ zero_extendqisi2
 177 00e2 0133     		adds	r3, r3, #1
 178 00e4 BB75     		strb	r3, [r7, #22]
 179              	.L11:
 110:Generated_Source\PSoC5/CAN_TX_RX_func.c ****                         {
 180              		.loc 1 110 0 is_stmt 0 discriminator 2
 181 00e6 7B68     		ldr	r3, [r7, #4]
 182 00e8 9B79     		ldrb	r3, [r3, #6]	@ zero_extendqisi2
 183 00ea BA7D     		ldrb	r2, [r7, #22]	@ zero_extendqisi2
 184 00ec 9A42     		cmp	r2, r3
 185 00ee 02D2     		bcs	.L14
 110:Generated_Source\PSoC5/CAN_TX_RX_func.c ****                         {
 186              		.loc 1 110 0 discriminator 3
 187 00f0 BB7D     		ldrb	r3, [r7, #22]	@ zero_extendqisi2
 188 00f2 072B     		cmp	r3, #7
 189 00f4 DFD9     		bls	.L15
 190              	.L14:
 114:Generated_Source\PSoC5/CAN_TX_RX_func.c ****                             #else /* CY_PSOC4 */
 115:Generated_Source\PSoC5/CAN_TX_RX_func.c ****                                 CAN_TX_DATA_BYTE(i, j, message->msg->byte[j]);
 116:Generated_Source\PSoC5/CAN_TX_RX_func.c ****                             #endif /* CY_PSOC3 || CY_PSOC5 */
 117:Generated_Source\PSoC5/CAN_TX_RX_func.c ****                         }
 118:Generated_Source\PSoC5/CAN_TX_RX_func.c **** 
 119:Generated_Source\PSoC5/CAN_TX_RX_func.c ****                         /* Disable isr */
 120:Generated_Source\PSoC5/CAN_TX_RX_func.c ****     CyIntDisable(CAN_ISR_NUMBER);
 191              		.loc 1 120 0 is_stmt 1
 192 00f6 204B     		ldr	r3, .L23+8
 193 00f8 4FF48032 		mov	r2, #65536
 194 00fc 1A60     		str	r2, [r3]
 121:Generated_Source\PSoC5/CAN_TX_RX_func.c **** 
 122:Generated_Source\PSoC5/CAN_TX_RX_func.c ****                         /* WPN[23] and WPN[3] set to 1 for write to CAN Control reg */
 123:Generated_Source\PSoC5/CAN_TX_RX_func.c ****                         CY_SET_REG32(CAN_TX_CMD_PTR(i), (regTemp | CAN_TX_WPN_SET));
 195              		.loc 1 123 0
 196 00fe FB7D     		ldrb	r3, [r7, #23]	@ zero_extendqisi2
 197 0100 1A01     		lsls	r2, r3, #4
 198 0102 1C4B     		ldr	r3, .L23+4
 199 0104 1344     		add	r3, r3, r2
 200 0106 1A46     		mov	r2, r3
 201 0108 FB68     		ldr	r3, [r7, #12]
 202 010a 43F40003 		orr	r3, r3, #8388608
 203 010e 43F00803 		orr	r3, r3, #8
 204 0112 1360     		str	r3, [r2]
 124:Generated_Source\PSoC5/CAN_TX_RX_func.c **** 
 125:Generated_Source\PSoC5/CAN_TX_RX_func.c ****                         #if (CY_PSOC3 || CY_PSOC5)
 126:Generated_Source\PSoC5/CAN_TX_RX_func.c ****                             CY_SET_REG32(CAN_TX_CMD_PTR(i), CAN_SEND_MESSAGE);
 205              		.loc 1 126 0
 206 0114 FB7D     		ldrb	r3, [r7, #23]	@ zero_extendqisi2
 207 0116 1A01     		lsls	r2, r3, #4
 208 0118 164B     		ldr	r3, .L23+4
 209 011a 1344     		add	r3, r3, r2
 210 011c 1A46     		mov	r2, r3
 211 011e 0123     		movs	r3, #1
 212 0120 1360     		str	r3, [r2]
 127:Generated_Source\PSoC5/CAN_TX_RX_func.c ****                         #else /* CY_PSOC4 */
ARM GAS  D:\Windows\AppData\Local\Temp\ccxctkJs.s 			page 7


 128:Generated_Source\PSoC5/CAN_TX_RX_func.c ****                             if (message->sst != CAN_STANDARD_MESSAGE)
 129:Generated_Source\PSoC5/CAN_TX_RX_func.c ****                             {
 130:Generated_Source\PSoC5/CAN_TX_RX_func.c ****                                 /* Single Shot Transmission */
 131:Generated_Source\PSoC5/CAN_TX_RX_func.c ****                                 CAN_TX_CMD_REG(i) |= CAN_SEND_MESSAGE |
 132:Generated_Source\PSoC5/CAN_TX_RX_func.c ****                                 CAN_TX_ABORT_MASK;
 133:Generated_Source\PSoC5/CAN_TX_RX_func.c ****                             }
 134:Generated_Source\PSoC5/CAN_TX_RX_func.c ****                             else
 135:Generated_Source\PSoC5/CAN_TX_RX_func.c ****                             {
 136:Generated_Source\PSoC5/CAN_TX_RX_func.c ****                                 CAN_TX_CMD_REG(i) |= CAN_SEND_MESSAGE;
 137:Generated_Source\PSoC5/CAN_TX_RX_func.c ****                             }
 138:Generated_Source\PSoC5/CAN_TX_RX_func.c ****                         #endif /* CY_PSOC3 || CY_PSOC5 */
 139:Generated_Source\PSoC5/CAN_TX_RX_func.c **** 
 140:Generated_Source\PSoC5/CAN_TX_RX_func.c ****                         /* Enable isr */
 141:Generated_Source\PSoC5/CAN_TX_RX_func.c ****     CyIntEnable(CAN_ISR_NUMBER);
 213              		.loc 1 141 0
 214 0122 164B     		ldr	r3, .L23+12
 215 0124 4FF48032 		mov	r2, #65536
 216 0128 1A60     		str	r2, [r3]
 142:Generated_Source\PSoC5/CAN_TX_RX_func.c **** 
 143:Generated_Source\PSoC5/CAN_TX_RX_func.c ****                         result = CYRET_SUCCESS;
 217              		.loc 1 143 0
 218 012a 0023     		movs	r3, #0
 219 012c FB74     		strb	r3, [r7, #19]
 220              	.L4:
 144:Generated_Source\PSoC5/CAN_TX_RX_func.c ****                     }
 145:Generated_Source\PSoC5/CAN_TX_RX_func.c ****             }
 146:Generated_Source\PSoC5/CAN_TX_RX_func.c ****             shift <<= 1u;
 221              		.loc 1 146 0
 222 012e 7B7D     		ldrb	r3, [r7, #21]
 223 0130 5B00     		lsls	r3, r3, #1
 224 0132 7B75     		strb	r3, [r7, #21]
 147:Generated_Source\PSoC5/CAN_TX_RX_func.c ****             if (result == CYRET_SUCCESS)
 225              		.loc 1 147 0
 226 0134 FB7C     		ldrb	r3, [r7, #19]	@ zero_extendqisi2
 227 0136 002B     		cmp	r3, #0
 228 0138 00D1     		bne	.L16
 148:Generated_Source\PSoC5/CAN_TX_RX_func.c ****             {
 149:Generated_Source\PSoC5/CAN_TX_RX_func.c ****                 break;
 229              		.loc 1 149 0
 230 013a 06E0     		b	.L17
 231              	.L16:
  65:Generated_Source\PSoC5/CAN_TX_RX_func.c ****         {
 232              		.loc 1 65 0 discriminator 2
 233 013c FB7D     		ldrb	r3, [r7, #23]	@ zero_extendqisi2
 234 013e 0133     		adds	r3, r3, #1
 235 0140 FB75     		strb	r3, [r7, #23]
 236              	.L3:
  65:Generated_Source\PSoC5/CAN_TX_RX_func.c ****         {
 237              		.loc 1 65 0 is_stmt 0 discriminator 1
 238 0142 FB7D     		ldrb	r3, [r7, #23]	@ zero_extendqisi2
 239 0144 072B     		cmp	r3, #7
 240 0146 7FF669AF 		bls	.L18
 241              	.L17:
 150:Generated_Source\PSoC5/CAN_TX_RX_func.c ****             }
 151:Generated_Source\PSoC5/CAN_TX_RX_func.c ****         }
 152:Generated_Source\PSoC5/CAN_TX_RX_func.c ****         if (result == CYRET_SUCCESS)
 242              		.loc 1 152 0 is_stmt 1
ARM GAS  D:\Windows\AppData\Local\Temp\ccxctkJs.s 			page 8


 243 014a FB7C     		ldrb	r3, [r7, #19]	@ zero_extendqisi2
 244 014c 002B     		cmp	r3, #0
 245 014e 00D1     		bne	.L19
 153:Generated_Source\PSoC5/CAN_TX_RX_func.c ****         {
 154:Generated_Source\PSoC5/CAN_TX_RX_func.c ****             break;
 246              		.loc 1 154 0
 247 0150 06E0     		b	.L20
 248              	.L19:
 155:Generated_Source\PSoC5/CAN_TX_RX_func.c ****         }
 156:Generated_Source\PSoC5/CAN_TX_RX_func.c ****         else
 157:Generated_Source\PSoC5/CAN_TX_RX_func.c ****         {
 158:Generated_Source\PSoC5/CAN_TX_RX_func.c ****             retry++;
 249              		.loc 1 158 0
 250 0152 3B7D     		ldrb	r3, [r7, #20]	@ zero_extendqisi2
 251 0154 0133     		adds	r3, r3, #1
 252 0156 3B75     		strb	r3, [r7, #20]
 253              	.L2:
  62:Generated_Source\PSoC5/CAN_TX_RX_func.c ****     {
 254              		.loc 1 62 0
 255 0158 3B7D     		ldrb	r3, [r7, #20]	@ zero_extendqisi2
 256 015a 022B     		cmp	r3, #2
 257 015c 7FF659AF 		bls	.L21
 258              	.L20:
 159:Generated_Source\PSoC5/CAN_TX_RX_func.c ****         }
 160:Generated_Source\PSoC5/CAN_TX_RX_func.c ****     }
 161:Generated_Source\PSoC5/CAN_TX_RX_func.c **** 
 162:Generated_Source\PSoC5/CAN_TX_RX_func.c ****     return (result);
 259              		.loc 1 162 0
 260 0160 FB7C     		ldrb	r3, [r7, #19]	@ zero_extendqisi2
 163:Generated_Source\PSoC5/CAN_TX_RX_func.c **** }
 261              		.loc 1 163 0
 262 0162 1846     		mov	r0, r3
 263 0164 1C37     		adds	r7, r7, #28
 264              		.cfi_def_cfa_offset 4
 265 0166 BD46     		mov	sp, r7
 266              		.cfi_def_cfa_register 13
 267              		@ sp needed
 268 0168 5DF8047B 		ldr	r7, [sp], #4
 269              		.cfi_restore 7
 270              		.cfi_def_cfa_offset 0
 271 016c 7047     		bx	lr
 272              	.L24:
 273 016e 00BF     		.align	2
 274              	.L23:
 275 0170 08A00040 		.word	1073782792
 276 0174 20A00040 		.word	1073782816
 277 0178 80E100E0 		.word	-536813184
 278 017c 00E100E0 		.word	-536813312
 279              		.cfi_endproc
 280              	.LFE0:
 281              		.size	CAN_SendMsg, .-CAN_SendMsg
 282              		.section	.text.CAN_TxCancel,"ax",%progbits
 283              		.align	2
 284              		.global	CAN_TxCancel
 285              		.thumb
 286              		.thumb_func
 287              		.type	CAN_TxCancel, %function
ARM GAS  D:\Windows\AppData\Local\Temp\ccxctkJs.s 			page 9


 288              	CAN_TxCancel:
 289              	.LFB1:
 164:Generated_Source\PSoC5/CAN_TX_RX_func.c **** 
 165:Generated_Source\PSoC5/CAN_TX_RX_func.c **** 
 166:Generated_Source\PSoC5/CAN_TX_RX_func.c **** /*******************************************************************************
 167:Generated_Source\PSoC5/CAN_TX_RX_func.c **** * FUNCTION NAME:   CAN_TxCancel
 168:Generated_Source\PSoC5/CAN_TX_RX_func.c **** ********************************************************************************
 169:Generated_Source\PSoC5/CAN_TX_RX_func.c **** *
 170:Generated_Source\PSoC5/CAN_TX_RX_func.c **** * Summary:
 171:Generated_Source\PSoC5/CAN_TX_RX_func.c **** *  This function cancels transmission of a message that has been queued to be
 172:Generated_Source\PSoC5/CAN_TX_RX_func.c **** *  transmitted. Values between 0 and 7 are valid.
 173:Generated_Source\PSoC5/CAN_TX_RX_func.c **** *
 174:Generated_Source\PSoC5/CAN_TX_RX_func.c **** * Parameters:
 175:Generated_Source\PSoC5/CAN_TX_RX_func.c **** *  bufferId: The mailbox number.
 176:Generated_Source\PSoC5/CAN_TX_RX_func.c **** *
 177:Generated_Source\PSoC5/CAN_TX_RX_func.c **** * Return:
 178:Generated_Source\PSoC5/CAN_TX_RX_func.c **** *  None.
 179:Generated_Source\PSoC5/CAN_TX_RX_func.c **** *
 180:Generated_Source\PSoC5/CAN_TX_RX_func.c **** *******************************************************************************/
 181:Generated_Source\PSoC5/CAN_TX_RX_func.c **** void CAN_TxCancel(uint8 bufferId) 
 182:Generated_Source\PSoC5/CAN_TX_RX_func.c **** {
 290              		.loc 1 182 0
 291              		.cfi_startproc
 292              		@ args = 0, pretend = 0, frame = 8
 293              		@ frame_needed = 1, uses_anonymous_args = 0
 294              		@ link register save eliminated.
 295 0000 80B4     		push	{r7}
 296              		.cfi_def_cfa_offset 4
 297              		.cfi_offset 7, -4
 298 0002 83B0     		sub	sp, sp, #12
 299              		.cfi_def_cfa_offset 16
 300 0004 00AF     		add	r7, sp, #0
 301              		.cfi_def_cfa_register 7
 302 0006 0346     		mov	r3, r0
 303 0008 FB71     		strb	r3, [r7, #7]
 183:Generated_Source\PSoC5/CAN_TX_RX_func.c ****     if (bufferId < CAN_NUMBER_OF_TX_MAILBOXES)
 304              		.loc 1 183 0
 305 000a FB79     		ldrb	r3, [r7, #7]	@ zero_extendqisi2
 306 000c 072B     		cmp	r3, #7
 307 000e 12D8     		bhi	.L25
 184:Generated_Source\PSoC5/CAN_TX_RX_func.c ****     {
 185:Generated_Source\PSoC5/CAN_TX_RX_func.c ****         CAN_TX_ABORT_MESSAGE(bufferId);
 308              		.loc 1 185 0
 309 0010 FB79     		ldrb	r3, [r7, #7]	@ zero_extendqisi2
 310 0012 1A01     		lsls	r2, r3, #4
 311 0014 0A4B     		ldr	r3, .L27
 312 0016 1344     		add	r3, r3, r2
 313 0018 FA79     		ldrb	r2, [r7, #7]	@ zero_extendqisi2
 314 001a 1101     		lsls	r1, r2, #4
 315 001c 084A     		ldr	r2, .L27
 316 001e 0A44     		add	r2, r2, r1
 317 0020 1278     		ldrb	r2, [r2]
 318 0022 D2B2     		uxtb	r2, r2
 319 0024 D2B2     		uxtb	r2, r2
 320 0026 22F00302 		bic	r2, r2, #3
 321 002a D2B2     		uxtb	r2, r2
 322 002c 42F00202 		orr	r2, r2, #2
ARM GAS  D:\Windows\AppData\Local\Temp\ccxctkJs.s 			page 10


 323 0030 D2B2     		uxtb	r2, r2
 324 0032 D2B2     		uxtb	r2, r2
 325 0034 1A70     		strb	r2, [r3]
 326              	.L25:
 186:Generated_Source\PSoC5/CAN_TX_RX_func.c ****     }
 187:Generated_Source\PSoC5/CAN_TX_RX_func.c **** }
 327              		.loc 1 187 0
 328 0036 0C37     		adds	r7, r7, #12
 329              		.cfi_def_cfa_offset 4
 330 0038 BD46     		mov	sp, r7
 331              		.cfi_def_cfa_register 13
 332              		@ sp needed
 333 003a 5DF8047B 		ldr	r7, [sp], #4
 334              		.cfi_restore 7
 335              		.cfi_def_cfa_offset 0
 336 003e 7047     		bx	lr
 337              	.L28:
 338              		.align	2
 339              	.L27:
 340 0040 20A00040 		.word	1073782816
 341              		.cfi_endproc
 342              	.LFE1:
 343              		.size	CAN_TxCancel, .-CAN_TxCancel
 344              		.section	.text.CAN_SendMsgDash_status,"ax",%progbits
 345              		.align	2
 346              		.global	CAN_SendMsgDash_status
 347              		.thumb
 348              		.thumb_func
 349              		.type	CAN_SendMsgDash_status, %function
 350              	CAN_SendMsgDash_status:
 351              	.LFB2:
 188:Generated_Source\PSoC5/CAN_TX_RX_func.c **** 
 189:Generated_Source\PSoC5/CAN_TX_RX_func.c **** 
 190:Generated_Source\PSoC5/CAN_TX_RX_func.c **** #if (CAN_TX0_FUNC_ENABLE)
 191:Generated_Source\PSoC5/CAN_TX_RX_func.c ****     /*******************************************************************************
 192:Generated_Source\PSoC5/CAN_TX_RX_func.c ****     * FUNCTION NAME:   CAN_SendMsgDash_status
 193:Generated_Source\PSoC5/CAN_TX_RX_func.c ****     ********************************************************************************
 194:Generated_Source\PSoC5/CAN_TX_RX_func.c ****     *
 195:Generated_Source\PSoC5/CAN_TX_RX_func.c ****     * Summary:
 196:Generated_Source\PSoC5/CAN_TX_RX_func.c ****     *  This function is the entry point to Transmit Message 0. The function checks
 197:Generated_Source\PSoC5/CAN_TX_RX_func.c ****     *  if mailbox 0 doesn't already have un-transmitted messages waiting for
 198:Generated_Source\PSoC5/CAN_TX_RX_func.c ****     *  arbitration. If not initiate transmission of the message.
 199:Generated_Source\PSoC5/CAN_TX_RX_func.c ****     *  Generated only for the Transmit mailbox designed as Full.
 200:Generated_Source\PSoC5/CAN_TX_RX_func.c ****     *
 201:Generated_Source\PSoC5/CAN_TX_RX_func.c ****     * Parameters:
 202:Generated_Source\PSoC5/CAN_TX_RX_func.c ****     *  None.
 203:Generated_Source\PSoC5/CAN_TX_RX_func.c ****     *
 204:Generated_Source\PSoC5/CAN_TX_RX_func.c ****     * Return:
 205:Generated_Source\PSoC5/CAN_TX_RX_func.c ****     *  Indication if Message has been sent.
 206:Generated_Source\PSoC5/CAN_TX_RX_func.c ****     *   Define                             Description
 207:Generated_Source\PSoC5/CAN_TX_RX_func.c ****     *    CYRET_SUCCESS                      The function passed successfully
 208:Generated_Source\PSoC5/CAN_TX_RX_func.c ****     *    CAN_FAIL              The function failed
 209:Generated_Source\PSoC5/CAN_TX_RX_func.c ****     *
 210:Generated_Source\PSoC5/CAN_TX_RX_func.c ****     *******************************************************************************/
 211:Generated_Source\PSoC5/CAN_TX_RX_func.c ****     uint8 CAN_SendMsgDash_status(void) 
 212:Generated_Source\PSoC5/CAN_TX_RX_func.c ****     {
 352              		.loc 1 212 0
ARM GAS  D:\Windows\AppData\Local\Temp\ccxctkJs.s 			page 11


 353              		.cfi_startproc
 354              		@ args = 0, pretend = 0, frame = 8
 355              		@ frame_needed = 1, uses_anonymous_args = 0
 356              		@ link register save eliminated.
 357 0000 80B4     		push	{r7}
 358              		.cfi_def_cfa_offset 4
 359              		.cfi_offset 7, -4
 360 0002 83B0     		sub	sp, sp, #12
 361              		.cfi_def_cfa_offset 16
 362 0004 00AF     		add	r7, sp, #0
 363              		.cfi_def_cfa_register 7
 213:Generated_Source\PSoC5/CAN_TX_RX_func.c ****         uint8 result = CYRET_SUCCESS;
 364              		.loc 1 213 0
 365 0006 0023     		movs	r3, #0
 366 0008 FB71     		strb	r3, [r7, #7]
 214:Generated_Source\PSoC5/CAN_TX_RX_func.c **** 
 215:Generated_Source\PSoC5/CAN_TX_RX_func.c ****         #if (CY_PSOC3 || CY_PSOC5)
 216:Generated_Source\PSoC5/CAN_TX_RX_func.c ****             if ((CAN_TX[0u].txcmd.byte[0u] & CAN_TX_REQUEST_PENDING) != 0u)
 367              		.loc 1 216 0
 368 000a 184B     		ldr	r3, .L37
 369 000c 1B78     		ldrb	r3, [r3]
 370 000e DBB2     		uxtb	r3, r3
 371 0010 03F00103 		and	r3, r3, #1
 372 0014 002B     		cmp	r3, #0
 373 0016 02D0     		beq	.L30
 217:Generated_Source\PSoC5/CAN_TX_RX_func.c ****         #else  /* CY_PSOC4 */
 218:Generated_Source\PSoC5/CAN_TX_RX_func.c ****             if ((CAN_TX_CMD_REG(0u) & CAN_TX_REQUEST_PENDING) != 0u)
 219:Generated_Source\PSoC5/CAN_TX_RX_func.c ****         #endif /* CY_PSOC3 || CY_PSOC5 */
 220:Generated_Source\PSoC5/CAN_TX_RX_func.c ****             {
 221:Generated_Source\PSoC5/CAN_TX_RX_func.c ****                 result = CAN_FAIL;
 374              		.loc 1 221 0
 375 0018 0123     		movs	r3, #1
 376 001a FB71     		strb	r3, [r7, #7]
 377 001c 1EE0     		b	.L31
 378              	.L30:
 379              	.LBB2:
 222:Generated_Source\PSoC5/CAN_TX_RX_func.c ****             }
 223:Generated_Source\PSoC5/CAN_TX_RX_func.c ****             else
 224:Generated_Source\PSoC5/CAN_TX_RX_func.c ****             {
 225:Generated_Source\PSoC5/CAN_TX_RX_func.c ****                 /* `#START MESSAGE_Dash_status_TRASMITTED` */
 226:Generated_Source\PSoC5/CAN_TX_RX_func.c ****                 uint8_t i;
 227:Generated_Source\PSoC5/CAN_TX_RX_func.c **** 
 228:Generated_Source\PSoC5/CAN_TX_RX_func.c **** 				for(i=0; i<buffer_LEN; i++)
 380              		.loc 1 228 0
 381 001e 0023     		movs	r3, #0
 382 0020 BB71     		strb	r3, [r7, #6]
 383 0022 12E0     		b	.L32
 384              	.L35:
 229:Generated_Source\PSoC5/CAN_TX_RX_func.c **** 					CAN_TX_DATA_BYTE(0,i) = can_buffer[i];
 385              		.loc 1 229 0
 386 0024 1149     		ldr	r1, .L37
 387 0026 BB79     		ldrb	r3, [r7, #6]	@ zero_extendqisi2
 388 0028 032B     		cmp	r3, #3
 389 002a 03D9     		bls	.L33
 390              		.loc 1 229 0 is_stmt 0 discriminator 1
 391 002c BB79     		ldrb	r3, [r7, #6]	@ zero_extendqisi2
 392 002e C3F10B03 		rsb	r3, r3, #11
ARM GAS  D:\Windows\AppData\Local\Temp\ccxctkJs.s 			page 12


 393 0032 02E0     		b	.L34
 394              	.L33:
 395              		.loc 1 229 0 discriminator 2
 396 0034 BB79     		ldrb	r3, [r7, #6]	@ zero_extendqisi2
 397 0036 C3F10303 		rsb	r3, r3, #3
 398              	.L34:
 399              		.loc 1 229 0 discriminator 4
 400 003a BA79     		ldrb	r2, [r7, #6]	@ zero_extendqisi2
 401 003c 0C48     		ldr	r0, .L37+4
 402 003e 825C     		ldrb	r2, [r0, r2]	@ zero_extendqisi2
 403 0040 0B44     		add	r3, r3, r1
 404 0042 1A72     		strb	r2, [r3, #8]
 228:Generated_Source\PSoC5/CAN_TX_RX_func.c **** 					CAN_TX_DATA_BYTE(0,i) = can_buffer[i];
 405              		.loc 1 228 0 is_stmt 1 discriminator 4
 406 0044 BB79     		ldrb	r3, [r7, #6]	@ zero_extendqisi2
 407 0046 0133     		adds	r3, r3, #1
 408 0048 BB71     		strb	r3, [r7, #6]
 409              	.L32:
 228:Generated_Source\PSoC5/CAN_TX_RX_func.c **** 					CAN_TX_DATA_BYTE(0,i) = can_buffer[i];
 410              		.loc 1 228 0 is_stmt 0 discriminator 2
 411 004a BB79     		ldrb	r3, [r7, #6]	@ zero_extendqisi2
 412 004c 072B     		cmp	r3, #7
 413 004e E9D9     		bls	.L35
 230:Generated_Source\PSoC5/CAN_TX_RX_func.c ****                 /* `#END` */
 231:Generated_Source\PSoC5/CAN_TX_RX_func.c **** 
 232:Generated_Source\PSoC5/CAN_TX_RX_func.c ****                 #ifdef CAN_SEND_MSG_Dash_status_CALLBACK
 233:Generated_Source\PSoC5/CAN_TX_RX_func.c ****                     CAN_SendMsg_Dash_status_Callback();
 234:Generated_Source\PSoC5/CAN_TX_RX_func.c ****                 #endif /* CAN_SEND_MSG_Dash_status_CALLBACK */
 235:Generated_Source\PSoC5/CAN_TX_RX_func.c **** 
 236:Generated_Source\PSoC5/CAN_TX_RX_func.c ****                 CY_SET_REG32(CAN_TX_CMD_PTR(0u),
 414              		.loc 1 236 0 is_stmt 1
 415 0050 064A     		ldr	r2, .L37
 416 0052 064B     		ldr	r3, .L37
 417 0054 1B68     		ldr	r3, [r3]
 418 0056 43F00103 		orr	r3, r3, #1
 419 005a 1360     		str	r3, [r2]
 420              	.L31:
 421              	.LBE2:
 237:Generated_Source\PSoC5/CAN_TX_RX_func.c ****                 CY_GET_REG32(CAN_TX_CMD_PTR(0u)) | CAN_SEND_MESSAGE);
 238:Generated_Source\PSoC5/CAN_TX_RX_func.c ****             }
 239:Generated_Source\PSoC5/CAN_TX_RX_func.c **** 
 240:Generated_Source\PSoC5/CAN_TX_RX_func.c ****         return (result);
 422              		.loc 1 240 0
 423 005c FB79     		ldrb	r3, [r7, #7]	@ zero_extendqisi2
 241:Generated_Source\PSoC5/CAN_TX_RX_func.c ****     }
 424              		.loc 1 241 0
 425 005e 1846     		mov	r0, r3
 426 0060 0C37     		adds	r7, r7, #12
 427              		.cfi_def_cfa_offset 4
 428 0062 BD46     		mov	sp, r7
 429              		.cfi_def_cfa_register 13
 430              		@ sp needed
 431 0064 5DF8047B 		ldr	r7, [sp], #4
 432              		.cfi_restore 7
 433              		.cfi_def_cfa_offset 0
 434 0068 7047     		bx	lr
 435              	.L38:
ARM GAS  D:\Windows\AppData\Local\Temp\ccxctkJs.s 			page 13


 436 006a 00BF     		.align	2
 437              	.L37:
 438 006c 20A00040 		.word	1073782816
 439 0070 00000000 		.word	can_buffer
 440              		.cfi_endproc
 441              	.LFE2:
 442              		.size	CAN_SendMsgDash_status, .-CAN_SendMsgDash_status
 443              		.section	.text.CAN_SendMsgDash_cmd,"ax",%progbits
 444              		.align	2
 445              		.global	CAN_SendMsgDash_cmd
 446              		.thumb
 447              		.thumb_func
 448              		.type	CAN_SendMsgDash_cmd, %function
 449              	CAN_SendMsgDash_cmd:
 450              	.LFB3:
 242:Generated_Source\PSoC5/CAN_TX_RX_func.c **** #endif /* CAN_TX0_FUNC_ENABLE */
 243:Generated_Source\PSoC5/CAN_TX_RX_func.c **** 
 244:Generated_Source\PSoC5/CAN_TX_RX_func.c **** 
 245:Generated_Source\PSoC5/CAN_TX_RX_func.c **** #if (CAN_TX1_FUNC_ENABLE)
 246:Generated_Source\PSoC5/CAN_TX_RX_func.c ****     /*******************************************************************************
 247:Generated_Source\PSoC5/CAN_TX_RX_func.c ****     * FUNCTION NAME:   CAN_SendMsgDash_cmd
 248:Generated_Source\PSoC5/CAN_TX_RX_func.c ****     ********************************************************************************
 249:Generated_Source\PSoC5/CAN_TX_RX_func.c ****     *
 250:Generated_Source\PSoC5/CAN_TX_RX_func.c ****     * Summary:
 251:Generated_Source\PSoC5/CAN_TX_RX_func.c ****     *  This function is the entry point to Transmit Message 1. The function checks
 252:Generated_Source\PSoC5/CAN_TX_RX_func.c ****     *  if mailbox 1 doesn't already have un-transmitted messages waiting for
 253:Generated_Source\PSoC5/CAN_TX_RX_func.c ****     *  arbitration. If not initiate transmission of the message.
 254:Generated_Source\PSoC5/CAN_TX_RX_func.c ****     *  Generated only for the Transmit mailbox designed as Full.
 255:Generated_Source\PSoC5/CAN_TX_RX_func.c ****     *
 256:Generated_Source\PSoC5/CAN_TX_RX_func.c ****     * Parameters:
 257:Generated_Source\PSoC5/CAN_TX_RX_func.c ****     *  None.
 258:Generated_Source\PSoC5/CAN_TX_RX_func.c ****     *
 259:Generated_Source\PSoC5/CAN_TX_RX_func.c ****     * Return:
 260:Generated_Source\PSoC5/CAN_TX_RX_func.c ****     *  Indication if Message has been sent.
 261:Generated_Source\PSoC5/CAN_TX_RX_func.c ****     *   Define                             Description
 262:Generated_Source\PSoC5/CAN_TX_RX_func.c ****     *    CYRET_SUCCESS                      The function passed successfully
 263:Generated_Source\PSoC5/CAN_TX_RX_func.c ****     *    CAN_FAIL              The function failed
 264:Generated_Source\PSoC5/CAN_TX_RX_func.c ****     *
 265:Generated_Source\PSoC5/CAN_TX_RX_func.c ****     *******************************************************************************/
 266:Generated_Source\PSoC5/CAN_TX_RX_func.c ****     uint8 CAN_SendMsgDash_cmd(void) 
 267:Generated_Source\PSoC5/CAN_TX_RX_func.c ****     {
 451              		.loc 1 267 0
 452              		.cfi_startproc
 453              		@ args = 0, pretend = 0, frame = 8
 454              		@ frame_needed = 1, uses_anonymous_args = 0
 455              		@ link register save eliminated.
 456 0000 80B4     		push	{r7}
 457              		.cfi_def_cfa_offset 4
 458              		.cfi_offset 7, -4
 459 0002 83B0     		sub	sp, sp, #12
 460              		.cfi_def_cfa_offset 16
 461 0004 00AF     		add	r7, sp, #0
 462              		.cfi_def_cfa_register 7
 268:Generated_Source\PSoC5/CAN_TX_RX_func.c ****         uint8 result = CYRET_SUCCESS;
 463              		.loc 1 268 0
 464 0006 0023     		movs	r3, #0
 465 0008 FB71     		strb	r3, [r7, #7]
ARM GAS  D:\Windows\AppData\Local\Temp\ccxctkJs.s 			page 14


 269:Generated_Source\PSoC5/CAN_TX_RX_func.c **** 
 270:Generated_Source\PSoC5/CAN_TX_RX_func.c ****         #if (CY_PSOC3 || CY_PSOC5)
 271:Generated_Source\PSoC5/CAN_TX_RX_func.c ****             if ((CAN_TX[1u].txcmd.byte[0u] & CAN_TX_REQUEST_PENDING) != 0u)
 466              		.loc 1 271 0
 467 000a 184B     		ldr	r3, .L47
 468 000c 1B78     		ldrb	r3, [r3]
 469 000e DBB2     		uxtb	r3, r3
 470 0010 03F00103 		and	r3, r3, #1
 471 0014 002B     		cmp	r3, #0
 472 0016 02D0     		beq	.L40
 272:Generated_Source\PSoC5/CAN_TX_RX_func.c ****         #else  /* CY_PSOC4 */
 273:Generated_Source\PSoC5/CAN_TX_RX_func.c ****             if ((CAN_TX_CMD_REG(1u) & CAN_TX_REQUEST_PENDING) != 0u)
 274:Generated_Source\PSoC5/CAN_TX_RX_func.c ****         #endif /* CY_PSOC3 || CY_PSOC5 */
 275:Generated_Source\PSoC5/CAN_TX_RX_func.c ****             {
 276:Generated_Source\PSoC5/CAN_TX_RX_func.c ****                 result = CAN_FAIL;
 473              		.loc 1 276 0
 474 0018 0123     		movs	r3, #1
 475 001a FB71     		strb	r3, [r7, #7]
 476 001c 1EE0     		b	.L41
 477              	.L40:
 478              	.LBB3:
 277:Generated_Source\PSoC5/CAN_TX_RX_func.c ****             }
 278:Generated_Source\PSoC5/CAN_TX_RX_func.c ****             else
 279:Generated_Source\PSoC5/CAN_TX_RX_func.c ****             {
 280:Generated_Source\PSoC5/CAN_TX_RX_func.c ****                 /* `#START MESSAGE_Dash_cmd_TRASMITTED` */
 281:Generated_Source\PSoC5/CAN_TX_RX_func.c ****                 uint8_t i;
 282:Generated_Source\PSoC5/CAN_TX_RX_func.c **** 
 283:Generated_Source\PSoC5/CAN_TX_RX_func.c **** 				for(i=0; i<buffer_LEN; i++)
 479              		.loc 1 283 0
 480 001e 0023     		movs	r3, #0
 481 0020 BB71     		strb	r3, [r7, #6]
 482 0022 12E0     		b	.L42
 483              	.L45:
 284:Generated_Source\PSoC5/CAN_TX_RX_func.c **** 					CAN_TX_DATA_BYTE(1,i) = can_buffer[i];
 484              		.loc 1 284 0
 485 0024 1149     		ldr	r1, .L47
 486 0026 BB79     		ldrb	r3, [r7, #6]	@ zero_extendqisi2
 487 0028 032B     		cmp	r3, #3
 488 002a 03D9     		bls	.L43
 489              		.loc 1 284 0 is_stmt 0 discriminator 1
 490 002c BB79     		ldrb	r3, [r7, #6]	@ zero_extendqisi2
 491 002e C3F10B03 		rsb	r3, r3, #11
 492 0032 02E0     		b	.L44
 493              	.L43:
 494              		.loc 1 284 0 discriminator 2
 495 0034 BB79     		ldrb	r3, [r7, #6]	@ zero_extendqisi2
 496 0036 C3F10303 		rsb	r3, r3, #3
 497              	.L44:
 498              		.loc 1 284 0 discriminator 4
 499 003a BA79     		ldrb	r2, [r7, #6]	@ zero_extendqisi2
 500 003c 0C48     		ldr	r0, .L47+4
 501 003e 825C     		ldrb	r2, [r0, r2]	@ zero_extendqisi2
 502 0040 0B44     		add	r3, r3, r1
 503 0042 1A72     		strb	r2, [r3, #8]
 283:Generated_Source\PSoC5/CAN_TX_RX_func.c **** 					CAN_TX_DATA_BYTE(1,i) = can_buffer[i];
 504              		.loc 1 283 0 is_stmt 1 discriminator 4
 505 0044 BB79     		ldrb	r3, [r7, #6]	@ zero_extendqisi2
ARM GAS  D:\Windows\AppData\Local\Temp\ccxctkJs.s 			page 15


 506 0046 0133     		adds	r3, r3, #1
 507 0048 BB71     		strb	r3, [r7, #6]
 508              	.L42:
 283:Generated_Source\PSoC5/CAN_TX_RX_func.c **** 					CAN_TX_DATA_BYTE(1,i) = can_buffer[i];
 509              		.loc 1 283 0 is_stmt 0 discriminator 2
 510 004a BB79     		ldrb	r3, [r7, #6]	@ zero_extendqisi2
 511 004c 072B     		cmp	r3, #7
 512 004e E9D9     		bls	.L45
 285:Generated_Source\PSoC5/CAN_TX_RX_func.c ****                 /* `#END` */
 286:Generated_Source\PSoC5/CAN_TX_RX_func.c **** 
 287:Generated_Source\PSoC5/CAN_TX_RX_func.c ****                 #ifdef CAN_SEND_MSG_Dash_cmd_CALLBACK
 288:Generated_Source\PSoC5/CAN_TX_RX_func.c ****                     CAN_SendMsg_Dash_cmd_Callback();
 289:Generated_Source\PSoC5/CAN_TX_RX_func.c ****                 #endif /* CAN_SEND_MSG_Dash_cmd_CALLBACK */
 290:Generated_Source\PSoC5/CAN_TX_RX_func.c **** 
 291:Generated_Source\PSoC5/CAN_TX_RX_func.c ****                 CY_SET_REG32(CAN_TX_CMD_PTR(1u),
 513              		.loc 1 291 0 is_stmt 1
 514 0050 064A     		ldr	r2, .L47
 515 0052 064B     		ldr	r3, .L47
 516 0054 1B68     		ldr	r3, [r3]
 517 0056 43F00103 		orr	r3, r3, #1
 518 005a 1360     		str	r3, [r2]
 519              	.L41:
 520              	.LBE3:
 292:Generated_Source\PSoC5/CAN_TX_RX_func.c ****                 CY_GET_REG32(CAN_TX_CMD_PTR(1u)) | CAN_SEND_MESSAGE);
 293:Generated_Source\PSoC5/CAN_TX_RX_func.c ****             }
 294:Generated_Source\PSoC5/CAN_TX_RX_func.c **** 
 295:Generated_Source\PSoC5/CAN_TX_RX_func.c ****         return (result);
 521              		.loc 1 295 0
 522 005c FB79     		ldrb	r3, [r7, #7]	@ zero_extendqisi2
 296:Generated_Source\PSoC5/CAN_TX_RX_func.c ****     }
 523              		.loc 1 296 0
 524 005e 1846     		mov	r0, r3
 525 0060 0C37     		adds	r7, r7, #12
 526              		.cfi_def_cfa_offset 4
 527 0062 BD46     		mov	sp, r7
 528              		.cfi_def_cfa_register 13
 529              		@ sp needed
 530 0064 5DF8047B 		ldr	r7, [sp], #4
 531              		.cfi_restore 7
 532              		.cfi_def_cfa_offset 0
 533 0068 7047     		bx	lr
 534              	.L48:
 535 006a 00BF     		.align	2
 536              	.L47:
 537 006c 30A00040 		.word	1073782832
 538 0070 00000000 		.word	can_buffer
 539              		.cfi_endproc
 540              	.LFE3:
 541              		.size	CAN_SendMsgDash_cmd, .-CAN_SendMsgDash_cmd
 542              		.section	.text.CAN_ReceiveMsg,"ax",%progbits
 543              		.align	2
 544              		.global	CAN_ReceiveMsg
 545              		.thumb
 546              		.thumb_func
 547              		.type	CAN_ReceiveMsg, %function
 548              	CAN_ReceiveMsg:
 549              	.LFB4:
ARM GAS  D:\Windows\AppData\Local\Temp\ccxctkJs.s 			page 16


 297:Generated_Source\PSoC5/CAN_TX_RX_func.c **** #endif /* CAN_TX1_FUNC_ENABLE */
 298:Generated_Source\PSoC5/CAN_TX_RX_func.c **** 
 299:Generated_Source\PSoC5/CAN_TX_RX_func.c **** 
 300:Generated_Source\PSoC5/CAN_TX_RX_func.c **** #if (CAN_TX2_FUNC_ENABLE)
 301:Generated_Source\PSoC5/CAN_TX_RX_func.c ****     /*******************************************************************************
 302:Generated_Source\PSoC5/CAN_TX_RX_func.c ****     * FUNCTION NAME:   CAN_SendMsg2
 303:Generated_Source\PSoC5/CAN_TX_RX_func.c ****     ********************************************************************************
 304:Generated_Source\PSoC5/CAN_TX_RX_func.c ****     *
 305:Generated_Source\PSoC5/CAN_TX_RX_func.c ****     * Summary:
 306:Generated_Source\PSoC5/CAN_TX_RX_func.c ****     *  This function is the entry point to Transmit Message 2. The function checks
 307:Generated_Source\PSoC5/CAN_TX_RX_func.c ****     *  if mailbox 2 doesn't already have un-transmitted messages waiting for
 308:Generated_Source\PSoC5/CAN_TX_RX_func.c ****     *  arbitration. If not initiate transmission of the message.
 309:Generated_Source\PSoC5/CAN_TX_RX_func.c ****     *  Generated only for the Transmit mailbox designed as Full.
 310:Generated_Source\PSoC5/CAN_TX_RX_func.c ****     *
 311:Generated_Source\PSoC5/CAN_TX_RX_func.c ****     * Parameters:
 312:Generated_Source\PSoC5/CAN_TX_RX_func.c ****     *  None.
 313:Generated_Source\PSoC5/CAN_TX_RX_func.c ****     *
 314:Generated_Source\PSoC5/CAN_TX_RX_func.c ****     * Return:
 315:Generated_Source\PSoC5/CAN_TX_RX_func.c ****     *  Indication if Message has been sent.
 316:Generated_Source\PSoC5/CAN_TX_RX_func.c ****     *   Define                             Description
 317:Generated_Source\PSoC5/CAN_TX_RX_func.c ****     *    CYRET_SUCCESS                      The function passed successfully
 318:Generated_Source\PSoC5/CAN_TX_RX_func.c ****     *    CAN_FAIL              The function failed
 319:Generated_Source\PSoC5/CAN_TX_RX_func.c ****     *
 320:Generated_Source\PSoC5/CAN_TX_RX_func.c ****     *******************************************************************************/
 321:Generated_Source\PSoC5/CAN_TX_RX_func.c ****     uint8 CAN_SendMsg2(void) 
 322:Generated_Source\PSoC5/CAN_TX_RX_func.c ****     {
 323:Generated_Source\PSoC5/CAN_TX_RX_func.c ****         uint8 result = CYRET_SUCCESS;
 324:Generated_Source\PSoC5/CAN_TX_RX_func.c **** 
 325:Generated_Source\PSoC5/CAN_TX_RX_func.c ****         #if (CY_PSOC3 || CY_PSOC5)
 326:Generated_Source\PSoC5/CAN_TX_RX_func.c ****             if ((CAN_TX[2u].txcmd.byte[0u] & CAN_TX_REQUEST_PENDING) != 0u)
 327:Generated_Source\PSoC5/CAN_TX_RX_func.c ****         #else  /* CY_PSOC4 */
 328:Generated_Source\PSoC5/CAN_TX_RX_func.c ****             if ((CAN_TX_CMD_REG(2u) & CAN_TX_REQUEST_PENDING) != 0u)
 329:Generated_Source\PSoC5/CAN_TX_RX_func.c ****         #endif /* CY_PSOC3 || CY_PSOC5 */
 330:Generated_Source\PSoC5/CAN_TX_RX_func.c ****             {
 331:Generated_Source\PSoC5/CAN_TX_RX_func.c ****                 result = CAN_FAIL;
 332:Generated_Source\PSoC5/CAN_TX_RX_func.c ****             }
 333:Generated_Source\PSoC5/CAN_TX_RX_func.c ****             else
 334:Generated_Source\PSoC5/CAN_TX_RX_func.c ****             {
 335:Generated_Source\PSoC5/CAN_TX_RX_func.c ****                 /* `#START MESSAGE_2_TRASMITTED` */
 336:Generated_Source\PSoC5/CAN_TX_RX_func.c **** 
 337:Generated_Source\PSoC5/CAN_TX_RX_func.c ****                 /* `#END` */
 338:Generated_Source\PSoC5/CAN_TX_RX_func.c **** 
 339:Generated_Source\PSoC5/CAN_TX_RX_func.c ****                 #ifdef CAN_SEND_MSG_2_CALLBACK
 340:Generated_Source\PSoC5/CAN_TX_RX_func.c ****                     CAN_SendMsg_2_Callback();
 341:Generated_Source\PSoC5/CAN_TX_RX_func.c ****                 #endif /* CAN_SEND_MSG_2_CALLBACK */
 342:Generated_Source\PSoC5/CAN_TX_RX_func.c **** 
 343:Generated_Source\PSoC5/CAN_TX_RX_func.c ****                 CY_SET_REG32(CAN_TX_CMD_PTR(2u),
 344:Generated_Source\PSoC5/CAN_TX_RX_func.c ****                 CY_GET_REG32(CAN_TX_CMD_PTR(2u)) | CAN_SEND_MESSAGE);
 345:Generated_Source\PSoC5/CAN_TX_RX_func.c ****             }
 346:Generated_Source\PSoC5/CAN_TX_RX_func.c **** 
 347:Generated_Source\PSoC5/CAN_TX_RX_func.c ****         return (result);
 348:Generated_Source\PSoC5/CAN_TX_RX_func.c ****     }
 349:Generated_Source\PSoC5/CAN_TX_RX_func.c **** #endif /* CAN_TX2_FUNC_ENABLE */
 350:Generated_Source\PSoC5/CAN_TX_RX_func.c **** 
 351:Generated_Source\PSoC5/CAN_TX_RX_func.c **** 
 352:Generated_Source\PSoC5/CAN_TX_RX_func.c **** #if (CAN_TX3_FUNC_ENABLE)
 353:Generated_Source\PSoC5/CAN_TX_RX_func.c ****     /*******************************************************************************
ARM GAS  D:\Windows\AppData\Local\Temp\ccxctkJs.s 			page 17


 354:Generated_Source\PSoC5/CAN_TX_RX_func.c ****     * FUNCTION NAME:   CAN_SendMsg3
 355:Generated_Source\PSoC5/CAN_TX_RX_func.c ****     ********************************************************************************
 356:Generated_Source\PSoC5/CAN_TX_RX_func.c ****     *
 357:Generated_Source\PSoC5/CAN_TX_RX_func.c ****     * Summary:
 358:Generated_Source\PSoC5/CAN_TX_RX_func.c ****     *  This function is the entry point to Transmit Message 3. The function checks
 359:Generated_Source\PSoC5/CAN_TX_RX_func.c ****     *  if mailbox 3 doesn't already have un-transmitted messages waiting for
 360:Generated_Source\PSoC5/CAN_TX_RX_func.c ****     *  arbitration. If not initiate transmission of the message.
 361:Generated_Source\PSoC5/CAN_TX_RX_func.c ****     *  Generated only for the Transmit mailbox designed as Full.
 362:Generated_Source\PSoC5/CAN_TX_RX_func.c ****     *
 363:Generated_Source\PSoC5/CAN_TX_RX_func.c ****     * Parameters:
 364:Generated_Source\PSoC5/CAN_TX_RX_func.c ****     *  None.
 365:Generated_Source\PSoC5/CAN_TX_RX_func.c ****     *
 366:Generated_Source\PSoC5/CAN_TX_RX_func.c ****     * Return:
 367:Generated_Source\PSoC5/CAN_TX_RX_func.c ****     *  Indication if Message has been sent.
 368:Generated_Source\PSoC5/CAN_TX_RX_func.c ****     *   Define                             Description
 369:Generated_Source\PSoC5/CAN_TX_RX_func.c ****     *    CYRET_SUCCESS                      The function passed successfully
 370:Generated_Source\PSoC5/CAN_TX_RX_func.c ****     *    CAN_FAIL              The function failed
 371:Generated_Source\PSoC5/CAN_TX_RX_func.c ****     *
 372:Generated_Source\PSoC5/CAN_TX_RX_func.c ****     *******************************************************************************/
 373:Generated_Source\PSoC5/CAN_TX_RX_func.c ****     uint8 CAN_SendMsg3(void) 
 374:Generated_Source\PSoC5/CAN_TX_RX_func.c ****     {
 375:Generated_Source\PSoC5/CAN_TX_RX_func.c ****         uint8 result = CYRET_SUCCESS;
 376:Generated_Source\PSoC5/CAN_TX_RX_func.c **** 
 377:Generated_Source\PSoC5/CAN_TX_RX_func.c ****         #if (CY_PSOC3 || CY_PSOC5)
 378:Generated_Source\PSoC5/CAN_TX_RX_func.c ****             if ((CAN_TX[3u].txcmd.byte[0u] & CAN_TX_REQUEST_PENDING) != 0u)
 379:Generated_Source\PSoC5/CAN_TX_RX_func.c ****         #else  /* CY_PSOC4 */
 380:Generated_Source\PSoC5/CAN_TX_RX_func.c ****             if ((CAN_TX_CMD_REG(3u) & CAN_TX_REQUEST_PENDING) != 0u)
 381:Generated_Source\PSoC5/CAN_TX_RX_func.c ****         #endif /* CY_PSOC3 || CY_PSOC5 */
 382:Generated_Source\PSoC5/CAN_TX_RX_func.c ****             {
 383:Generated_Source\PSoC5/CAN_TX_RX_func.c ****                 result = CAN_FAIL;
 384:Generated_Source\PSoC5/CAN_TX_RX_func.c ****             }
 385:Generated_Source\PSoC5/CAN_TX_RX_func.c ****             else
 386:Generated_Source\PSoC5/CAN_TX_RX_func.c ****             {
 387:Generated_Source\PSoC5/CAN_TX_RX_func.c ****                 /* `#START MESSAGE_3_TRASMITTED` */
 388:Generated_Source\PSoC5/CAN_TX_RX_func.c **** 
 389:Generated_Source\PSoC5/CAN_TX_RX_func.c ****                 /* `#END` */
 390:Generated_Source\PSoC5/CAN_TX_RX_func.c **** 
 391:Generated_Source\PSoC5/CAN_TX_RX_func.c ****                 #ifdef CAN_SEND_MSG_3_CALLBACK
 392:Generated_Source\PSoC5/CAN_TX_RX_func.c ****                     CAN_SendMsg_3_Callback();
 393:Generated_Source\PSoC5/CAN_TX_RX_func.c ****                 #endif /* CAN_SEND_MSG_3_CALLBACK */
 394:Generated_Source\PSoC5/CAN_TX_RX_func.c **** 
 395:Generated_Source\PSoC5/CAN_TX_RX_func.c ****                 CY_SET_REG32(CAN_TX_CMD_PTR(3u),
 396:Generated_Source\PSoC5/CAN_TX_RX_func.c ****                 CY_GET_REG32(CAN_TX_CMD_PTR(3u)) | CAN_SEND_MESSAGE);
 397:Generated_Source\PSoC5/CAN_TX_RX_func.c ****             }
 398:Generated_Source\PSoC5/CAN_TX_RX_func.c **** 
 399:Generated_Source\PSoC5/CAN_TX_RX_func.c ****         return (result);
 400:Generated_Source\PSoC5/CAN_TX_RX_func.c ****     }
 401:Generated_Source\PSoC5/CAN_TX_RX_func.c **** #endif /* CAN_TX3_FUNC_ENABLE */
 402:Generated_Source\PSoC5/CAN_TX_RX_func.c **** 
 403:Generated_Source\PSoC5/CAN_TX_RX_func.c **** 
 404:Generated_Source\PSoC5/CAN_TX_RX_func.c **** #if (CAN_TX4_FUNC_ENABLE)
 405:Generated_Source\PSoC5/CAN_TX_RX_func.c ****     /*******************************************************************************
 406:Generated_Source\PSoC5/CAN_TX_RX_func.c ****     * FUNCTION NAME:   CAN_SendMsg4
 407:Generated_Source\PSoC5/CAN_TX_RX_func.c ****     ********************************************************************************
 408:Generated_Source\PSoC5/CAN_TX_RX_func.c ****     *
 409:Generated_Source\PSoC5/CAN_TX_RX_func.c ****     * Summary:
 410:Generated_Source\PSoC5/CAN_TX_RX_func.c ****     *  This function is the entry point to Transmit Message 4. The function checks
ARM GAS  D:\Windows\AppData\Local\Temp\ccxctkJs.s 			page 18


 411:Generated_Source\PSoC5/CAN_TX_RX_func.c ****     *  if mailbox 4 doesn't already have un-transmitted messages waiting for
 412:Generated_Source\PSoC5/CAN_TX_RX_func.c ****     *  arbitration. If not initiate transmission of the message.
 413:Generated_Source\PSoC5/CAN_TX_RX_func.c ****     *  Generated only for the Transmit mailbox designed as Full.
 414:Generated_Source\PSoC5/CAN_TX_RX_func.c ****     *
 415:Generated_Source\PSoC5/CAN_TX_RX_func.c ****     * Parameters:
 416:Generated_Source\PSoC5/CAN_TX_RX_func.c ****     *  None.
 417:Generated_Source\PSoC5/CAN_TX_RX_func.c ****     *
 418:Generated_Source\PSoC5/CAN_TX_RX_func.c ****     * Return:
 419:Generated_Source\PSoC5/CAN_TX_RX_func.c ****     *  Indication if Message has been sent.
 420:Generated_Source\PSoC5/CAN_TX_RX_func.c ****     *   Define                             Description
 421:Generated_Source\PSoC5/CAN_TX_RX_func.c ****     *    CYRET_SUCCESS                      The function passed successfully
 422:Generated_Source\PSoC5/CAN_TX_RX_func.c ****     *    CAN_FAIL              The function failed
 423:Generated_Source\PSoC5/CAN_TX_RX_func.c ****     *
 424:Generated_Source\PSoC5/CAN_TX_RX_func.c ****     *******************************************************************************/
 425:Generated_Source\PSoC5/CAN_TX_RX_func.c ****     uint8 CAN_SendMsg4(void) 
 426:Generated_Source\PSoC5/CAN_TX_RX_func.c ****     {
 427:Generated_Source\PSoC5/CAN_TX_RX_func.c ****         uint8 result = CYRET_SUCCESS;
 428:Generated_Source\PSoC5/CAN_TX_RX_func.c **** 
 429:Generated_Source\PSoC5/CAN_TX_RX_func.c ****         #if (CY_PSOC3 || CY_PSOC5)
 430:Generated_Source\PSoC5/CAN_TX_RX_func.c ****             if ((CAN_TX[4u].txcmd.byte[0u] & CAN_TX_REQUEST_PENDING) != 0u)
 431:Generated_Source\PSoC5/CAN_TX_RX_func.c ****         #else  /* CY_PSOC4 */
 432:Generated_Source\PSoC5/CAN_TX_RX_func.c ****             if ((CAN_TX_CMD_REG(4u) & CAN_TX_REQUEST_PENDING) != 0u)
 433:Generated_Source\PSoC5/CAN_TX_RX_func.c ****         #endif /* CY_PSOC3 || CY_PSOC5 */
 434:Generated_Source\PSoC5/CAN_TX_RX_func.c ****             {
 435:Generated_Source\PSoC5/CAN_TX_RX_func.c ****                 result = CAN_FAIL;
 436:Generated_Source\PSoC5/CAN_TX_RX_func.c ****             }
 437:Generated_Source\PSoC5/CAN_TX_RX_func.c ****             else
 438:Generated_Source\PSoC5/CAN_TX_RX_func.c ****             {
 439:Generated_Source\PSoC5/CAN_TX_RX_func.c ****                 /* `#START MESSAGE_4_TRASMITTED` */
 440:Generated_Source\PSoC5/CAN_TX_RX_func.c **** 
 441:Generated_Source\PSoC5/CAN_TX_RX_func.c ****                 /* `#END` */
 442:Generated_Source\PSoC5/CAN_TX_RX_func.c **** 
 443:Generated_Source\PSoC5/CAN_TX_RX_func.c ****                 #ifdef CAN_SEND_MSG_4_CALLBACK
 444:Generated_Source\PSoC5/CAN_TX_RX_func.c ****                     CAN_SendMsg_4_Callback();
 445:Generated_Source\PSoC5/CAN_TX_RX_func.c ****                 #endif /* CAN_SEND_MSG_4_CALLBACK */
 446:Generated_Source\PSoC5/CAN_TX_RX_func.c **** 
 447:Generated_Source\PSoC5/CAN_TX_RX_func.c ****                 CY_SET_REG32(CAN_TX_CMD_PTR(4u),
 448:Generated_Source\PSoC5/CAN_TX_RX_func.c ****                 CY_GET_REG32(CAN_TX_CMD_PTR(4u)) | CAN_SEND_MESSAGE);
 449:Generated_Source\PSoC5/CAN_TX_RX_func.c ****             }
 450:Generated_Source\PSoC5/CAN_TX_RX_func.c **** 
 451:Generated_Source\PSoC5/CAN_TX_RX_func.c ****         return (result);
 452:Generated_Source\PSoC5/CAN_TX_RX_func.c ****     }
 453:Generated_Source\PSoC5/CAN_TX_RX_func.c **** #endif /* CAN_TX4_FUNC_ENABLE */
 454:Generated_Source\PSoC5/CAN_TX_RX_func.c **** 
 455:Generated_Source\PSoC5/CAN_TX_RX_func.c **** 
 456:Generated_Source\PSoC5/CAN_TX_RX_func.c **** #if (CAN_TX5_FUNC_ENABLE)
 457:Generated_Source\PSoC5/CAN_TX_RX_func.c ****     /*******************************************************************************
 458:Generated_Source\PSoC5/CAN_TX_RX_func.c ****     * FUNCTION NAME:   CAN_SendMsg5
 459:Generated_Source\PSoC5/CAN_TX_RX_func.c ****     ********************************************************************************
 460:Generated_Source\PSoC5/CAN_TX_RX_func.c ****     *
 461:Generated_Source\PSoC5/CAN_TX_RX_func.c ****     * Summary:
 462:Generated_Source\PSoC5/CAN_TX_RX_func.c ****     *  This function is the entry point to Transmit Message 5. The function checks
 463:Generated_Source\PSoC5/CAN_TX_RX_func.c ****     *  if mailbox 5 doesn't already have un-transmitted messages waiting for
 464:Generated_Source\PSoC5/CAN_TX_RX_func.c ****     *  arbitration. If not initiate transmission of the message.
 465:Generated_Source\PSoC5/CAN_TX_RX_func.c ****     *  Generated only for the Transmit mailbox designed as Full.
 466:Generated_Source\PSoC5/CAN_TX_RX_func.c ****     *
 467:Generated_Source\PSoC5/CAN_TX_RX_func.c ****     * Parameters:
ARM GAS  D:\Windows\AppData\Local\Temp\ccxctkJs.s 			page 19


 468:Generated_Source\PSoC5/CAN_TX_RX_func.c ****     *  None.
 469:Generated_Source\PSoC5/CAN_TX_RX_func.c ****     *
 470:Generated_Source\PSoC5/CAN_TX_RX_func.c ****     * Return:
 471:Generated_Source\PSoC5/CAN_TX_RX_func.c ****     *  Indication if Message has been sent.
 472:Generated_Source\PSoC5/CAN_TX_RX_func.c ****     *   Define                             Description
 473:Generated_Source\PSoC5/CAN_TX_RX_func.c ****     *    CYRET_SUCCESS                      The function passed successfully
 474:Generated_Source\PSoC5/CAN_TX_RX_func.c ****     *    CAN_FAIL              The function failed
 475:Generated_Source\PSoC5/CAN_TX_RX_func.c ****     *
 476:Generated_Source\PSoC5/CAN_TX_RX_func.c ****     *******************************************************************************/
 477:Generated_Source\PSoC5/CAN_TX_RX_func.c ****     uint8 CAN_SendMsg5(void) 
 478:Generated_Source\PSoC5/CAN_TX_RX_func.c ****     {
 479:Generated_Source\PSoC5/CAN_TX_RX_func.c ****         uint8 result = CYRET_SUCCESS;
 480:Generated_Source\PSoC5/CAN_TX_RX_func.c **** 
 481:Generated_Source\PSoC5/CAN_TX_RX_func.c ****         #if (CY_PSOC3 || CY_PSOC5)
 482:Generated_Source\PSoC5/CAN_TX_RX_func.c ****             if ((CAN_TX[5u].txcmd.byte[0u] & CAN_TX_REQUEST_PENDING) != 0u)
 483:Generated_Source\PSoC5/CAN_TX_RX_func.c ****         #else  /* CY_PSOC4 */
 484:Generated_Source\PSoC5/CAN_TX_RX_func.c ****             if ((CAN_TX_CMD_REG(5u) & CAN_TX_REQUEST_PENDING) != 0u)
 485:Generated_Source\PSoC5/CAN_TX_RX_func.c ****         #endif /* CY_PSOC3 || CY_PSOC5 */
 486:Generated_Source\PSoC5/CAN_TX_RX_func.c ****             {
 487:Generated_Source\PSoC5/CAN_TX_RX_func.c ****                 result = CAN_FAIL;
 488:Generated_Source\PSoC5/CAN_TX_RX_func.c ****             }
 489:Generated_Source\PSoC5/CAN_TX_RX_func.c ****             else
 490:Generated_Source\PSoC5/CAN_TX_RX_func.c ****             {
 491:Generated_Source\PSoC5/CAN_TX_RX_func.c ****                 /* `#START MESSAGE_5_TRASMITTED` */
 492:Generated_Source\PSoC5/CAN_TX_RX_func.c **** 
 493:Generated_Source\PSoC5/CAN_TX_RX_func.c ****                 /* `#END` */
 494:Generated_Source\PSoC5/CAN_TX_RX_func.c **** 
 495:Generated_Source\PSoC5/CAN_TX_RX_func.c ****                 #ifdef CAN_SEND_MSG_5_CALLBACK
 496:Generated_Source\PSoC5/CAN_TX_RX_func.c ****                     CAN_SendMsg_5_Callback();
 497:Generated_Source\PSoC5/CAN_TX_RX_func.c ****                 #endif /* CAN_SEND_MSG_5_CALLBACK */
 498:Generated_Source\PSoC5/CAN_TX_RX_func.c **** 
 499:Generated_Source\PSoC5/CAN_TX_RX_func.c ****                 CY_SET_REG32(CAN_TX_CMD_PTR(5u),
 500:Generated_Source\PSoC5/CAN_TX_RX_func.c ****                 CY_GET_REG32(CAN_TX_CMD_PTR(5u)) | CAN_SEND_MESSAGE);
 501:Generated_Source\PSoC5/CAN_TX_RX_func.c ****             }
 502:Generated_Source\PSoC5/CAN_TX_RX_func.c **** 
 503:Generated_Source\PSoC5/CAN_TX_RX_func.c ****         return (result);
 504:Generated_Source\PSoC5/CAN_TX_RX_func.c ****     }
 505:Generated_Source\PSoC5/CAN_TX_RX_func.c **** #endif /* CAN_TX5_FUNC_ENABLE */
 506:Generated_Source\PSoC5/CAN_TX_RX_func.c **** 
 507:Generated_Source\PSoC5/CAN_TX_RX_func.c **** 
 508:Generated_Source\PSoC5/CAN_TX_RX_func.c **** #if (CAN_TX6_FUNC_ENABLE)
 509:Generated_Source\PSoC5/CAN_TX_RX_func.c ****     /*******************************************************************************
 510:Generated_Source\PSoC5/CAN_TX_RX_func.c ****     * FUNCTION NAME:   CAN_SendMsg6
 511:Generated_Source\PSoC5/CAN_TX_RX_func.c ****     ********************************************************************************
 512:Generated_Source\PSoC5/CAN_TX_RX_func.c ****     *
 513:Generated_Source\PSoC5/CAN_TX_RX_func.c ****     * Summary:
 514:Generated_Source\PSoC5/CAN_TX_RX_func.c ****     *  This function is the entry point to Transmit Message 6. The function checks
 515:Generated_Source\PSoC5/CAN_TX_RX_func.c ****     *  if mailbox 6 doesn't already have un-transmitted messages waiting for
 516:Generated_Source\PSoC5/CAN_TX_RX_func.c ****     *  arbitration. If not initiate transmission of the message.
 517:Generated_Source\PSoC5/CAN_TX_RX_func.c ****     *  Generated only for the Transmit mailbox designed as Full.
 518:Generated_Source\PSoC5/CAN_TX_RX_func.c ****     *
 519:Generated_Source\PSoC5/CAN_TX_RX_func.c ****     * Parameters:
 520:Generated_Source\PSoC5/CAN_TX_RX_func.c ****     *  None.
 521:Generated_Source\PSoC5/CAN_TX_RX_func.c ****     *
 522:Generated_Source\PSoC5/CAN_TX_RX_func.c ****     * Return:
 523:Generated_Source\PSoC5/CAN_TX_RX_func.c ****     *  Indication if Message has been sent.
 524:Generated_Source\PSoC5/CAN_TX_RX_func.c ****     *   Define                             Description
ARM GAS  D:\Windows\AppData\Local\Temp\ccxctkJs.s 			page 20


 525:Generated_Source\PSoC5/CAN_TX_RX_func.c ****     *    CYRET_SUCCESS                      The function passed successfully
 526:Generated_Source\PSoC5/CAN_TX_RX_func.c ****     *    CAN_FAIL              The function failed
 527:Generated_Source\PSoC5/CAN_TX_RX_func.c ****     *
 528:Generated_Source\PSoC5/CAN_TX_RX_func.c ****     *******************************************************************************/
 529:Generated_Source\PSoC5/CAN_TX_RX_func.c ****     uint8 CAN_SendMsg6(void) 
 530:Generated_Source\PSoC5/CAN_TX_RX_func.c ****     {
 531:Generated_Source\PSoC5/CAN_TX_RX_func.c ****         uint8 result = CYRET_SUCCESS;
 532:Generated_Source\PSoC5/CAN_TX_RX_func.c **** 
 533:Generated_Source\PSoC5/CAN_TX_RX_func.c ****         #if (CY_PSOC3 || CY_PSOC5)
 534:Generated_Source\PSoC5/CAN_TX_RX_func.c ****             if ((CAN_TX[6u].txcmd.byte[0u] & CAN_TX_REQUEST_PENDING) != 0u)
 535:Generated_Source\PSoC5/CAN_TX_RX_func.c ****         #else  /* CY_PSOC4 */
 536:Generated_Source\PSoC5/CAN_TX_RX_func.c ****             if ((CAN_TX_CMD_REG(6u) & CAN_TX_REQUEST_PENDING) != 0u)
 537:Generated_Source\PSoC5/CAN_TX_RX_func.c ****         #endif /* CY_PSOC3 || CY_PSOC5 */
 538:Generated_Source\PSoC5/CAN_TX_RX_func.c ****             {
 539:Generated_Source\PSoC5/CAN_TX_RX_func.c ****                 result = CAN_FAIL;
 540:Generated_Source\PSoC5/CAN_TX_RX_func.c ****             }
 541:Generated_Source\PSoC5/CAN_TX_RX_func.c ****             else
 542:Generated_Source\PSoC5/CAN_TX_RX_func.c ****             {
 543:Generated_Source\PSoC5/CAN_TX_RX_func.c ****                 /* `#START MESSAGE_6_TRASMITTED` */
 544:Generated_Source\PSoC5/CAN_TX_RX_func.c **** 
 545:Generated_Source\PSoC5/CAN_TX_RX_func.c ****                 /* `#END` */
 546:Generated_Source\PSoC5/CAN_TX_RX_func.c **** 
 547:Generated_Source\PSoC5/CAN_TX_RX_func.c ****                 #ifdef CAN_SEND_MSG_6_CALLBACK
 548:Generated_Source\PSoC5/CAN_TX_RX_func.c ****                     CAN_SendMsg_6_Callback();
 549:Generated_Source\PSoC5/CAN_TX_RX_func.c ****                 #endif /* CAN_SEND_MSG_6_CALLBACK */
 550:Generated_Source\PSoC5/CAN_TX_RX_func.c **** 
 551:Generated_Source\PSoC5/CAN_TX_RX_func.c ****                 CY_SET_REG32(CAN_TX_CMD_PTR(6u),
 552:Generated_Source\PSoC5/CAN_TX_RX_func.c ****                 CY_GET_REG32(CAN_TX_CMD_PTR(6u)) | CAN_SEND_MESSAGE);
 553:Generated_Source\PSoC5/CAN_TX_RX_func.c ****             }
 554:Generated_Source\PSoC5/CAN_TX_RX_func.c **** 
 555:Generated_Source\PSoC5/CAN_TX_RX_func.c ****         return (result);
 556:Generated_Source\PSoC5/CAN_TX_RX_func.c ****     }
 557:Generated_Source\PSoC5/CAN_TX_RX_func.c **** #endif /* CAN_TX6_FUNC_ENABLE */
 558:Generated_Source\PSoC5/CAN_TX_RX_func.c **** 
 559:Generated_Source\PSoC5/CAN_TX_RX_func.c **** 
 560:Generated_Source\PSoC5/CAN_TX_RX_func.c **** #if (CAN_TX7_FUNC_ENABLE)
 561:Generated_Source\PSoC5/CAN_TX_RX_func.c ****     /*******************************************************************************
 562:Generated_Source\PSoC5/CAN_TX_RX_func.c ****     * FUNCTION NAME:   CAN_SendMsg7)
 563:Generated_Source\PSoC5/CAN_TX_RX_func.c ****     ********************************************************************************
 564:Generated_Source\PSoC5/CAN_TX_RX_func.c ****     *
 565:Generated_Source\PSoC5/CAN_TX_RX_func.c ****     * Summary:
 566:Generated_Source\PSoC5/CAN_TX_RX_func.c ****     *  This function is the entry point to Transmit Message 7. The function checks
 567:Generated_Source\PSoC5/CAN_TX_RX_func.c ****     *  if mailbox 7 doesn't already have un-transmitted messages waiting for
 568:Generated_Source\PSoC5/CAN_TX_RX_func.c ****     *  arbitration. If not initiate transmission of the message.
 569:Generated_Source\PSoC5/CAN_TX_RX_func.c ****     *  Generated only for the Transmit mailbox designed as Full.
 570:Generated_Source\PSoC5/CAN_TX_RX_func.c ****     *
 571:Generated_Source\PSoC5/CAN_TX_RX_func.c ****     * Parameters:
 572:Generated_Source\PSoC5/CAN_TX_RX_func.c ****     *  None.
 573:Generated_Source\PSoC5/CAN_TX_RX_func.c ****     *
 574:Generated_Source\PSoC5/CAN_TX_RX_func.c ****     * Return:
 575:Generated_Source\PSoC5/CAN_TX_RX_func.c ****     *  Indication if Message has been sent.
 576:Generated_Source\PSoC5/CAN_TX_RX_func.c ****     *   Define                             Description
 577:Generated_Source\PSoC5/CAN_TX_RX_func.c ****     *    CYRET_SUCCESS                      The function passed successfully
 578:Generated_Source\PSoC5/CAN_TX_RX_func.c ****     *    CAN_FAIL              The function failed
 579:Generated_Source\PSoC5/CAN_TX_RX_func.c ****     *
 580:Generated_Source\PSoC5/CAN_TX_RX_func.c ****     *******************************************************************************/
 581:Generated_Source\PSoC5/CAN_TX_RX_func.c ****     uint8 CAN_SendMsg7(void) 
ARM GAS  D:\Windows\AppData\Local\Temp\ccxctkJs.s 			page 21


 582:Generated_Source\PSoC5/CAN_TX_RX_func.c ****     {
 583:Generated_Source\PSoC5/CAN_TX_RX_func.c ****         uint8 result = CYRET_SUCCESS;
 584:Generated_Source\PSoC5/CAN_TX_RX_func.c **** 
 585:Generated_Source\PSoC5/CAN_TX_RX_func.c ****         #if (CY_PSOC3 || CY_PSOC5)
 586:Generated_Source\PSoC5/CAN_TX_RX_func.c ****             if ((CAN_TX[7u].txcmd.byte[0u] & CAN_TX_REQUEST_PENDING) != 0u)
 587:Generated_Source\PSoC5/CAN_TX_RX_func.c ****         #else  /* CY_PSOC4 */
 588:Generated_Source\PSoC5/CAN_TX_RX_func.c ****             if ((CAN_TX_CMD_REG(7u) & CAN_TX_REQUEST_PENDING) != 0u)
 589:Generated_Source\PSoC5/CAN_TX_RX_func.c ****         #endif /* CY_PSOC3 || CY_PSOC5 */
 590:Generated_Source\PSoC5/CAN_TX_RX_func.c ****             {
 591:Generated_Source\PSoC5/CAN_TX_RX_func.c ****                 result = CAN_FAIL;
 592:Generated_Source\PSoC5/CAN_TX_RX_func.c ****             }
 593:Generated_Source\PSoC5/CAN_TX_RX_func.c ****             else
 594:Generated_Source\PSoC5/CAN_TX_RX_func.c ****             {
 595:Generated_Source\PSoC5/CAN_TX_RX_func.c ****                 /* `#START MESSAGE_7_TRASMITTED` */
 596:Generated_Source\PSoC5/CAN_TX_RX_func.c **** 
 597:Generated_Source\PSoC5/CAN_TX_RX_func.c ****                 /* `#END` */
 598:Generated_Source\PSoC5/CAN_TX_RX_func.c **** 
 599:Generated_Source\PSoC5/CAN_TX_RX_func.c ****                 #ifdef CAN_SEND_MSG_7_CALLBACK
 600:Generated_Source\PSoC5/CAN_TX_RX_func.c ****                     CAN_SendMsg_7_Callback();
 601:Generated_Source\PSoC5/CAN_TX_RX_func.c ****                 #endif /* CAN_SEND_MSG_7_CALLBACK */
 602:Generated_Source\PSoC5/CAN_TX_RX_func.c **** 
 603:Generated_Source\PSoC5/CAN_TX_RX_func.c ****                 CY_SET_REG32(CAN_TX_CMD_PTR(7u),
 604:Generated_Source\PSoC5/CAN_TX_RX_func.c ****                 CY_GET_REG32(CAN_TX_CMD_PTR(7u)) | CAN_SEND_MESSAGE);
 605:Generated_Source\PSoC5/CAN_TX_RX_func.c ****             }
 606:Generated_Source\PSoC5/CAN_TX_RX_func.c **** 
 607:Generated_Source\PSoC5/CAN_TX_RX_func.c ****         return (result);
 608:Generated_Source\PSoC5/CAN_TX_RX_func.c ****     }
 609:Generated_Source\PSoC5/CAN_TX_RX_func.c **** #endif /* CAN_TX7_FUNC_ENABLE */
 610:Generated_Source\PSoC5/CAN_TX_RX_func.c **** 
 611:Generated_Source\PSoC5/CAN_TX_RX_func.c **** 
 612:Generated_Source\PSoC5/CAN_TX_RX_func.c **** /*******************************************************************************
 613:Generated_Source\PSoC5/CAN_TX_RX_func.c **** * FUNCTION NAME:   CAN_ReceiveMsg
 614:Generated_Source\PSoC5/CAN_TX_RX_func.c **** ********************************************************************************
 615:Generated_Source\PSoC5/CAN_TX_RX_func.c **** *
 616:Generated_Source\PSoC5/CAN_TX_RX_func.c **** * Summary:
 617:Generated_Source\PSoC5/CAN_TX_RX_func.c **** *  This function is the entry point to Receive Message Interrupt for Basic
 618:Generated_Source\PSoC5/CAN_TX_RX_func.c **** *  mailboxes. Clears the Receive particular Message interrupt flag. Generated
 619:Generated_Source\PSoC5/CAN_TX_RX_func.c **** *  only if one of the Receive mailboxes is designed as Basic.
 620:Generated_Source\PSoC5/CAN_TX_RX_func.c **** *
 621:Generated_Source\PSoC5/CAN_TX_RX_func.c **** * Parameters:
 622:Generated_Source\PSoC5/CAN_TX_RX_func.c **** *  rxMailbox: The mailbox number that trig Receive Message Interrupt.
 623:Generated_Source\PSoC5/CAN_TX_RX_func.c **** *
 624:Generated_Source\PSoC5/CAN_TX_RX_func.c **** * Return:
 625:Generated_Source\PSoC5/CAN_TX_RX_func.c **** *  None.
 626:Generated_Source\PSoC5/CAN_TX_RX_func.c **** *
 627:Generated_Source\PSoC5/CAN_TX_RX_func.c **** * Reentrant:
 628:Generated_Source\PSoC5/CAN_TX_RX_func.c **** *  Depends on the Customer code.
 629:Generated_Source\PSoC5/CAN_TX_RX_func.c **** *
 630:Generated_Source\PSoC5/CAN_TX_RX_func.c **** *******************************************************************************/
 631:Generated_Source\PSoC5/CAN_TX_RX_func.c **** void CAN_ReceiveMsg(uint8 rxMailbox) 
 632:Generated_Source\PSoC5/CAN_TX_RX_func.c **** {
 550              		.loc 1 632 0
 551              		.cfi_startproc
 552              		@ args = 0, pretend = 0, frame = 56
 553              		@ frame_needed = 1, uses_anonymous_args = 0
 554 0000 B0B5     		push	{r4, r5, r7, lr}
 555              		.cfi_def_cfa_offset 16
ARM GAS  D:\Windows\AppData\Local\Temp\ccxctkJs.s 			page 22


 556              		.cfi_offset 4, -16
 557              		.cfi_offset 5, -12
 558              		.cfi_offset 7, -8
 559              		.cfi_offset 14, -4
 560 0002 8EB0     		sub	sp, sp, #56
 561              		.cfi_def_cfa_offset 72
 562 0004 00AF     		add	r7, sp, #0
 563              		.cfi_def_cfa_register 7
 564 0006 0346     		mov	r3, r0
 565 0008 FB71     		strb	r3, [r7, #7]
 633:Generated_Source\PSoC5/CAN_TX_RX_func.c ****     #if (CY_PSOC3 || CY_PSOC5)
 634:Generated_Source\PSoC5/CAN_TX_RX_func.c ****         if ((CAN_RX[rxMailbox].rxcmd.byte[0u] & CAN_RX_ACK_MSG) != 0u)
 566              		.loc 1 634 0
 567 000a FB79     		ldrb	r3, [r7, #7]	@ zero_extendqisi2
 568 000c 5A01     		lsls	r2, r3, #5
 569 000e 324B     		ldr	r3, .L55
 570 0010 1344     		add	r3, r3, r2
 571 0012 1B78     		ldrb	r3, [r3]
 572 0014 DBB2     		uxtb	r3, r3
 573 0016 03F00103 		and	r3, r3, #1
 574 001a 002B     		cmp	r3, #0
 575 001c 59D0     		beq	.L49
 576              	.LBB4:
 635:Generated_Source\PSoC5/CAN_TX_RX_func.c ****     #else  /* CY_PSOC4 */
 636:Generated_Source\PSoC5/CAN_TX_RX_func.c ****         if ((CAN_RX_CMD_REG(rxMailbox) & CAN_RX_ACK_MSG) != 0u)
 637:Generated_Source\PSoC5/CAN_TX_RX_func.c ****     #endif /* CY_PSOC3 || CY_PSOC5 */
 638:Generated_Source\PSoC5/CAN_TX_RX_func.c ****         {
 639:Generated_Source\PSoC5/CAN_TX_RX_func.c ****             /* `#START MESSAGE_BASIC_RECEIVED` */
 640:Generated_Source\PSoC5/CAN_TX_RX_func.c ****             
 641:Generated_Source\PSoC5/CAN_TX_RX_func.c ****             // Grab message ID
 642:Generated_Source\PSoC5/CAN_TX_RX_func.c ****             int ID = CAN_GET_RX_ID(rxMailbox);
 577              		.loc 1 642 0
 578 001e FB79     		ldrb	r3, [r7, #7]	@ zero_extendqisi2
 579 0020 5A01     		lsls	r2, r3, #5
 580 0022 2D4B     		ldr	r3, .L55
 581 0024 1344     		add	r3, r3, r2
 582 0026 9B78     		ldrb	r3, [r3, #2]
 583 0028 DBB2     		uxtb	r3, r3
 584 002a 03F01003 		and	r3, r3, #16
 585 002e 1B11     		asrs	r3, r3, #4
 586 0030 002B     		cmp	r3, #0
 587 0032 07D0     		beq	.L51
 588              		.loc 1 642 0 is_stmt 0 discriminator 1
 589 0034 FB79     		ldrb	r3, [r7, #7]	@ zero_extendqisi2
 590 0036 5A01     		lsls	r2, r3, #5
 591 0038 274B     		ldr	r3, .L55
 592 003a 1344     		add	r3, r3, r2
 593 003c 0433     		adds	r3, r3, #4
 594 003e 1B68     		ldr	r3, [r3]
 595 0040 DB08     		lsrs	r3, r3, #3
 596 0042 06E0     		b	.L52
 597              	.L51:
 598              		.loc 1 642 0 discriminator 2
 599 0044 FB79     		ldrb	r3, [r7, #7]	@ zero_extendqisi2
 600 0046 5A01     		lsls	r2, r3, #5
 601 0048 234B     		ldr	r3, .L55
 602 004a 1344     		add	r3, r3, r2
ARM GAS  D:\Windows\AppData\Local\Temp\ccxctkJs.s 			page 23


 603 004c 0433     		adds	r3, r3, #4
 604 004e 1B68     		ldr	r3, [r3]
 605 0050 5B0D     		lsrs	r3, r3, #21
 606              	.L52:
 607              		.loc 1 642 0 discriminator 4
 608 0052 3B63     		str	r3, [r7, #48]
 643:Generated_Source\PSoC5/CAN_TX_RX_func.c ****             
 644:Generated_Source\PSoC5/CAN_TX_RX_func.c ****             // The variable test is just for debuging.
 645:Generated_Source\PSoC5/CAN_TX_RX_func.c ****             CAN_RX_STRUCT test = CAN_RX[rxMailbox]; 
 609              		.loc 1 645 0 is_stmt 1 discriminator 4
 610 0054 FB79     		ldrb	r3, [r7, #7]	@ zero_extendqisi2
 611 0056 5A01     		lsls	r2, r3, #5
 612 0058 1F4B     		ldr	r3, .L55
 613 005a 1344     		add	r3, r3, r2
 614 005c 07F10804 		add	r4, r7, #8
 615 0060 1D46     		mov	r5, r3
 616 0062 2868     		ldr	r0, [r5]	@ unaligned
 617 0064 6968     		ldr	r1, [r5, #4]	@ unaligned
 618 0066 AA68     		ldr	r2, [r5, #8]	@ unaligned
 619 0068 EB68     		ldr	r3, [r5, #12]	@ unaligned
 620 006a 0FC4     		stmia	r4!, {r0, r1, r2, r3}
 621 006c 2869     		ldr	r0, [r5, #16]	@ unaligned
 622 006e 6969     		ldr	r1, [r5, #20]	@ unaligned
 623 0070 AA69     		ldr	r2, [r5, #24]	@ unaligned
 624 0072 EB69     		ldr	r3, [r5, #28]	@ unaligned
 625 0074 0FC4     		stmia	r4!, {r0, r1, r2, r3}
 646:Generated_Source\PSoC5/CAN_TX_RX_func.c ****             
 647:Generated_Source\PSoC5/CAN_TX_RX_func.c ****             // Grab the data one byte at a time.
 648:Generated_Source\PSoC5/CAN_TX_RX_func.c ****             uint8_t data[8];
 649:Generated_Source\PSoC5/CAN_TX_RX_func.c ****             int i = 0;
 626              		.loc 1 649 0 discriminator 4
 627 0076 0023     		movs	r3, #0
 628 0078 7B63     		str	r3, [r7, #52]
 650:Generated_Source\PSoC5/CAN_TX_RX_func.c ****             for (i = 0; i < 8; i++)
 629              		.loc 1 650 0 discriminator 4
 630 007a 0023     		movs	r3, #0
 631 007c 7B63     		str	r3, [r7, #52]
 632 007e 11E0     		b	.L53
 633              	.L54:
 651:Generated_Source\PSoC5/CAN_TX_RX_func.c ****                 data[i] = CAN_RX[rxMailbox].rxdata.byte[i];
 634              		.loc 1 651 0 discriminator 3
 635 0080 FB79     		ldrb	r3, [r7, #7]	@ zero_extendqisi2
 636 0082 5A01     		lsls	r2, r3, #5
 637 0084 144B     		ldr	r3, .L55
 638 0086 1344     		add	r3, r3, r2
 639 0088 7A6B     		ldr	r2, [r7, #52]
 640 008a 1344     		add	r3, r3, r2
 641 008c 0833     		adds	r3, r3, #8
 642 008e 1B78     		ldrb	r3, [r3]
 643 0090 D9B2     		uxtb	r1, r3
 644 0092 07F12802 		add	r2, r7, #40
 645 0096 7B6B     		ldr	r3, [r7, #52]
 646 0098 1344     		add	r3, r3, r2
 647 009a 0A46     		mov	r2, r1
 648 009c 1A70     		strb	r2, [r3]
 650:Generated_Source\PSoC5/CAN_TX_RX_func.c ****             for (i = 0; i < 8; i++)
 649              		.loc 1 650 0 discriminator 3
ARM GAS  D:\Windows\AppData\Local\Temp\ccxctkJs.s 			page 24


 650 009e 7B6B     		ldr	r3, [r7, #52]
 651 00a0 0133     		adds	r3, r3, #1
 652 00a2 7B63     		str	r3, [r7, #52]
 653              	.L53:
 650:Generated_Source\PSoC5/CAN_TX_RX_func.c ****             for (i = 0; i < 8; i++)
 654              		.loc 1 650 0 is_stmt 0 discriminator 1
 655 00a4 7B6B     		ldr	r3, [r7, #52]
 656 00a6 072B     		cmp	r3, #7
 657 00a8 EADD     		ble	.L54
 652:Generated_Source\PSoC5/CAN_TX_RX_func.c ****             
 653:Generated_Source\PSoC5/CAN_TX_RX_func.c ****             // Do something with that data based on the ID
 654:Generated_Source\PSoC5/CAN_TX_RX_func.c ****             can_receive(data, ID);
 658              		.loc 1 654 0 is_stmt 1
 659 00aa 07F12803 		add	r3, r7, #40
 660 00ae 1846     		mov	r0, r3
 661 00b0 396B     		ldr	r1, [r7, #48]
 662 00b2 FFF7FEFF 		bl	can_receive
 655:Generated_Source\PSoC5/CAN_TX_RX_func.c ****             
 656:Generated_Source\PSoC5/CAN_TX_RX_func.c ****             /* `#END` */
 657:Generated_Source\PSoC5/CAN_TX_RX_func.c **** 
 658:Generated_Source\PSoC5/CAN_TX_RX_func.c ****             #ifdef CAN_RECEIVE_MSG_CALLBACK
 659:Generated_Source\PSoC5/CAN_TX_RX_func.c ****                 CAN_ReceiveMsg_Callback();
 660:Generated_Source\PSoC5/CAN_TX_RX_func.c ****             #endif /* CAN_RECEIVE_MSG_CALLBACK */
 661:Generated_Source\PSoC5/CAN_TX_RX_func.c **** 
 662:Generated_Source\PSoC5/CAN_TX_RX_func.c ****             #if (CY_PSOC3 || CY_PSOC5)
 663:Generated_Source\PSoC5/CAN_TX_RX_func.c ****                 CAN_RX[rxMailbox].rxcmd.byte[0u] |= CAN_RX_ACK_MSG;
 663              		.loc 1 663 0
 664 00b6 FB79     		ldrb	r3, [r7, #7]	@ zero_extendqisi2
 665 00b8 5A01     		lsls	r2, r3, #5
 666 00ba 074B     		ldr	r3, .L55
 667 00bc 1344     		add	r3, r3, r2
 668 00be FA79     		ldrb	r2, [r7, #7]	@ zero_extendqisi2
 669 00c0 5101     		lsls	r1, r2, #5
 670 00c2 054A     		ldr	r2, .L55
 671 00c4 0A44     		add	r2, r2, r1
 672 00c6 1278     		ldrb	r2, [r2]
 673 00c8 D2B2     		uxtb	r2, r2
 674 00ca 42F00102 		orr	r2, r2, #1
 675 00ce D2B2     		uxtb	r2, r2
 676 00d0 1A70     		strb	r2, [r3]
 677              	.L49:
 678              	.LBE4:
 664:Generated_Source\PSoC5/CAN_TX_RX_func.c ****             #else  /* CY_PSOC4 */
 665:Generated_Source\PSoC5/CAN_TX_RX_func.c ****                 CAN_RX_CMD_REG(rxMailbox) |= CAN_RX_ACK_MSG;
 666:Generated_Source\PSoC5/CAN_TX_RX_func.c ****             #endif /* CY_PSOC3 || CY_PSOC5 */
 667:Generated_Source\PSoC5/CAN_TX_RX_func.c ****         }
 668:Generated_Source\PSoC5/CAN_TX_RX_func.c **** }
 679              		.loc 1 668 0
 680 00d2 3837     		adds	r7, r7, #56
 681              		.cfi_def_cfa_offset 16
 682 00d4 BD46     		mov	sp, r7
 683              		.cfi_def_cfa_register 13
 684              		@ sp needed
 685 00d6 B0BD     		pop	{r4, r5, r7, pc}
 686              	.L56:
 687              		.align	2
 688              	.L55:
ARM GAS  D:\Windows\AppData\Local\Temp\ccxctkJs.s 			page 25


 689 00d8 A0A00040 		.word	1073782944
 690              		.cfi_endproc
 691              	.LFE4:
 692              		.size	CAN_ReceiveMsg, .-CAN_ReceiveMsg
 693              		.text
 694              	.Letext0:
 695              		.file 2 "d:\\programming\\cypress\\psoc creator\\4.0\\psoc creator\\import\\gnu\\arm\\4.9.3\\arm-n
 696              		.file 3 "d:\\programming\\cypress\\psoc creator\\4.0\\psoc creator\\import\\gnu\\arm\\4.9.3\\arm-n
 697              		.file 4 "Generated_Source\\PSoC5\\cytypes.h"
 698              		.file 5 "Generated_Source\\PSoC5\\CAN.h"
 699              		.section	.debug_info,"",%progbits
 700              	.Ldebug_info0:
 701 0000 25040000 		.4byte	0x425
 702 0004 0400     		.2byte	0x4
 703 0006 00000000 		.4byte	.Ldebug_abbrev0
 704 000a 04       		.byte	0x4
 705 000b 01       		.uleb128 0x1
 706 000c 7A010000 		.4byte	.LASF50
 707 0010 01       		.byte	0x1
 708 0011 4C010000 		.4byte	.LASF51
 709 0015 76020000 		.4byte	.LASF52
 710 0019 00000000 		.4byte	.Ldebug_ranges0+0
 711 001d 00000000 		.4byte	0
 712 0021 00000000 		.4byte	.Ldebug_line0
 713 0025 02       		.uleb128 0x2
 714 0026 01       		.byte	0x1
 715 0027 06       		.byte	0x6
 716 0028 58000000 		.4byte	.LASF0
 717 002c 03       		.uleb128 0x3
 718 002d 00000000 		.4byte	.LASF9
 719 0031 02       		.byte	0x2
 720 0032 1D       		.byte	0x1d
 721 0033 37000000 		.4byte	0x37
 722 0037 02       		.uleb128 0x2
 723 0038 01       		.byte	0x1
 724 0039 08       		.byte	0x8
 725 003a 13020000 		.4byte	.LASF1
 726 003e 02       		.uleb128 0x2
 727 003f 02       		.byte	0x2
 728 0040 05       		.byte	0x5
 729 0041 21020000 		.4byte	.LASF2
 730 0045 02       		.uleb128 0x2
 731 0046 02       		.byte	0x2
 732 0047 07       		.byte	0x7
 733 0048 FB000000 		.4byte	.LASF3
 734 004c 02       		.uleb128 0x2
 735 004d 04       		.byte	0x4
 736 004e 05       		.byte	0x5
 737 004f 64000000 		.4byte	.LASF4
 738 0053 02       		.uleb128 0x2
 739 0054 04       		.byte	0x4
 740 0055 07       		.byte	0x7
 741 0056 B3000000 		.4byte	.LASF5
 742 005a 02       		.uleb128 0x2
 743 005b 08       		.byte	0x8
 744 005c 05       		.byte	0x5
 745 005d 4A000000 		.4byte	.LASF6
ARM GAS  D:\Windows\AppData\Local\Temp\ccxctkJs.s 			page 26


 746 0061 02       		.uleb128 0x2
 747 0062 08       		.byte	0x8
 748 0063 07       		.byte	0x7
 749 0064 21000000 		.4byte	.LASF7
 750 0068 04       		.uleb128 0x4
 751 0069 04       		.byte	0x4
 752 006a 05       		.byte	0x5
 753 006b 696E7400 		.ascii	"int\000"
 754 006f 02       		.uleb128 0x2
 755 0070 04       		.byte	0x4
 756 0071 07       		.byte	0x7
 757 0072 A6000000 		.4byte	.LASF8
 758 0076 03       		.uleb128 0x3
 759 0077 B3020000 		.4byte	.LASF10
 760 007b 03       		.byte	0x3
 761 007c 15       		.byte	0x15
 762 007d 2C000000 		.4byte	0x2c
 763 0081 05       		.uleb128 0x5
 764 0082 74000000 		.4byte	.LASF11
 765 0086 04       		.byte	0x4
 766 0087 3801     		.2byte	0x138
 767 0089 37000000 		.4byte	0x37
 768 008d 05       		.uleb128 0x5
 769 008e 8D000000 		.4byte	.LASF12
 770 0092 04       		.byte	0x4
 771 0093 3A01     		.2byte	0x13a
 772 0095 53000000 		.4byte	0x53
 773 0099 02       		.uleb128 0x2
 774 009a 04       		.byte	0x4
 775 009b 04       		.byte	0x4
 776 009c 08020000 		.4byte	.LASF13
 777 00a0 02       		.uleb128 0x2
 778 00a1 08       		.byte	0x8
 779 00a2 04       		.byte	0x4
 780 00a3 80000000 		.4byte	.LASF14
 781 00a7 02       		.uleb128 0x2
 782 00a8 01       		.byte	0x1
 783 00a9 08       		.byte	0x8
 784 00aa 4C020000 		.4byte	.LASF15
 785 00ae 05       		.uleb128 0x5
 786 00af 0E020000 		.4byte	.LASF16
 787 00b3 04       		.byte	0x4
 788 00b4 E201     		.2byte	0x1e2
 789 00b6 BA000000 		.4byte	0xba
 790 00ba 06       		.uleb128 0x6
 791 00bb 81000000 		.4byte	0x81
 792 00bf 05       		.uleb128 0x5
 793 00c0 32010000 		.4byte	.LASF17
 794 00c4 04       		.byte	0x4
 795 00c5 E401     		.2byte	0x1e4
 796 00c7 CB000000 		.4byte	0xcb
 797 00cb 06       		.uleb128 0x6
 798 00cc 8D000000 		.4byte	0x8d
 799 00d0 02       		.uleb128 0x2
 800 00d1 04       		.byte	0x4
 801 00d2 07       		.byte	0x7
 802 00d3 43010000 		.4byte	.LASF18
ARM GAS  D:\Windows\AppData\Local\Temp\ccxctkJs.s 			page 27


 803 00d7 07       		.uleb128 0x7
 804 00d8 08       		.byte	0x8
 805 00d9 05       		.byte	0x5
 806 00da 6F       		.byte	0x6f
 807 00db EC000000 		.4byte	0xec
 808 00df 08       		.uleb128 0x8
 809 00e0 A1000000 		.4byte	.LASF20
 810 00e4 05       		.byte	0x5
 811 00e5 71       		.byte	0x71
 812 00e6 EC000000 		.4byte	0xec
 813 00ea 00       		.byte	0
 814 00eb 00       		.byte	0
 815 00ec 09       		.uleb128 0x9
 816 00ed 81000000 		.4byte	0x81
 817 00f1 FC000000 		.4byte	0xfc
 818 00f5 0A       		.uleb128 0xa
 819 00f6 D0000000 		.4byte	0xd0
 820 00fa 07       		.byte	0x7
 821 00fb 00       		.byte	0
 822 00fc 03       		.uleb128 0x3
 823 00fd 2B020000 		.4byte	.LASF19
 824 0101 05       		.byte	0x5
 825 0102 72       		.byte	0x72
 826 0103 D7000000 		.4byte	0xd7
 827 0107 07       		.uleb128 0x7
 828 0108 08       		.byte	0x8
 829 0109 05       		.byte	0x5
 830 010a 75       		.byte	0x75
 831 010b 1C010000 		.4byte	0x11c
 832 010f 08       		.uleb128 0x8
 833 0110 A1000000 		.4byte	.LASF20
 834 0114 05       		.byte	0x5
 835 0115 77       		.byte	0x77
 836 0116 2C010000 		.4byte	0x12c
 837 011a 00       		.byte	0
 838 011b 00       		.byte	0
 839 011c 09       		.uleb128 0x9
 840 011d AE000000 		.4byte	0xae
 841 0121 2C010000 		.4byte	0x12c
 842 0125 0A       		.uleb128 0xa
 843 0126 D0000000 		.4byte	0xd0
 844 012a 07       		.byte	0x7
 845 012b 00       		.byte	0
 846 012c 06       		.uleb128 0x6
 847 012d 1C010000 		.4byte	0x11c
 848 0131 03       		.uleb128 0x3
 849 0132 56020000 		.4byte	.LASF21
 850 0136 05       		.byte	0x5
 851 0137 78       		.byte	0x78
 852 0138 07010000 		.4byte	0x107
 853 013c 07       		.uleb128 0x7
 854 013d 04       		.byte	0x4
 855 013e 05       		.byte	0x5
 856 013f 7B       		.byte	0x7b
 857 0140 51010000 		.4byte	0x151
 858 0144 08       		.uleb128 0x8
 859 0145 A1000000 		.4byte	.LASF20
ARM GAS  D:\Windows\AppData\Local\Temp\ccxctkJs.s 			page 28


 860 0149 05       		.byte	0x5
 861 014a 7D       		.byte	0x7d
 862 014b 61010000 		.4byte	0x161
 863 014f 00       		.byte	0
 864 0150 00       		.byte	0
 865 0151 09       		.uleb128 0x9
 866 0152 AE000000 		.4byte	0xae
 867 0156 61010000 		.4byte	0x161
 868 015a 0A       		.uleb128 0xa
 869 015b D0000000 		.4byte	0xd0
 870 015f 03       		.byte	0x3
 871 0160 00       		.byte	0
 872 0161 06       		.uleb128 0x6
 873 0162 51010000 		.4byte	0x151
 874 0166 03       		.uleb128 0x3
 875 0167 38010000 		.4byte	.LASF22
 876 016b 05       		.byte	0x5
 877 016c 7E       		.byte	0x7e
 878 016d 3C010000 		.4byte	0x13c
 879 0171 07       		.uleb128 0x7
 880 0172 0C       		.byte	0xc
 881 0173 05       		.byte	0x5
 882 0174 81       		.byte	0x81
 883 0175 C1010000 		.4byte	0x1c1
 884 0179 0B       		.uleb128 0xb
 885 017a 696400   		.ascii	"id\000"
 886 017d 05       		.byte	0x5
 887 017e 83       		.byte	0x83
 888 017f 8D000000 		.4byte	0x8d
 889 0183 00       		.byte	0
 890 0184 0B       		.uleb128 0xb
 891 0185 72747200 		.ascii	"rtr\000"
 892 0189 05       		.byte	0x5
 893 018a 84       		.byte	0x84
 894 018b 81000000 		.4byte	0x81
 895 018f 04       		.byte	0x4
 896 0190 0B       		.uleb128 0xb
 897 0191 69646500 		.ascii	"ide\000"
 898 0195 05       		.byte	0x5
 899 0196 85       		.byte	0x85
 900 0197 81000000 		.4byte	0x81
 901 019b 05       		.byte	0x5
 902 019c 0B       		.uleb128 0xb
 903 019d 646C6300 		.ascii	"dlc\000"
 904 01a1 05       		.byte	0x5
 905 01a2 86       		.byte	0x86
 906 01a3 81000000 		.4byte	0x81
 907 01a7 06       		.byte	0x6
 908 01a8 0B       		.uleb128 0xb
 909 01a9 69727100 		.ascii	"irq\000"
 910 01ad 05       		.byte	0x5
 911 01ae 87       		.byte	0x87
 912 01af 81000000 		.4byte	0x81
 913 01b3 07       		.byte	0x7
 914 01b4 0B       		.uleb128 0xb
 915 01b5 6D736700 		.ascii	"msg\000"
 916 01b9 05       		.byte	0x5
ARM GAS  D:\Windows\AppData\Local\Temp\ccxctkJs.s 			page 29


 917 01ba 8B       		.byte	0x8b
 918 01bb C1010000 		.4byte	0x1c1
 919 01bf 08       		.byte	0x8
 920 01c0 00       		.byte	0
 921 01c1 0C       		.uleb128 0xc
 922 01c2 04       		.byte	0x4
 923 01c3 FC000000 		.4byte	0xfc
 924 01c7 03       		.uleb128 0x3
 925 01c8 6B020000 		.4byte	.LASF23
 926 01cc 05       		.byte	0x5
 927 01cd 8C       		.byte	0x8c
 928 01ce 71010000 		.4byte	0x171
 929 01d2 07       		.uleb128 0x7
 930 01d3 20       		.byte	0x20
 931 01d4 05       		.byte	0x5
 932 01d5 A0       		.byte	0xa0
 933 01d6 2F020000 		.4byte	0x22f
 934 01da 08       		.uleb128 0x8
 935 01db 65020000 		.4byte	.LASF24
 936 01df 05       		.byte	0x5
 937 01e0 A2       		.byte	0xa2
 938 01e1 66010000 		.4byte	0x166
 939 01e5 00       		.byte	0
 940 01e6 08       		.uleb128 0x8
 941 01e7 51020000 		.4byte	.LASF25
 942 01eb 05       		.byte	0x5
 943 01ec A3       		.byte	0xa3
 944 01ed 66010000 		.4byte	0x166
 945 01f1 04       		.byte	0x4
 946 01f2 08       		.uleb128 0x8
 947 01f3 6D000000 		.4byte	.LASF26
 948 01f7 05       		.byte	0x5
 949 01f8 A4       		.byte	0xa4
 950 01f9 31010000 		.4byte	0x131
 951 01fd 08       		.byte	0x8
 952 01fe 08       		.uleb128 0x8
 953 01ff 7A000000 		.4byte	.LASF27
 954 0203 05       		.byte	0x5
 955 0204 A5       		.byte	0xa5
 956 0205 66010000 		.4byte	0x166
 957 0209 10       		.byte	0x10
 958 020a 08       		.uleb128 0x8
 959 020b BB020000 		.4byte	.LASF28
 960 020f 05       		.byte	0x5
 961 0210 A6       		.byte	0xa6
 962 0211 66010000 		.4byte	0x166
 963 0215 14       		.byte	0x14
 964 0216 08       		.uleb128 0x8
 965 0217 43000000 		.4byte	.LASF29
 966 021b 05       		.byte	0x5
 967 021c A7       		.byte	0xa7
 968 021d 66010000 		.4byte	0x166
 969 0221 18       		.byte	0x18
 970 0222 08       		.uleb128 0x8
 971 0223 C1020000 		.4byte	.LASF30
 972 0227 05       		.byte	0x5
 973 0228 A8       		.byte	0xa8
ARM GAS  D:\Windows\AppData\Local\Temp\ccxctkJs.s 			page 30


 974 0229 66010000 		.4byte	0x166
 975 022d 1C       		.byte	0x1c
 976 022e 00       		.byte	0
 977 022f 03       		.uleb128 0x3
 978 0230 0E010000 		.4byte	.LASF31
 979 0234 05       		.byte	0x5
 980 0235 A9       		.byte	0xa9
 981 0236 D2010000 		.4byte	0x1d2
 982 023a 07       		.uleb128 0x7
 983 023b 10       		.byte	0x10
 984 023c 05       		.byte	0x5
 985 023d AC       		.byte	0xac
 986 023e 67020000 		.4byte	0x267
 987 0242 08       		.uleb128 0x8
 988 0243 38000000 		.4byte	.LASF32
 989 0247 05       		.byte	0x5
 990 0248 AE       		.byte	0xae
 991 0249 66010000 		.4byte	0x166
 992 024d 00       		.byte	0
 993 024e 08       		.uleb128 0x8
 994 024f 26010000 		.4byte	.LASF33
 995 0253 05       		.byte	0x5
 996 0254 AF       		.byte	0xaf
 997 0255 66010000 		.4byte	0x166
 998 0259 04       		.byte	0x4
 999 025a 08       		.uleb128 0x8
 1000 025b 2B010000 		.4byte	.LASF34
 1001 025f 05       		.byte	0x5
 1002 0260 B0       		.byte	0xb0
 1003 0261 31010000 		.4byte	0x131
 1004 0265 08       		.byte	0x8
 1005 0266 00       		.byte	0
 1006 0267 03       		.uleb128 0x3
 1007 0268 3E020000 		.4byte	.LASF35
 1008 026c 05       		.byte	0x5
 1009 026d B1       		.byte	0xb1
 1010 026e 3A020000 		.4byte	0x23a
 1011 0272 0D       		.uleb128 0xd
 1012 0273 C5000000 		.4byte	.LASF42
 1013 0277 01       		.byte	0x1
 1014 0278 37       		.byte	0x37
 1015 0279 81000000 		.4byte	0x81
 1016 027d 00000000 		.4byte	.LFB0
 1017 0281 80010000 		.4byte	.LFE0-.LFB0
 1018 0285 01       		.uleb128 0x1
 1019 0286 9C       		.byte	0x9c
 1020 0287 EA020000 		.4byte	0x2ea
 1021 028b 0E       		.uleb128 0xe
 1022 028c C8020000 		.4byte	.LASF40
 1023 0290 01       		.byte	0x1
 1024 0291 37       		.byte	0x37
 1025 0292 EA020000 		.4byte	0x2ea
 1026 0296 02       		.uleb128 0x2
 1027 0297 91       		.byte	0x91
 1028 0298 64       		.sleb128 -28
 1029 0299 0F       		.uleb128 0xf
 1030 029a 6900     		.ascii	"i\000"
ARM GAS  D:\Windows\AppData\Local\Temp\ccxctkJs.s 			page 31


 1031 029c 01       		.byte	0x1
 1032 029d 39       		.byte	0x39
 1033 029e 81000000 		.4byte	0x81
 1034 02a2 02       		.uleb128 0x2
 1035 02a3 91       		.byte	0x91
 1036 02a4 77       		.sleb128 -9
 1037 02a5 0F       		.uleb128 0xf
 1038 02a6 6A00     		.ascii	"j\000"
 1039 02a8 01       		.byte	0x1
 1040 02a9 39       		.byte	0x39
 1041 02aa 81000000 		.4byte	0x81
 1042 02ae 02       		.uleb128 0x2
 1043 02af 91       		.byte	0x91
 1044 02b0 76       		.sleb128 -10
 1045 02b1 10       		.uleb128 0x10
 1046 02b2 87000000 		.4byte	.LASF36
 1047 02b6 01       		.byte	0x1
 1048 02b7 39       		.byte	0x39
 1049 02b8 81000000 		.4byte	0x81
 1050 02bc 02       		.uleb128 0x2
 1051 02bd 91       		.byte	0x91
 1052 02be 75       		.sleb128 -11
 1053 02bf 10       		.uleb128 0x10
 1054 02c0 74010000 		.4byte	.LASF37
 1055 02c4 01       		.byte	0x1
 1056 02c5 3A       		.byte	0x3a
 1057 02c6 81000000 		.4byte	0x81
 1058 02ca 02       		.uleb128 0x2
 1059 02cb 91       		.byte	0x91
 1060 02cc 74       		.sleb128 -12
 1061 02cd 10       		.uleb128 0x10
 1062 02ce DF020000 		.4byte	.LASF38
 1063 02d2 01       		.byte	0x1
 1064 02d3 3B       		.byte	0x3b
 1065 02d4 81000000 		.4byte	0x81
 1066 02d8 02       		.uleb128 0x2
 1067 02d9 91       		.byte	0x91
 1068 02da 73       		.sleb128 -13
 1069 02db 10       		.uleb128 0x10
 1070 02dc F3000000 		.4byte	.LASF39
 1071 02e0 01       		.byte	0x1
 1072 02e1 3C       		.byte	0x3c
 1073 02e2 8D000000 		.4byte	0x8d
 1074 02e6 02       		.uleb128 0x2
 1075 02e7 91       		.byte	0x91
 1076 02e8 6C       		.sleb128 -20
 1077 02e9 00       		.byte	0
 1078 02ea 0C       		.uleb128 0xc
 1079 02eb 04       		.byte	0x4
 1080 02ec F0020000 		.4byte	0x2f0
 1081 02f0 11       		.uleb128 0x11
 1082 02f1 C7010000 		.4byte	0x1c7
 1083 02f5 12       		.uleb128 0x12
 1084 02f6 94000000 		.4byte	.LASF45
 1085 02fa 01       		.byte	0x1
 1086 02fb B5       		.byte	0xb5
 1087 02fc 00000000 		.4byte	.LFB1
ARM GAS  D:\Windows\AppData\Local\Temp\ccxctkJs.s 			page 32


 1088 0300 44000000 		.4byte	.LFE1-.LFB1
 1089 0304 01       		.uleb128 0x1
 1090 0305 9C       		.byte	0x9c
 1091 0306 19030000 		.4byte	0x319
 1092 030a 0E       		.uleb128 0xe
 1093 030b D1000000 		.4byte	.LASF41
 1094 030f 01       		.byte	0x1
 1095 0310 B5       		.byte	0xb5
 1096 0311 81000000 		.4byte	0x81
 1097 0315 02       		.uleb128 0x2
 1098 0316 91       		.byte	0x91
 1099 0317 77       		.sleb128 -9
 1100 0318 00       		.byte	0
 1101 0319 0D       		.uleb128 0xd
 1102 031a 0A000000 		.4byte	.LASF43
 1103 031e 01       		.byte	0x1
 1104 031f D3       		.byte	0xd3
 1105 0320 81000000 		.4byte	0x81
 1106 0324 00000000 		.4byte	.LFB2
 1107 0328 74000000 		.4byte	.LFE2-.LFB2
 1108 032c 01       		.uleb128 0x1
 1109 032d 9C       		.byte	0x9c
 1110 032e 57030000 		.4byte	0x357
 1111 0332 10       		.uleb128 0x10
 1112 0333 DF020000 		.4byte	.LASF38
 1113 0337 01       		.byte	0x1
 1114 0338 D5       		.byte	0xd5
 1115 0339 81000000 		.4byte	0x81
 1116 033d 02       		.uleb128 0x2
 1117 033e 91       		.byte	0x91
 1118 033f 77       		.sleb128 -9
 1119 0340 13       		.uleb128 0x13
 1120 0341 1E000000 		.4byte	.LBB2
 1121 0345 3E000000 		.4byte	.LBE2-.LBB2
 1122 0349 0F       		.uleb128 0xf
 1123 034a 6900     		.ascii	"i\000"
 1124 034c 01       		.byte	0x1
 1125 034d E2       		.byte	0xe2
 1126 034e 76000000 		.4byte	0x76
 1127 0352 02       		.uleb128 0x2
 1128 0353 91       		.byte	0x91
 1129 0354 76       		.sleb128 -10
 1130 0355 00       		.byte	0
 1131 0356 00       		.byte	0
 1132 0357 14       		.uleb128 0x14
 1133 0358 DA000000 		.4byte	.LASF44
 1134 035c 01       		.byte	0x1
 1135 035d 0A01     		.2byte	0x10a
 1136 035f 81000000 		.4byte	0x81
 1137 0363 00000000 		.4byte	.LFB3
 1138 0367 74000000 		.4byte	.LFE3-.LFB3
 1139 036b 01       		.uleb128 0x1
 1140 036c 9C       		.byte	0x9c
 1141 036d 98030000 		.4byte	0x398
 1142 0371 15       		.uleb128 0x15
 1143 0372 DF020000 		.4byte	.LASF38
 1144 0376 01       		.byte	0x1
ARM GAS  D:\Windows\AppData\Local\Temp\ccxctkJs.s 			page 33


 1145 0377 0C01     		.2byte	0x10c
 1146 0379 81000000 		.4byte	0x81
 1147 037d 02       		.uleb128 0x2
 1148 037e 91       		.byte	0x91
 1149 037f 77       		.sleb128 -9
 1150 0380 13       		.uleb128 0x13
 1151 0381 1E000000 		.4byte	.LBB3
 1152 0385 3E000000 		.4byte	.LBE3-.LBB3
 1153 0389 16       		.uleb128 0x16
 1154 038a 6900     		.ascii	"i\000"
 1155 038c 01       		.byte	0x1
 1156 038d 1901     		.2byte	0x119
 1157 038f 76000000 		.4byte	0x76
 1158 0393 02       		.uleb128 0x2
 1159 0394 91       		.byte	0x91
 1160 0395 76       		.sleb128 -10
 1161 0396 00       		.byte	0
 1162 0397 00       		.byte	0
 1163 0398 17       		.uleb128 0x17
 1164 0399 D0020000 		.4byte	.LASF46
 1165 039d 01       		.byte	0x1
 1166 039e 7702     		.2byte	0x277
 1167 03a0 00000000 		.4byte	.LFB4
 1168 03a4 DC000000 		.4byte	.LFE4-.LFB4
 1169 03a8 01       		.uleb128 0x1
 1170 03a9 9C       		.byte	0x9c
 1171 03aa 02040000 		.4byte	0x402
 1172 03ae 18       		.uleb128 0x18
 1173 03af 1C010000 		.4byte	.LASF47
 1174 03b3 01       		.byte	0x1
 1175 03b4 7702     		.2byte	0x277
 1176 03b6 81000000 		.4byte	0x81
 1177 03ba 03       		.uleb128 0x3
 1178 03bb 91       		.byte	0x91
 1179 03bc BF7F     		.sleb128 -65
 1180 03be 13       		.uleb128 0x13
 1181 03bf 1E000000 		.4byte	.LBB4
 1182 03c3 B4000000 		.4byte	.LBE4-.LBB4
 1183 03c7 16       		.uleb128 0x16
 1184 03c8 494400   		.ascii	"ID\000"
 1185 03cb 01       		.byte	0x1
 1186 03cc 8202     		.2byte	0x282
 1187 03ce 68000000 		.4byte	0x68
 1188 03d2 02       		.uleb128 0x2
 1189 03d3 91       		.byte	0x91
 1190 03d4 68       		.sleb128 -24
 1191 03d5 15       		.uleb128 0x15
 1192 03d6 3E000000 		.4byte	.LASF48
 1193 03da 01       		.byte	0x1
 1194 03db 8502     		.2byte	0x285
 1195 03dd 2F020000 		.4byte	0x22f
 1196 03e1 02       		.uleb128 0x2
 1197 03e2 91       		.byte	0x91
 1198 03e3 40       		.sleb128 -64
 1199 03e4 15       		.uleb128 0x15
 1200 03e5 EE000000 		.4byte	.LASF49
 1201 03e9 01       		.byte	0x1
ARM GAS  D:\Windows\AppData\Local\Temp\ccxctkJs.s 			page 34


 1202 03ea 8802     		.2byte	0x288
 1203 03ec 02040000 		.4byte	0x402
 1204 03f0 02       		.uleb128 0x2
 1205 03f1 91       		.byte	0x91
 1206 03f2 60       		.sleb128 -32
 1207 03f3 16       		.uleb128 0x16
 1208 03f4 6900     		.ascii	"i\000"
 1209 03f6 01       		.byte	0x1
 1210 03f7 8902     		.2byte	0x289
 1211 03f9 68000000 		.4byte	0x68
 1212 03fd 02       		.uleb128 0x2
 1213 03fe 91       		.byte	0x91
 1214 03ff 6C       		.sleb128 -20
 1215 0400 00       		.byte	0
 1216 0401 00       		.byte	0
 1217 0402 09       		.uleb128 0x9
 1218 0403 76000000 		.4byte	0x76
 1219 0407 12040000 		.4byte	0x412
 1220 040b 0A       		.uleb128 0xa
 1221 040c D0000000 		.4byte	0xd0
 1222 0410 07       		.byte	0x7
 1223 0411 00       		.byte	0
 1224 0412 09       		.uleb128 0x9
 1225 0413 76000000 		.4byte	0x76
 1226 0417 1D040000 		.4byte	0x41d
 1227 041b 19       		.uleb128 0x19
 1228 041c 00       		.byte	0
 1229 041d 1A       		.uleb128 0x1a
 1230 041e E6020000 		.4byte	.LASF53
 1231 0422 01       		.byte	0x1
 1232 0423 1F       		.byte	0x1f
 1233 0424 12040000 		.4byte	0x412
 1234 0428 00       		.byte	0
 1235              		.section	.debug_abbrev,"",%progbits
 1236              	.Ldebug_abbrev0:
 1237 0000 01       		.uleb128 0x1
 1238 0001 11       		.uleb128 0x11
 1239 0002 01       		.byte	0x1
 1240 0003 25       		.uleb128 0x25
 1241 0004 0E       		.uleb128 0xe
 1242 0005 13       		.uleb128 0x13
 1243 0006 0B       		.uleb128 0xb
 1244 0007 03       		.uleb128 0x3
 1245 0008 0E       		.uleb128 0xe
 1246 0009 1B       		.uleb128 0x1b
 1247 000a 0E       		.uleb128 0xe
 1248 000b 55       		.uleb128 0x55
 1249 000c 17       		.uleb128 0x17
 1250 000d 11       		.uleb128 0x11
 1251 000e 01       		.uleb128 0x1
 1252 000f 10       		.uleb128 0x10
 1253 0010 17       		.uleb128 0x17
 1254 0011 00       		.byte	0
 1255 0012 00       		.byte	0
 1256 0013 02       		.uleb128 0x2
 1257 0014 24       		.uleb128 0x24
 1258 0015 00       		.byte	0
ARM GAS  D:\Windows\AppData\Local\Temp\ccxctkJs.s 			page 35


 1259 0016 0B       		.uleb128 0xb
 1260 0017 0B       		.uleb128 0xb
 1261 0018 3E       		.uleb128 0x3e
 1262 0019 0B       		.uleb128 0xb
 1263 001a 03       		.uleb128 0x3
 1264 001b 0E       		.uleb128 0xe
 1265 001c 00       		.byte	0
 1266 001d 00       		.byte	0
 1267 001e 03       		.uleb128 0x3
 1268 001f 16       		.uleb128 0x16
 1269 0020 00       		.byte	0
 1270 0021 03       		.uleb128 0x3
 1271 0022 0E       		.uleb128 0xe
 1272 0023 3A       		.uleb128 0x3a
 1273 0024 0B       		.uleb128 0xb
 1274 0025 3B       		.uleb128 0x3b
 1275 0026 0B       		.uleb128 0xb
 1276 0027 49       		.uleb128 0x49
 1277 0028 13       		.uleb128 0x13
 1278 0029 00       		.byte	0
 1279 002a 00       		.byte	0
 1280 002b 04       		.uleb128 0x4
 1281 002c 24       		.uleb128 0x24
 1282 002d 00       		.byte	0
 1283 002e 0B       		.uleb128 0xb
 1284 002f 0B       		.uleb128 0xb
 1285 0030 3E       		.uleb128 0x3e
 1286 0031 0B       		.uleb128 0xb
 1287 0032 03       		.uleb128 0x3
 1288 0033 08       		.uleb128 0x8
 1289 0034 00       		.byte	0
 1290 0035 00       		.byte	0
 1291 0036 05       		.uleb128 0x5
 1292 0037 16       		.uleb128 0x16
 1293 0038 00       		.byte	0
 1294 0039 03       		.uleb128 0x3
 1295 003a 0E       		.uleb128 0xe
 1296 003b 3A       		.uleb128 0x3a
 1297 003c 0B       		.uleb128 0xb
 1298 003d 3B       		.uleb128 0x3b
 1299 003e 05       		.uleb128 0x5
 1300 003f 49       		.uleb128 0x49
 1301 0040 13       		.uleb128 0x13
 1302 0041 00       		.byte	0
 1303 0042 00       		.byte	0
 1304 0043 06       		.uleb128 0x6
 1305 0044 35       		.uleb128 0x35
 1306 0045 00       		.byte	0
 1307 0046 49       		.uleb128 0x49
 1308 0047 13       		.uleb128 0x13
 1309 0048 00       		.byte	0
 1310 0049 00       		.byte	0
 1311 004a 07       		.uleb128 0x7
 1312 004b 13       		.uleb128 0x13
 1313 004c 01       		.byte	0x1
 1314 004d 0B       		.uleb128 0xb
 1315 004e 0B       		.uleb128 0xb
ARM GAS  D:\Windows\AppData\Local\Temp\ccxctkJs.s 			page 36


 1316 004f 3A       		.uleb128 0x3a
 1317 0050 0B       		.uleb128 0xb
 1318 0051 3B       		.uleb128 0x3b
 1319 0052 0B       		.uleb128 0xb
 1320 0053 01       		.uleb128 0x1
 1321 0054 13       		.uleb128 0x13
 1322 0055 00       		.byte	0
 1323 0056 00       		.byte	0
 1324 0057 08       		.uleb128 0x8
 1325 0058 0D       		.uleb128 0xd
 1326 0059 00       		.byte	0
 1327 005a 03       		.uleb128 0x3
 1328 005b 0E       		.uleb128 0xe
 1329 005c 3A       		.uleb128 0x3a
 1330 005d 0B       		.uleb128 0xb
 1331 005e 3B       		.uleb128 0x3b
 1332 005f 0B       		.uleb128 0xb
 1333 0060 49       		.uleb128 0x49
 1334 0061 13       		.uleb128 0x13
 1335 0062 38       		.uleb128 0x38
 1336 0063 0B       		.uleb128 0xb
 1337 0064 00       		.byte	0
 1338 0065 00       		.byte	0
 1339 0066 09       		.uleb128 0x9
 1340 0067 01       		.uleb128 0x1
 1341 0068 01       		.byte	0x1
 1342 0069 49       		.uleb128 0x49
 1343 006a 13       		.uleb128 0x13
 1344 006b 01       		.uleb128 0x1
 1345 006c 13       		.uleb128 0x13
 1346 006d 00       		.byte	0
 1347 006e 00       		.byte	0
 1348 006f 0A       		.uleb128 0xa
 1349 0070 21       		.uleb128 0x21
 1350 0071 00       		.byte	0
 1351 0072 49       		.uleb128 0x49
 1352 0073 13       		.uleb128 0x13
 1353 0074 2F       		.uleb128 0x2f
 1354 0075 0B       		.uleb128 0xb
 1355 0076 00       		.byte	0
 1356 0077 00       		.byte	0
 1357 0078 0B       		.uleb128 0xb
 1358 0079 0D       		.uleb128 0xd
 1359 007a 00       		.byte	0
 1360 007b 03       		.uleb128 0x3
 1361 007c 08       		.uleb128 0x8
 1362 007d 3A       		.uleb128 0x3a
 1363 007e 0B       		.uleb128 0xb
 1364 007f 3B       		.uleb128 0x3b
 1365 0080 0B       		.uleb128 0xb
 1366 0081 49       		.uleb128 0x49
 1367 0082 13       		.uleb128 0x13
 1368 0083 38       		.uleb128 0x38
 1369 0084 0B       		.uleb128 0xb
 1370 0085 00       		.byte	0
 1371 0086 00       		.byte	0
 1372 0087 0C       		.uleb128 0xc
ARM GAS  D:\Windows\AppData\Local\Temp\ccxctkJs.s 			page 37


 1373 0088 0F       		.uleb128 0xf
 1374 0089 00       		.byte	0
 1375 008a 0B       		.uleb128 0xb
 1376 008b 0B       		.uleb128 0xb
 1377 008c 49       		.uleb128 0x49
 1378 008d 13       		.uleb128 0x13
 1379 008e 00       		.byte	0
 1380 008f 00       		.byte	0
 1381 0090 0D       		.uleb128 0xd
 1382 0091 2E       		.uleb128 0x2e
 1383 0092 01       		.byte	0x1
 1384 0093 3F       		.uleb128 0x3f
 1385 0094 19       		.uleb128 0x19
 1386 0095 03       		.uleb128 0x3
 1387 0096 0E       		.uleb128 0xe
 1388 0097 3A       		.uleb128 0x3a
 1389 0098 0B       		.uleb128 0xb
 1390 0099 3B       		.uleb128 0x3b
 1391 009a 0B       		.uleb128 0xb
 1392 009b 27       		.uleb128 0x27
 1393 009c 19       		.uleb128 0x19
 1394 009d 49       		.uleb128 0x49
 1395 009e 13       		.uleb128 0x13
 1396 009f 11       		.uleb128 0x11
 1397 00a0 01       		.uleb128 0x1
 1398 00a1 12       		.uleb128 0x12
 1399 00a2 06       		.uleb128 0x6
 1400 00a3 40       		.uleb128 0x40
 1401 00a4 18       		.uleb128 0x18
 1402 00a5 9742     		.uleb128 0x2117
 1403 00a7 19       		.uleb128 0x19
 1404 00a8 01       		.uleb128 0x1
 1405 00a9 13       		.uleb128 0x13
 1406 00aa 00       		.byte	0
 1407 00ab 00       		.byte	0
 1408 00ac 0E       		.uleb128 0xe
 1409 00ad 05       		.uleb128 0x5
 1410 00ae 00       		.byte	0
 1411 00af 03       		.uleb128 0x3
 1412 00b0 0E       		.uleb128 0xe
 1413 00b1 3A       		.uleb128 0x3a
 1414 00b2 0B       		.uleb128 0xb
 1415 00b3 3B       		.uleb128 0x3b
 1416 00b4 0B       		.uleb128 0xb
 1417 00b5 49       		.uleb128 0x49
 1418 00b6 13       		.uleb128 0x13
 1419 00b7 02       		.uleb128 0x2
 1420 00b8 18       		.uleb128 0x18
 1421 00b9 00       		.byte	0
 1422 00ba 00       		.byte	0
 1423 00bb 0F       		.uleb128 0xf
 1424 00bc 34       		.uleb128 0x34
 1425 00bd 00       		.byte	0
 1426 00be 03       		.uleb128 0x3
 1427 00bf 08       		.uleb128 0x8
 1428 00c0 3A       		.uleb128 0x3a
 1429 00c1 0B       		.uleb128 0xb
ARM GAS  D:\Windows\AppData\Local\Temp\ccxctkJs.s 			page 38


 1430 00c2 3B       		.uleb128 0x3b
 1431 00c3 0B       		.uleb128 0xb
 1432 00c4 49       		.uleb128 0x49
 1433 00c5 13       		.uleb128 0x13
 1434 00c6 02       		.uleb128 0x2
 1435 00c7 18       		.uleb128 0x18
 1436 00c8 00       		.byte	0
 1437 00c9 00       		.byte	0
 1438 00ca 10       		.uleb128 0x10
 1439 00cb 34       		.uleb128 0x34
 1440 00cc 00       		.byte	0
 1441 00cd 03       		.uleb128 0x3
 1442 00ce 0E       		.uleb128 0xe
 1443 00cf 3A       		.uleb128 0x3a
 1444 00d0 0B       		.uleb128 0xb
 1445 00d1 3B       		.uleb128 0x3b
 1446 00d2 0B       		.uleb128 0xb
 1447 00d3 49       		.uleb128 0x49
 1448 00d4 13       		.uleb128 0x13
 1449 00d5 02       		.uleb128 0x2
 1450 00d6 18       		.uleb128 0x18
 1451 00d7 00       		.byte	0
 1452 00d8 00       		.byte	0
 1453 00d9 11       		.uleb128 0x11
 1454 00da 26       		.uleb128 0x26
 1455 00db 00       		.byte	0
 1456 00dc 49       		.uleb128 0x49
 1457 00dd 13       		.uleb128 0x13
 1458 00de 00       		.byte	0
 1459 00df 00       		.byte	0
 1460 00e0 12       		.uleb128 0x12
 1461 00e1 2E       		.uleb128 0x2e
 1462 00e2 01       		.byte	0x1
 1463 00e3 3F       		.uleb128 0x3f
 1464 00e4 19       		.uleb128 0x19
 1465 00e5 03       		.uleb128 0x3
 1466 00e6 0E       		.uleb128 0xe
 1467 00e7 3A       		.uleb128 0x3a
 1468 00e8 0B       		.uleb128 0xb
 1469 00e9 3B       		.uleb128 0x3b
 1470 00ea 0B       		.uleb128 0xb
 1471 00eb 27       		.uleb128 0x27
 1472 00ec 19       		.uleb128 0x19
 1473 00ed 11       		.uleb128 0x11
 1474 00ee 01       		.uleb128 0x1
 1475 00ef 12       		.uleb128 0x12
 1476 00f0 06       		.uleb128 0x6
 1477 00f1 40       		.uleb128 0x40
 1478 00f2 18       		.uleb128 0x18
 1479 00f3 9742     		.uleb128 0x2117
 1480 00f5 19       		.uleb128 0x19
 1481 00f6 01       		.uleb128 0x1
 1482 00f7 13       		.uleb128 0x13
 1483 00f8 00       		.byte	0
 1484 00f9 00       		.byte	0
 1485 00fa 13       		.uleb128 0x13
 1486 00fb 0B       		.uleb128 0xb
ARM GAS  D:\Windows\AppData\Local\Temp\ccxctkJs.s 			page 39


 1487 00fc 01       		.byte	0x1
 1488 00fd 11       		.uleb128 0x11
 1489 00fe 01       		.uleb128 0x1
 1490 00ff 12       		.uleb128 0x12
 1491 0100 06       		.uleb128 0x6
 1492 0101 00       		.byte	0
 1493 0102 00       		.byte	0
 1494 0103 14       		.uleb128 0x14
 1495 0104 2E       		.uleb128 0x2e
 1496 0105 01       		.byte	0x1
 1497 0106 3F       		.uleb128 0x3f
 1498 0107 19       		.uleb128 0x19
 1499 0108 03       		.uleb128 0x3
 1500 0109 0E       		.uleb128 0xe
 1501 010a 3A       		.uleb128 0x3a
 1502 010b 0B       		.uleb128 0xb
 1503 010c 3B       		.uleb128 0x3b
 1504 010d 05       		.uleb128 0x5
 1505 010e 27       		.uleb128 0x27
 1506 010f 19       		.uleb128 0x19
 1507 0110 49       		.uleb128 0x49
 1508 0111 13       		.uleb128 0x13
 1509 0112 11       		.uleb128 0x11
 1510 0113 01       		.uleb128 0x1
 1511 0114 12       		.uleb128 0x12
 1512 0115 06       		.uleb128 0x6
 1513 0116 40       		.uleb128 0x40
 1514 0117 18       		.uleb128 0x18
 1515 0118 9742     		.uleb128 0x2117
 1516 011a 19       		.uleb128 0x19
 1517 011b 01       		.uleb128 0x1
 1518 011c 13       		.uleb128 0x13
 1519 011d 00       		.byte	0
 1520 011e 00       		.byte	0
 1521 011f 15       		.uleb128 0x15
 1522 0120 34       		.uleb128 0x34
 1523 0121 00       		.byte	0
 1524 0122 03       		.uleb128 0x3
 1525 0123 0E       		.uleb128 0xe
 1526 0124 3A       		.uleb128 0x3a
 1527 0125 0B       		.uleb128 0xb
 1528 0126 3B       		.uleb128 0x3b
 1529 0127 05       		.uleb128 0x5
 1530 0128 49       		.uleb128 0x49
 1531 0129 13       		.uleb128 0x13
 1532 012a 02       		.uleb128 0x2
 1533 012b 18       		.uleb128 0x18
 1534 012c 00       		.byte	0
 1535 012d 00       		.byte	0
 1536 012e 16       		.uleb128 0x16
 1537 012f 34       		.uleb128 0x34
 1538 0130 00       		.byte	0
 1539 0131 03       		.uleb128 0x3
 1540 0132 08       		.uleb128 0x8
 1541 0133 3A       		.uleb128 0x3a
 1542 0134 0B       		.uleb128 0xb
 1543 0135 3B       		.uleb128 0x3b
ARM GAS  D:\Windows\AppData\Local\Temp\ccxctkJs.s 			page 40


 1544 0136 05       		.uleb128 0x5
 1545 0137 49       		.uleb128 0x49
 1546 0138 13       		.uleb128 0x13
 1547 0139 02       		.uleb128 0x2
 1548 013a 18       		.uleb128 0x18
 1549 013b 00       		.byte	0
 1550 013c 00       		.byte	0
 1551 013d 17       		.uleb128 0x17
 1552 013e 2E       		.uleb128 0x2e
 1553 013f 01       		.byte	0x1
 1554 0140 3F       		.uleb128 0x3f
 1555 0141 19       		.uleb128 0x19
 1556 0142 03       		.uleb128 0x3
 1557 0143 0E       		.uleb128 0xe
 1558 0144 3A       		.uleb128 0x3a
 1559 0145 0B       		.uleb128 0xb
 1560 0146 3B       		.uleb128 0x3b
 1561 0147 05       		.uleb128 0x5
 1562 0148 27       		.uleb128 0x27
 1563 0149 19       		.uleb128 0x19
 1564 014a 11       		.uleb128 0x11
 1565 014b 01       		.uleb128 0x1
 1566 014c 12       		.uleb128 0x12
 1567 014d 06       		.uleb128 0x6
 1568 014e 40       		.uleb128 0x40
 1569 014f 18       		.uleb128 0x18
 1570 0150 9642     		.uleb128 0x2116
 1571 0152 19       		.uleb128 0x19
 1572 0153 01       		.uleb128 0x1
 1573 0154 13       		.uleb128 0x13
 1574 0155 00       		.byte	0
 1575 0156 00       		.byte	0
 1576 0157 18       		.uleb128 0x18
 1577 0158 05       		.uleb128 0x5
 1578 0159 00       		.byte	0
 1579 015a 03       		.uleb128 0x3
 1580 015b 0E       		.uleb128 0xe
 1581 015c 3A       		.uleb128 0x3a
 1582 015d 0B       		.uleb128 0xb
 1583 015e 3B       		.uleb128 0x3b
 1584 015f 05       		.uleb128 0x5
 1585 0160 49       		.uleb128 0x49
 1586 0161 13       		.uleb128 0x13
 1587 0162 02       		.uleb128 0x2
 1588 0163 18       		.uleb128 0x18
 1589 0164 00       		.byte	0
 1590 0165 00       		.byte	0
 1591 0166 19       		.uleb128 0x19
 1592 0167 21       		.uleb128 0x21
 1593 0168 00       		.byte	0
 1594 0169 00       		.byte	0
 1595 016a 00       		.byte	0
 1596 016b 1A       		.uleb128 0x1a
 1597 016c 34       		.uleb128 0x34
 1598 016d 00       		.byte	0
 1599 016e 03       		.uleb128 0x3
 1600 016f 0E       		.uleb128 0xe
ARM GAS  D:\Windows\AppData\Local\Temp\ccxctkJs.s 			page 41


 1601 0170 3A       		.uleb128 0x3a
 1602 0171 0B       		.uleb128 0xb
 1603 0172 3B       		.uleb128 0x3b
 1604 0173 0B       		.uleb128 0xb
 1605 0174 49       		.uleb128 0x49
 1606 0175 13       		.uleb128 0x13
 1607 0176 3F       		.uleb128 0x3f
 1608 0177 19       		.uleb128 0x19
 1609 0178 3C       		.uleb128 0x3c
 1610 0179 19       		.uleb128 0x19
 1611 017a 00       		.byte	0
 1612 017b 00       		.byte	0
 1613 017c 00       		.byte	0
 1614              		.section	.debug_aranges,"",%progbits
 1615 0000 3C000000 		.4byte	0x3c
 1616 0004 0200     		.2byte	0x2
 1617 0006 00000000 		.4byte	.Ldebug_info0
 1618 000a 04       		.byte	0x4
 1619 000b 00       		.byte	0
 1620 000c 0000     		.2byte	0
 1621 000e 0000     		.2byte	0
 1622 0010 00000000 		.4byte	.LFB0
 1623 0014 80010000 		.4byte	.LFE0-.LFB0
 1624 0018 00000000 		.4byte	.LFB1
 1625 001c 44000000 		.4byte	.LFE1-.LFB1
 1626 0020 00000000 		.4byte	.LFB2
 1627 0024 74000000 		.4byte	.LFE2-.LFB2
 1628 0028 00000000 		.4byte	.LFB3
 1629 002c 74000000 		.4byte	.LFE3-.LFB3
 1630 0030 00000000 		.4byte	.LFB4
 1631 0034 DC000000 		.4byte	.LFE4-.LFB4
 1632 0038 00000000 		.4byte	0
 1633 003c 00000000 		.4byte	0
 1634              		.section	.debug_ranges,"",%progbits
 1635              	.Ldebug_ranges0:
 1636 0000 00000000 		.4byte	.LFB0
 1637 0004 80010000 		.4byte	.LFE0
 1638 0008 00000000 		.4byte	.LFB1
 1639 000c 44000000 		.4byte	.LFE1
 1640 0010 00000000 		.4byte	.LFB2
 1641 0014 74000000 		.4byte	.LFE2
 1642 0018 00000000 		.4byte	.LFB3
 1643 001c 74000000 		.4byte	.LFE3
 1644 0020 00000000 		.4byte	.LFB4
 1645 0024 DC000000 		.4byte	.LFE4
 1646 0028 00000000 		.4byte	0
 1647 002c 00000000 		.4byte	0
 1648              		.section	.debug_line,"",%progbits
 1649              	.Ldebug_line0:
 1650 0000 79020000 		.section	.debug_str,"MS",%progbits,1
 1650      02003C01 
 1650      00000201 
 1650      FB0E0D00 
 1650      01010101 
 1651              	.LASF9:
 1652 0000 5F5F7569 		.ascii	"__uint8_t\000"
 1652      6E74385F 
ARM GAS  D:\Windows\AppData\Local\Temp\ccxctkJs.s 			page 42


 1652      7400
 1653              	.LASF43:
 1654 000a 43414E5F 		.ascii	"CAN_SendMsgDash_status\000"
 1654      53656E64 
 1654      4D736744 
 1654      6173685F 
 1654      73746174 
 1655              	.LASF7:
 1656 0021 6C6F6E67 		.ascii	"long long unsigned int\000"
 1656      206C6F6E 
 1656      6720756E 
 1656      7369676E 
 1656      65642069 
 1657              	.LASF32:
 1658 0038 7478636D 		.ascii	"txcmd\000"
 1658      6400
 1659              	.LASF48:
 1660 003e 74657374 		.ascii	"test\000"
 1660      00
 1661              	.LASF29:
 1662 0043 7278616D 		.ascii	"rxamrd\000"
 1662      726400
 1663              	.LASF6:
 1664 004a 6C6F6E67 		.ascii	"long long int\000"
 1664      206C6F6E 
 1664      6720696E 
 1664      7400
 1665              	.LASF0:
 1666 0058 7369676E 		.ascii	"signed char\000"
 1666      65642063 
 1666      68617200 
 1667              	.LASF4:
 1668 0064 6C6F6E67 		.ascii	"long int\000"
 1668      20696E74 
 1668      00
 1669              	.LASF26:
 1670 006d 72786461 		.ascii	"rxdata\000"
 1670      746100
 1671              	.LASF11:
 1672 0074 75696E74 		.ascii	"uint8\000"
 1672      3800
 1673              	.LASF27:
 1674 007a 7278616D 		.ascii	"rxamr\000"
 1674      7200
 1675              	.LASF14:
 1676 0080 646F7562 		.ascii	"double\000"
 1676      6C6500
 1677              	.LASF36:
 1678 0087 73686966 		.ascii	"shift\000"
 1678      7400
 1679              	.LASF12:
 1680 008d 75696E74 		.ascii	"uint32\000"
 1680      333200
 1681              	.LASF45:
 1682 0094 43414E5F 		.ascii	"CAN_TxCancel\000"
 1682      54784361 
 1682      6E63656C 
ARM GAS  D:\Windows\AppData\Local\Temp\ccxctkJs.s 			page 43


 1682      00
 1683              	.LASF20:
 1684 00a1 62797465 		.ascii	"byte\000"
 1684      00
 1685              	.LASF8:
 1686 00a6 756E7369 		.ascii	"unsigned int\000"
 1686      676E6564 
 1686      20696E74 
 1686      00
 1687              	.LASF5:
 1688 00b3 6C6F6E67 		.ascii	"long unsigned int\000"
 1688      20756E73 
 1688      69676E65 
 1688      6420696E 
 1688      7400
 1689              	.LASF42:
 1690 00c5 43414E5F 		.ascii	"CAN_SendMsg\000"
 1690      53656E64 
 1690      4D736700 
 1691              	.LASF41:
 1692 00d1 62756666 		.ascii	"bufferId\000"
 1692      65724964 
 1692      00
 1693              	.LASF44:
 1694 00da 43414E5F 		.ascii	"CAN_SendMsgDash_cmd\000"
 1694      53656E64 
 1694      4D736744 
 1694      6173685F 
 1694      636D6400 
 1695              	.LASF49:
 1696 00ee 64617461 		.ascii	"data\000"
 1696      00
 1697              	.LASF39:
 1698 00f3 72656754 		.ascii	"regTemp\000"
 1698      656D7000 
 1699              	.LASF3:
 1700 00fb 73686F72 		.ascii	"short unsigned int\000"
 1700      7420756E 
 1700      7369676E 
 1700      65642069 
 1700      6E7400
 1701              	.LASF31:
 1702 010e 43414E5F 		.ascii	"CAN_RX_STRUCT\000"
 1702      52585F53 
 1702      54525543 
 1702      5400
 1703              	.LASF47:
 1704 011c 72784D61 		.ascii	"rxMailbox\000"
 1704      696C626F 
 1704      7800
 1705              	.LASF33:
 1706 0126 74786964 		.ascii	"txid\000"
 1706      00
 1707              	.LASF34:
 1708 012b 74786461 		.ascii	"txdata\000"
 1708      746100
 1709              	.LASF17:
ARM GAS  D:\Windows\AppData\Local\Temp\ccxctkJs.s 			page 44


 1710 0132 72656733 		.ascii	"reg32\000"
 1710      3200
 1711              	.LASF22:
 1712 0138 43414E5F 		.ascii	"CAN_REG_32\000"
 1712      5245475F 
 1712      333200
 1713              	.LASF18:
 1714 0143 73697A65 		.ascii	"sizetype\000"
 1714      74797065 
 1714      00
 1715              	.LASF51:
 1716 014c 47656E65 		.ascii	"Generated_Source\\PSoC5\\CAN_TX_RX_func.c\000"
 1716      72617465 
 1716      645F536F 
 1716      75726365 
 1716      5C50536F 
 1717              	.LASF37:
 1718 0174 72657472 		.ascii	"retry\000"
 1718      7900
 1719              	.LASF50:
 1720 017a 474E5520 		.ascii	"GNU C 4.9.3 20150303 (release) [ARM/embedded-4_9-br"
 1720      4320342E 
 1720      392E3320 
 1720      32303135 
 1720      30333033 
 1721 01ad 616E6368 		.ascii	"anch revision 221220] -mcpu=cortex-m3 -mthumb -g -O"
 1721      20726576 
 1721      6973696F 
 1721      6E203232 
 1721      31323230 
 1722 01e0 30202D66 		.ascii	"0 -ffunction-sections -ffat-lto-objects\000"
 1722      66756E63 
 1722      74696F6E 
 1722      2D736563 
 1722      74696F6E 
 1723              	.LASF13:
 1724 0208 666C6F61 		.ascii	"float\000"
 1724      7400
 1725              	.LASF16:
 1726 020e 72656738 		.ascii	"reg8\000"
 1726      00
 1727              	.LASF1:
 1728 0213 756E7369 		.ascii	"unsigned char\000"
 1728      676E6564 
 1728      20636861 
 1728      7200
 1729              	.LASF2:
 1730 0221 73686F72 		.ascii	"short int\000"
 1730      7420696E 
 1730      7400
 1731              	.LASF19:
 1732 022b 43414E5F 		.ascii	"CAN_DATA_BYTES_MSG\000"
 1732      44415441 
 1732      5F425954 
 1732      45535F4D 
 1732      534700
 1733              	.LASF35:
ARM GAS  D:\Windows\AppData\Local\Temp\ccxctkJs.s 			page 45


 1734 023e 43414E5F 		.ascii	"CAN_TX_STRUCT\000"
 1734      54585F53 
 1734      54525543 
 1734      5400
 1735              	.LASF15:
 1736 024c 63686172 		.ascii	"char\000"
 1736      00
 1737              	.LASF25:
 1738 0251 72786964 		.ascii	"rxid\000"
 1738      00
 1739              	.LASF21:
 1740 0256 43414E5F 		.ascii	"CAN_DATA_BYTES\000"
 1740      44415441 
 1740      5F425954 
 1740      455300
 1741              	.LASF24:
 1742 0265 7278636D 		.ascii	"rxcmd\000"
 1742      6400
 1743              	.LASF23:
 1744 026b 43414E5F 		.ascii	"CAN_TX_MSG\000"
 1744      54585F4D 
 1744      534700
 1745              	.LASF52:
 1746 0276 443A5C44 		.ascii	"D:\\Downloads\\FRUCD\\Node-Jaguar\\Node-Jaguar\\Nod"
 1746      6F776E6C 
 1746      6F616473 
 1746      5C465255 
 1746      43445C4E 
 1747 02a4 652D4A61 		.ascii	"e-Jaguar.cydsn\000"
 1747      67756172 
 1747      2E637964 
 1747      736E00
 1748              	.LASF10:
 1749 02b3 75696E74 		.ascii	"uint8_t\000"
 1749      385F7400 
 1750              	.LASF28:
 1751 02bb 72786163 		.ascii	"rxacr\000"
 1751      7200
 1752              	.LASF30:
 1753 02c1 72786163 		.ascii	"rxacrd\000"
 1753      726400
 1754              	.LASF40:
 1755 02c8 6D657373 		.ascii	"message\000"
 1755      61676500 
 1756              	.LASF46:
 1757 02d0 43414E5F 		.ascii	"CAN_ReceiveMsg\000"
 1757      52656365 
 1757      6976654D 
 1757      736700
 1758              	.LASF38:
 1759 02df 72657375 		.ascii	"result\000"
 1759      6C7400
 1760              	.LASF53:
 1761 02e6 63616E5F 		.ascii	"can_buffer\000"
 1761      62756666 
 1761      657200
 1762              		.ident	"GCC: (GNU Tools for ARM Embedded Processors) 4.9.3 20150303 (release) [ARM/embedded-4_9-br
ARM GAS  D:\Windows\AppData\Local\Temp\ccxctkJs.s 			page 46


