ARM GAS  C:\Users\Schuyler\AppData\Local\Temp\ccmSWL6p.s 			page 1


   1              		.syntax unified
   2              		.cpu cortex-m3
   3              		.fpu softvfp
   4              		.eabi_attribute 20, 1
   5              		.eabi_attribute 21, 1
   6              		.eabi_attribute 23, 3
   7              		.eabi_attribute 24, 1
   8              		.eabi_attribute 25, 1
   9              		.eabi_attribute 26, 1
  10              		.eabi_attribute 30, 1
  11              		.eabi_attribute 34, 1
  12              		.eabi_attribute 18, 4
  13              		.thumb
  14              		.file	"can_manager.c"
  15              		.text
  16              	.Ltext0:
  17              		.cfi_sections	.debug_frame
  18              		.section	.text.can_get,"ax",%progbits
  19              		.align	2
  20              		.global	can_get
  21              		.thumb
  22              		.thumb_func
  23              		.type	can_get, %function
  24              	can_get:
  25              	.LFB63:
  26              		.file 1 "can_manager.c"
   1:can_manager.c **** #include "can_manager.h"
   2:can_manager.c **** 
   3:can_manager.c **** volatile uint8_t can_buffer[8];
   4:can_manager.c **** volatile DataPacket can_queue[CAN_QUEUE_LENGTH];
   5:can_manager.c **** volatile uint16_t can_head = 0, can_tail = 0;
   6:can_manager.c **** 
   7:can_manager.c **** void can_get(DataPacket* data_queue, uint16_t* data_head, uint16_t* data_tail)
   8:can_manager.c **** {
  27              		.loc 1 8 0
  28              		.cfi_startproc
  29              		@ args = 0, pretend = 0, frame = 0
  30              		@ frame_needed = 0, uses_anonymous_args = 0
  31              	.LVL0:
  32 0000 F8B5     		push	{r3, r4, r5, r6, r7, lr}
  33              		.cfi_def_cfa_offset 24
  34              		.cfi_offset 3, -24
  35              		.cfi_offset 4, -20
  36              		.cfi_offset 5, -16
  37              		.cfi_offset 6, -12
  38              		.cfi_offset 7, -8
  39              		.cfi_offset 14, -4
  40 0002 0546     		mov	r5, r0
  41 0004 0E46     		mov	r6, r1
  42 0006 1446     		mov	r4, r2
   9:can_manager.c ****     //CAN_GlobalIntEnable();
  10:can_manager.c **** 	*data_head = *data_tail = 0;
  43              		.loc 1 10 0
  44 0008 0023     		movs	r3, #0
  45 000a 1380     		strh	r3, [r2]	@ movhi
  46 000c 0B80     		strh	r3, [r1]	@ movhi
  11:can_manager.c **** 
ARM GAS  C:\Users\Schuyler\AppData\Local\Temp\ccmSWL6p.s 			page 2


  12:can_manager.c **** 	uint8_t atomic_state = CyEnterCriticalSection(); // BEGIN ATOMIC
  47              		.loc 1 12 0
  48 000e FFF7FEFF 		bl	CyEnterCriticalSection
  49              	.LVL1:
  13:can_manager.c **** 
  14:can_manager.c **** 	while(can_head != can_tail) // move and convert can message queue to data queue
  50              		.loc 1 14 0
  51 0012 8CE0     		b	.L5
  52              	.L7:
  15:can_manager.c **** 	{
  16:can_manager.c **** 		data_queue[*data_tail].id = can_queue[can_head].id;
  53              		.loc 1 16 0
  54 0014 2788     		ldrh	r7, [r4]
  55 0016 05EB0717 		add	r7, r5, r7, lsl #4
  56 001a 4C4A     		ldr	r2, .L9
  57 001c 1188     		ldrh	r1, [r2]
  58 001e 89B2     		uxth	r1, r1
  59 0020 4B4B     		ldr	r3, .L9+4
  60 0022 03EB0111 		add	r1, r3, r1, lsl #4
  61 0026 8988     		ldrh	r1, [r1, #4]
  62 0028 B980     		strh	r1, [r7, #4]	@ movhi
  17:can_manager.c **** 		data_queue[*data_tail].length = can_queue[can_head].length;
  63              		.loc 1 17 0
  64 002a 2788     		ldrh	r7, [r4]
  65 002c 05EB0717 		add	r7, r5, r7, lsl #4
  66 0030 1188     		ldrh	r1, [r2]
  67 0032 89B2     		uxth	r1, r1
  68 0034 03EB0111 		add	r1, r3, r1, lsl #4
  69 0038 8979     		ldrb	r1, [r1, #6]	@ zero_extendqisi2
  70 003a B971     		strb	r1, [r7, #6]
  18:can_manager.c **** 		data_queue[*data_tail].millicounter = can_queue[can_head].millicounter;
  71              		.loc 1 18 0
  72 003c 2788     		ldrh	r7, [r4]
  73 003e 3F01     		lsls	r7, r7, #4
  74 0040 1188     		ldrh	r1, [r2]
  75 0042 89B2     		uxth	r1, r1
  76 0044 0901     		lsls	r1, r1, #4
  77 0046 5958     		ldr	r1, [r3, r1]
  78 0048 E951     		str	r1, [r5, r7]
  19:can_manager.c **** 
  20:can_manager.c **** 		data_queue[*data_tail].data[0] = can_queue[can_head].data[0];
  79              		.loc 1 20 0
  80 004a 2788     		ldrh	r7, [r4]
  81 004c 05EB0717 		add	r7, r5, r7, lsl #4
  82 0050 1188     		ldrh	r1, [r2]
  83 0052 89B2     		uxth	r1, r1
  84 0054 03EB0111 		add	r1, r3, r1, lsl #4
  85 0058 C979     		ldrb	r1, [r1, #7]	@ zero_extendqisi2
  86 005a F971     		strb	r1, [r7, #7]
  21:can_manager.c **** 		data_queue[*data_tail].data[1] = can_queue[can_head].data[1];
  87              		.loc 1 21 0
  88 005c 2788     		ldrh	r7, [r4]
  89 005e 05EB0717 		add	r7, r5, r7, lsl #4
  90 0062 1188     		ldrh	r1, [r2]
  91 0064 89B2     		uxth	r1, r1
  92 0066 03EB0111 		add	r1, r3, r1, lsl #4
  93 006a 0131     		adds	r1, r1, #1
ARM GAS  C:\Users\Schuyler\AppData\Local\Temp\ccmSWL6p.s 			page 3


  94 006c C979     		ldrb	r1, [r1, #7]	@ zero_extendqisi2
  95 006e 3972     		strb	r1, [r7, #8]
  22:can_manager.c **** 		data_queue[*data_tail].data[2] = can_queue[can_head].data[2];
  96              		.loc 1 22 0
  97 0070 2788     		ldrh	r7, [r4]
  98 0072 05EB0717 		add	r7, r5, r7, lsl #4
  99 0076 1188     		ldrh	r1, [r2]
 100 0078 89B2     		uxth	r1, r1
 101 007a 03EB0111 		add	r1, r3, r1, lsl #4
 102 007e 0231     		adds	r1, r1, #2
 103 0080 C979     		ldrb	r1, [r1, #7]	@ zero_extendqisi2
 104 0082 7972     		strb	r1, [r7, #9]
  23:can_manager.c **** 		data_queue[*data_tail].data[3] = can_queue[can_head].data[3];
 105              		.loc 1 23 0
 106 0084 2788     		ldrh	r7, [r4]
 107 0086 05EB0717 		add	r7, r5, r7, lsl #4
 108 008a 1188     		ldrh	r1, [r2]
 109 008c 89B2     		uxth	r1, r1
 110 008e 03EB0111 		add	r1, r3, r1, lsl #4
 111 0092 0331     		adds	r1, r1, #3
 112 0094 C979     		ldrb	r1, [r1, #7]	@ zero_extendqisi2
 113 0096 B972     		strb	r1, [r7, #10]
  24:can_manager.c **** 		data_queue[*data_tail].data[4] = can_queue[can_head].data[4];
 114              		.loc 1 24 0
 115 0098 2788     		ldrh	r7, [r4]
 116 009a 05EB0717 		add	r7, r5, r7, lsl #4
 117 009e 1188     		ldrh	r1, [r2]
 118 00a0 89B2     		uxth	r1, r1
 119 00a2 03EB0111 		add	r1, r3, r1, lsl #4
 120 00a6 0431     		adds	r1, r1, #4
 121 00a8 C979     		ldrb	r1, [r1, #7]	@ zero_extendqisi2
 122 00aa F972     		strb	r1, [r7, #11]
  25:can_manager.c **** 		data_queue[*data_tail].data[5] = can_queue[can_head].data[5];
 123              		.loc 1 25 0
 124 00ac 2788     		ldrh	r7, [r4]
 125 00ae 05EB0717 		add	r7, r5, r7, lsl #4
 126 00b2 1188     		ldrh	r1, [r2]
 127 00b4 89B2     		uxth	r1, r1
 128 00b6 03EB0111 		add	r1, r3, r1, lsl #4
 129 00ba 0531     		adds	r1, r1, #5
 130 00bc C979     		ldrb	r1, [r1, #7]	@ zero_extendqisi2
 131 00be 3973     		strb	r1, [r7, #12]
  26:can_manager.c **** 		data_queue[*data_tail].data[6] = can_queue[can_head].data[6];
 132              		.loc 1 26 0
 133 00c0 2788     		ldrh	r7, [r4]
 134 00c2 05EB0717 		add	r7, r5, r7, lsl #4
 135 00c6 1188     		ldrh	r1, [r2]
 136 00c8 89B2     		uxth	r1, r1
 137 00ca 03EB0111 		add	r1, r3, r1, lsl #4
 138 00ce 0631     		adds	r1, r1, #6
 139 00d0 C979     		ldrb	r1, [r1, #7]	@ zero_extendqisi2
 140 00d2 7973     		strb	r1, [r7, #13]
  27:can_manager.c **** 		data_queue[*data_tail].data[7] = can_queue[can_head].data[7];
 141              		.loc 1 27 0
 142 00d4 2188     		ldrh	r1, [r4]
 143 00d6 05EB0111 		add	r1, r5, r1, lsl #4
 144 00da 1788     		ldrh	r7, [r2]
ARM GAS  C:\Users\Schuyler\AppData\Local\Temp\ccmSWL6p.s 			page 4


 145 00dc BFB2     		uxth	r7, r7
 146 00de 03EB0713 		add	r3, r3, r7, lsl #4
 147 00e2 0733     		adds	r3, r3, #7
 148 00e4 DB79     		ldrb	r3, [r3, #7]	@ zero_extendqisi2
 149 00e6 8B73     		strb	r3, [r1, #14]
  28:can_manager.c **** 
  29:can_manager.c **** 		can_head = (can_head + 1) % CAN_QUEUE_LENGTH; // discard copied packet
 150              		.loc 1 29 0
 151 00e8 1388     		ldrh	r3, [r2]
 152 00ea 0133     		adds	r3, r3, #1
 153 00ec C3F30903 		ubfx	r3, r3, #0, #10
 154 00f0 9BB2     		uxth	r3, r3
 155 00f2 1380     		strh	r3, [r2]	@ movhi
  30:can_manager.c **** 
  31:can_manager.c **** 		*data_tail = (*data_tail + 1) % DATA_QUEUE_LENGTH; // increment data tail
 156              		.loc 1 31 0
 157 00f4 2288     		ldrh	r2, [r4]
 158 00f6 0132     		adds	r2, r2, #1
 159 00f8 164B     		ldr	r3, .L9+8
 160 00fa 1340     		ands	r3, r3, r2
 161 00fc 002B     		cmp	r3, #0
 162 00fe 05DA     		bge	.L4
 163 0100 013B     		subs	r3, r3, #1
 164 0102 6FEA8353 		mvn	r3, r3, lsl #22
 165 0106 6FEA9353 		mvn	r3, r3, lsr #22
 166 010a 0133     		adds	r3, r3, #1
 167              	.L4:
 168 010c 9BB2     		uxth	r3, r3
 169 010e 2380     		strh	r3, [r4]	@ movhi
  32:can_manager.c **** 
  33:can_manager.c **** 		if(*data_tail == *data_head) // if need to roll data queue
 170              		.loc 1 33 0
 171 0110 3288     		ldrh	r2, [r6]
 172 0112 9342     		cmp	r3, r2
 173 0114 0BD1     		bne	.L5
  34:can_manager.c **** 			*data_head = (*data_head + 1) % DATA_QUEUE_LENGTH;
 174              		.loc 1 34 0
 175 0116 0132     		adds	r2, r2, #1
 176 0118 0E4B     		ldr	r3, .L9+8
 177 011a 1340     		ands	r3, r3, r2
 178 011c 002B     		cmp	r3, #0
 179 011e 05DA     		bge	.L6
 180 0120 013B     		subs	r3, r3, #1
 181 0122 6FEA8353 		mvn	r3, r3, lsl #22
 182 0126 6FEA9353 		mvn	r3, r3, lsr #22
 183 012a 0133     		adds	r3, r3, #1
 184              	.L6:
 185 012c 3380     		strh	r3, [r6]	@ movhi
 186              	.L5:
  14:can_manager.c **** 	{
 187              		.loc 1 14 0
 188 012e 074B     		ldr	r3, .L9
 189 0130 1A88     		ldrh	r2, [r3]
 190 0132 92B2     		uxth	r2, r2
 191 0134 5B88     		ldrh	r3, [r3, #2]
 192 0136 9BB2     		uxth	r3, r3
 193 0138 9A42     		cmp	r2, r3
ARM GAS  C:\Users\Schuyler\AppData\Local\Temp\ccmSWL6p.s 			page 5


 194 013a 7FF46BAF 		bne	.L7
  35:can_manager.c **** 	} // for all can messages in queue
  36:can_manager.c **** 
  37:can_manager.c **** 	can_head = can_tail = 0;
 195              		.loc 1 37 0
 196 013e 034B     		ldr	r3, .L9
 197 0140 0022     		movs	r2, #0
 198 0142 5A80     		strh	r2, [r3, #2]	@ movhi
 199 0144 1A80     		strh	r2, [r3]	@ movhi
  38:can_manager.c **** 	CyExitCriticalSection(atomic_state); // END ATOMIC
 200              		.loc 1 38 0
 201 0146 FFF7FEFF 		bl	CyExitCriticalSection
 202              	.LVL2:
 203 014a F8BD     		pop	{r3, r4, r5, r6, r7, pc}
 204              	.LVL3:
 205              	.L10:
 206              		.align	2
 207              	.L9:
 208 014c 00000000 		.word	.LANCHOR0
 209 0150 00000000 		.word	can_queue
 210 0154 FF030080 		.word	-2147482625
 211              		.cfi_endproc
 212              	.LFE63:
 213              		.size	can_get, .-can_get
 214              		.section	.text.can_read,"ax",%progbits
 215              		.align	2
 216              		.global	can_read
 217              		.thumb
 218              		.thumb_func
 219              		.type	can_read, %function
 220              	can_read:
 221              	.LFB64:
  39:can_manager.c ****     //CAN_GlobalIntDisable();
  40:can_manager.c **** } // can_receive()
  41:can_manager.c **** 
  42:can_manager.c **** 
  43:can_manager.c **** uint16_t can_read(const DataPacket* data_queue, const uint16_t data_head, const uint16_t data_tail,
  44:can_manager.c **** {
 222              		.loc 1 44 0
 223              		.cfi_startproc
 224              		@ args = 4, pretend = 0, frame = 0
 225              		@ frame_needed = 0, uses_anonymous_args = 0
 226              		@ link register save eliminated.
 227              	.LVL4:
 228 0000 F0B4     		push	{r4, r5, r6, r7}
 229              		.cfi_def_cfa_offset 16
 230              		.cfi_offset 4, -16
 231              		.cfi_offset 5, -12
 232              		.cfi_offset 6, -8
 233              		.cfi_offset 7, -4
 234 0002 BDF81070 		ldrh	r7, [sp, #16]
 235              	.LVL5:
  45:can_manager.c ****     uint16_t pos;
  46:can_manager.c ****     uint16_t newest = 0;
 236              		.loc 1 46 0
 237 0006 0026     		movs	r6, #0
  47:can_manager.c ****     
ARM GAS  C:\Users\Schuyler\AppData\Local\Temp\ccmSWL6p.s 			page 6


  48:can_manager.c ****     //if (data_head == data_tail)
  49:can_manager.c ****         //return 0;
  50:can_manager.c ****     
  51:can_manager.c ****     for(pos=data_head; pos!=data_tail; pos=(pos+1)%DATA_QUEUE_LENGTH)
 238              		.loc 1 51 0
 239 0008 12E0     		b	.L12
 240              	.LVL6:
 241              	.L15:
  52:can_manager.c **** 	{
  53:can_manager.c ****         if(data_queue[pos].id == ID)
 242              		.loc 1 53 0
 243 000a 00EB0114 		add	r4, r0, r1, lsl #4
 244 000e A588     		ldrh	r5, [r4, #4]
 245 0010 9D42     		cmp	r5, r3
 246 0012 01D1     		bne	.L13
  54:can_manager.c ****         {
  55:can_manager.c ****             newest = data_queue[pos].data[Entry];
 247              		.loc 1 55 0
 248 0014 3C44     		add	r4, r4, r7
 249 0016 E679     		ldrb	r6, [r4, #7]	@ zero_extendqisi2
 250              	.LVL7:
 251              	.L13:
  51:can_manager.c **** 	{
 252              		.loc 1 51 0 discriminator 2
 253 0018 4C1C     		adds	r4, r1, #1
 254 001a 0849     		ldr	r1, .L17
 255              	.LVL8:
 256 001c 2140     		ands	r1, r1, r4
 257 001e 0029     		cmp	r1, #0
 258 0020 05DA     		bge	.L14
 259 0022 0139     		subs	r1, r1, #1
 260 0024 6FEA8151 		mvn	r1, r1, lsl #22
 261 0028 6FEA9151 		mvn	r1, r1, lsr #22
 262 002c 0131     		adds	r1, r1, #1
 263              	.L14:
 264 002e 89B2     		uxth	r1, r1
 265              	.LVL9:
 266              	.L12:
  51:can_manager.c **** 	{
 267              		.loc 1 51 0 is_stmt 0 discriminator 1
 268 0030 9142     		cmp	r1, r2
 269 0032 EAD1     		bne	.L15
  56:can_manager.c ****         }
  57:can_manager.c ****     }
  58:can_manager.c ****     
  59:can_manager.c ****     //if (data_queue.id == ID)
  60:can_manager.c ****     //    return data_queue[pos].data[Entry]; 
  61:can_manager.c ****     return (newest);
  62:can_manager.c **** }
 270              		.loc 1 62 0 is_stmt 1
 271 0034 3046     		mov	r0, r6
 272              	.LVL10:
 273 0036 F0BC     		pop	{r4, r5, r6, r7}
 274              		.cfi_restore 7
 275              		.cfi_restore 6
 276              		.cfi_restore 5
 277              		.cfi_restore 4
ARM GAS  C:\Users\Schuyler\AppData\Local\Temp\ccmSWL6p.s 			page 7


 278              		.cfi_def_cfa_offset 0
 279              	.LVL11:
 280 0038 7047     		bx	lr
 281              	.L18:
 282 003a 00BF     		.align	2
 283              	.L17:
 284 003c FF030080 		.word	-2147482625
 285              		.cfi_endproc
 286              	.LFE64:
 287              		.size	can_read, .-can_read
 288              		.global	can_tail
 289              		.global	can_head
 290              		.comm	can_queue,16384,4
 291              		.comm	can_buffer,8,4
 292              		.bss
 293              		.align	1
 294              		.set	.LANCHOR0,. + 0
 295              		.type	can_head, %object
 296              		.size	can_head, 2
 297              	can_head:
 298 0000 0000     		.space	2
 299              		.type	can_tail, %object
 300              		.size	can_tail, 2
 301              	can_tail:
 302 0002 0000     		.space	2
 303              		.text
 304              	.Letext0:
 305              		.file 2 "c:\\program files (x86)\\cypress\\psoc creator\\4.0\\psoc creator\\import\\gnu\\arm\\4.9.
 306              		.file 3 "c:\\program files (x86)\\cypress\\psoc creator\\4.0\\psoc creator\\import\\gnu\\arm\\4.9.
 307              		.file 4 "Generated_Source\\PSoC5/cytypes.h"
 308              		.file 5 "data.h"
 309              		.file 6 "can_manager.h"
 310              		.file 7 "Generated_Source\\PSoC5/core_cm3.h"
 311              		.file 8 "Generated_Source\\PSoC5/CyLib.h"