ARM GAS  C:\Users\Schuyler\AppData\Local\Temp\ccseGwX0.s 			page 1


   1              		.syntax unified
   2              		.cpu cortex-m3
   3              		.fpu softvfp
   4              		.eabi_attribute 20, 1
   5              		.eabi_attribute 21, 1
   6              		.eabi_attribute 23, 3
   7              		.eabi_attribute 24, 1
   8              		.eabi_attribute 25, 1
   9              		.eabi_attribute 26, 1
  10              		.eabi_attribute 30, 1
  11              		.eabi_attribute 34, 1
  12              		.eabi_attribute 18, 4
  13              		.thumb
  14              		.file	"can_manga_handlers.c"
  15              		.text
  16              	.Ltext0:
  17              		.cfi_sections	.debug_frame
  18              		.section	.text.curtisFaultHandler,"ax",%progbits
  19              		.align	2
  20              		.global	curtisFaultHandler
  21              		.thumb
  22              		.thumb_func
  23              		.type	curtisFaultHandler, %function
  24              	curtisFaultHandler:
  25              	.LFB0:
  26              		.file 1 "can_manga_handlers.c"
   1:can_manga_handlers.c **** /* ========================================
   2:can_manga_handlers.c ****  * This file is used for declaring functions which will be executed for a particular CAN ID.
   3:can_manga_handlers.c ****  * ========================================
   4:can_manga_handlers.c **** 
   5:can_manga_handlers.c ****     Make sure to use macros to access data bytes. They are not in
   6:can_manga_handlers.c ****     the order you expect! These macros were defined by Cypress in CAN_1.h.
   7:can_manga_handlers.c ****     
   8:can_manga_handlers.c ****     CAN_1_DATA_BYTE_1    
   9:can_manga_handlers.c ****     CAN_1_DATA_BYTE_2    
  10:can_manga_handlers.c ****     CAN_1_DATA_BYTE_3    
  11:can_manga_handlers.c ****     CAN_1_DATA_BYTE_4    
  12:can_manga_handlers.c ****     CAN_1_DATA_BYTE_5
  13:can_manga_handlers.c ****     CAN_1_DATA_BYTE_6
  14:can_manga_handlers.c ****     CAN_1_DATA_BYTE_7
  15:can_manga_handlers.c ****     CAN_1_DATA_BYTE_8
  16:can_manga_handlers.c **** */
  17:can_manga_handlers.c **** 
  18:can_manga_handlers.c **** #include "can_manga_handlers.h"
  19:can_manga_handlers.c ****     
  20:can_manga_handlers.c **** // Define and initialize variables
  21:can_manga_handlers.c **** volatile MangaMessage CAPACITOR_VOLT = {0, 0};
  22:can_manga_handlers.c **** volatile MangaMessage CURTIS_FAULT_CHECK = {0, 0};
  23:can_manga_handlers.c **** volatile MangaMessage CURTIS_HEART_BEAT_CHECK = {0, 0};
  24:can_manga_handlers.c **** volatile MangaMessage ACK_RX = {0, 0};
  25:can_manga_handlers.c **** volatile MangaMessage ERROR_TOLERANCE = {0, 0};
  26:can_manga_handlers.c **** volatile MangaMessage ABS_MOTOR_RPM = {0, 0};
  27:can_manga_handlers.c **** volatile MangaMessage THROTTLE_HIGH = {5, 5};
  28:can_manga_handlers.c **** volatile MangaMessage THROTTLE_LOW = {5, 5};
  29:can_manga_handlers.c ****     
  30:can_manga_handlers.c **** // If you ever see 0xA6, just set CURTIS to 1 (so there has been a fault)
  31:can_manga_handlers.c **** void curtisFaultHandler()
ARM GAS  C:\Users\Schuyler\AppData\Local\Temp\ccseGwX0.s 			page 2


  32:can_manga_handlers.c **** {
  27              		.loc 1 32 0
  28              		.cfi_startproc
  29              		@ args = 0, pretend = 0, frame = 0
  30              		@ frame_needed = 0, uses_anonymous_args = 0
  31 0000 08B5     		push	{r3, lr}
  32              		.cfi_def_cfa_offset 8
  33              		.cfi_offset 3, -8
  34              		.cfi_offset 14, -4
  33:can_manga_handlers.c ****     can_manga_message_update(&CURTIS_FAULT_CHECK, 0x0);
  35              		.loc 1 33 0
  36 0002 0248     		ldr	r0, .L3
  37 0004 0021     		movs	r1, #0
  38 0006 FFF7FEFF 		bl	can_manga_message_update
  39              	.LVL0:
  40 000a 08BD     		pop	{r3, pc}
  41              	.L4:
  42              		.align	2
  43              	.L3:
  44 000c 00000000 		.word	.LANCHOR0
  45              		.cfi_endproc
  46              	.LFE0:
  47              		.size	curtisFaultHandler, .-curtisFaultHandler
  48              		.section	.text.manga_getCurtisFaultCheck,"ax",%progbits
  49              		.align	2
  50              		.global	manga_getCurtisFaultCheck
  51              		.thumb
  52              		.thumb_func
  53              		.type	manga_getCurtisFaultCheck, %function
  54              	manga_getCurtisFaultCheck:
  55              	.LFB1:
  34:can_manga_handlers.c **** }
  35:can_manga_handlers.c **** 
  36:can_manga_handlers.c **** uint8_t manga_getCurtisFaultCheck()
  37:can_manga_handlers.c **** {
  56              		.loc 1 37 0
  57              		.cfi_startproc
  58              		@ args = 0, pretend = 0, frame = 0
  59              		@ frame_needed = 0, uses_anonymous_args = 0
  60              		@ link register save eliminated.
  61              	.LVL1:
  38:can_manga_handlers.c ****     uint8_t returnValue = 0;
  39:can_manga_handlers.c ****     //uint8 InterruptState = CyEnterCriticalSection();
  40:can_manga_handlers.c ****     if (CURTIS_FAULT_CHECK.count == 0)
  62              		.loc 1 40 0
  63 0000 054B     		ldr	r3, .L8
  64 0002 1B68     		ldr	r3, [r3]
  65 0004 2BB1     		cbz	r3, .L7
  41:can_manga_handlers.c ****         returnValue = 0;
  42:can_manga_handlers.c ****     else
  43:can_manga_handlers.c ****     {
  44:can_manga_handlers.c ****         CURTIS_FAULT_CHECK.count -= 1;
  66              		.loc 1 44 0
  67 0006 044A     		ldr	r2, .L8
  68 0008 1368     		ldr	r3, [r2]
  69 000a 013B     		subs	r3, r3, #1
  70 000c 1360     		str	r3, [r2]
ARM GAS  C:\Users\Schuyler\AppData\Local\Temp\ccseGwX0.s 			page 3


  45:can_manga_handlers.c ****         return 1; // Has a fault message available
  71              		.loc 1 45 0
  72 000e 0120     		movs	r0, #1
  73 0010 7047     		bx	lr
  74              	.L7:
  46:can_manga_handlers.c ****     }
  47:can_manga_handlers.c ****     //CyExitCriticalSection(InterruptState);
  48:can_manga_handlers.c ****     return returnValue;
  75              		.loc 1 48 0
  76 0012 0020     		movs	r0, #0
  49:can_manga_handlers.c **** }
  77              		.loc 1 49 0
  78 0014 7047     		bx	lr
  79              	.L9:
  80 0016 00BF     		.align	2
  81              	.L8:
  82 0018 00000000 		.word	.LANCHOR0
  83              		.cfi_endproc
  84              	.LFE1:
  85              		.size	manga_getCurtisFaultCheck, .-manga_getCurtisFaultCheck
  86              		.section	.text.curtisHeartBeatHandler,"ax",%progbits
  87              		.align	2
  88              		.global	curtisHeartBeatHandler
  89              		.thumb
  90              		.thumb_func
  91              		.type	curtisHeartBeatHandler, %function
  92              	curtisHeartBeatHandler:
  93              	.LFB2:
  50:can_manga_handlers.c **** 
  51:can_manga_handlers.c **** void curtisHeartBeatHandler()
  52:can_manga_handlers.c **** {
  94              		.loc 1 52 0
  95              		.cfi_startproc
  96              		@ args = 0, pretend = 0, frame = 0
  97              		@ frame_needed = 0, uses_anonymous_args = 0
  98 0000 08B5     		push	{r3, lr}
  99              		.cfi_def_cfa_offset 8
 100              		.cfi_offset 3, -8
 101              		.cfi_offset 14, -4
  53:can_manga_handlers.c ****     can_manga_message_update(&CURTIS_HEART_BEAT_CHECK, 0x0);
 102              		.loc 1 53 0
 103 0002 0248     		ldr	r0, .L12
 104 0004 0021     		movs	r1, #0
 105 0006 FFF7FEFF 		bl	can_manga_message_update
 106              	.LVL2:
 107 000a 08BD     		pop	{r3, pc}
 108              	.L13:
 109              		.align	2
 110              	.L12:
 111 000c 08000000 		.word	.LANCHOR0+8
 112              		.cfi_endproc
 113              	.LFE2:
 114              		.size	curtisHeartBeatHandler, .-curtisHeartBeatHandler
 115              		.section	.text.manga_getCurtisHeartBeatCheck,"ax",%progbits
 116              		.align	2
 117              		.global	manga_getCurtisHeartBeatCheck
 118              		.thumb
ARM GAS  C:\Users\Schuyler\AppData\Local\Temp\ccseGwX0.s 			page 4


 119              		.thumb_func
 120              		.type	manga_getCurtisHeartBeatCheck, %function
 121              	manga_getCurtisHeartBeatCheck:
 122              	.LFB3:
  54:can_manga_handlers.c **** }
  55:can_manga_handlers.c **** 
  56:can_manga_handlers.c **** uint8_t manga_getCurtisHeartBeatCheck()
  57:can_manga_handlers.c **** {
 123              		.loc 1 57 0
 124              		.cfi_startproc
 125              		@ args = 0, pretend = 0, frame = 0
 126              		@ frame_needed = 0, uses_anonymous_args = 0
 127              		@ link register save eliminated.
  58:can_manga_handlers.c ****     return 1;
  59:can_manga_handlers.c ****     uint8_t returnValue = 0;
  60:can_manga_handlers.c ****     //uint8 InterruptState = CyEnterCriticalSection();
  61:can_manga_handlers.c ****     if (CURTIS_HEART_BEAT_CHECK.count == 0)
  62:can_manga_handlers.c ****         returnValue = 0;
  63:can_manga_handlers.c ****     else
  64:can_manga_handlers.c ****     {
  65:can_manga_handlers.c ****         CURTIS_HEART_BEAT_CHECK.count -= 1;
  66:can_manga_handlers.c ****         return 1; // Has a heartbeat message available
  67:can_manga_handlers.c ****     }
  68:can_manga_handlers.c ****     //CyExitCriticalSection(InterruptState);
  69:can_manga_handlers.c ****     return returnValue;
  70:can_manga_handlers.c **** }
 128              		.loc 1 70 0
 129 0000 0120     		movs	r0, #1
 130 0002 7047     		bx	lr
 131              		.cfi_endproc
 132              	.LFE3:
 133              		.size	manga_getCurtisHeartBeatCheck, .-manga_getCurtisHeartBeatCheck
 134              		.section	.text.capacitorVoltHandler,"ax",%progbits
 135              		.align	2
 136              		.global	capacitorVoltHandler
 137              		.thumb
 138              		.thumb_func
 139              		.type	capacitorVoltHandler, %function
 140              	capacitorVoltHandler:
 141              	.LFB4:
  71:can_manga_handlers.c **** 
  72:can_manga_handlers.c **** // Handles capacitor voltage 
  73:can_manga_handlers.c **** void capacitorVoltHandler(uint8_t *msg)
  74:can_manga_handlers.c **** {
 142              		.loc 1 74 0
 143              		.cfi_startproc
 144              		@ args = 0, pretend = 0, frame = 0
 145              		@ frame_needed = 0, uses_anonymous_args = 0
 146              	.LVL3:
 147 0000 38B5     		push	{r3, r4, r5, lr}
 148              		.cfi_def_cfa_offset 16
 149              		.cfi_offset 3, -16
 150              		.cfi_offset 4, -12
 151              		.cfi_offset 5, -8
 152              		.cfi_offset 14, -4
 153 0002 0346     		mov	r3, r0
 154              	.LVL4:
ARM GAS  C:\Users\Schuyler\AppData\Local\Temp\ccseGwX0.s 			page 5


  75:can_manga_handlers.c ****     uint8_t capacitorVolt = msg[CAN_DATA_BYTE_1];
  76:can_manga_handlers.c ****     uint8_t absMotorRPM = msg[CAN_DATA_BYTE_5];
 155              		.loc 1 76 0
 156 0004 C579     		ldrb	r5, [r0, #7]	@ zero_extendqisi2
 157              	.LVL5:
  77:can_manga_handlers.c ****     
  78:can_manga_handlers.c ****     can_manga_message_update(&CAPACITOR_VOLT, capacitorVolt);
 158              		.loc 1 78 0
 159 0006 064C     		ldr	r4, .L17
 160 0008 04F11000 		add	r0, r4, #16
 161              	.LVL6:
 162 000c D978     		ldrb	r1, [r3, #3]	@ zero_extendqisi2
 163 000e FFF7FEFF 		bl	can_manga_message_update
 164              	.LVL7:
  79:can_manga_handlers.c ****     can_manga_message_update(&ABS_MOTOR_RPM, absMotorRPM);
 165              		.loc 1 79 0
 166 0012 04F11800 		add	r0, r4, #24
 167 0016 2946     		mov	r1, r5
 168 0018 FFF7FEFF 		bl	can_manga_message_update
 169              	.LVL8:
 170 001c 38BD     		pop	{r3, r4, r5, pc}
 171              	.LVL9:
 172              	.L18:
 173 001e 00BF     		.align	2
 174              	.L17:
 175 0020 00000000 		.word	.LANCHOR0
 176              		.cfi_endproc
 177              	.LFE4:
 178              		.size	capacitorVoltHandler, .-capacitorVoltHandler
 179              		.section	.text.manga_getCapacitorVoltage,"ax",%progbits
 180              		.align	2
 181              		.global	manga_getCapacitorVoltage
 182              		.thumb
 183              		.thumb_func
 184              		.type	manga_getCapacitorVoltage, %function
 185              	manga_getCapacitorVoltage:
 186              	.LFB5:
  80:can_manga_handlers.c **** }
  81:can_manga_handlers.c **** 
  82:can_manga_handlers.c **** uint8_t manga_getCapacitorVoltage()
  83:can_manga_handlers.c **** {
 187              		.loc 1 83 0
 188              		.cfi_startproc
 189              		@ args = 0, pretend = 0, frame = 0
 190              		@ frame_needed = 0, uses_anonymous_args = 0
 191              		@ link register save eliminated.
 192              	.LVL10:
  84:can_manga_handlers.c ****     uint8_t returnValue = 0;
  85:can_manga_handlers.c ****     //uint8 InterruptState = CyEnterCriticalSection();
  86:can_manga_handlers.c ****     //if (CAPACITOR_VOLT.count == 0)
  87:can_manga_handlers.c ****     //    returnValue = 0;
  88:can_manga_handlers.c ****     //else
  89:can_manga_handlers.c ****     //{
  90:can_manga_handlers.c ****         CAPACITOR_VOLT.count -= 1;
 193              		.loc 1 90 0
 194 0000 024B     		ldr	r3, .L20
 195 0002 1A69     		ldr	r2, [r3, #16]
ARM GAS  C:\Users\Schuyler\AppData\Local\Temp\ccseGwX0.s 			page 6


 196 0004 013A     		subs	r2, r2, #1
 197 0006 1A61     		str	r2, [r3, #16]
  91:can_manga_handlers.c ****         returnValue = CAPACITOR_VOLT.value;
 198              		.loc 1 91 0
 199 0008 187D     		ldrb	r0, [r3, #20]	@ zero_extendqisi2
 200              	.LVL11:
  92:can_manga_handlers.c ****     //}
  93:can_manga_handlers.c ****     //CyExitCriticalSection(InterruptState);
  94:can_manga_handlers.c ****     return returnValue;
  95:can_manga_handlers.c **** }
 201              		.loc 1 95 0
 202 000a 7047     		bx	lr
 203              	.L21:
 204              		.align	2
 205              	.L20:
 206 000c 00000000 		.word	.LANCHOR0
 207              		.cfi_endproc
 208              	.LFE5:
 209              		.size	manga_getCapacitorVoltage, .-manga_getCapacitorVoltage
 210              		.section	.text.manga_getAbsMotorRPM,"ax",%progbits
 211              		.align	2
 212              		.global	manga_getAbsMotorRPM
 213              		.thumb
 214              		.thumb_func
 215              		.type	manga_getAbsMotorRPM, %function
 216              	manga_getAbsMotorRPM:
 217              	.LFB6:
  96:can_manga_handlers.c **** 
  97:can_manga_handlers.c **** uint8_t manga_getAbsMotorRPM()
  98:can_manga_handlers.c **** {
 218              		.loc 1 98 0
 219              		.cfi_startproc
 220              		@ args = 0, pretend = 0, frame = 0
 221              		@ frame_needed = 0, uses_anonymous_args = 0
 222              		@ link register save eliminated.
 223              	.LVL12:
  99:can_manga_handlers.c ****     uint8_t returnValue = 0;
 100:can_manga_handlers.c ****     //uint8 InterruptState = CyEnterCriticalSection();
 101:can_manga_handlers.c ****     if (ABS_MOTOR_RPM.count == 0)
 224              		.loc 1 101 0
 225 0000 054B     		ldr	r3, .L25
 226 0002 9B69     		ldr	r3, [r3, #24]
 227 0004 33B1     		cbz	r3, .L24
 102:can_manga_handlers.c ****         returnValue = 0;
 103:can_manga_handlers.c ****     else
 104:can_manga_handlers.c ****     {
 105:can_manga_handlers.c ****         ABS_MOTOR_RPM.count -= 1;
 228              		.loc 1 105 0
 229 0006 044B     		ldr	r3, .L25
 230 0008 9A69     		ldr	r2, [r3, #24]
 231 000a 013A     		subs	r2, r2, #1
 232 000c 9A61     		str	r2, [r3, #24]
 106:can_manga_handlers.c ****         return ABS_MOTOR_RPM.value;
 233              		.loc 1 106 0
 234 000e 187F     		ldrb	r0, [r3, #28]	@ zero_extendqisi2
 235 0010 C0B2     		uxtb	r0, r0
 236 0012 7047     		bx	lr
ARM GAS  C:\Users\Schuyler\AppData\Local\Temp\ccseGwX0.s 			page 7


 237              	.L24:
 107:can_manga_handlers.c ****     }
 108:can_manga_handlers.c ****     //CyExitCriticalSection(InterruptState);
 109:can_manga_handlers.c ****     return returnValue;
 238              		.loc 1 109 0
 239 0014 0020     		movs	r0, #0
 110:can_manga_handlers.c **** }
 240              		.loc 1 110 0
 241 0016 7047     		bx	lr
 242              	.L26:
 243              		.align	2
 244              	.L25:
 245 0018 00000000 		.word	.LANCHOR0
 246              		.cfi_endproc
 247              	.LFE6:
 248              		.size	manga_getAbsMotorRPM, .-manga_getAbsMotorRPM
 249              		.section	.text.ackReceivedHandler,"ax",%progbits
 250              		.align	2
 251              		.global	ackReceivedHandler
 252              		.thumb
 253              		.thumb_func
 254              		.type	ackReceivedHandler, %function
 255              	ackReceivedHandler:
 256              	.LFB7:
 111:can_manga_handlers.c **** 
 112:can_manga_handlers.c **** 
 113:can_manga_handlers.c **** void ackReceivedHandler(uint8_t *msg)
 114:can_manga_handlers.c **** {
 257              		.loc 1 114 0
 258              		.cfi_startproc
 259              		@ args = 0, pretend = 0, frame = 0
 260              		@ frame_needed = 0, uses_anonymous_args = 0
 261              	.LVL13:
 262 0000 08B5     		push	{r3, lr}
 263              		.cfi_def_cfa_offset 8
 264              		.cfi_offset 3, -8
 265              		.cfi_offset 14, -4
 115:can_manga_handlers.c ****     uint8_t ackRx = msg[CAN_DATA_BYTE_1];
 266              		.loc 1 115 0
 267 0002 C178     		ldrb	r1, [r0, #3]	@ zero_extendqisi2
 268              	.LVL14:
 116:can_manga_handlers.c **** 
 117:can_manga_handlers.c ****     can_manga_message_update(&ACK_RX, ackRx);
 269              		.loc 1 117 0
 270 0004 0148     		ldr	r0, .L29
 271              	.LVL15:
 272 0006 FFF7FEFF 		bl	can_manga_message_update
 273              	.LVL16:
 274 000a 08BD     		pop	{r3, pc}
 275              	.L30:
 276              		.align	2
 277              	.L29:
 278 000c 20000000 		.word	.LANCHOR0+32
 279              		.cfi_endproc
 280              	.LFE7:
 281              		.size	ackReceivedHandler, .-ackReceivedHandler
 282              		.section	.text.manga_getAckReceive,"ax",%progbits
ARM GAS  C:\Users\Schuyler\AppData\Local\Temp\ccseGwX0.s 			page 8


 283              		.align	2
 284              		.global	manga_getAckReceive
 285              		.thumb
 286              		.thumb_func
 287              		.type	manga_getAckReceive, %function
 288              	manga_getAckReceive:
 289              	.LFB8:
 118:can_manga_handlers.c **** }
 119:can_manga_handlers.c **** 
 120:can_manga_handlers.c **** uint8_t manga_getAckReceive()
 121:can_manga_handlers.c **** {
 290              		.loc 1 121 0
 291              		.cfi_startproc
 292              		@ args = 0, pretend = 0, frame = 0
 293              		@ frame_needed = 0, uses_anonymous_args = 0
 294              		@ link register save eliminated.
 295              	.LVL17:
 122:can_manga_handlers.c ****     uint8_t returnValue = 0;
 123:can_manga_handlers.c ****     //uint8 InterruptState = CyEnterCriticalSection();
 124:can_manga_handlers.c ****     if (ACK_RX.count == 0)
 296              		.loc 1 124 0
 297 0000 064B     		ldr	r3, .L34
 298 0002 1B6A     		ldr	r3, [r3, #32]
 299 0004 3BB1     		cbz	r3, .L33
 125:can_manga_handlers.c ****         returnValue = 0;
 126:can_manga_handlers.c ****     else
 127:can_manga_handlers.c ****     {
 128:can_manga_handlers.c ****         ACK_RX.count -= 1;
 300              		.loc 1 128 0
 301 0006 054B     		ldr	r3, .L34
 302 0008 1A6A     		ldr	r2, [r3, #32]
 303 000a 013A     		subs	r2, r2, #1
 304 000c 1A62     		str	r2, [r3, #32]
 129:can_manga_handlers.c ****         return ACK_RX.value;
 305              		.loc 1 129 0
 306 000e 93F82400 		ldrb	r0, [r3, #36]	@ zero_extendqisi2
 307 0012 C0B2     		uxtb	r0, r0
 308 0014 7047     		bx	lr
 309              	.L33:
 130:can_manga_handlers.c ****     }
 131:can_manga_handlers.c ****     //CyExitCriticalSection(InterruptState);
 132:can_manga_handlers.c ****     return returnValue;
 310              		.loc 1 132 0
 311 0016 0020     		movs	r0, #0
 133:can_manga_handlers.c **** }
 312              		.loc 1 133 0
 313 0018 7047     		bx	lr
 314              	.L35:
 315 001a 00BF     		.align	2
 316              	.L34:
 317 001c 00000000 		.word	.LANCHOR0
 318              		.cfi_endproc
 319              	.LFE8:
 320              		.size	manga_getAckReceive, .-manga_getAckReceive
 321              		.section	.text.errorToleranceHandler,"ax",%progbits
 322              		.align	2
 323              		.global	errorToleranceHandler
ARM GAS  C:\Users\Schuyler\AppData\Local\Temp\ccseGwX0.s 			page 9


 324              		.thumb
 325              		.thumb_func
 326              		.type	errorToleranceHandler, %function
 327              	errorToleranceHandler:
 328              	.LFB9:
 134:can_manga_handlers.c **** 
 135:can_manga_handlers.c **** void errorToleranceHandler(uint8_t *msg)
 136:can_manga_handlers.c **** {
 329              		.loc 1 136 0
 330              		.cfi_startproc
 331              		@ args = 0, pretend = 0, frame = 0
 332              		@ frame_needed = 0, uses_anonymous_args = 0
 333              	.LVL18:
 334 0000 08B5     		push	{r3, lr}
 335              		.cfi_def_cfa_offset 8
 336              		.cfi_offset 3, -8
 337              		.cfi_offset 14, -4
 137:can_manga_handlers.c ****     uint8_t errotTolerance = msg[CAN_DATA_BYTE_1];
 338              		.loc 1 137 0
 339 0002 C178     		ldrb	r1, [r0, #3]	@ zero_extendqisi2
 340              	.LVL19:
 138:can_manga_handlers.c **** 
 139:can_manga_handlers.c ****     can_manga_message_update(&ERROR_TOLERANCE, errotTolerance);
 341              		.loc 1 139 0
 342 0004 0148     		ldr	r0, .L38
 343              	.LVL20:
 344 0006 FFF7FEFF 		bl	can_manga_message_update
 345              	.LVL21:
 346 000a 08BD     		pop	{r3, pc}
 347              	.L39:
 348              		.align	2
 349              	.L38:
 350 000c 28000000 		.word	.LANCHOR0+40
 351              		.cfi_endproc
 352              	.LFE9:
 353              		.size	errorToleranceHandler, .-errorToleranceHandler
 354              		.section	.text.manga_getErrorTolerance,"ax",%progbits
 355              		.align	2
 356              		.global	manga_getErrorTolerance
 357              		.thumb
 358              		.thumb_func
 359              		.type	manga_getErrorTolerance, %function
 360              	manga_getErrorTolerance:
 361              	.LFB10:
 140:can_manga_handlers.c **** }
 141:can_manga_handlers.c **** 
 142:can_manga_handlers.c **** uint8_t manga_getErrorTolerance()
 143:can_manga_handlers.c **** {
 362              		.loc 1 143 0
 363              		.cfi_startproc
 364              		@ args = 0, pretend = 0, frame = 0
 365              		@ frame_needed = 0, uses_anonymous_args = 0
 366              		@ link register save eliminated.
 367              	.LVL22:
 144:can_manga_handlers.c ****     uint8_t returnValue = 0;
 145:can_manga_handlers.c ****     //uint8 InterruptState = CyEnterCriticalSection();
 146:can_manga_handlers.c ****     if (ERROR_TOLERANCE.count == 0)
ARM GAS  C:\Users\Schuyler\AppData\Local\Temp\ccseGwX0.s 			page 10


 368              		.loc 1 146 0
 369 0000 064B     		ldr	r3, .L43
 370 0002 9B6A     		ldr	r3, [r3, #40]
 371 0004 3BB1     		cbz	r3, .L42
 147:can_manga_handlers.c ****         returnValue = 0;
 148:can_manga_handlers.c ****     else
 149:can_manga_handlers.c ****     {
 150:can_manga_handlers.c ****         ERROR_TOLERANCE.count -= 1;
 372              		.loc 1 150 0
 373 0006 054B     		ldr	r3, .L43
 374 0008 9A6A     		ldr	r2, [r3, #40]
 375 000a 013A     		subs	r2, r2, #1
 376 000c 9A62     		str	r2, [r3, #40]
 151:can_manga_handlers.c ****         return ERROR_TOLERANCE.value;
 377              		.loc 1 151 0
 378 000e 93F82C00 		ldrb	r0, [r3, #44]	@ zero_extendqisi2
 379 0012 C0B2     		uxtb	r0, r0
 380 0014 7047     		bx	lr
 381              	.L42:
 152:can_manga_handlers.c ****     }
 153:can_manga_handlers.c ****     //CyExitCriticalSection(InterruptState);
 154:can_manga_handlers.c ****     return returnValue;
 382              		.loc 1 154 0
 383 0016 0020     		movs	r0, #0
 155:can_manga_handlers.c **** }
 384              		.loc 1 155 0
 385 0018 7047     		bx	lr
 386              	.L44:
 387 001a 00BF     		.align	2
 388              	.L43:
 389 001c 00000000 		.word	.LANCHOR0
 390              		.cfi_endproc
 391              	.LFE10:
 392              		.size	manga_getErrorTolerance, .-manga_getErrorTolerance
 393              		.section	.text.throttleHandler,"ax",%progbits
 394              		.align	2
 395              		.global	throttleHandler
 396              		.thumb
 397              		.thumb_func
 398              		.type	throttleHandler, %function
 399              	throttleHandler:
 400              	.LFB11:
 156:can_manga_handlers.c **** 
 157:can_manga_handlers.c **** void throttleHandler(uint8_t *msg)
 158:can_manga_handlers.c **** {
 401              		.loc 1 158 0
 402              		.cfi_startproc
 403              		@ args = 0, pretend = 0, frame = 0
 404              		@ frame_needed = 0, uses_anonymous_args = 0
 405              		@ link register save eliminated.
 406              	.LVL23:
 159:can_manga_handlers.c ****     uint8_t throttleHigh = msg[CAN_DATA_BYTE_2];
 407              		.loc 1 159 0
 408 0000 8178     		ldrb	r1, [r0, #2]	@ zero_extendqisi2
 409              	.LVL24:
 160:can_manga_handlers.c ****     uint8_t throttleLow = msg[CAN_DATA_BYTE_3];
 410              		.loc 1 160 0
ARM GAS  C:\Users\Schuyler\AppData\Local\Temp\ccseGwX0.s 			page 11


 411 0002 4278     		ldrb	r2, [r0, #1]	@ zero_extendqisi2
 412              	.LVL25:
 161:can_manga_handlers.c ****     
 162:can_manga_handlers.c ****     //can_manga_message_update(&THROTTLE_HIGH, throttleHigh);
 163:can_manga_handlers.c ****     //can_manga_message_update(&THROTTLE_LOW, throttleLow);
 164:can_manga_handlers.c ****     THROTTLE_HIGH.value = throttleHigh;
 413              		.loc 1 164 0
 414 0004 014B     		ldr	r3, .L46
 415 0006 1971     		strb	r1, [r3, #4]
 165:can_manga_handlers.c ****     THROTTLE_LOW.value = throttleLow;
 416              		.loc 1 165 0
 417 0008 1A73     		strb	r2, [r3, #12]
 418 000a 7047     		bx	lr
 419              	.L47:
 420              		.align	2
 421              	.L46:
 422 000c 00000000 		.word	.LANCHOR1
 423              		.cfi_endproc
 424              	.LFE11:
 425              		.size	throttleHandler, .-throttleHandler
 426              		.section	.text.manga_getThrottleLow,"ax",%progbits
 427              		.align	2
 428              		.global	manga_getThrottleLow
 429              		.thumb
 430              		.thumb_func
 431              		.type	manga_getThrottleLow, %function
 432              	manga_getThrottleLow:
 433              	.LFB12:
 166:can_manga_handlers.c ****     
 167:can_manga_handlers.c **** }
 168:can_manga_handlers.c **** 
 169:can_manga_handlers.c **** uint8_t manga_getThrottleLow()
 170:can_manga_handlers.c **** {
 434              		.loc 1 170 0
 435              		.cfi_startproc
 436              		@ args = 0, pretend = 0, frame = 0
 437              		@ frame_needed = 0, uses_anonymous_args = 0
 438              		@ link register save eliminated.
 439              	.LVL26:
 171:can_manga_handlers.c ****     uint8_t returnValue = 0;
 172:can_manga_handlers.c ****     //uint8 InterruptState = CyEnterCriticalSection();
 173:can_manga_handlers.c ****     //if (THROTTLE_LOW.count == 0)
 174:can_manga_handlers.c ****     //    returnValue = 0;
 175:can_manga_handlers.c ****     //else
 176:can_manga_handlers.c ****     //{
 177:can_manga_handlers.c ****         THROTTLE_LOW.count -= 1;
 440              		.loc 1 177 0
 441 0000 024B     		ldr	r3, .L49
 442 0002 9A68     		ldr	r2, [r3, #8]
 443 0004 013A     		subs	r2, r2, #1
 444 0006 9A60     		str	r2, [r3, #8]
 178:can_manga_handlers.c ****         return THROTTLE_LOW.value;
 445              		.loc 1 178 0
 446 0008 187B     		ldrb	r0, [r3, #12]	@ zero_extendqisi2
 179:can_manga_handlers.c ****     //}
 180:can_manga_handlers.c ****     //CyExitCriticalSection(InterruptState);
 181:can_manga_handlers.c ****     //return returnValue;
ARM GAS  C:\Users\Schuyler\AppData\Local\Temp\ccseGwX0.s 			page 12


 182:can_manga_handlers.c **** }
 447              		.loc 1 182 0
 448 000a 7047     		bx	lr
 449              	.L50:
 450              		.align	2
 451              	.L49:
 452 000c 00000000 		.word	.LANCHOR1
 453              		.cfi_endproc
 454              	.LFE12:
 455              		.size	manga_getThrottleLow, .-manga_getThrottleLow
 456              		.section	.text.manga_getThrottleHigh,"ax",%progbits
 457              		.align	2
 458              		.global	manga_getThrottleHigh
 459              		.thumb
 460              		.thumb_func
 461              		.type	manga_getThrottleHigh, %function
 462              	manga_getThrottleHigh:
 463              	.LFB13:
 183:can_manga_handlers.c **** 
 184:can_manga_handlers.c **** uint8_t manga_getThrottleHigh()
 185:can_manga_handlers.c **** {
 464              		.loc 1 185 0
 465              		.cfi_startproc
 466              		@ args = 0, pretend = 0, frame = 0
 467              		@ frame_needed = 0, uses_anonymous_args = 0
 468              		@ link register save eliminated.
 469              	.LVL27:
 186:can_manga_handlers.c ****     uint8_t returnValue = 0;
 187:can_manga_handlers.c ****     //uint8 InterruptState = CyEnterCriticalSection();
 188:can_manga_handlers.c ****     //if (THROTTLE_HIGH.count == 0)
 189:can_manga_handlers.c ****     //    returnValue = 0;
 190:can_manga_handlers.c ****     //else
 191:can_manga_handlers.c ****     //{
 192:can_manga_handlers.c ****         THROTTLE_HIGH.count -= 1;
 470              		.loc 1 192 0
 471 0000 024B     		ldr	r3, .L52
 472 0002 1A68     		ldr	r2, [r3]
 473 0004 013A     		subs	r2, r2, #1
 474 0006 1A60     		str	r2, [r3]
 193:can_manga_handlers.c ****         return THROTTLE_HIGH.value;
 475              		.loc 1 193 0
 476 0008 1879     		ldrb	r0, [r3, #4]	@ zero_extendqisi2
 194:can_manga_handlers.c ****     //}
 195:can_manga_handlers.c ****     //CyExitCriticalSection(InterruptState);
 196:can_manga_handlers.c ****     //return returnValue;
 197:can_manga_handlers.c **** }
 477              		.loc 1 197 0
 478 000a 7047     		bx	lr
 479              	.L53:
 480              		.align	2
 481              	.L52:
 482 000c 00000000 		.word	.LANCHOR1
 483              		.cfi_endproc
 484              	.LFE13:
 485              		.size	manga_getThrottleHigh, .-manga_getThrottleHigh
 486              		.global	THROTTLE_LOW
 487              		.global	THROTTLE_HIGH
ARM GAS  C:\Users\Schuyler\AppData\Local\Temp\ccseGwX0.s 			page 13


 488              		.global	ABS_MOTOR_RPM
 489              		.global	ERROR_TOLERANCE
 490              		.global	ACK_RX
 491              		.global	CURTIS_HEART_BEAT_CHECK
 492              		.global	CURTIS_FAULT_CHECK
 493              		.global	CAPACITOR_VOLT
 494              		.data
 495              		.align	2
 496              		.set	.LANCHOR1,. + 0
 497              		.type	THROTTLE_HIGH, %object
 498              		.size	THROTTLE_HIGH, 8
 499              	THROTTLE_HIGH:
 500 0000 05000000 		.word	5
 501 0004 05       		.byte	5
 502 0005 000000   		.space	3
 503              		.type	THROTTLE_LOW, %object
 504              		.size	THROTTLE_LOW, 8
 505              	THROTTLE_LOW:
 506 0008 05000000 		.word	5
 507 000c 05       		.byte	5
 508 000d 000000   		.space	3
 509              		.bss
 510              		.align	2
 511              		.set	.LANCHOR0,. + 0
 512              		.type	CURTIS_FAULT_CHECK, %object
 513              		.size	CURTIS_FAULT_CHECK, 8
 514              	CURTIS_FAULT_CHECK:
 515 0000 00000000 		.space	8
 515      00000000 
 516              		.type	CURTIS_HEART_BEAT_CHECK, %object
 517              		.size	CURTIS_HEART_BEAT_CHECK, 8
 518              	CURTIS_HEART_BEAT_CHECK:
 519 0008 00000000 		.space	8
 519      00000000 
 520              		.type	CAPACITOR_VOLT, %object
 521              		.size	CAPACITOR_VOLT, 8
 522              	CAPACITOR_VOLT:
 523 0010 00000000 		.space	8
 523      00000000 
 524              		.type	ABS_MOTOR_RPM, %object
 525              		.size	ABS_MOTOR_RPM, 8
 526              	ABS_MOTOR_RPM:
 527 0018 00000000 		.space	8
 527      00000000 
 528              		.type	ACK_RX, %object
 529              		.size	ACK_RX, 8
 530              	ACK_RX:
 531 0020 00000000 		.space	8
 531      00000000 
 532              		.type	ERROR_TOLERANCE, %object
 533              		.size	ERROR_TOLERANCE, 8
 534              	ERROR_TOLERANCE:
 535 0028 00000000 		.space	8
 535      00000000 
 536              		.text
 537              	.Letext0:
 538              		.file 2 "c:\\program files (x86)\\cypress\\psoc creator\\4.0\\psoc creator\\import\\gnu\\arm\\4.9.
ARM GAS  C:\Users\Schuyler\AppData\Local\Temp\ccseGwX0.s 			page 14


 539              		.file 3 "c:\\program files (x86)\\cypress\\psoc creator\\4.0\\psoc creator\\import\\gnu\\arm\\4.9.
 540              		.file 4 "can_manga.h"