ARM GAS  C:\Users\Schuyler\AppData\Local\Temp\ccCIto3t.s 			page 1


   1              		.syntax unified
   2              		.cpu cortex-m3
   3              		.fpu softvfp
   4              		.eabi_attribute 20, 1
   5              		.eabi_attribute 21, 1
   6              		.eabi_attribute 23, 3
   7              		.eabi_attribute 24, 1
   8              		.eabi_attribute 25, 1
   9              		.eabi_attribute 26, 1
  10              		.eabi_attribute 30, 1
  11              		.eabi_attribute 34, 1
  12              		.eabi_attribute 18, 4
  13              		.thumb
  14              		.file	"isr_pedalok.c"
  15              		.text
  16              	.Ltext0:
  17              		.cfi_sections	.debug_frame
  18              		.section	.text.isr_pedalok_Interrupt,"ax",%progbits
  19              		.align	2
  20              		.global	isr_pedalok_Interrupt
  21              		.thumb
  22              		.thumb_func
  23              		.type	isr_pedalok_Interrupt, %function
  24              	isr_pedalok_Interrupt:
  25              	.LFB3:
  26              		.file 1 "Generated_Source\\PSoC5\\isr_pedalok.c"
   1:Generated_Source\PSoC5/isr_pedalok.c **** /*******************************************************************************
   2:Generated_Source\PSoC5/isr_pedalok.c **** * File Name: isr_pedalok.c  
   3:Generated_Source\PSoC5/isr_pedalok.c **** * Version 1.70
   4:Generated_Source\PSoC5/isr_pedalok.c **** *
   5:Generated_Source\PSoC5/isr_pedalok.c **** *  Description:
   6:Generated_Source\PSoC5/isr_pedalok.c **** *   API for controlling the state of an interrupt.
   7:Generated_Source\PSoC5/isr_pedalok.c **** *
   8:Generated_Source\PSoC5/isr_pedalok.c **** *
   9:Generated_Source\PSoC5/isr_pedalok.c **** *  Note:
  10:Generated_Source\PSoC5/isr_pedalok.c **** *
  11:Generated_Source\PSoC5/isr_pedalok.c **** ********************************************************************************
  12:Generated_Source\PSoC5/isr_pedalok.c **** * Copyright 2008-2015, Cypress Semiconductor Corporation.  All rights reserved.
  13:Generated_Source\PSoC5/isr_pedalok.c **** * You may use this file only in accordance with the license, terms, conditions, 
  14:Generated_Source\PSoC5/isr_pedalok.c **** * disclaimers, and limitations in the end user license agreement accompanying 
  15:Generated_Source\PSoC5/isr_pedalok.c **** * the software package with which this file was provided.
  16:Generated_Source\PSoC5/isr_pedalok.c **** *******************************************************************************/
  17:Generated_Source\PSoC5/isr_pedalok.c **** 
  18:Generated_Source\PSoC5/isr_pedalok.c **** 
  19:Generated_Source\PSoC5/isr_pedalok.c **** #include <cydevice_trm.h>
  20:Generated_Source\PSoC5/isr_pedalok.c **** #include <CyLib.h>
  21:Generated_Source\PSoC5/isr_pedalok.c **** #include <isr_pedalok.h>
  22:Generated_Source\PSoC5/isr_pedalok.c **** #include "cyapicallbacks.h"
  23:Generated_Source\PSoC5/isr_pedalok.c **** 
  24:Generated_Source\PSoC5/isr_pedalok.c **** #if !defined(isr_pedalok__REMOVED) /* Check for removal by optimization */
  25:Generated_Source\PSoC5/isr_pedalok.c **** 
  26:Generated_Source\PSoC5/isr_pedalok.c **** /*******************************************************************************
  27:Generated_Source\PSoC5/isr_pedalok.c **** *  Place your includes, defines and code here 
  28:Generated_Source\PSoC5/isr_pedalok.c **** ********************************************************************************/
  29:Generated_Source\PSoC5/isr_pedalok.c **** /* `#START isr_pedalok_intc` */
  30:Generated_Source\PSoC5/isr_pedalok.c **** #include "Pedal_Timer.h"
  31:Generated_Source\PSoC5/isr_pedalok.c **** extern volatile uint32_t pedalOK;
ARM GAS  C:\Users\Schuyler\AppData\Local\Temp\ccCIto3t.s 			page 2


  32:Generated_Source\PSoC5/isr_pedalok.c **** /* `#END` */
  33:Generated_Source\PSoC5/isr_pedalok.c **** 
  34:Generated_Source\PSoC5/isr_pedalok.c **** #ifndef CYINT_IRQ_BASE
  35:Generated_Source\PSoC5/isr_pedalok.c **** #define CYINT_IRQ_BASE      16
  36:Generated_Source\PSoC5/isr_pedalok.c **** #endif /* CYINT_IRQ_BASE */
  37:Generated_Source\PSoC5/isr_pedalok.c **** #ifndef CYINT_VECT_TABLE
  38:Generated_Source\PSoC5/isr_pedalok.c **** #define CYINT_VECT_TABLE    ((cyisraddress **) CYREG_NVIC_VECT_OFFSET)
  39:Generated_Source\PSoC5/isr_pedalok.c **** #endif /* CYINT_VECT_TABLE */
  40:Generated_Source\PSoC5/isr_pedalok.c **** 
  41:Generated_Source\PSoC5/isr_pedalok.c **** /* Declared in startup, used to set unused interrupts to. */
  42:Generated_Source\PSoC5/isr_pedalok.c **** CY_ISR_PROTO(IntDefaultHandler);
  43:Generated_Source\PSoC5/isr_pedalok.c **** 
  44:Generated_Source\PSoC5/isr_pedalok.c **** 
  45:Generated_Source\PSoC5/isr_pedalok.c **** /*******************************************************************************
  46:Generated_Source\PSoC5/isr_pedalok.c **** * Function Name: isr_pedalok_Start
  47:Generated_Source\PSoC5/isr_pedalok.c **** ********************************************************************************
  48:Generated_Source\PSoC5/isr_pedalok.c **** *
  49:Generated_Source\PSoC5/isr_pedalok.c **** * Summary:
  50:Generated_Source\PSoC5/isr_pedalok.c **** *  Set up the interrupt and enable it. This function disables the interrupt, 
  51:Generated_Source\PSoC5/isr_pedalok.c **** *  sets the default interrupt vector, sets the priority from the value in the
  52:Generated_Source\PSoC5/isr_pedalok.c **** *  Design Wide Resources Interrupt Editor, then enables the interrupt to the 
  53:Generated_Source\PSoC5/isr_pedalok.c **** *  interrupt controller.
  54:Generated_Source\PSoC5/isr_pedalok.c **** *
  55:Generated_Source\PSoC5/isr_pedalok.c **** * Parameters:  
  56:Generated_Source\PSoC5/isr_pedalok.c **** *   None
  57:Generated_Source\PSoC5/isr_pedalok.c **** *
  58:Generated_Source\PSoC5/isr_pedalok.c **** * Return:
  59:Generated_Source\PSoC5/isr_pedalok.c **** *   None
  60:Generated_Source\PSoC5/isr_pedalok.c **** *
  61:Generated_Source\PSoC5/isr_pedalok.c **** *******************************************************************************/
  62:Generated_Source\PSoC5/isr_pedalok.c **** void isr_pedalok_Start(void)
  63:Generated_Source\PSoC5/isr_pedalok.c **** {
  64:Generated_Source\PSoC5/isr_pedalok.c ****     /* For all we know the interrupt is active. */
  65:Generated_Source\PSoC5/isr_pedalok.c ****     isr_pedalok_Disable();
  66:Generated_Source\PSoC5/isr_pedalok.c **** 
  67:Generated_Source\PSoC5/isr_pedalok.c ****     /* Set the ISR to point to the isr_pedalok Interrupt. */
  68:Generated_Source\PSoC5/isr_pedalok.c ****     isr_pedalok_SetVector(&isr_pedalok_Interrupt);
  69:Generated_Source\PSoC5/isr_pedalok.c **** 
  70:Generated_Source\PSoC5/isr_pedalok.c ****     /* Set the priority. */
  71:Generated_Source\PSoC5/isr_pedalok.c ****     isr_pedalok_SetPriority((uint8)isr_pedalok_INTC_PRIOR_NUMBER);
  72:Generated_Source\PSoC5/isr_pedalok.c **** 
  73:Generated_Source\PSoC5/isr_pedalok.c ****     /* Enable it. */
  74:Generated_Source\PSoC5/isr_pedalok.c ****     isr_pedalok_Enable();
  75:Generated_Source\PSoC5/isr_pedalok.c **** }
  76:Generated_Source\PSoC5/isr_pedalok.c **** 
  77:Generated_Source\PSoC5/isr_pedalok.c **** 
  78:Generated_Source\PSoC5/isr_pedalok.c **** /*******************************************************************************
  79:Generated_Source\PSoC5/isr_pedalok.c **** * Function Name: isr_pedalok_StartEx
  80:Generated_Source\PSoC5/isr_pedalok.c **** ********************************************************************************
  81:Generated_Source\PSoC5/isr_pedalok.c **** *
  82:Generated_Source\PSoC5/isr_pedalok.c **** * Summary:
  83:Generated_Source\PSoC5/isr_pedalok.c **** *  Sets up the interrupt and enables it. This function disables the interrupt,
  84:Generated_Source\PSoC5/isr_pedalok.c **** *  sets the interrupt vector based on the address passed in, sets the priority 
  85:Generated_Source\PSoC5/isr_pedalok.c **** *  from the value in the Design Wide Resources Interrupt Editor, then enables 
  86:Generated_Source\PSoC5/isr_pedalok.c **** *  the interrupt to the interrupt controller.
  87:Generated_Source\PSoC5/isr_pedalok.c **** *  
  88:Generated_Source\PSoC5/isr_pedalok.c **** *  When defining ISR functions, the CY_ISR and CY_ISR_PROTO macros should be 
ARM GAS  C:\Users\Schuyler\AppData\Local\Temp\ccCIto3t.s 			page 3


  89:Generated_Source\PSoC5/isr_pedalok.c **** *  used to provide consistent definition across compilers:
  90:Generated_Source\PSoC5/isr_pedalok.c **** *  
  91:Generated_Source\PSoC5/isr_pedalok.c **** *  Function definition example:
  92:Generated_Source\PSoC5/isr_pedalok.c **** *   CY_ISR(MyISR)
  93:Generated_Source\PSoC5/isr_pedalok.c **** *   {
  94:Generated_Source\PSoC5/isr_pedalok.c **** *   }
  95:Generated_Source\PSoC5/isr_pedalok.c **** *   Function prototype example:
  96:Generated_Source\PSoC5/isr_pedalok.c **** *   CY_ISR_PROTO(MyISR);
  97:Generated_Source\PSoC5/isr_pedalok.c **** *
  98:Generated_Source\PSoC5/isr_pedalok.c **** * Parameters:  
  99:Generated_Source\PSoC5/isr_pedalok.c **** *   address: Address of the ISR to set in the interrupt vector table.
 100:Generated_Source\PSoC5/isr_pedalok.c **** *
 101:Generated_Source\PSoC5/isr_pedalok.c **** * Return:
 102:Generated_Source\PSoC5/isr_pedalok.c **** *   None
 103:Generated_Source\PSoC5/isr_pedalok.c **** *
 104:Generated_Source\PSoC5/isr_pedalok.c **** *******************************************************************************/
 105:Generated_Source\PSoC5/isr_pedalok.c **** void isr_pedalok_StartEx(cyisraddress address)
 106:Generated_Source\PSoC5/isr_pedalok.c **** {
 107:Generated_Source\PSoC5/isr_pedalok.c ****     /* For all we know the interrupt is active. */
 108:Generated_Source\PSoC5/isr_pedalok.c ****     isr_pedalok_Disable();
 109:Generated_Source\PSoC5/isr_pedalok.c **** 
 110:Generated_Source\PSoC5/isr_pedalok.c ****     /* Set the ISR to point to the isr_pedalok Interrupt. */
 111:Generated_Source\PSoC5/isr_pedalok.c ****     isr_pedalok_SetVector(address);
 112:Generated_Source\PSoC5/isr_pedalok.c **** 
 113:Generated_Source\PSoC5/isr_pedalok.c ****     /* Set the priority. */
 114:Generated_Source\PSoC5/isr_pedalok.c ****     isr_pedalok_SetPriority((uint8)isr_pedalok_INTC_PRIOR_NUMBER);
 115:Generated_Source\PSoC5/isr_pedalok.c **** 
 116:Generated_Source\PSoC5/isr_pedalok.c ****     /* Enable it. */
 117:Generated_Source\PSoC5/isr_pedalok.c ****     isr_pedalok_Enable();
 118:Generated_Source\PSoC5/isr_pedalok.c **** }
 119:Generated_Source\PSoC5/isr_pedalok.c **** 
 120:Generated_Source\PSoC5/isr_pedalok.c **** 
 121:Generated_Source\PSoC5/isr_pedalok.c **** /*******************************************************************************
 122:Generated_Source\PSoC5/isr_pedalok.c **** * Function Name: isr_pedalok_Stop
 123:Generated_Source\PSoC5/isr_pedalok.c **** ********************************************************************************
 124:Generated_Source\PSoC5/isr_pedalok.c **** *
 125:Generated_Source\PSoC5/isr_pedalok.c **** * Summary:
 126:Generated_Source\PSoC5/isr_pedalok.c **** *   Disables and removes the interrupt.
 127:Generated_Source\PSoC5/isr_pedalok.c **** *
 128:Generated_Source\PSoC5/isr_pedalok.c **** * Parameters:  
 129:Generated_Source\PSoC5/isr_pedalok.c **** *   None
 130:Generated_Source\PSoC5/isr_pedalok.c **** *
 131:Generated_Source\PSoC5/isr_pedalok.c **** * Return:
 132:Generated_Source\PSoC5/isr_pedalok.c **** *   None
 133:Generated_Source\PSoC5/isr_pedalok.c **** *
 134:Generated_Source\PSoC5/isr_pedalok.c **** *******************************************************************************/
 135:Generated_Source\PSoC5/isr_pedalok.c **** void isr_pedalok_Stop(void)
 136:Generated_Source\PSoC5/isr_pedalok.c **** {
 137:Generated_Source\PSoC5/isr_pedalok.c ****     /* Disable this interrupt. */
 138:Generated_Source\PSoC5/isr_pedalok.c ****     isr_pedalok_Disable();
 139:Generated_Source\PSoC5/isr_pedalok.c **** 
 140:Generated_Source\PSoC5/isr_pedalok.c ****     /* Set the ISR to point to the passive one. */
 141:Generated_Source\PSoC5/isr_pedalok.c ****     isr_pedalok_SetVector(&IntDefaultHandler);
 142:Generated_Source\PSoC5/isr_pedalok.c **** }
 143:Generated_Source\PSoC5/isr_pedalok.c **** 
 144:Generated_Source\PSoC5/isr_pedalok.c **** 
 145:Generated_Source\PSoC5/isr_pedalok.c **** /*******************************************************************************
ARM GAS  C:\Users\Schuyler\AppData\Local\Temp\ccCIto3t.s 			page 4


 146:Generated_Source\PSoC5/isr_pedalok.c **** * Function Name: isr_pedalok_Interrupt
 147:Generated_Source\PSoC5/isr_pedalok.c **** ********************************************************************************
 148:Generated_Source\PSoC5/isr_pedalok.c **** *
 149:Generated_Source\PSoC5/isr_pedalok.c **** * Summary:
 150:Generated_Source\PSoC5/isr_pedalok.c **** *   The default Interrupt Service Routine for isr_pedalok.
 151:Generated_Source\PSoC5/isr_pedalok.c **** *
 152:Generated_Source\PSoC5/isr_pedalok.c **** *   Add custom code between the coments to keep the next version of this file
 153:Generated_Source\PSoC5/isr_pedalok.c **** *   from over writting your code.
 154:Generated_Source\PSoC5/isr_pedalok.c **** *
 155:Generated_Source\PSoC5/isr_pedalok.c **** * Parameters:  
 156:Generated_Source\PSoC5/isr_pedalok.c **** *
 157:Generated_Source\PSoC5/isr_pedalok.c **** * Return:
 158:Generated_Source\PSoC5/isr_pedalok.c **** *   None
 159:Generated_Source\PSoC5/isr_pedalok.c **** *
 160:Generated_Source\PSoC5/isr_pedalok.c **** *******************************************************************************/
 161:Generated_Source\PSoC5/isr_pedalok.c **** CY_ISR(isr_pedalok_Interrupt)
 162:Generated_Source\PSoC5/isr_pedalok.c **** {
  27              		.loc 1 162 0
  28              		.cfi_startproc
  29              		@ args = 0, pretend = 0, frame = 0
  30              		@ frame_needed = 0, uses_anonymous_args = 0
  31 0000 10B5     		push	{r4, lr}
  32              		.cfi_def_cfa_offset 8
  33              		.cfi_offset 4, -8
  34              		.cfi_offset 14, -4
 163:Generated_Source\PSoC5/isr_pedalok.c ****     #ifdef isr_pedalok_INTERRUPT_INTERRUPT_CALLBACK
 164:Generated_Source\PSoC5/isr_pedalok.c ****         isr_pedalok_Interrupt_InterruptCallback();
 165:Generated_Source\PSoC5/isr_pedalok.c ****     #endif /* isr_pedalok_INTERRUPT_INTERRUPT_CALLBACK */ 
 166:Generated_Source\PSoC5/isr_pedalok.c **** 
 167:Generated_Source\PSoC5/isr_pedalok.c ****     /*  Place your Interrupt code here. */
 168:Generated_Source\PSoC5/isr_pedalok.c ****     /* `#START isr_pedalok_Interrupt` */
 169:Generated_Source\PSoC5/isr_pedalok.c ****     uint8 InterruptState = CyEnterCriticalSection();
  35              		.loc 1 169 0
  36 0002 FFF7FEFF 		bl	CyEnterCriticalSection
  37              	.LVL0:
  38 0006 0446     		mov	r4, r0
  39              	.LVL1:
 170:Generated_Source\PSoC5/isr_pedalok.c ****     pedalOK++;
  40              		.loc 1 170 0
  41 0008 044A     		ldr	r2, .L3
  42 000a 1368     		ldr	r3, [r2]
  43 000c 0133     		adds	r3, r3, #1
  44 000e 1360     		str	r3, [r2]
 171:Generated_Source\PSoC5/isr_pedalok.c ****     Pedal_Timer_ReadStatusRegister();
  45              		.loc 1 171 0
  46 0010 FFF7FEFF 		bl	Pedal_Timer_ReadStatusRegister
  47              	.LVL2:
 172:Generated_Source\PSoC5/isr_pedalok.c ****     CyExitCriticalSection(InterruptState);
  48              		.loc 1 172 0
  49 0014 2046     		mov	r0, r4
  50 0016 FFF7FEFF 		bl	CyExitCriticalSection
  51              	.LVL3:
  52 001a 10BD     		pop	{r4, pc}
  53              	.LVL4:
  54              	.L4:
  55              		.align	2
  56              	.L3:
ARM GAS  C:\Users\Schuyler\AppData\Local\Temp\ccCIto3t.s 			page 5


  57 001c 00000000 		.word	pedalOK
  58              		.cfi_endproc
  59              	.LFE3:
  60              		.size	isr_pedalok_Interrupt, .-isr_pedalok_Interrupt
  61              		.section	.text.isr_pedalok_SetVector,"ax",%progbits
  62              		.align	2
  63              		.global	isr_pedalok_SetVector
  64              		.thumb
  65              		.thumb_func
  66              		.type	isr_pedalok_SetVector, %function
  67              	isr_pedalok_SetVector:
  68              	.LFB4:
 173:Generated_Source\PSoC5/isr_pedalok.c ****     /* `#END` */
 174:Generated_Source\PSoC5/isr_pedalok.c **** }
 175:Generated_Source\PSoC5/isr_pedalok.c **** 
 176:Generated_Source\PSoC5/isr_pedalok.c **** 
 177:Generated_Source\PSoC5/isr_pedalok.c **** /*******************************************************************************
 178:Generated_Source\PSoC5/isr_pedalok.c **** * Function Name: isr_pedalok_SetVector
 179:Generated_Source\PSoC5/isr_pedalok.c **** ********************************************************************************
 180:Generated_Source\PSoC5/isr_pedalok.c **** *
 181:Generated_Source\PSoC5/isr_pedalok.c **** * Summary:
 182:Generated_Source\PSoC5/isr_pedalok.c **** *   Change the ISR vector for the Interrupt. Note calling isr_pedalok_Start
 183:Generated_Source\PSoC5/isr_pedalok.c **** *   will override any effect this method would have had. To set the vector 
 184:Generated_Source\PSoC5/isr_pedalok.c **** *   before the component has been started use isr_pedalok_StartEx instead.
 185:Generated_Source\PSoC5/isr_pedalok.c **** * 
 186:Generated_Source\PSoC5/isr_pedalok.c **** *   When defining ISR functions, the CY_ISR and CY_ISR_PROTO macros should be 
 187:Generated_Source\PSoC5/isr_pedalok.c **** *   used to provide consistent definition across compilers:
 188:Generated_Source\PSoC5/isr_pedalok.c **** *
 189:Generated_Source\PSoC5/isr_pedalok.c **** *   Function definition example:
 190:Generated_Source\PSoC5/isr_pedalok.c **** *   CY_ISR(MyISR)
 191:Generated_Source\PSoC5/isr_pedalok.c **** *   {
 192:Generated_Source\PSoC5/isr_pedalok.c **** *   }
 193:Generated_Source\PSoC5/isr_pedalok.c **** *
 194:Generated_Source\PSoC5/isr_pedalok.c **** *   Function prototype example:
 195:Generated_Source\PSoC5/isr_pedalok.c **** *     CY_ISR_PROTO(MyISR);
 196:Generated_Source\PSoC5/isr_pedalok.c **** *
 197:Generated_Source\PSoC5/isr_pedalok.c **** * Parameters:
 198:Generated_Source\PSoC5/isr_pedalok.c **** *   address: Address of the ISR to set in the interrupt vector table.
 199:Generated_Source\PSoC5/isr_pedalok.c **** *
 200:Generated_Source\PSoC5/isr_pedalok.c **** * Return:
 201:Generated_Source\PSoC5/isr_pedalok.c **** *   None
 202:Generated_Source\PSoC5/isr_pedalok.c **** *
 203:Generated_Source\PSoC5/isr_pedalok.c **** *******************************************************************************/
 204:Generated_Source\PSoC5/isr_pedalok.c **** void isr_pedalok_SetVector(cyisraddress address)
 205:Generated_Source\PSoC5/isr_pedalok.c **** {
  69              		.loc 1 205 0
  70              		.cfi_startproc
  71              		@ args = 0, pretend = 0, frame = 0
  72              		@ frame_needed = 0, uses_anonymous_args = 0
  73              		@ link register save eliminated.
  74              	.LVL5:
 206:Generated_Source\PSoC5/isr_pedalok.c ****     cyisraddress * ramVectorTable;
 207:Generated_Source\PSoC5/isr_pedalok.c **** 
 208:Generated_Source\PSoC5/isr_pedalok.c ****     ramVectorTable = (cyisraddress *) *CYINT_VECT_TABLE;
  75              		.loc 1 208 0
  76 0000 014B     		ldr	r3, .L6
  77 0002 1B68     		ldr	r3, [r3]
ARM GAS  C:\Users\Schuyler\AppData\Local\Temp\ccCIto3t.s 			page 6


  78              	.LVL6:
 209:Generated_Source\PSoC5/isr_pedalok.c **** 
 210:Generated_Source\PSoC5/isr_pedalok.c ****     ramVectorTable[CYINT_IRQ_BASE + (uint32)isr_pedalok__INTC_NUMBER] = address;
  79              		.loc 1 210 0
  80 0004 5864     		str	r0, [r3, #68]
  81 0006 7047     		bx	lr
  82              	.L7:
  83              		.align	2
  84              	.L6:
  85 0008 08ED00E0 		.word	-536810232
  86              		.cfi_endproc
  87              	.LFE4:
  88              		.size	isr_pedalok_SetVector, .-isr_pedalok_SetVector
  89              		.section	.text.isr_pedalok_GetVector,"ax",%progbits
  90              		.align	2
  91              		.global	isr_pedalok_GetVector
  92              		.thumb
  93              		.thumb_func
  94              		.type	isr_pedalok_GetVector, %function
  95              	isr_pedalok_GetVector:
  96              	.LFB5:
 211:Generated_Source\PSoC5/isr_pedalok.c **** }
 212:Generated_Source\PSoC5/isr_pedalok.c **** 
 213:Generated_Source\PSoC5/isr_pedalok.c **** 
 214:Generated_Source\PSoC5/isr_pedalok.c **** /*******************************************************************************
 215:Generated_Source\PSoC5/isr_pedalok.c **** * Function Name: isr_pedalok_GetVector
 216:Generated_Source\PSoC5/isr_pedalok.c **** ********************************************************************************
 217:Generated_Source\PSoC5/isr_pedalok.c **** *
 218:Generated_Source\PSoC5/isr_pedalok.c **** * Summary:
 219:Generated_Source\PSoC5/isr_pedalok.c **** *   Gets the "address" of the current ISR vector for the Interrupt.
 220:Generated_Source\PSoC5/isr_pedalok.c **** *
 221:Generated_Source\PSoC5/isr_pedalok.c **** * Parameters:
 222:Generated_Source\PSoC5/isr_pedalok.c **** *   None
 223:Generated_Source\PSoC5/isr_pedalok.c **** *
 224:Generated_Source\PSoC5/isr_pedalok.c **** * Return:
 225:Generated_Source\PSoC5/isr_pedalok.c **** *   Address of the ISR in the interrupt vector table.
 226:Generated_Source\PSoC5/isr_pedalok.c **** *
 227:Generated_Source\PSoC5/isr_pedalok.c **** *******************************************************************************/
 228:Generated_Source\PSoC5/isr_pedalok.c **** cyisraddress isr_pedalok_GetVector(void)
 229:Generated_Source\PSoC5/isr_pedalok.c **** {
  97              		.loc 1 229 0
  98              		.cfi_startproc
  99              		@ args = 0, pretend = 0, frame = 0
 100              		@ frame_needed = 0, uses_anonymous_args = 0
 101              		@ link register save eliminated.
 230:Generated_Source\PSoC5/isr_pedalok.c ****     cyisraddress * ramVectorTable;
 231:Generated_Source\PSoC5/isr_pedalok.c **** 
 232:Generated_Source\PSoC5/isr_pedalok.c ****     ramVectorTable = (cyisraddress *) *CYINT_VECT_TABLE;
 102              		.loc 1 232 0
 103 0000 014B     		ldr	r3, .L9
 104 0002 1B68     		ldr	r3, [r3]
 105              	.LVL7:
 233:Generated_Source\PSoC5/isr_pedalok.c **** 
 234:Generated_Source\PSoC5/isr_pedalok.c ****     return ramVectorTable[CYINT_IRQ_BASE + (uint32)isr_pedalok__INTC_NUMBER];
 235:Generated_Source\PSoC5/isr_pedalok.c **** }
 106              		.loc 1 235 0
 107 0004 586C     		ldr	r0, [r3, #68]
ARM GAS  C:\Users\Schuyler\AppData\Local\Temp\ccCIto3t.s 			page 7


 108 0006 7047     		bx	lr
 109              	.L10:
 110              		.align	2
 111              	.L9:
 112 0008 08ED00E0 		.word	-536810232
 113              		.cfi_endproc
 114              	.LFE5:
 115              		.size	isr_pedalok_GetVector, .-isr_pedalok_GetVector
 116              		.section	.text.isr_pedalok_SetPriority,"ax",%progbits
 117              		.align	2
 118              		.global	isr_pedalok_SetPriority
 119              		.thumb
 120              		.thumb_func
 121              		.type	isr_pedalok_SetPriority, %function
 122              	isr_pedalok_SetPriority:
 123              	.LFB6:
 236:Generated_Source\PSoC5/isr_pedalok.c **** 
 237:Generated_Source\PSoC5/isr_pedalok.c **** 
 238:Generated_Source\PSoC5/isr_pedalok.c **** /*******************************************************************************
 239:Generated_Source\PSoC5/isr_pedalok.c **** * Function Name: isr_pedalok_SetPriority
 240:Generated_Source\PSoC5/isr_pedalok.c **** ********************************************************************************
 241:Generated_Source\PSoC5/isr_pedalok.c **** *
 242:Generated_Source\PSoC5/isr_pedalok.c **** * Summary:
 243:Generated_Source\PSoC5/isr_pedalok.c **** *   Sets the Priority of the Interrupt. 
 244:Generated_Source\PSoC5/isr_pedalok.c **** *
 245:Generated_Source\PSoC5/isr_pedalok.c **** *   Note calling isr_pedalok_Start or isr_pedalok_StartEx will 
 246:Generated_Source\PSoC5/isr_pedalok.c **** *   override any effect this API would have had. This API should only be called
 247:Generated_Source\PSoC5/isr_pedalok.c **** *   after isr_pedalok_Start or isr_pedalok_StartEx has been called. 
 248:Generated_Source\PSoC5/isr_pedalok.c **** *   To set the initial priority for the component, use the Design-Wide Resources
 249:Generated_Source\PSoC5/isr_pedalok.c **** *   Interrupt Editor.
 250:Generated_Source\PSoC5/isr_pedalok.c **** *
 251:Generated_Source\PSoC5/isr_pedalok.c **** *   Note This API has no effect on Non-maskable interrupt NMI).
 252:Generated_Source\PSoC5/isr_pedalok.c **** *
 253:Generated_Source\PSoC5/isr_pedalok.c **** * Parameters:
 254:Generated_Source\PSoC5/isr_pedalok.c **** *   priority: Priority of the interrupt, 0 being the highest priority
 255:Generated_Source\PSoC5/isr_pedalok.c **** *             PSoC 3 and PSoC 5LP: Priority is from 0 to 7.
 256:Generated_Source\PSoC5/isr_pedalok.c **** *             PSoC 4: Priority is from 0 to 3.
 257:Generated_Source\PSoC5/isr_pedalok.c **** *
 258:Generated_Source\PSoC5/isr_pedalok.c **** * Return:
 259:Generated_Source\PSoC5/isr_pedalok.c **** *   None
 260:Generated_Source\PSoC5/isr_pedalok.c **** *
 261:Generated_Source\PSoC5/isr_pedalok.c **** *******************************************************************************/
 262:Generated_Source\PSoC5/isr_pedalok.c **** void isr_pedalok_SetPriority(uint8 priority)
 263:Generated_Source\PSoC5/isr_pedalok.c **** {
 124              		.loc 1 263 0
 125              		.cfi_startproc
 126              		@ args = 0, pretend = 0, frame = 0
 127              		@ frame_needed = 0, uses_anonymous_args = 0
 128              		@ link register save eliminated.
 129              	.LVL8:
 264:Generated_Source\PSoC5/isr_pedalok.c ****     *isr_pedalok_INTC_PRIOR = priority << 5;
 130              		.loc 1 264 0
 131 0000 4001     		lsls	r0, r0, #5
 132              	.LVL9:
 133 0002 C0B2     		uxtb	r0, r0
 134 0004 014B     		ldr	r3, .L12
 135 0006 1870     		strb	r0, [r3]
ARM GAS  C:\Users\Schuyler\AppData\Local\Temp\ccCIto3t.s 			page 8


 136 0008 7047     		bx	lr
 137              	.L13:
 138 000a 00BF     		.align	2
 139              	.L12:
 140 000c 01E400E0 		.word	-536812543
 141              		.cfi_endproc
 142              	.LFE6:
 143              		.size	isr_pedalok_SetPriority, .-isr_pedalok_SetPriority
 144              		.section	.text.isr_pedalok_GetPriority,"ax",%progbits
 145              		.align	2
 146              		.global	isr_pedalok_GetPriority
 147              		.thumb
 148              		.thumb_func
 149              		.type	isr_pedalok_GetPriority, %function
 150              	isr_pedalok_GetPriority:
 151              	.LFB7:
 265:Generated_Source\PSoC5/isr_pedalok.c **** }
 266:Generated_Source\PSoC5/isr_pedalok.c **** 
 267:Generated_Source\PSoC5/isr_pedalok.c **** 
 268:Generated_Source\PSoC5/isr_pedalok.c **** /*******************************************************************************
 269:Generated_Source\PSoC5/isr_pedalok.c **** * Function Name: isr_pedalok_GetPriority
 270:Generated_Source\PSoC5/isr_pedalok.c **** ********************************************************************************
 271:Generated_Source\PSoC5/isr_pedalok.c **** *
 272:Generated_Source\PSoC5/isr_pedalok.c **** * Summary:
 273:Generated_Source\PSoC5/isr_pedalok.c **** *   Gets the Priority of the Interrupt.
 274:Generated_Source\PSoC5/isr_pedalok.c **** *
 275:Generated_Source\PSoC5/isr_pedalok.c **** * Parameters:
 276:Generated_Source\PSoC5/isr_pedalok.c **** *   None
 277:Generated_Source\PSoC5/isr_pedalok.c **** *
 278:Generated_Source\PSoC5/isr_pedalok.c **** * Return:
 279:Generated_Source\PSoC5/isr_pedalok.c **** *   Priority of the interrupt, 0 being the highest priority
 280:Generated_Source\PSoC5/isr_pedalok.c **** *    PSoC 3 and PSoC 5LP: Priority is from 0 to 7.
 281:Generated_Source\PSoC5/isr_pedalok.c **** *    PSoC 4: Priority is from 0 to 3.
 282:Generated_Source\PSoC5/isr_pedalok.c **** *
 283:Generated_Source\PSoC5/isr_pedalok.c **** *******************************************************************************/
 284:Generated_Source\PSoC5/isr_pedalok.c **** uint8 isr_pedalok_GetPriority(void)
 285:Generated_Source\PSoC5/isr_pedalok.c **** {
 152              		.loc 1 285 0
 153              		.cfi_startproc
 154              		@ args = 0, pretend = 0, frame = 0
 155              		@ frame_needed = 0, uses_anonymous_args = 0
 156              		@ link register save eliminated.
 286:Generated_Source\PSoC5/isr_pedalok.c ****     uint8 priority;
 287:Generated_Source\PSoC5/isr_pedalok.c **** 
 288:Generated_Source\PSoC5/isr_pedalok.c **** 
 289:Generated_Source\PSoC5/isr_pedalok.c ****     priority = *isr_pedalok_INTC_PRIOR >> 5;
 157              		.loc 1 289 0
 158 0000 014B     		ldr	r3, .L15
 159 0002 1878     		ldrb	r0, [r3]	@ zero_extendqisi2
 160              	.LVL10:
 290:Generated_Source\PSoC5/isr_pedalok.c **** 
 291:Generated_Source\PSoC5/isr_pedalok.c ****     return priority;
 292:Generated_Source\PSoC5/isr_pedalok.c **** }
 161              		.loc 1 292 0
 162 0004 4009     		lsrs	r0, r0, #5
 163              	.LVL11:
 164 0006 7047     		bx	lr
ARM GAS  C:\Users\Schuyler\AppData\Local\Temp\ccCIto3t.s 			page 9


 165              	.L16:
 166              		.align	2
 167              	.L15:
 168 0008 01E400E0 		.word	-536812543
 169              		.cfi_endproc
 170              	.LFE7:
 171              		.size	isr_pedalok_GetPriority, .-isr_pedalok_GetPriority
 172              		.section	.text.isr_pedalok_Enable,"ax",%progbits
 173              		.align	2
 174              		.global	isr_pedalok_Enable
 175              		.thumb
 176              		.thumb_func
 177              		.type	isr_pedalok_Enable, %function
 178              	isr_pedalok_Enable:
 179              	.LFB8:
 293:Generated_Source\PSoC5/isr_pedalok.c **** 
 294:Generated_Source\PSoC5/isr_pedalok.c **** 
 295:Generated_Source\PSoC5/isr_pedalok.c **** /*******************************************************************************
 296:Generated_Source\PSoC5/isr_pedalok.c **** * Function Name: isr_pedalok_Enable
 297:Generated_Source\PSoC5/isr_pedalok.c **** ********************************************************************************
 298:Generated_Source\PSoC5/isr_pedalok.c **** *
 299:Generated_Source\PSoC5/isr_pedalok.c **** * Summary:
 300:Generated_Source\PSoC5/isr_pedalok.c **** *   Enables the interrupt to the interrupt controller. Do not call this function
 301:Generated_Source\PSoC5/isr_pedalok.c **** *   unless ISR_Start() has been called or the functionality of the ISR_Start() 
 302:Generated_Source\PSoC5/isr_pedalok.c **** *   function, which sets the vector and the priority, has been called.
 303:Generated_Source\PSoC5/isr_pedalok.c **** *
 304:Generated_Source\PSoC5/isr_pedalok.c **** * Parameters:
 305:Generated_Source\PSoC5/isr_pedalok.c **** *   None
 306:Generated_Source\PSoC5/isr_pedalok.c **** *
 307:Generated_Source\PSoC5/isr_pedalok.c **** * Return:
 308:Generated_Source\PSoC5/isr_pedalok.c **** *   None
 309:Generated_Source\PSoC5/isr_pedalok.c **** *
 310:Generated_Source\PSoC5/isr_pedalok.c **** *******************************************************************************/
 311:Generated_Source\PSoC5/isr_pedalok.c **** void isr_pedalok_Enable(void)
 312:Generated_Source\PSoC5/isr_pedalok.c **** {
 180              		.loc 1 312 0
 181              		.cfi_startproc
 182              		@ args = 0, pretend = 0, frame = 0
 183              		@ frame_needed = 0, uses_anonymous_args = 0
 184              		@ link register save eliminated.
 313:Generated_Source\PSoC5/isr_pedalok.c ****     /* Enable the general interrupt. */
 314:Generated_Source\PSoC5/isr_pedalok.c ****     *isr_pedalok_INTC_SET_EN = isr_pedalok__INTC_MASK;
 185              		.loc 1 314 0
 186 0000 0222     		movs	r2, #2
 187 0002 014B     		ldr	r3, .L18
 188 0004 1A60     		str	r2, [r3]
 189 0006 7047     		bx	lr
 190              	.L19:
 191              		.align	2
 192              	.L18:
 193 0008 00E100E0 		.word	-536813312
 194              		.cfi_endproc
 195              	.LFE8:
 196              		.size	isr_pedalok_Enable, .-isr_pedalok_Enable
 197              		.section	.text.isr_pedalok_GetState,"ax",%progbits
 198              		.align	2
 199              		.global	isr_pedalok_GetState
ARM GAS  C:\Users\Schuyler\AppData\Local\Temp\ccCIto3t.s 			page 10


 200              		.thumb
 201              		.thumb_func
 202              		.type	isr_pedalok_GetState, %function
 203              	isr_pedalok_GetState:
 204              	.LFB9:
 315:Generated_Source\PSoC5/isr_pedalok.c **** }
 316:Generated_Source\PSoC5/isr_pedalok.c **** 
 317:Generated_Source\PSoC5/isr_pedalok.c **** 
 318:Generated_Source\PSoC5/isr_pedalok.c **** /*******************************************************************************
 319:Generated_Source\PSoC5/isr_pedalok.c **** * Function Name: isr_pedalok_GetState
 320:Generated_Source\PSoC5/isr_pedalok.c **** ********************************************************************************
 321:Generated_Source\PSoC5/isr_pedalok.c **** *
 322:Generated_Source\PSoC5/isr_pedalok.c **** * Summary:
 323:Generated_Source\PSoC5/isr_pedalok.c **** *   Gets the state (enabled, disabled) of the Interrupt.
 324:Generated_Source\PSoC5/isr_pedalok.c **** *
 325:Generated_Source\PSoC5/isr_pedalok.c **** * Parameters:
 326:Generated_Source\PSoC5/isr_pedalok.c **** *   None
 327:Generated_Source\PSoC5/isr_pedalok.c **** *
 328:Generated_Source\PSoC5/isr_pedalok.c **** * Return:
 329:Generated_Source\PSoC5/isr_pedalok.c **** *   1 if enabled, 0 if disabled.
 330:Generated_Source\PSoC5/isr_pedalok.c **** *
 331:Generated_Source\PSoC5/isr_pedalok.c **** *******************************************************************************/
 332:Generated_Source\PSoC5/isr_pedalok.c **** uint8 isr_pedalok_GetState(void)
 333:Generated_Source\PSoC5/isr_pedalok.c **** {
 205              		.loc 1 333 0
 206              		.cfi_startproc
 207              		@ args = 0, pretend = 0, frame = 0
 208              		@ frame_needed = 0, uses_anonymous_args = 0
 209              		@ link register save eliminated.
 334:Generated_Source\PSoC5/isr_pedalok.c ****     /* Get the state of the general interrupt. */
 335:Generated_Source\PSoC5/isr_pedalok.c ****     return ((*isr_pedalok_INTC_SET_EN & (uint32)isr_pedalok__INTC_MASK) != 0u) ? 1u:0u;
 210              		.loc 1 335 0
 211 0000 044B     		ldr	r3, .L23
 212 0002 1B68     		ldr	r3, [r3]
 213 0004 13F0020F 		tst	r3, #2
 214 0008 01D0     		beq	.L22
 215 000a 0120     		movs	r0, #1
 216 000c 7047     		bx	lr
 217              	.L22:
 218 000e 0020     		movs	r0, #0
 336:Generated_Source\PSoC5/isr_pedalok.c **** }
 219              		.loc 1 336 0
 220 0010 7047     		bx	lr
 221              	.L24:
 222 0012 00BF     		.align	2
 223              	.L23:
 224 0014 00E100E0 		.word	-536813312
 225              		.cfi_endproc
 226              	.LFE9:
 227              		.size	isr_pedalok_GetState, .-isr_pedalok_GetState
 228              		.section	.text.isr_pedalok_Disable,"ax",%progbits
 229              		.align	2
 230              		.global	isr_pedalok_Disable
 231              		.thumb
 232              		.thumb_func
 233              		.type	isr_pedalok_Disable, %function
 234              	isr_pedalok_Disable:
ARM GAS  C:\Users\Schuyler\AppData\Local\Temp\ccCIto3t.s 			page 11


 235              	.LFB10:
 337:Generated_Source\PSoC5/isr_pedalok.c **** 
 338:Generated_Source\PSoC5/isr_pedalok.c **** 
 339:Generated_Source\PSoC5/isr_pedalok.c **** /*******************************************************************************
 340:Generated_Source\PSoC5/isr_pedalok.c **** * Function Name: isr_pedalok_Disable
 341:Generated_Source\PSoC5/isr_pedalok.c **** ********************************************************************************
 342:Generated_Source\PSoC5/isr_pedalok.c **** *
 343:Generated_Source\PSoC5/isr_pedalok.c **** * Summary:
 344:Generated_Source\PSoC5/isr_pedalok.c **** *   Disables the Interrupt in the interrupt controller.
 345:Generated_Source\PSoC5/isr_pedalok.c **** *
 346:Generated_Source\PSoC5/isr_pedalok.c **** * Parameters:
 347:Generated_Source\PSoC5/isr_pedalok.c **** *   None
 348:Generated_Source\PSoC5/isr_pedalok.c **** *
 349:Generated_Source\PSoC5/isr_pedalok.c **** * Return:
 350:Generated_Source\PSoC5/isr_pedalok.c **** *   None
 351:Generated_Source\PSoC5/isr_pedalok.c **** *
 352:Generated_Source\PSoC5/isr_pedalok.c **** *******************************************************************************/
 353:Generated_Source\PSoC5/isr_pedalok.c **** void isr_pedalok_Disable(void)
 354:Generated_Source\PSoC5/isr_pedalok.c **** {
 236              		.loc 1 354 0
 237              		.cfi_startproc
 238              		@ args = 0, pretend = 0, frame = 0
 239              		@ frame_needed = 0, uses_anonymous_args = 0
 240              		@ link register save eliminated.
 355:Generated_Source\PSoC5/isr_pedalok.c ****     /* Disable the general interrupt. */
 356:Generated_Source\PSoC5/isr_pedalok.c ****     *isr_pedalok_INTC_CLR_EN = isr_pedalok__INTC_MASK;
 241              		.loc 1 356 0
 242 0000 0222     		movs	r2, #2
 243 0002 014B     		ldr	r3, .L26
 244 0004 1A60     		str	r2, [r3]
 245 0006 7047     		bx	lr
 246              	.L27:
 247              		.align	2
 248              	.L26:
 249 0008 80E100E0 		.word	-536813184
 250              		.cfi_endproc
 251              	.LFE10:
 252              		.size	isr_pedalok_Disable, .-isr_pedalok_Disable
 253              		.section	.text.isr_pedalok_Start,"ax",%progbits
 254              		.align	2
 255              		.global	isr_pedalok_Start
 256              		.thumb
 257              		.thumb_func
 258              		.type	isr_pedalok_Start, %function
 259              	isr_pedalok_Start:
 260              	.LFB0:
  63:Generated_Source\PSoC5/isr_pedalok.c ****     /* For all we know the interrupt is active. */
 261              		.loc 1 63 0
 262              		.cfi_startproc
 263              		@ args = 0, pretend = 0, frame = 0
 264              		@ frame_needed = 0, uses_anonymous_args = 0
 265 0000 08B5     		push	{r3, lr}
 266              		.cfi_def_cfa_offset 8
 267              		.cfi_offset 3, -8
 268              		.cfi_offset 14, -4
  65:Generated_Source\PSoC5/isr_pedalok.c **** 
 269              		.loc 1 65 0
ARM GAS  C:\Users\Schuyler\AppData\Local\Temp\ccCIto3t.s 			page 12


 270 0002 FFF7FEFF 		bl	isr_pedalok_Disable
 271              	.LVL12:
  68:Generated_Source\PSoC5/isr_pedalok.c **** 
 272              		.loc 1 68 0
 273 0006 0448     		ldr	r0, .L30
 274 0008 FFF7FEFF 		bl	isr_pedalok_SetVector
 275              	.LVL13:
  71:Generated_Source\PSoC5/isr_pedalok.c **** 
 276              		.loc 1 71 0
 277 000c 0720     		movs	r0, #7
 278 000e FFF7FEFF 		bl	isr_pedalok_SetPriority
 279              	.LVL14:
  74:Generated_Source\PSoC5/isr_pedalok.c **** }
 280              		.loc 1 74 0
 281 0012 FFF7FEFF 		bl	isr_pedalok_Enable
 282              	.LVL15:
 283 0016 08BD     		pop	{r3, pc}
 284              	.L31:
 285              		.align	2
 286              	.L30:
 287 0018 00000000 		.word	isr_pedalok_Interrupt
 288              		.cfi_endproc
 289              	.LFE0:
 290              		.size	isr_pedalok_Start, .-isr_pedalok_Start
 291              		.section	.text.isr_pedalok_StartEx,"ax",%progbits
 292              		.align	2
 293              		.global	isr_pedalok_StartEx
 294              		.thumb
 295              		.thumb_func
 296              		.type	isr_pedalok_StartEx, %function
 297              	isr_pedalok_StartEx:
 298              	.LFB1:
 106:Generated_Source\PSoC5/isr_pedalok.c ****     /* For all we know the interrupt is active. */
 299              		.loc 1 106 0
 300              		.cfi_startproc
 301              		@ args = 0, pretend = 0, frame = 0
 302              		@ frame_needed = 0, uses_anonymous_args = 0
 303              	.LVL16:
 304 0000 10B5     		push	{r4, lr}
 305              		.cfi_def_cfa_offset 8
 306              		.cfi_offset 4, -8
 307              		.cfi_offset 14, -4
 308 0002 0446     		mov	r4, r0
 108:Generated_Source\PSoC5/isr_pedalok.c **** 
 309              		.loc 1 108 0
 310 0004 FFF7FEFF 		bl	isr_pedalok_Disable
 311              	.LVL17:
 111:Generated_Source\PSoC5/isr_pedalok.c **** 
 312              		.loc 1 111 0
 313 0008 2046     		mov	r0, r4
 314 000a FFF7FEFF 		bl	isr_pedalok_SetVector
 315              	.LVL18:
 114:Generated_Source\PSoC5/isr_pedalok.c **** 
 316              		.loc 1 114 0
 317 000e 0720     		movs	r0, #7
 318 0010 FFF7FEFF 		bl	isr_pedalok_SetPriority
 319              	.LVL19:
ARM GAS  C:\Users\Schuyler\AppData\Local\Temp\ccCIto3t.s 			page 13


 117:Generated_Source\PSoC5/isr_pedalok.c **** }
 320              		.loc 1 117 0
 321 0014 FFF7FEFF 		bl	isr_pedalok_Enable
 322              	.LVL20:
 323 0018 10BD     		pop	{r4, pc}
 324              		.cfi_endproc
 325              	.LFE1:
 326              		.size	isr_pedalok_StartEx, .-isr_pedalok_StartEx
 327 001a 00BF     		.section	.text.isr_pedalok_Stop,"ax",%progbits
 328              		.align	2
 329              		.global	isr_pedalok_Stop
 330              		.thumb
 331              		.thumb_func
 332              		.type	isr_pedalok_Stop, %function
 333              	isr_pedalok_Stop:
 334              	.LFB2:
 136:Generated_Source\PSoC5/isr_pedalok.c ****     /* Disable this interrupt. */
 335              		.loc 1 136 0
 336              		.cfi_startproc
 337              		@ args = 0, pretend = 0, frame = 0
 338              		@ frame_needed = 0, uses_anonymous_args = 0
 339 0000 08B5     		push	{r3, lr}
 340              		.cfi_def_cfa_offset 8
 341              		.cfi_offset 3, -8
 342              		.cfi_offset 14, -4
 138:Generated_Source\PSoC5/isr_pedalok.c **** 
 343              		.loc 1 138 0
 344 0002 FFF7FEFF 		bl	isr_pedalok_Disable
 345              	.LVL21:
 141:Generated_Source\PSoC5/isr_pedalok.c **** }
 346              		.loc 1 141 0
 347 0006 0248     		ldr	r0, .L36
 348 0008 FFF7FEFF 		bl	isr_pedalok_SetVector
 349              	.LVL22:
 350 000c 08BD     		pop	{r3, pc}
 351              	.L37:
 352 000e 00BF     		.align	2
 353              	.L36:
 354 0010 00000000 		.word	IntDefaultHandler
 355              		.cfi_endproc
 356              	.LFE2:
 357              		.size	isr_pedalok_Stop, .-isr_pedalok_Stop
 358              		.section	.text.isr_pedalok_SetPending,"ax",%progbits
 359              		.align	2
 360              		.global	isr_pedalok_SetPending
 361              		.thumb
 362              		.thumb_func
 363              		.type	isr_pedalok_SetPending, %function
 364              	isr_pedalok_SetPending:
 365              	.LFB11:
 357:Generated_Source\PSoC5/isr_pedalok.c **** }
 358:Generated_Source\PSoC5/isr_pedalok.c **** 
 359:Generated_Source\PSoC5/isr_pedalok.c **** 
 360:Generated_Source\PSoC5/isr_pedalok.c **** /*******************************************************************************
 361:Generated_Source\PSoC5/isr_pedalok.c **** * Function Name: isr_pedalok_SetPending
 362:Generated_Source\PSoC5/isr_pedalok.c **** ********************************************************************************
 363:Generated_Source\PSoC5/isr_pedalok.c **** *
ARM GAS  C:\Users\Schuyler\AppData\Local\Temp\ccCIto3t.s 			page 14


 364:Generated_Source\PSoC5/isr_pedalok.c **** * Summary:
 365:Generated_Source\PSoC5/isr_pedalok.c **** *   Causes the Interrupt to enter the pending state, a software method of
 366:Generated_Source\PSoC5/isr_pedalok.c **** *   generating the interrupt.
 367:Generated_Source\PSoC5/isr_pedalok.c **** *
 368:Generated_Source\PSoC5/isr_pedalok.c **** * Parameters:
 369:Generated_Source\PSoC5/isr_pedalok.c **** *   None
 370:Generated_Source\PSoC5/isr_pedalok.c **** *
 371:Generated_Source\PSoC5/isr_pedalok.c **** * Return:
 372:Generated_Source\PSoC5/isr_pedalok.c **** *   None
 373:Generated_Source\PSoC5/isr_pedalok.c **** *
 374:Generated_Source\PSoC5/isr_pedalok.c **** * Side Effects:
 375:Generated_Source\PSoC5/isr_pedalok.c **** *   If interrupts are enabled and the interrupt is set up properly, the ISR is
 376:Generated_Source\PSoC5/isr_pedalok.c **** *   entered (depending on the priority of this interrupt and other pending 
 377:Generated_Source\PSoC5/isr_pedalok.c **** *   interrupts).
 378:Generated_Source\PSoC5/isr_pedalok.c **** *
 379:Generated_Source\PSoC5/isr_pedalok.c **** *******************************************************************************/
 380:Generated_Source\PSoC5/isr_pedalok.c **** void isr_pedalok_SetPending(void)
 381:Generated_Source\PSoC5/isr_pedalok.c **** {
 366              		.loc 1 381 0
 367              		.cfi_startproc
 368              		@ args = 0, pretend = 0, frame = 0
 369              		@ frame_needed = 0, uses_anonymous_args = 0
 370              		@ link register save eliminated.
 382:Generated_Source\PSoC5/isr_pedalok.c ****     *isr_pedalok_INTC_SET_PD = isr_pedalok__INTC_MASK;
 371              		.loc 1 382 0
 372 0000 0222     		movs	r2, #2
 373 0002 014B     		ldr	r3, .L39
 374 0004 1A60     		str	r2, [r3]
 375 0006 7047     		bx	lr
 376              	.L40:
 377              		.align	2
 378              	.L39:
 379 0008 00E200E0 		.word	-536813056
 380              		.cfi_endproc
 381              	.LFE11:
 382              		.size	isr_pedalok_SetPending, .-isr_pedalok_SetPending
 383              		.section	.text.isr_pedalok_ClearPending,"ax",%progbits
 384              		.align	2
 385              		.global	isr_pedalok_ClearPending
 386              		.thumb
 387              		.thumb_func
 388              		.type	isr_pedalok_ClearPending, %function
 389              	isr_pedalok_ClearPending:
 390              	.LFB12:
 383:Generated_Source\PSoC5/isr_pedalok.c **** }
 384:Generated_Source\PSoC5/isr_pedalok.c **** 
 385:Generated_Source\PSoC5/isr_pedalok.c **** 
 386:Generated_Source\PSoC5/isr_pedalok.c **** /*******************************************************************************
 387:Generated_Source\PSoC5/isr_pedalok.c **** * Function Name: isr_pedalok_ClearPending
 388:Generated_Source\PSoC5/isr_pedalok.c **** ********************************************************************************
 389:Generated_Source\PSoC5/isr_pedalok.c **** *
 390:Generated_Source\PSoC5/isr_pedalok.c **** * Summary:
 391:Generated_Source\PSoC5/isr_pedalok.c **** *   Clears a pending interrupt in the interrupt controller.
 392:Generated_Source\PSoC5/isr_pedalok.c **** *
 393:Generated_Source\PSoC5/isr_pedalok.c **** *   Note Some interrupt sources are clear-on-read and require the block 
 394:Generated_Source\PSoC5/isr_pedalok.c **** *   interrupt/status register to be read/cleared with the appropriate block API 
 395:Generated_Source\PSoC5/isr_pedalok.c **** *   (GPIO, UART, and so on). Otherwise the ISR will continue to remain in 
ARM GAS  C:\Users\Schuyler\AppData\Local\Temp\ccCIto3t.s 			page 15


 396:Generated_Source\PSoC5/isr_pedalok.c **** *   pending state even though the interrupt itself is cleared using this API.
 397:Generated_Source\PSoC5/isr_pedalok.c **** *
 398:Generated_Source\PSoC5/isr_pedalok.c **** * Parameters:
 399:Generated_Source\PSoC5/isr_pedalok.c **** *   None
 400:Generated_Source\PSoC5/isr_pedalok.c **** *
 401:Generated_Source\PSoC5/isr_pedalok.c **** * Return:
 402:Generated_Source\PSoC5/isr_pedalok.c **** *   None
 403:Generated_Source\PSoC5/isr_pedalok.c **** *
 404:Generated_Source\PSoC5/isr_pedalok.c **** *******************************************************************************/
 405:Generated_Source\PSoC5/isr_pedalok.c **** void isr_pedalok_ClearPending(void)
 406:Generated_Source\PSoC5/isr_pedalok.c **** {
 391              		.loc 1 406 0
 392              		.cfi_startproc
 393              		@ args = 0, pretend = 0, frame = 0
 394              		@ frame_needed = 0, uses_anonymous_args = 0
 395              		@ link register save eliminated.
 407:Generated_Source\PSoC5/isr_pedalok.c ****     *isr_pedalok_INTC_CLR_PD = isr_pedalok__INTC_MASK;
 396              		.loc 1 407 0
 397 0000 0222     		movs	r2, #2
 398 0002 014B     		ldr	r3, .L42
 399 0004 1A60     		str	r2, [r3]
 400 0006 7047     		bx	lr
 401              	.L43:
 402              		.align	2
 403              	.L42:
 404 0008 80E200E0 		.word	-536812928
 405              		.cfi_endproc
 406              	.LFE12:
 407              		.size	isr_pedalok_ClearPending, .-isr_pedalok_ClearPending
 408              		.text
 409              	.Letext0:
 410              		.file 2 "c:\\program files (x86)\\cypress\\psoc creator\\4.0\\psoc creator\\import\\gnu\\arm\\4.9.
 411              		.file 3 "c:\\program files (x86)\\cypress\\psoc creator\\4.0\\psoc creator\\import\\gnu\\arm\\4.9.
 412              		.file 4 "Generated_Source\\PSoC5/cytypes.h"
 413              		.file 5 "Generated_Source\\PSoC5/CyLib.h"
 414              		.file 6 "Generated_Source\\PSoC5\\Pedal_Timer.h"