ARM GAS  D:\Windows\AppData\Local\Temp\ccrzb1TJ.s 			page 1


   1              		.syntax unified
   2              		.cpu cortex-m3
   3              		.fpu softvfp
   4              		.eabi_attribute 20, 1
   5              		.eabi_attribute 21, 1
   6              		.eabi_attribute 23, 3
   7              		.eabi_attribute 24, 1
   8              		.eabi_attribute 25, 1
   9              		.eabi_attribute 26, 1
  10              		.eabi_attribute 30, 6
  11              		.eabi_attribute 34, 1
  12              		.eabi_attribute 18, 4
  13              		.thumb
  14              		.file	"isr_nodeok.c"
  15              		.text
  16              	.Ltext0:
  17              		.cfi_sections	.debug_frame
  18              		.section	.text.isr_nodeok_Start,"ax",%progbits
  19              		.align	2
  20              		.global	isr_nodeok_Start
  21              		.thumb
  22              		.thumb_func
  23              		.type	isr_nodeok_Start, %function
  24              	isr_nodeok_Start:
  25              	.LFB0:
  26              		.file 1 "Generated_Source\\PSoC5\\isr_nodeok.c"
   1:Generated_Source\PSoC5/isr_nodeok.c **** /*******************************************************************************
   2:Generated_Source\PSoC5/isr_nodeok.c **** * File Name: isr_nodeok.c  
   3:Generated_Source\PSoC5/isr_nodeok.c **** * Version 1.70
   4:Generated_Source\PSoC5/isr_nodeok.c **** *
   5:Generated_Source\PSoC5/isr_nodeok.c **** *  Description:
   6:Generated_Source\PSoC5/isr_nodeok.c **** *   API for controlling the state of an interrupt.
   7:Generated_Source\PSoC5/isr_nodeok.c **** *
   8:Generated_Source\PSoC5/isr_nodeok.c **** *
   9:Generated_Source\PSoC5/isr_nodeok.c **** *  Note:
  10:Generated_Source\PSoC5/isr_nodeok.c **** *
  11:Generated_Source\PSoC5/isr_nodeok.c **** ********************************************************************************
  12:Generated_Source\PSoC5/isr_nodeok.c **** * Copyright 2008-2015, Cypress Semiconductor Corporation.  All rights reserved.
  13:Generated_Source\PSoC5/isr_nodeok.c **** * You may use this file only in accordance with the license, terms, conditions, 
  14:Generated_Source\PSoC5/isr_nodeok.c **** * disclaimers, and limitations in the end user license agreement accompanying 
  15:Generated_Source\PSoC5/isr_nodeok.c **** * the software package with which this file was provided.
  16:Generated_Source\PSoC5/isr_nodeok.c **** *******************************************************************************/
  17:Generated_Source\PSoC5/isr_nodeok.c **** 
  18:Generated_Source\PSoC5/isr_nodeok.c **** 
  19:Generated_Source\PSoC5/isr_nodeok.c **** #include <cydevice_trm.h>
  20:Generated_Source\PSoC5/isr_nodeok.c **** #include <CyLib.h>
  21:Generated_Source\PSoC5/isr_nodeok.c **** #include <isr_nodeok.h>
  22:Generated_Source\PSoC5/isr_nodeok.c **** #include "cyapicallbacks.h"
  23:Generated_Source\PSoC5/isr_nodeok.c **** 
  24:Generated_Source\PSoC5/isr_nodeok.c **** #if !defined(isr_nodeok__REMOVED) /* Check for removal by optimization */
  25:Generated_Source\PSoC5/isr_nodeok.c **** 
  26:Generated_Source\PSoC5/isr_nodeok.c **** /*******************************************************************************
  27:Generated_Source\PSoC5/isr_nodeok.c **** *  Place your includes, defines and code here 
  28:Generated_Source\PSoC5/isr_nodeok.c **** ********************************************************************************/
  29:Generated_Source\PSoC5/isr_nodeok.c **** /* `#START isr_nodeok_intc` */
  30:Generated_Source\PSoC5/isr_nodeok.c **** #include "Node_Timer.h"
  31:Generated_Source\PSoC5/isr_nodeok.c **** extern volatile uint32_t pedalOK;
ARM GAS  D:\Windows\AppData\Local\Temp\ccrzb1TJ.s 			page 2


  32:Generated_Source\PSoC5/isr_nodeok.c **** /* `#END` */
  33:Generated_Source\PSoC5/isr_nodeok.c **** 
  34:Generated_Source\PSoC5/isr_nodeok.c **** #ifndef CYINT_IRQ_BASE
  35:Generated_Source\PSoC5/isr_nodeok.c **** #define CYINT_IRQ_BASE      16
  36:Generated_Source\PSoC5/isr_nodeok.c **** #endif /* CYINT_IRQ_BASE */
  37:Generated_Source\PSoC5/isr_nodeok.c **** #ifndef CYINT_VECT_TABLE
  38:Generated_Source\PSoC5/isr_nodeok.c **** #define CYINT_VECT_TABLE    ((cyisraddress **) CYREG_NVIC_VECT_OFFSET)
  39:Generated_Source\PSoC5/isr_nodeok.c **** #endif /* CYINT_VECT_TABLE */
  40:Generated_Source\PSoC5/isr_nodeok.c **** 
  41:Generated_Source\PSoC5/isr_nodeok.c **** /* Declared in startup, used to set unused interrupts to. */
  42:Generated_Source\PSoC5/isr_nodeok.c **** CY_ISR_PROTO(IntDefaultHandler);
  43:Generated_Source\PSoC5/isr_nodeok.c **** 
  44:Generated_Source\PSoC5/isr_nodeok.c **** 
  45:Generated_Source\PSoC5/isr_nodeok.c **** /*******************************************************************************
  46:Generated_Source\PSoC5/isr_nodeok.c **** * Function Name: isr_nodeok_Start
  47:Generated_Source\PSoC5/isr_nodeok.c **** ********************************************************************************
  48:Generated_Source\PSoC5/isr_nodeok.c **** *
  49:Generated_Source\PSoC5/isr_nodeok.c **** * Summary:
  50:Generated_Source\PSoC5/isr_nodeok.c **** *  Set up the interrupt and enable it. This function disables the interrupt, 
  51:Generated_Source\PSoC5/isr_nodeok.c **** *  sets the default interrupt vector, sets the priority from the value in the
  52:Generated_Source\PSoC5/isr_nodeok.c **** *  Design Wide Resources Interrupt Editor, then enables the interrupt to the 
  53:Generated_Source\PSoC5/isr_nodeok.c **** *  interrupt controller.
  54:Generated_Source\PSoC5/isr_nodeok.c **** *
  55:Generated_Source\PSoC5/isr_nodeok.c **** * Parameters:  
  56:Generated_Source\PSoC5/isr_nodeok.c **** *   None
  57:Generated_Source\PSoC5/isr_nodeok.c **** *
  58:Generated_Source\PSoC5/isr_nodeok.c **** * Return:
  59:Generated_Source\PSoC5/isr_nodeok.c **** *   None
  60:Generated_Source\PSoC5/isr_nodeok.c **** *
  61:Generated_Source\PSoC5/isr_nodeok.c **** *******************************************************************************/
  62:Generated_Source\PSoC5/isr_nodeok.c **** void isr_nodeok_Start(void)
  63:Generated_Source\PSoC5/isr_nodeok.c **** {
  27              		.loc 1 63 0
  28              		.cfi_startproc
  29              		@ args = 0, pretend = 0, frame = 0
  30              		@ frame_needed = 1, uses_anonymous_args = 0
  31 0000 80B5     		push	{r7, lr}
  32              		.cfi_def_cfa_offset 8
  33              		.cfi_offset 7, -8
  34              		.cfi_offset 14, -4
  35 0002 00AF     		add	r7, sp, #0
  36              		.cfi_def_cfa_register 7
  64:Generated_Source\PSoC5/isr_nodeok.c ****     /* For all we know the interrupt is active. */
  65:Generated_Source\PSoC5/isr_nodeok.c ****     isr_nodeok_Disable();
  37              		.loc 1 65 0
  38 0004 FFF7FEFF 		bl	isr_nodeok_Disable
  66:Generated_Source\PSoC5/isr_nodeok.c **** 
  67:Generated_Source\PSoC5/isr_nodeok.c ****     /* Set the ISR to point to the isr_nodeok Interrupt. */
  68:Generated_Source\PSoC5/isr_nodeok.c ****     isr_nodeok_SetVector(&isr_nodeok_Interrupt);
  39              		.loc 1 68 0
  40 0008 0448     		ldr	r0, .L2
  41 000a FFF7FEFF 		bl	isr_nodeok_SetVector
  69:Generated_Source\PSoC5/isr_nodeok.c **** 
  70:Generated_Source\PSoC5/isr_nodeok.c ****     /* Set the priority. */
  71:Generated_Source\PSoC5/isr_nodeok.c ****     isr_nodeok_SetPriority((uint8)isr_nodeok_INTC_PRIOR_NUMBER);
  42              		.loc 1 71 0
  43 000e 0720     		movs	r0, #7
ARM GAS  D:\Windows\AppData\Local\Temp\ccrzb1TJ.s 			page 3


  44 0010 FFF7FEFF 		bl	isr_nodeok_SetPriority
  72:Generated_Source\PSoC5/isr_nodeok.c **** 
  73:Generated_Source\PSoC5/isr_nodeok.c ****     /* Enable it. */
  74:Generated_Source\PSoC5/isr_nodeok.c ****     isr_nodeok_Enable();
  45              		.loc 1 74 0
  46 0014 FFF7FEFF 		bl	isr_nodeok_Enable
  75:Generated_Source\PSoC5/isr_nodeok.c **** }
  47              		.loc 1 75 0
  48 0018 80BD     		pop	{r7, pc}
  49              	.L3:
  50 001a 00BF     		.align	2
  51              	.L2:
  52 001c 00000000 		.word	isr_nodeok_Interrupt
  53              		.cfi_endproc
  54              	.LFE0:
  55              		.size	isr_nodeok_Start, .-isr_nodeok_Start
  56              		.section	.text.isr_nodeok_StartEx,"ax",%progbits
  57              		.align	2
  58              		.global	isr_nodeok_StartEx
  59              		.thumb
  60              		.thumb_func
  61              		.type	isr_nodeok_StartEx, %function
  62              	isr_nodeok_StartEx:
  63              	.LFB1:
  76:Generated_Source\PSoC5/isr_nodeok.c **** 
  77:Generated_Source\PSoC5/isr_nodeok.c **** 
  78:Generated_Source\PSoC5/isr_nodeok.c **** /*******************************************************************************
  79:Generated_Source\PSoC5/isr_nodeok.c **** * Function Name: isr_nodeok_StartEx
  80:Generated_Source\PSoC5/isr_nodeok.c **** ********************************************************************************
  81:Generated_Source\PSoC5/isr_nodeok.c **** *
  82:Generated_Source\PSoC5/isr_nodeok.c **** * Summary:
  83:Generated_Source\PSoC5/isr_nodeok.c **** *  Sets up the interrupt and enables it. This function disables the interrupt,
  84:Generated_Source\PSoC5/isr_nodeok.c **** *  sets the interrupt vector based on the address passed in, sets the priority 
  85:Generated_Source\PSoC5/isr_nodeok.c **** *  from the value in the Design Wide Resources Interrupt Editor, then enables 
  86:Generated_Source\PSoC5/isr_nodeok.c **** *  the interrupt to the interrupt controller.
  87:Generated_Source\PSoC5/isr_nodeok.c **** *  
  88:Generated_Source\PSoC5/isr_nodeok.c **** *  When defining ISR functions, the CY_ISR and CY_ISR_PROTO macros should be 
  89:Generated_Source\PSoC5/isr_nodeok.c **** *  used to provide consistent definition across compilers:
  90:Generated_Source\PSoC5/isr_nodeok.c **** *  
  91:Generated_Source\PSoC5/isr_nodeok.c **** *  Function definition example:
  92:Generated_Source\PSoC5/isr_nodeok.c **** *   CY_ISR(MyISR)
  93:Generated_Source\PSoC5/isr_nodeok.c **** *   {
  94:Generated_Source\PSoC5/isr_nodeok.c **** *   }
  95:Generated_Source\PSoC5/isr_nodeok.c **** *   Function prototype example:
  96:Generated_Source\PSoC5/isr_nodeok.c **** *   CY_ISR_PROTO(MyISR);
  97:Generated_Source\PSoC5/isr_nodeok.c **** *
  98:Generated_Source\PSoC5/isr_nodeok.c **** * Parameters:  
  99:Generated_Source\PSoC5/isr_nodeok.c **** *   address: Address of the ISR to set in the interrupt vector table.
 100:Generated_Source\PSoC5/isr_nodeok.c **** *
 101:Generated_Source\PSoC5/isr_nodeok.c **** * Return:
 102:Generated_Source\PSoC5/isr_nodeok.c **** *   None
 103:Generated_Source\PSoC5/isr_nodeok.c **** *
 104:Generated_Source\PSoC5/isr_nodeok.c **** *******************************************************************************/
 105:Generated_Source\PSoC5/isr_nodeok.c **** void isr_nodeok_StartEx(cyisraddress address)
 106:Generated_Source\PSoC5/isr_nodeok.c **** {
  64              		.loc 1 106 0
  65              		.cfi_startproc
ARM GAS  D:\Windows\AppData\Local\Temp\ccrzb1TJ.s 			page 4


  66              		@ args = 0, pretend = 0, frame = 8
  67              		@ frame_needed = 1, uses_anonymous_args = 0
  68 0000 80B5     		push	{r7, lr}
  69              		.cfi_def_cfa_offset 8
  70              		.cfi_offset 7, -8
  71              		.cfi_offset 14, -4
  72 0002 82B0     		sub	sp, sp, #8
  73              		.cfi_def_cfa_offset 16
  74 0004 00AF     		add	r7, sp, #0
  75              		.cfi_def_cfa_register 7
  76 0006 7860     		str	r0, [r7, #4]
 107:Generated_Source\PSoC5/isr_nodeok.c ****     /* For all we know the interrupt is active. */
 108:Generated_Source\PSoC5/isr_nodeok.c ****     isr_nodeok_Disable();
  77              		.loc 1 108 0
  78 0008 FFF7FEFF 		bl	isr_nodeok_Disable
 109:Generated_Source\PSoC5/isr_nodeok.c **** 
 110:Generated_Source\PSoC5/isr_nodeok.c ****     /* Set the ISR to point to the isr_nodeok Interrupt. */
 111:Generated_Source\PSoC5/isr_nodeok.c ****     isr_nodeok_SetVector(address);
  79              		.loc 1 111 0
  80 000c 7868     		ldr	r0, [r7, #4]
  81 000e FFF7FEFF 		bl	isr_nodeok_SetVector
 112:Generated_Source\PSoC5/isr_nodeok.c **** 
 113:Generated_Source\PSoC5/isr_nodeok.c ****     /* Set the priority. */
 114:Generated_Source\PSoC5/isr_nodeok.c ****     isr_nodeok_SetPriority((uint8)isr_nodeok_INTC_PRIOR_NUMBER);
  82              		.loc 1 114 0
  83 0012 0720     		movs	r0, #7
  84 0014 FFF7FEFF 		bl	isr_nodeok_SetPriority
 115:Generated_Source\PSoC5/isr_nodeok.c **** 
 116:Generated_Source\PSoC5/isr_nodeok.c ****     /* Enable it. */
 117:Generated_Source\PSoC5/isr_nodeok.c ****     isr_nodeok_Enable();
  85              		.loc 1 117 0
  86 0018 FFF7FEFF 		bl	isr_nodeok_Enable
 118:Generated_Source\PSoC5/isr_nodeok.c **** }
  87              		.loc 1 118 0
  88 001c 0837     		adds	r7, r7, #8
  89              		.cfi_def_cfa_offset 8
  90 001e BD46     		mov	sp, r7
  91              		.cfi_def_cfa_register 13
  92              		@ sp needed
  93 0020 80BD     		pop	{r7, pc}
  94              		.cfi_endproc
  95              	.LFE1:
  96              		.size	isr_nodeok_StartEx, .-isr_nodeok_StartEx
  97 0022 00BF     		.section	.text.isr_nodeok_Stop,"ax",%progbits
  98              		.align	2
  99              		.global	isr_nodeok_Stop
 100              		.thumb
 101              		.thumb_func
 102              		.type	isr_nodeok_Stop, %function
 103              	isr_nodeok_Stop:
 104              	.LFB2:
 119:Generated_Source\PSoC5/isr_nodeok.c **** 
 120:Generated_Source\PSoC5/isr_nodeok.c **** 
 121:Generated_Source\PSoC5/isr_nodeok.c **** /*******************************************************************************
 122:Generated_Source\PSoC5/isr_nodeok.c **** * Function Name: isr_nodeok_Stop
 123:Generated_Source\PSoC5/isr_nodeok.c **** ********************************************************************************
 124:Generated_Source\PSoC5/isr_nodeok.c **** *
ARM GAS  D:\Windows\AppData\Local\Temp\ccrzb1TJ.s 			page 5


 125:Generated_Source\PSoC5/isr_nodeok.c **** * Summary:
 126:Generated_Source\PSoC5/isr_nodeok.c **** *   Disables and removes the interrupt.
 127:Generated_Source\PSoC5/isr_nodeok.c **** *
 128:Generated_Source\PSoC5/isr_nodeok.c **** * Parameters:  
 129:Generated_Source\PSoC5/isr_nodeok.c **** *   None
 130:Generated_Source\PSoC5/isr_nodeok.c **** *
 131:Generated_Source\PSoC5/isr_nodeok.c **** * Return:
 132:Generated_Source\PSoC5/isr_nodeok.c **** *   None
 133:Generated_Source\PSoC5/isr_nodeok.c **** *
 134:Generated_Source\PSoC5/isr_nodeok.c **** *******************************************************************************/
 135:Generated_Source\PSoC5/isr_nodeok.c **** void isr_nodeok_Stop(void)
 136:Generated_Source\PSoC5/isr_nodeok.c **** {
 105              		.loc 1 136 0
 106              		.cfi_startproc
 107              		@ args = 0, pretend = 0, frame = 0
 108              		@ frame_needed = 1, uses_anonymous_args = 0
 109 0000 80B5     		push	{r7, lr}
 110              		.cfi_def_cfa_offset 8
 111              		.cfi_offset 7, -8
 112              		.cfi_offset 14, -4
 113 0002 00AF     		add	r7, sp, #0
 114              		.cfi_def_cfa_register 7
 137:Generated_Source\PSoC5/isr_nodeok.c ****     /* Disable this interrupt. */
 138:Generated_Source\PSoC5/isr_nodeok.c ****     isr_nodeok_Disable();
 115              		.loc 1 138 0
 116 0004 FFF7FEFF 		bl	isr_nodeok_Disable
 139:Generated_Source\PSoC5/isr_nodeok.c **** 
 140:Generated_Source\PSoC5/isr_nodeok.c ****     /* Set the ISR to point to the passive one. */
 141:Generated_Source\PSoC5/isr_nodeok.c ****     isr_nodeok_SetVector(&IntDefaultHandler);
 117              		.loc 1 141 0
 118 0008 0148     		ldr	r0, .L6
 119 000a FFF7FEFF 		bl	isr_nodeok_SetVector
 142:Generated_Source\PSoC5/isr_nodeok.c **** }
 120              		.loc 1 142 0
 121 000e 80BD     		pop	{r7, pc}
 122              	.L7:
 123              		.align	2
 124              	.L6:
 125 0010 00000000 		.word	IntDefaultHandler
 126              		.cfi_endproc
 127              	.LFE2:
 128              		.size	isr_nodeok_Stop, .-isr_nodeok_Stop
 129              		.section	.text.isr_nodeok_Interrupt,"ax",%progbits
 130              		.align	2
 131              		.global	isr_nodeok_Interrupt
 132              		.thumb
 133              		.thumb_func
 134              		.type	isr_nodeok_Interrupt, %function
 135              	isr_nodeok_Interrupt:
 136              	.LFB3:
 143:Generated_Source\PSoC5/isr_nodeok.c **** 
 144:Generated_Source\PSoC5/isr_nodeok.c **** 
 145:Generated_Source\PSoC5/isr_nodeok.c **** /*******************************************************************************
 146:Generated_Source\PSoC5/isr_nodeok.c **** * Function Name: isr_nodeok_Interrupt
 147:Generated_Source\PSoC5/isr_nodeok.c **** ********************************************************************************
 148:Generated_Source\PSoC5/isr_nodeok.c **** *
 149:Generated_Source\PSoC5/isr_nodeok.c **** * Summary:
ARM GAS  D:\Windows\AppData\Local\Temp\ccrzb1TJ.s 			page 6


 150:Generated_Source\PSoC5/isr_nodeok.c **** *   The default Interrupt Service Routine for isr_nodeok.
 151:Generated_Source\PSoC5/isr_nodeok.c **** *
 152:Generated_Source\PSoC5/isr_nodeok.c **** *   Add custom code between the coments to keep the next version of this file
 153:Generated_Source\PSoC5/isr_nodeok.c **** *   from over writting your code.
 154:Generated_Source\PSoC5/isr_nodeok.c **** *
 155:Generated_Source\PSoC5/isr_nodeok.c **** * Parameters:  
 156:Generated_Source\PSoC5/isr_nodeok.c **** *
 157:Generated_Source\PSoC5/isr_nodeok.c **** * Return:
 158:Generated_Source\PSoC5/isr_nodeok.c **** *   None
 159:Generated_Source\PSoC5/isr_nodeok.c **** *
 160:Generated_Source\PSoC5/isr_nodeok.c **** *******************************************************************************/
 161:Generated_Source\PSoC5/isr_nodeok.c **** CY_ISR(isr_nodeok_Interrupt)
 162:Generated_Source\PSoC5/isr_nodeok.c **** {
 137              		.loc 1 162 0
 138              		.cfi_startproc
 139              		@ args = 0, pretend = 0, frame = 8
 140              		@ frame_needed = 1, uses_anonymous_args = 0
 141 0000 80B5     		push	{r7, lr}
 142              		.cfi_def_cfa_offset 8
 143              		.cfi_offset 7, -8
 144              		.cfi_offset 14, -4
 145 0002 82B0     		sub	sp, sp, #8
 146              		.cfi_def_cfa_offset 16
 147 0004 00AF     		add	r7, sp, #0
 148              		.cfi_def_cfa_register 7
 163:Generated_Source\PSoC5/isr_nodeok.c ****     #ifdef isr_nodeok_INTERRUPT_INTERRUPT_CALLBACK
 164:Generated_Source\PSoC5/isr_nodeok.c ****         isr_nodeok_Interrupt_InterruptCallback();
 165:Generated_Source\PSoC5/isr_nodeok.c ****     #endif /* isr_nodeok_INTERRUPT_INTERRUPT_CALLBACK */ 
 166:Generated_Source\PSoC5/isr_nodeok.c **** 
 167:Generated_Source\PSoC5/isr_nodeok.c ****     /*  Place your Interrupt code here. */
 168:Generated_Source\PSoC5/isr_nodeok.c ****     /* `#START isr_nodeok_Interrupt` */
 169:Generated_Source\PSoC5/isr_nodeok.c ****     
 170:Generated_Source\PSoC5/isr_nodeok.c ****     uint8 InterruptState = CyEnterCriticalSection();
 149              		.loc 1 170 0
 150 0006 FFF7FEFF 		bl	CyEnterCriticalSection
 151 000a 0346     		mov	r3, r0
 152 000c FB71     		strb	r3, [r7, #7]
 171:Generated_Source\PSoC5/isr_nodeok.c ****     
 172:Generated_Source\PSoC5/isr_nodeok.c ****     // Increment node health variables.
 173:Generated_Source\PSoC5/isr_nodeok.c ****     pedalOK++;
 153              		.loc 1 173 0
 154 000e 074B     		ldr	r3, .L9
 155 0010 1B68     		ldr	r3, [r3]
 156 0012 0133     		adds	r3, r3, #1
 157 0014 054A     		ldr	r2, .L9
 158 0016 1360     		str	r3, [r2]
 174:Generated_Source\PSoC5/isr_nodeok.c ****     
 175:Generated_Source\PSoC5/isr_nodeok.c ****     CyExitCriticalSection(InterruptState);
 159              		.loc 1 175 0
 160 0018 FB79     		ldrb	r3, [r7, #7]	@ zero_extendqisi2
 161 001a 1846     		mov	r0, r3
 162 001c FFF7FEFF 		bl	CyExitCriticalSection
 176:Generated_Source\PSoC5/isr_nodeok.c ****     
 177:Generated_Source\PSoC5/isr_nodeok.c ****     // Need to read the register to keep timer going.
 178:Generated_Source\PSoC5/isr_nodeok.c ****     Node_Timer_ReadStatusRegister();
 163              		.loc 1 178 0
 164 0020 FFF7FEFF 		bl	Node_Timer_ReadStatusRegister
ARM GAS  D:\Windows\AppData\Local\Temp\ccrzb1TJ.s 			page 7


 179:Generated_Source\PSoC5/isr_nodeok.c ****     
 180:Generated_Source\PSoC5/isr_nodeok.c ****     /* `#END` */
 181:Generated_Source\PSoC5/isr_nodeok.c **** }
 165              		.loc 1 181 0
 166 0024 0837     		adds	r7, r7, #8
 167              		.cfi_def_cfa_offset 8
 168 0026 BD46     		mov	sp, r7
 169              		.cfi_def_cfa_register 13
 170              		@ sp needed
 171 0028 80BD     		pop	{r7, pc}
 172              	.L10:
 173 002a 00BF     		.align	2
 174              	.L9:
 175 002c 00000000 		.word	pedalOK
 176              		.cfi_endproc
 177              	.LFE3:
 178              		.size	isr_nodeok_Interrupt, .-isr_nodeok_Interrupt
 179              		.section	.text.isr_nodeok_SetVector,"ax",%progbits
 180              		.align	2
 181              		.global	isr_nodeok_SetVector
 182              		.thumb
 183              		.thumb_func
 184              		.type	isr_nodeok_SetVector, %function
 185              	isr_nodeok_SetVector:
 186              	.LFB4:
 182:Generated_Source\PSoC5/isr_nodeok.c **** 
 183:Generated_Source\PSoC5/isr_nodeok.c **** 
 184:Generated_Source\PSoC5/isr_nodeok.c **** /*******************************************************************************
 185:Generated_Source\PSoC5/isr_nodeok.c **** * Function Name: isr_nodeok_SetVector
 186:Generated_Source\PSoC5/isr_nodeok.c **** ********************************************************************************
 187:Generated_Source\PSoC5/isr_nodeok.c **** *
 188:Generated_Source\PSoC5/isr_nodeok.c **** * Summary:
 189:Generated_Source\PSoC5/isr_nodeok.c **** *   Change the ISR vector for the Interrupt. Note calling isr_nodeok_Start
 190:Generated_Source\PSoC5/isr_nodeok.c **** *   will override any effect this method would have had. To set the vector 
 191:Generated_Source\PSoC5/isr_nodeok.c **** *   before the component has been started use isr_nodeok_StartEx instead.
 192:Generated_Source\PSoC5/isr_nodeok.c **** * 
 193:Generated_Source\PSoC5/isr_nodeok.c **** *   When defining ISR functions, the CY_ISR and CY_ISR_PROTO macros should be 
 194:Generated_Source\PSoC5/isr_nodeok.c **** *   used to provide consistent definition across compilers:
 195:Generated_Source\PSoC5/isr_nodeok.c **** *
 196:Generated_Source\PSoC5/isr_nodeok.c **** *   Function definition example:
 197:Generated_Source\PSoC5/isr_nodeok.c **** *   CY_ISR(MyISR)
 198:Generated_Source\PSoC5/isr_nodeok.c **** *   {
 199:Generated_Source\PSoC5/isr_nodeok.c **** *   }
 200:Generated_Source\PSoC5/isr_nodeok.c **** *
 201:Generated_Source\PSoC5/isr_nodeok.c **** *   Function prototype example:
 202:Generated_Source\PSoC5/isr_nodeok.c **** *     CY_ISR_PROTO(MyISR);
 203:Generated_Source\PSoC5/isr_nodeok.c **** *
 204:Generated_Source\PSoC5/isr_nodeok.c **** * Parameters:
 205:Generated_Source\PSoC5/isr_nodeok.c **** *   address: Address of the ISR to set in the interrupt vector table.
 206:Generated_Source\PSoC5/isr_nodeok.c **** *
 207:Generated_Source\PSoC5/isr_nodeok.c **** * Return:
 208:Generated_Source\PSoC5/isr_nodeok.c **** *   None
 209:Generated_Source\PSoC5/isr_nodeok.c **** *
 210:Generated_Source\PSoC5/isr_nodeok.c **** *******************************************************************************/
 211:Generated_Source\PSoC5/isr_nodeok.c **** void isr_nodeok_SetVector(cyisraddress address)
 212:Generated_Source\PSoC5/isr_nodeok.c **** {
 187              		.loc 1 212 0
ARM GAS  D:\Windows\AppData\Local\Temp\ccrzb1TJ.s 			page 8


 188              		.cfi_startproc
 189              		@ args = 0, pretend = 0, frame = 16
 190              		@ frame_needed = 1, uses_anonymous_args = 0
 191              		@ link register save eliminated.
 192 0000 80B4     		push	{r7}
 193              		.cfi_def_cfa_offset 4
 194              		.cfi_offset 7, -4
 195 0002 85B0     		sub	sp, sp, #20
 196              		.cfi_def_cfa_offset 24
 197 0004 00AF     		add	r7, sp, #0
 198              		.cfi_def_cfa_register 7
 199 0006 7860     		str	r0, [r7, #4]
 213:Generated_Source\PSoC5/isr_nodeok.c ****     cyisraddress * ramVectorTable;
 214:Generated_Source\PSoC5/isr_nodeok.c **** 
 215:Generated_Source\PSoC5/isr_nodeok.c ****     ramVectorTable = (cyisraddress *) *CYINT_VECT_TABLE;
 200              		.loc 1 215 0
 201 0008 054B     		ldr	r3, .L12
 202 000a 1B68     		ldr	r3, [r3]
 203 000c FB60     		str	r3, [r7, #12]
 216:Generated_Source\PSoC5/isr_nodeok.c **** 
 217:Generated_Source\PSoC5/isr_nodeok.c ****     ramVectorTable[CYINT_IRQ_BASE + (uint32)isr_nodeok__INTC_NUMBER] = address;
 204              		.loc 1 217 0
 205 000e FB68     		ldr	r3, [r7, #12]
 206 0010 8833     		adds	r3, r3, #136
 207 0012 7A68     		ldr	r2, [r7, #4]
 208 0014 1A60     		str	r2, [r3]
 218:Generated_Source\PSoC5/isr_nodeok.c **** }
 209              		.loc 1 218 0
 210 0016 1437     		adds	r7, r7, #20
 211              		.cfi_def_cfa_offset 4
 212 0018 BD46     		mov	sp, r7
 213              		.cfi_def_cfa_register 13
 214              		@ sp needed
 215 001a 5DF8047B 		ldr	r7, [sp], #4
 216              		.cfi_restore 7
 217              		.cfi_def_cfa_offset 0
 218 001e 7047     		bx	lr
 219              	.L13:
 220              		.align	2
 221              	.L12:
 222 0020 08ED00E0 		.word	-536810232
 223              		.cfi_endproc
 224              	.LFE4:
 225              		.size	isr_nodeok_SetVector, .-isr_nodeok_SetVector
 226              		.section	.text.isr_nodeok_GetVector,"ax",%progbits
 227              		.align	2
 228              		.global	isr_nodeok_GetVector
 229              		.thumb
 230              		.thumb_func
 231              		.type	isr_nodeok_GetVector, %function
 232              	isr_nodeok_GetVector:
 233              	.LFB5:
 219:Generated_Source\PSoC5/isr_nodeok.c **** 
 220:Generated_Source\PSoC5/isr_nodeok.c **** 
 221:Generated_Source\PSoC5/isr_nodeok.c **** /*******************************************************************************
 222:Generated_Source\PSoC5/isr_nodeok.c **** * Function Name: isr_nodeok_GetVector
 223:Generated_Source\PSoC5/isr_nodeok.c **** ********************************************************************************
ARM GAS  D:\Windows\AppData\Local\Temp\ccrzb1TJ.s 			page 9


 224:Generated_Source\PSoC5/isr_nodeok.c **** *
 225:Generated_Source\PSoC5/isr_nodeok.c **** * Summary:
 226:Generated_Source\PSoC5/isr_nodeok.c **** *   Gets the "address" of the current ISR vector for the Interrupt.
 227:Generated_Source\PSoC5/isr_nodeok.c **** *
 228:Generated_Source\PSoC5/isr_nodeok.c **** * Parameters:
 229:Generated_Source\PSoC5/isr_nodeok.c **** *   None
 230:Generated_Source\PSoC5/isr_nodeok.c **** *
 231:Generated_Source\PSoC5/isr_nodeok.c **** * Return:
 232:Generated_Source\PSoC5/isr_nodeok.c **** *   Address of the ISR in the interrupt vector table.
 233:Generated_Source\PSoC5/isr_nodeok.c **** *
 234:Generated_Source\PSoC5/isr_nodeok.c **** *******************************************************************************/
 235:Generated_Source\PSoC5/isr_nodeok.c **** cyisraddress isr_nodeok_GetVector(void)
 236:Generated_Source\PSoC5/isr_nodeok.c **** {
 234              		.loc 1 236 0
 235              		.cfi_startproc
 236              		@ args = 0, pretend = 0, frame = 8
 237              		@ frame_needed = 1, uses_anonymous_args = 0
 238              		@ link register save eliminated.
 239 0000 80B4     		push	{r7}
 240              		.cfi_def_cfa_offset 4
 241              		.cfi_offset 7, -4
 242 0002 83B0     		sub	sp, sp, #12
 243              		.cfi_def_cfa_offset 16
 244 0004 00AF     		add	r7, sp, #0
 245              		.cfi_def_cfa_register 7
 237:Generated_Source\PSoC5/isr_nodeok.c ****     cyisraddress * ramVectorTable;
 238:Generated_Source\PSoC5/isr_nodeok.c **** 
 239:Generated_Source\PSoC5/isr_nodeok.c ****     ramVectorTable = (cyisraddress *) *CYINT_VECT_TABLE;
 246              		.loc 1 239 0
 247 0006 064B     		ldr	r3, .L16
 248 0008 1B68     		ldr	r3, [r3]
 249 000a 7B60     		str	r3, [r7, #4]
 240:Generated_Source\PSoC5/isr_nodeok.c **** 
 241:Generated_Source\PSoC5/isr_nodeok.c ****     return ramVectorTable[CYINT_IRQ_BASE + (uint32)isr_nodeok__INTC_NUMBER];
 250              		.loc 1 241 0
 251 000c 7B68     		ldr	r3, [r7, #4]
 252 000e D3F88830 		ldr	r3, [r3, #136]
 242:Generated_Source\PSoC5/isr_nodeok.c **** }
 253              		.loc 1 242 0
 254 0012 1846     		mov	r0, r3
 255 0014 0C37     		adds	r7, r7, #12
 256              		.cfi_def_cfa_offset 4
 257 0016 BD46     		mov	sp, r7
 258              		.cfi_def_cfa_register 13
 259              		@ sp needed
 260 0018 5DF8047B 		ldr	r7, [sp], #4
 261              		.cfi_restore 7
 262              		.cfi_def_cfa_offset 0
 263 001c 7047     		bx	lr
 264              	.L17:
 265 001e 00BF     		.align	2
 266              	.L16:
 267 0020 08ED00E0 		.word	-536810232
 268              		.cfi_endproc
 269              	.LFE5:
 270              		.size	isr_nodeok_GetVector, .-isr_nodeok_GetVector
 271              		.section	.text.isr_nodeok_SetPriority,"ax",%progbits
ARM GAS  D:\Windows\AppData\Local\Temp\ccrzb1TJ.s 			page 10


 272              		.align	2
 273              		.global	isr_nodeok_SetPriority
 274              		.thumb
 275              		.thumb_func
 276              		.type	isr_nodeok_SetPriority, %function
 277              	isr_nodeok_SetPriority:
 278              	.LFB6:
 243:Generated_Source\PSoC5/isr_nodeok.c **** 
 244:Generated_Source\PSoC5/isr_nodeok.c **** 
 245:Generated_Source\PSoC5/isr_nodeok.c **** /*******************************************************************************
 246:Generated_Source\PSoC5/isr_nodeok.c **** * Function Name: isr_nodeok_SetPriority
 247:Generated_Source\PSoC5/isr_nodeok.c **** ********************************************************************************
 248:Generated_Source\PSoC5/isr_nodeok.c **** *
 249:Generated_Source\PSoC5/isr_nodeok.c **** * Summary:
 250:Generated_Source\PSoC5/isr_nodeok.c **** *   Sets the Priority of the Interrupt. 
 251:Generated_Source\PSoC5/isr_nodeok.c **** *
 252:Generated_Source\PSoC5/isr_nodeok.c **** *   Note calling isr_nodeok_Start or isr_nodeok_StartEx will 
 253:Generated_Source\PSoC5/isr_nodeok.c **** *   override any effect this API would have had. This API should only be called
 254:Generated_Source\PSoC5/isr_nodeok.c **** *   after isr_nodeok_Start or isr_nodeok_StartEx has been called. 
 255:Generated_Source\PSoC5/isr_nodeok.c **** *   To set the initial priority for the component, use the Design-Wide Resources
 256:Generated_Source\PSoC5/isr_nodeok.c **** *   Interrupt Editor.
 257:Generated_Source\PSoC5/isr_nodeok.c **** *
 258:Generated_Source\PSoC5/isr_nodeok.c **** *   Note This API has no effect on Non-maskable interrupt NMI).
 259:Generated_Source\PSoC5/isr_nodeok.c **** *
 260:Generated_Source\PSoC5/isr_nodeok.c **** * Parameters:
 261:Generated_Source\PSoC5/isr_nodeok.c **** *   priority: Priority of the interrupt, 0 being the highest priority
 262:Generated_Source\PSoC5/isr_nodeok.c **** *             PSoC 3 and PSoC 5LP: Priority is from 0 to 7.
 263:Generated_Source\PSoC5/isr_nodeok.c **** *             PSoC 4: Priority is from 0 to 3.
 264:Generated_Source\PSoC5/isr_nodeok.c **** *
 265:Generated_Source\PSoC5/isr_nodeok.c **** * Return:
 266:Generated_Source\PSoC5/isr_nodeok.c **** *   None
 267:Generated_Source\PSoC5/isr_nodeok.c **** *
 268:Generated_Source\PSoC5/isr_nodeok.c **** *******************************************************************************/
 269:Generated_Source\PSoC5/isr_nodeok.c **** void isr_nodeok_SetPriority(uint8 priority)
 270:Generated_Source\PSoC5/isr_nodeok.c **** {
 279              		.loc 1 270 0
 280              		.cfi_startproc
 281              		@ args = 0, pretend = 0, frame = 8
 282              		@ frame_needed = 1, uses_anonymous_args = 0
 283              		@ link register save eliminated.
 284 0000 80B4     		push	{r7}
 285              		.cfi_def_cfa_offset 4
 286              		.cfi_offset 7, -4
 287 0002 83B0     		sub	sp, sp, #12
 288              		.cfi_def_cfa_offset 16
 289 0004 00AF     		add	r7, sp, #0
 290              		.cfi_def_cfa_register 7
 291 0006 0346     		mov	r3, r0
 292 0008 FB71     		strb	r3, [r7, #7]
 271:Generated_Source\PSoC5/isr_nodeok.c ****     *isr_nodeok_INTC_PRIOR = priority << 5;
 293              		.loc 1 271 0
 294 000a 054A     		ldr	r2, .L19
 295 000c FB79     		ldrb	r3, [r7, #7]
 296 000e 5B01     		lsls	r3, r3, #5
 297 0010 DBB2     		uxtb	r3, r3
 298 0012 1370     		strb	r3, [r2]
 272:Generated_Source\PSoC5/isr_nodeok.c **** }
ARM GAS  D:\Windows\AppData\Local\Temp\ccrzb1TJ.s 			page 11


 299              		.loc 1 272 0
 300 0014 0C37     		adds	r7, r7, #12
 301              		.cfi_def_cfa_offset 4
 302 0016 BD46     		mov	sp, r7
 303              		.cfi_def_cfa_register 13
 304              		@ sp needed
 305 0018 5DF8047B 		ldr	r7, [sp], #4
 306              		.cfi_restore 7
 307              		.cfi_def_cfa_offset 0
 308 001c 7047     		bx	lr
 309              	.L20:
 310 001e 00BF     		.align	2
 311              	.L19:
 312 0020 12E400E0 		.word	-536812526
 313              		.cfi_endproc
 314              	.LFE6:
 315              		.size	isr_nodeok_SetPriority, .-isr_nodeok_SetPriority
 316              		.section	.text.isr_nodeok_GetPriority,"ax",%progbits
 317              		.align	2
 318              		.global	isr_nodeok_GetPriority
 319              		.thumb
 320              		.thumb_func
 321              		.type	isr_nodeok_GetPriority, %function
 322              	isr_nodeok_GetPriority:
 323              	.LFB7:
 273:Generated_Source\PSoC5/isr_nodeok.c **** 
 274:Generated_Source\PSoC5/isr_nodeok.c **** 
 275:Generated_Source\PSoC5/isr_nodeok.c **** /*******************************************************************************
 276:Generated_Source\PSoC5/isr_nodeok.c **** * Function Name: isr_nodeok_GetPriority
 277:Generated_Source\PSoC5/isr_nodeok.c **** ********************************************************************************
 278:Generated_Source\PSoC5/isr_nodeok.c **** *
 279:Generated_Source\PSoC5/isr_nodeok.c **** * Summary:
 280:Generated_Source\PSoC5/isr_nodeok.c **** *   Gets the Priority of the Interrupt.
 281:Generated_Source\PSoC5/isr_nodeok.c **** *
 282:Generated_Source\PSoC5/isr_nodeok.c **** * Parameters:
 283:Generated_Source\PSoC5/isr_nodeok.c **** *   None
 284:Generated_Source\PSoC5/isr_nodeok.c **** *
 285:Generated_Source\PSoC5/isr_nodeok.c **** * Return:
 286:Generated_Source\PSoC5/isr_nodeok.c **** *   Priority of the interrupt, 0 being the highest priority
 287:Generated_Source\PSoC5/isr_nodeok.c **** *    PSoC 3 and PSoC 5LP: Priority is from 0 to 7.
 288:Generated_Source\PSoC5/isr_nodeok.c **** *    PSoC 4: Priority is from 0 to 3.
 289:Generated_Source\PSoC5/isr_nodeok.c **** *
 290:Generated_Source\PSoC5/isr_nodeok.c **** *******************************************************************************/
 291:Generated_Source\PSoC5/isr_nodeok.c **** uint8 isr_nodeok_GetPriority(void)
 292:Generated_Source\PSoC5/isr_nodeok.c **** {
 324              		.loc 1 292 0
 325              		.cfi_startproc
 326              		@ args = 0, pretend = 0, frame = 8
 327              		@ frame_needed = 1, uses_anonymous_args = 0
 328              		@ link register save eliminated.
 329 0000 80B4     		push	{r7}
 330              		.cfi_def_cfa_offset 4
 331              		.cfi_offset 7, -4
 332 0002 83B0     		sub	sp, sp, #12
 333              		.cfi_def_cfa_offset 16
 334 0004 00AF     		add	r7, sp, #0
 335              		.cfi_def_cfa_register 7
ARM GAS  D:\Windows\AppData\Local\Temp\ccrzb1TJ.s 			page 12


 293:Generated_Source\PSoC5/isr_nodeok.c ****     uint8 priority;
 294:Generated_Source\PSoC5/isr_nodeok.c **** 
 295:Generated_Source\PSoC5/isr_nodeok.c **** 
 296:Generated_Source\PSoC5/isr_nodeok.c ****     priority = *isr_nodeok_INTC_PRIOR >> 5;
 336              		.loc 1 296 0
 337 0006 064B     		ldr	r3, .L23
 338 0008 1B78     		ldrb	r3, [r3]
 339 000a DBB2     		uxtb	r3, r3
 340 000c 5B09     		lsrs	r3, r3, #5
 341 000e FB71     		strb	r3, [r7, #7]
 297:Generated_Source\PSoC5/isr_nodeok.c **** 
 298:Generated_Source\PSoC5/isr_nodeok.c ****     return priority;
 342              		.loc 1 298 0
 343 0010 FB79     		ldrb	r3, [r7, #7]	@ zero_extendqisi2
 299:Generated_Source\PSoC5/isr_nodeok.c **** }
 344              		.loc 1 299 0
 345 0012 1846     		mov	r0, r3
 346 0014 0C37     		adds	r7, r7, #12
 347              		.cfi_def_cfa_offset 4
 348 0016 BD46     		mov	sp, r7
 349              		.cfi_def_cfa_register 13
 350              		@ sp needed
 351 0018 5DF8047B 		ldr	r7, [sp], #4
 352              		.cfi_restore 7
 353              		.cfi_def_cfa_offset 0
 354 001c 7047     		bx	lr
 355              	.L24:
 356 001e 00BF     		.align	2
 357              	.L23:
 358 0020 12E400E0 		.word	-536812526
 359              		.cfi_endproc
 360              	.LFE7:
 361              		.size	isr_nodeok_GetPriority, .-isr_nodeok_GetPriority
 362              		.section	.text.isr_nodeok_Enable,"ax",%progbits
 363              		.align	2
 364              		.global	isr_nodeok_Enable
 365              		.thumb
 366              		.thumb_func
 367              		.type	isr_nodeok_Enable, %function
 368              	isr_nodeok_Enable:
 369              	.LFB8:
 300:Generated_Source\PSoC5/isr_nodeok.c **** 
 301:Generated_Source\PSoC5/isr_nodeok.c **** 
 302:Generated_Source\PSoC5/isr_nodeok.c **** /*******************************************************************************
 303:Generated_Source\PSoC5/isr_nodeok.c **** * Function Name: isr_nodeok_Enable
 304:Generated_Source\PSoC5/isr_nodeok.c **** ********************************************************************************
 305:Generated_Source\PSoC5/isr_nodeok.c **** *
 306:Generated_Source\PSoC5/isr_nodeok.c **** * Summary:
 307:Generated_Source\PSoC5/isr_nodeok.c **** *   Enables the interrupt to the interrupt controller. Do not call this function
 308:Generated_Source\PSoC5/isr_nodeok.c **** *   unless ISR_Start() has been called or the functionality of the ISR_Start() 
 309:Generated_Source\PSoC5/isr_nodeok.c **** *   function, which sets the vector and the priority, has been called.
 310:Generated_Source\PSoC5/isr_nodeok.c **** *
 311:Generated_Source\PSoC5/isr_nodeok.c **** * Parameters:
 312:Generated_Source\PSoC5/isr_nodeok.c **** *   None
 313:Generated_Source\PSoC5/isr_nodeok.c **** *
 314:Generated_Source\PSoC5/isr_nodeok.c **** * Return:
 315:Generated_Source\PSoC5/isr_nodeok.c **** *   None
ARM GAS  D:\Windows\AppData\Local\Temp\ccrzb1TJ.s 			page 13


 316:Generated_Source\PSoC5/isr_nodeok.c **** *
 317:Generated_Source\PSoC5/isr_nodeok.c **** *******************************************************************************/
 318:Generated_Source\PSoC5/isr_nodeok.c **** void isr_nodeok_Enable(void)
 319:Generated_Source\PSoC5/isr_nodeok.c **** {
 370              		.loc 1 319 0
 371              		.cfi_startproc
 372              		@ args = 0, pretend = 0, frame = 0
 373              		@ frame_needed = 1, uses_anonymous_args = 0
 374              		@ link register save eliminated.
 375 0000 80B4     		push	{r7}
 376              		.cfi_def_cfa_offset 4
 377              		.cfi_offset 7, -4
 378 0002 00AF     		add	r7, sp, #0
 379              		.cfi_def_cfa_register 7
 320:Generated_Source\PSoC5/isr_nodeok.c ****     /* Enable the general interrupt. */
 321:Generated_Source\PSoC5/isr_nodeok.c ****     *isr_nodeok_INTC_SET_EN = isr_nodeok__INTC_MASK;
 380              		.loc 1 321 0
 381 0004 034B     		ldr	r3, .L26
 382 0006 4FF48022 		mov	r2, #262144
 383 000a 1A60     		str	r2, [r3]
 322:Generated_Source\PSoC5/isr_nodeok.c **** }
 384              		.loc 1 322 0
 385 000c BD46     		mov	sp, r7
 386              		.cfi_def_cfa_register 13
 387              		@ sp needed
 388 000e 5DF8047B 		ldr	r7, [sp], #4
 389              		.cfi_restore 7
 390              		.cfi_def_cfa_offset 0
 391 0012 7047     		bx	lr
 392              	.L27:
 393              		.align	2
 394              	.L26:
 395 0014 00E100E0 		.word	-536813312
 396              		.cfi_endproc
 397              	.LFE8:
 398              		.size	isr_nodeok_Enable, .-isr_nodeok_Enable
 399              		.section	.text.isr_nodeok_GetState,"ax",%progbits
 400              		.align	2
 401              		.global	isr_nodeok_GetState
 402              		.thumb
 403              		.thumb_func
 404              		.type	isr_nodeok_GetState, %function
 405              	isr_nodeok_GetState:
 406              	.LFB9:
 323:Generated_Source\PSoC5/isr_nodeok.c **** 
 324:Generated_Source\PSoC5/isr_nodeok.c **** 
 325:Generated_Source\PSoC5/isr_nodeok.c **** /*******************************************************************************
 326:Generated_Source\PSoC5/isr_nodeok.c **** * Function Name: isr_nodeok_GetState
 327:Generated_Source\PSoC5/isr_nodeok.c **** ********************************************************************************
 328:Generated_Source\PSoC5/isr_nodeok.c **** *
 329:Generated_Source\PSoC5/isr_nodeok.c **** * Summary:
 330:Generated_Source\PSoC5/isr_nodeok.c **** *   Gets the state (enabled, disabled) of the Interrupt.
 331:Generated_Source\PSoC5/isr_nodeok.c **** *
 332:Generated_Source\PSoC5/isr_nodeok.c **** * Parameters:
 333:Generated_Source\PSoC5/isr_nodeok.c **** *   None
 334:Generated_Source\PSoC5/isr_nodeok.c **** *
 335:Generated_Source\PSoC5/isr_nodeok.c **** * Return:
ARM GAS  D:\Windows\AppData\Local\Temp\ccrzb1TJ.s 			page 14


 336:Generated_Source\PSoC5/isr_nodeok.c **** *   1 if enabled, 0 if disabled.
 337:Generated_Source\PSoC5/isr_nodeok.c **** *
 338:Generated_Source\PSoC5/isr_nodeok.c **** *******************************************************************************/
 339:Generated_Source\PSoC5/isr_nodeok.c **** uint8 isr_nodeok_GetState(void)
 340:Generated_Source\PSoC5/isr_nodeok.c **** {
 407              		.loc 1 340 0
 408              		.cfi_startproc
 409              		@ args = 0, pretend = 0, frame = 0
 410              		@ frame_needed = 1, uses_anonymous_args = 0
 411              		@ link register save eliminated.
 412 0000 80B4     		push	{r7}
 413              		.cfi_def_cfa_offset 4
 414              		.cfi_offset 7, -4
 415 0002 00AF     		add	r7, sp, #0
 416              		.cfi_def_cfa_register 7
 341:Generated_Source\PSoC5/isr_nodeok.c ****     /* Get the state of the general interrupt. */
 342:Generated_Source\PSoC5/isr_nodeok.c ****     return ((*isr_nodeok_INTC_SET_EN & (uint32)isr_nodeok__INTC_MASK) != 0u) ? 1u:0u;
 417              		.loc 1 342 0
 418 0004 064B     		ldr	r3, .L32
 419 0006 1B68     		ldr	r3, [r3]
 420 0008 03F48023 		and	r3, r3, #262144
 421 000c 002B     		cmp	r3, #0
 422 000e 01D0     		beq	.L29
 423              		.loc 1 342 0 is_stmt 0 discriminator 1
 424 0010 0123     		movs	r3, #1
 425 0012 00E0     		b	.L30
 426              	.L29:
 427              		.loc 1 342 0 discriminator 2
 428 0014 0023     		movs	r3, #0
 429              	.L30:
 343:Generated_Source\PSoC5/isr_nodeok.c **** }
 430              		.loc 1 343 0 is_stmt 1 discriminator 4
 431 0016 1846     		mov	r0, r3
 432 0018 BD46     		mov	sp, r7
 433              		.cfi_def_cfa_register 13
 434              		@ sp needed
 435 001a 5DF8047B 		ldr	r7, [sp], #4
 436              		.cfi_restore 7
 437              		.cfi_def_cfa_offset 0
 438 001e 7047     		bx	lr
 439              	.L33:
 440              		.align	2
 441              	.L32:
 442 0020 00E100E0 		.word	-536813312
 443              		.cfi_endproc
 444              	.LFE9:
 445              		.size	isr_nodeok_GetState, .-isr_nodeok_GetState
 446              		.section	.text.isr_nodeok_Disable,"ax",%progbits
 447              		.align	2
 448              		.global	isr_nodeok_Disable
 449              		.thumb
 450              		.thumb_func
 451              		.type	isr_nodeok_Disable, %function
 452              	isr_nodeok_Disable:
 453              	.LFB10:
 344:Generated_Source\PSoC5/isr_nodeok.c **** 
 345:Generated_Source\PSoC5/isr_nodeok.c **** 
ARM GAS  D:\Windows\AppData\Local\Temp\ccrzb1TJ.s 			page 15


 346:Generated_Source\PSoC5/isr_nodeok.c **** /*******************************************************************************
 347:Generated_Source\PSoC5/isr_nodeok.c **** * Function Name: isr_nodeok_Disable
 348:Generated_Source\PSoC5/isr_nodeok.c **** ********************************************************************************
 349:Generated_Source\PSoC5/isr_nodeok.c **** *
 350:Generated_Source\PSoC5/isr_nodeok.c **** * Summary:
 351:Generated_Source\PSoC5/isr_nodeok.c **** *   Disables the Interrupt in the interrupt controller.
 352:Generated_Source\PSoC5/isr_nodeok.c **** *
 353:Generated_Source\PSoC5/isr_nodeok.c **** * Parameters:
 354:Generated_Source\PSoC5/isr_nodeok.c **** *   None
 355:Generated_Source\PSoC5/isr_nodeok.c **** *
 356:Generated_Source\PSoC5/isr_nodeok.c **** * Return:
 357:Generated_Source\PSoC5/isr_nodeok.c **** *   None
 358:Generated_Source\PSoC5/isr_nodeok.c **** *
 359:Generated_Source\PSoC5/isr_nodeok.c **** *******************************************************************************/
 360:Generated_Source\PSoC5/isr_nodeok.c **** void isr_nodeok_Disable(void)
 361:Generated_Source\PSoC5/isr_nodeok.c **** {
 454              		.loc 1 361 0
 455              		.cfi_startproc
 456              		@ args = 0, pretend = 0, frame = 0
 457              		@ frame_needed = 1, uses_anonymous_args = 0
 458              		@ link register save eliminated.
 459 0000 80B4     		push	{r7}
 460              		.cfi_def_cfa_offset 4
 461              		.cfi_offset 7, -4
 462 0002 00AF     		add	r7, sp, #0
 463              		.cfi_def_cfa_register 7
 362:Generated_Source\PSoC5/isr_nodeok.c ****     /* Disable the general interrupt. */
 363:Generated_Source\PSoC5/isr_nodeok.c ****     *isr_nodeok_INTC_CLR_EN = isr_nodeok__INTC_MASK;
 464              		.loc 1 363 0
 465 0004 034B     		ldr	r3, .L35
 466 0006 4FF48022 		mov	r2, #262144
 467 000a 1A60     		str	r2, [r3]
 364:Generated_Source\PSoC5/isr_nodeok.c **** }
 468              		.loc 1 364 0
 469 000c BD46     		mov	sp, r7
 470              		.cfi_def_cfa_register 13
 471              		@ sp needed
 472 000e 5DF8047B 		ldr	r7, [sp], #4
 473              		.cfi_restore 7
 474              		.cfi_def_cfa_offset 0
 475 0012 7047     		bx	lr
 476              	.L36:
 477              		.align	2
 478              	.L35:
 479 0014 80E100E0 		.word	-536813184
 480              		.cfi_endproc
 481              	.LFE10:
 482              		.size	isr_nodeok_Disable, .-isr_nodeok_Disable
 483              		.section	.text.isr_nodeok_SetPending,"ax",%progbits
 484              		.align	2
 485              		.global	isr_nodeok_SetPending
 486              		.thumb
 487              		.thumb_func
 488              		.type	isr_nodeok_SetPending, %function
 489              	isr_nodeok_SetPending:
 490              	.LFB11:
 365:Generated_Source\PSoC5/isr_nodeok.c **** 
ARM GAS  D:\Windows\AppData\Local\Temp\ccrzb1TJ.s 			page 16


 366:Generated_Source\PSoC5/isr_nodeok.c **** 
 367:Generated_Source\PSoC5/isr_nodeok.c **** /*******************************************************************************
 368:Generated_Source\PSoC5/isr_nodeok.c **** * Function Name: isr_nodeok_SetPending
 369:Generated_Source\PSoC5/isr_nodeok.c **** ********************************************************************************
 370:Generated_Source\PSoC5/isr_nodeok.c **** *
 371:Generated_Source\PSoC5/isr_nodeok.c **** * Summary:
 372:Generated_Source\PSoC5/isr_nodeok.c **** *   Causes the Interrupt to enter the pending state, a software method of
 373:Generated_Source\PSoC5/isr_nodeok.c **** *   generating the interrupt.
 374:Generated_Source\PSoC5/isr_nodeok.c **** *
 375:Generated_Source\PSoC5/isr_nodeok.c **** * Parameters:
 376:Generated_Source\PSoC5/isr_nodeok.c **** *   None
 377:Generated_Source\PSoC5/isr_nodeok.c **** *
 378:Generated_Source\PSoC5/isr_nodeok.c **** * Return:
 379:Generated_Source\PSoC5/isr_nodeok.c **** *   None
 380:Generated_Source\PSoC5/isr_nodeok.c **** *
 381:Generated_Source\PSoC5/isr_nodeok.c **** * Side Effects:
 382:Generated_Source\PSoC5/isr_nodeok.c **** *   If interrupts are enabled and the interrupt is set up properly, the ISR is
 383:Generated_Source\PSoC5/isr_nodeok.c **** *   entered (depending on the priority of this interrupt and other pending 
 384:Generated_Source\PSoC5/isr_nodeok.c **** *   interrupts).
 385:Generated_Source\PSoC5/isr_nodeok.c **** *
 386:Generated_Source\PSoC5/isr_nodeok.c **** *******************************************************************************/
 387:Generated_Source\PSoC5/isr_nodeok.c **** void isr_nodeok_SetPending(void)
 388:Generated_Source\PSoC5/isr_nodeok.c **** {
 491              		.loc 1 388 0
 492              		.cfi_startproc
 493              		@ args = 0, pretend = 0, frame = 0
 494              		@ frame_needed = 1, uses_anonymous_args = 0
 495              		@ link register save eliminated.
 496 0000 80B4     		push	{r7}
 497              		.cfi_def_cfa_offset 4
 498              		.cfi_offset 7, -4
 499 0002 00AF     		add	r7, sp, #0
 500              		.cfi_def_cfa_register 7
 389:Generated_Source\PSoC5/isr_nodeok.c ****     *isr_nodeok_INTC_SET_PD = isr_nodeok__INTC_MASK;
 501              		.loc 1 389 0
 502 0004 034B     		ldr	r3, .L38
 503 0006 4FF48022 		mov	r2, #262144
 504 000a 1A60     		str	r2, [r3]
 390:Generated_Source\PSoC5/isr_nodeok.c **** }
 505              		.loc 1 390 0
 506 000c BD46     		mov	sp, r7
 507              		.cfi_def_cfa_register 13
 508              		@ sp needed
 509 000e 5DF8047B 		ldr	r7, [sp], #4
 510              		.cfi_restore 7
 511              		.cfi_def_cfa_offset 0
 512 0012 7047     		bx	lr
 513              	.L39:
 514              		.align	2
 515              	.L38:
 516 0014 00E200E0 		.word	-536813056
 517              		.cfi_endproc
 518              	.LFE11:
 519              		.size	isr_nodeok_SetPending, .-isr_nodeok_SetPending
 520              		.section	.text.isr_nodeok_ClearPending,"ax",%progbits
 521              		.align	2
 522              		.global	isr_nodeok_ClearPending
ARM GAS  D:\Windows\AppData\Local\Temp\ccrzb1TJ.s 			page 17


 523              		.thumb
 524              		.thumb_func
 525              		.type	isr_nodeok_ClearPending, %function
 526              	isr_nodeok_ClearPending:
 527              	.LFB12:
 391:Generated_Source\PSoC5/isr_nodeok.c **** 
 392:Generated_Source\PSoC5/isr_nodeok.c **** 
 393:Generated_Source\PSoC5/isr_nodeok.c **** /*******************************************************************************
 394:Generated_Source\PSoC5/isr_nodeok.c **** * Function Name: isr_nodeok_ClearPending
 395:Generated_Source\PSoC5/isr_nodeok.c **** ********************************************************************************
 396:Generated_Source\PSoC5/isr_nodeok.c **** *
 397:Generated_Source\PSoC5/isr_nodeok.c **** * Summary:
 398:Generated_Source\PSoC5/isr_nodeok.c **** *   Clears a pending interrupt in the interrupt controller.
 399:Generated_Source\PSoC5/isr_nodeok.c **** *
 400:Generated_Source\PSoC5/isr_nodeok.c **** *   Note Some interrupt sources are clear-on-read and require the block 
 401:Generated_Source\PSoC5/isr_nodeok.c **** *   interrupt/status register to be read/cleared with the appropriate block API 
 402:Generated_Source\PSoC5/isr_nodeok.c **** *   (GPIO, UART, and so on). Otherwise the ISR will continue to remain in 
 403:Generated_Source\PSoC5/isr_nodeok.c **** *   pending state even though the interrupt itself is cleared using this API.
 404:Generated_Source\PSoC5/isr_nodeok.c **** *
 405:Generated_Source\PSoC5/isr_nodeok.c **** * Parameters:
 406:Generated_Source\PSoC5/isr_nodeok.c **** *   None
 407:Generated_Source\PSoC5/isr_nodeok.c **** *
 408:Generated_Source\PSoC5/isr_nodeok.c **** * Return:
 409:Generated_Source\PSoC5/isr_nodeok.c **** *   None
 410:Generated_Source\PSoC5/isr_nodeok.c **** *
 411:Generated_Source\PSoC5/isr_nodeok.c **** *******************************************************************************/
 412:Generated_Source\PSoC5/isr_nodeok.c **** void isr_nodeok_ClearPending(void)
 413:Generated_Source\PSoC5/isr_nodeok.c **** {
 528              		.loc 1 413 0
 529              		.cfi_startproc
 530              		@ args = 0, pretend = 0, frame = 0
 531              		@ frame_needed = 1, uses_anonymous_args = 0
 532              		@ link register save eliminated.
 533 0000 80B4     		push	{r7}
 534              		.cfi_def_cfa_offset 4
 535              		.cfi_offset 7, -4
 536 0002 00AF     		add	r7, sp, #0
 537              		.cfi_def_cfa_register 7
 414:Generated_Source\PSoC5/isr_nodeok.c ****     *isr_nodeok_INTC_CLR_PD = isr_nodeok__INTC_MASK;
 538              		.loc 1 414 0
 539 0004 034B     		ldr	r3, .L41
 540 0006 4FF48022 		mov	r2, #262144
 541 000a 1A60     		str	r2, [r3]
 415:Generated_Source\PSoC5/isr_nodeok.c **** }
 542              		.loc 1 415 0
 543 000c BD46     		mov	sp, r7
 544              		.cfi_def_cfa_register 13
 545              		@ sp needed
 546 000e 5DF8047B 		ldr	r7, [sp], #4
 547              		.cfi_restore 7
 548              		.cfi_def_cfa_offset 0
 549 0012 7047     		bx	lr
 550              	.L42:
 551              		.align	2
 552              	.L41:
 553 0014 80E200E0 		.word	-536812928
 554              		.cfi_endproc
ARM GAS  D:\Windows\AppData\Local\Temp\ccrzb1TJ.s 			page 18


 555              	.LFE12:
 556              		.size	isr_nodeok_ClearPending, .-isr_nodeok_ClearPending
 557              		.text
 558              	.Letext0:
 559              		.file 2 "d:\\programming\\cypress\\psoc creator\\4.0\\psoc creator\\import\\gnu\\arm\\4.9.3\\arm-n
 560              		.file 3 "d:\\programming\\cypress\\psoc creator\\4.0\\psoc creator\\import\\gnu\\arm\\4.9.3\\arm-n
 561              		.file 4 "Generated_Source\\PSoC5/cytypes.h"