ARM GAS  D:\Windows\AppData\Local\Temp\ccYfDzHQ.s 			page 1


   1              		.syntax unified
   2              		.cpu cortex-m3
   3              		.fpu softvfp
   4              		.eabi_attribute 20, 1
   5              		.eabi_attribute 21, 1
   6              		.eabi_attribute 23, 3
   7              		.eabi_attribute 24, 1
   8              		.eabi_attribute 25, 1
   9              		.eabi_attribute 26, 1
  10              		.eabi_attribute 30, 6
  11              		.eabi_attribute 34, 1
  12              		.eabi_attribute 18, 4
  13              		.thumb
  14              		.file	"led_manager.c"
  15              		.text
  16              	.Ltext0:
  17              		.cfi_sections	.debug_frame
  18              		.global	bms_temp_map
  19              		.data
  20              		.align	2
  21              		.type	bms_temp_map, %object
  22              		.size	bms_temp_map, 20
  23              	bms_temp_map:
  24 0000 40000000 		.word	64
  25 0004 45000000 		.word	69
  26 0008 50000000 		.word	80
  27 000c 55000000 		.word	85
  28 0010 60000000 		.word	96
  29              		.global	mtr_temp_map
  30              		.align	2
  31              		.type	mtr_temp_map, %object
  32              		.size	mtr_temp_map, 20
  33              	mtr_temp_map:
  34 0014 3C000000 		.word	60
  35 0018 64000000 		.word	100
  36 001c 73000000 		.word	115
  37 0020 87000000 		.word	135
  38 0024 91000000 		.word	145
  39              		.global	mtr_ctrl_temp_map
  40              		.align	2
  41              		.type	mtr_ctrl_temp_map, %object
  42              		.size	mtr_ctrl_temp_map, 20
  43              	mtr_ctrl_temp_map:
  44 0028 32000000 		.word	50
  45 002c 3C000000 		.word	60
  46 0030 46000000 		.word	70
  47 0034 50000000 		.word	80
  48 0038 5A000000 		.word	90
  49              		.global	SoC_pct_map
  50              		.align	2
  51              		.type	SoC_pct_map, %object
  52              		.size	SoC_pct_map, 20
  53              	SoC_pct_map:
  54 003c 32000000 		.word	50
  55 0040 23000000 		.word	35
  56 0044 19000000 		.word	25
  57 0048 0F000000 		.word	15
ARM GAS  D:\Windows\AppData\Local\Temp\ccYfDzHQ.s 			page 2


  58 004c 0A000000 		.word	10
  59              		.global	byte05
  60              		.bss
  61              		.type	byte05, %object
  62              		.size	byte05, 1
  63              	byte05:
  64 0000 00       		.space	1
  65              		.global	byte06
  66              		.type	byte06, %object
  67              		.size	byte06, 1
  68              	byte06:
  69 0001 00       		.space	1
  70              		.global	byte07
  71              		.type	byte07, %object
  72              		.size	byte07, 1
  73              	byte07:
  74 0002 00       		.space	1
  75              		.global	byte08
  76              		.type	byte08, %object
  77              		.size	byte08, 1
  78              	byte08:
  79 0003 00       		.space	1
  80              		.global	byte05_2
  81              		.type	byte05_2, %object
  82              		.size	byte05_2, 1
  83              	byte05_2:
  84 0004 00       		.space	1
  85              		.global	byte06_2
  86              		.type	byte06_2, %object
  87              		.size	byte06_2, 1
  88              	byte06_2:
  89 0005 00       		.space	1
  90              		.global	byte07_2
  91              		.type	byte07_2, %object
  92              		.size	byte07_2, 1
  93              	byte07_2:
  94 0006 00       		.space	1
  95              		.global	byte08_2
  96              		.type	byte08_2, %object
  97              		.size	byte08_2, 1
  98              	byte08_2:
  99 0007 00       		.space	1
 100              		.global	tach_arr
 101              		.align	2
 102              		.type	tach_arr, %object
 103              		.size	tach_arr, 88
 104              	tach_arr:
 105 0008 00000000 		.space	88
 105      00000000 
 105      00000000 
 105      00000000 
 105      00000000 
 106              		.global	b1_arr
 107              		.align	2
 108              		.type	b1_arr, %object
 109              		.size	b1_arr, 20
 110              	b1_arr:
ARM GAS  D:\Windows\AppData\Local\Temp\ccYfDzHQ.s 			page 3


 111 0060 00000000 		.space	20
 111      00000000 
 111      00000000 
 111      00000000 
 111      00000000 
 112              		.global	b2_arr
 113              		.align	2
 114              		.type	b2_arr, %object
 115              		.size	b2_arr, 20
 116              	b2_arr:
 117 0074 00000000 		.space	20
 117      00000000 
 117      00000000 
 117      00000000 
 117      00000000 
 118              		.global	b3_arr
 119              		.align	2
 120              		.type	b3_arr, %object
 121              		.size	b3_arr, 20
 122              	b3_arr:
 123 0088 00000000 		.space	20
 123      00000000 
 123      00000000 
 123      00000000 
 123      00000000 
 124              		.global	c1_arr
 125              		.align	2
 126              		.type	c1_arr, %object
 127              		.size	c1_arr, 20
 128              	c1_arr:
 129 009c 00000000 		.space	20
 129      00000000 
 129      00000000 
 129      00000000 
 129      00000000 
 130              		.global	tach_critical
 131              		.align	2
 132              		.type	tach_critical, %object
 133              		.size	tach_critical, 4
 134              	tach_critical:
 135 00b0 00000000 		.space	4
 136              		.global	b1_critical
 137              		.align	2
 138              		.type	b1_critical, %object
 139              		.size	b1_critical, 4
 140              	b1_critical:
 141 00b4 00000000 		.space	4
 142              		.global	b2_critical
 143              		.align	2
 144              		.type	b2_critical, %object
 145              		.size	b2_critical, 4
 146              	b2_critical:
 147 00b8 00000000 		.space	4
 148              		.global	b3_critical
 149              		.align	2
 150              		.type	b3_critical, %object
 151              		.size	b3_critical, 4
ARM GAS  D:\Windows\AppData\Local\Temp\ccYfDzHQ.s 			page 4


 152              	b3_critical:
 153 00bc 00000000 		.space	4
 154              		.global	c1_critical
 155              		.align	2
 156              		.type	c1_critical, %object
 157              		.size	c1_critical, 4
 158              	c1_critical:
 159 00c0 00000000 		.space	4
 160              		.global	tach_crit_led
 161              		.align	2
 162              		.type	tach_crit_led, %object
 163              		.size	tach_crit_led, 4
 164              	tach_crit_led:
 165 00c4 00000000 		.space	4
 166              		.global	b1_crit_led
 167              		.align	2
 168              		.type	b1_crit_led, %object
 169              		.size	b1_crit_led, 4
 170              	b1_crit_led:
 171 00c8 00000000 		.space	4
 172              		.global	b2_crit_led
 173              		.align	2
 174              		.type	b2_crit_led, %object
 175              		.size	b2_crit_led, 4
 176              	b2_crit_led:
 177 00cc 00000000 		.space	4
 178              		.global	b3_crit_led
 179              		.align	2
 180              		.type	b3_crit_led, %object
 181              		.size	b3_crit_led, 4
 182              	b3_crit_led:
 183 00d0 00000000 		.space	4
 184              		.global	c1_crit_led
 185              		.align	2
 186              		.type	c1_crit_led, %object
 187              		.size	c1_crit_led, 4
 188              	c1_crit_led:
 189 00d4 00000000 		.space	4
 190              		.section	.text.tach_crit_isr,"ax",%progbits
 191              		.align	2
 192              		.global	tach_crit_isr
 193              		.thumb
 194              		.thumb_func
 195              		.type	tach_crit_isr, %function
 196              	tach_crit_isr:
 197              	.LFB63:
 198              		.file 1 "led_manager.c"
   1:led_manager.c **** /*	Recieves CAN information for motor RPM, BMS temp, motor temp, motor controller temp 
   2:led_manager.c **** 	and SoC and displatys on LED's.
   3:led_manager.c ****     
   4:led_manager.c ****     Dustin Mai, 2016-2017 FRUCD
   5:led_manager.c ****     
   6:led_manager.c **** 	tach = RPM
   7:led_manager.c **** 	b1 = BMS temp
   8:led_manager.c **** 	b2 = motor temp
   9:led_manager.c **** 	b3 = motor controller temp
  10:led_manager.c **** 	c1 = SoC
ARM GAS  D:\Windows\AppData\Local\Temp\ccYfDzHQ.s 			page 5


  11:led_manager.c **** */
  12:led_manager.c **** 
  13:led_manager.c **** #include "led_manager.h"
  14:led_manager.c **** 
  15:led_manager.c **** //temperature (C), step points for each 5-LED monitor set
  16:led_manager.c **** int bms_temp_map[] = {0x40, 0x45, 0x50, 0x55, 0x60};
  17:led_manager.c **** int mtr_temp_map[] = {60, 100, 115, 135, 145};
  18:led_manager.c **** int mtr_ctrl_temp_map[] = {50, 60, 70, 80, 90};
  19:led_manager.c **** int SoC_pct_map[] = {50, 35, 25, 15, 10};
  20:led_manager.c **** 
  21:led_manager.c **** //byte of LED address which holds which led's are on/off
  22:led_manager.c **** uint8_t byte05 = 0x00;
  23:led_manager.c **** uint8_t byte06 = 0x00;
  24:led_manager.c **** uint8_t byte07 = 0x00;
  25:led_manager.c **** uint8_t byte08 = 0x00;
  26:led_manager.c **** 
  27:led_manager.c **** uint8_t byte05_2 = 0x00;
  28:led_manager.c **** uint8_t byte06_2 = 0x00;
  29:led_manager.c **** uint8_t byte07_2 = 0x00;
  30:led_manager.c **** uint8_t byte08_2 = 0x00;
  31:led_manager.c **** 
  32:led_manager.c **** //holds which led's are on/off
  33:led_manager.c **** int tach_arr[22] = {0,0,0,0,0,0,0,0,0,0,0,0,0,0,0,0,0,0,0,0,0,0};
  34:led_manager.c **** int b1_arr[5] = {0,0,0,0,0};
  35:led_manager.c **** int b2_arr[5] = {0,0,0,0,0};
  36:led_manager.c **** int b3_arr[5] = {0,0,0,0,0};
  37:led_manager.c **** int c1_arr[5] = {0,0,0,0,0};
  38:led_manager.c **** 
  39:led_manager.c **** int tach_critical = 0;
  40:led_manager.c **** int b1_critical = 0;
  41:led_manager.c **** int b2_critical = 0;
  42:led_manager.c **** int b3_critical = 0;
  43:led_manager.c **** int c1_critical = 0;
  44:led_manager.c **** 
  45:led_manager.c **** int tach_crit_led = 0;  //led status to toggle them on/off when monitor reaches critical
  46:led_manager.c **** int b1_crit_led = 0;	
  47:led_manager.c **** int b2_crit_led = 0;
  48:led_manager.c **** int b3_crit_led = 0;
  49:led_manager.c **** int c1_crit_led = 0;
  50:led_manager.c **** 
  51:led_manager.c **** CY_ISR(tach_crit_isr) {
 199              		.loc 1 51 0
 200              		.cfi_startproc
 201              		@ args = 0, pretend = 0, frame = 0
 202              		@ frame_needed = 1, uses_anonymous_args = 0
 203 0000 80B5     		push	{r7, lr}
 204              		.cfi_def_cfa_offset 8
 205              		.cfi_offset 7, -8
 206              		.cfi_offset 14, -4
 207 0002 00AF     		add	r7, sp, #0
 208              		.cfi_def_cfa_register 7
  52:led_manager.c ****     tach_crit_led = tach_crit_led == 0 ? 1:0;
 209              		.loc 1 52 0
 210 0004 3D4B     		ldr	r3, .L2
 211 0006 1B68     		ldr	r3, [r3]
 212 0008 002B     		cmp	r3, #0
 213 000a 0CBF     		ite	eq
ARM GAS  D:\Windows\AppData\Local\Temp\ccYfDzHQ.s 			page 6


 214 000c 0123     		moveq	r3, #1
 215 000e 0023     		movne	r3, #0
 216 0010 DBB2     		uxtb	r3, r3
 217 0012 1A46     		mov	r2, r3
 218 0014 394B     		ldr	r3, .L2
 219 0016 1A60     		str	r2, [r3]
  53:led_manager.c ****     d1_write(tach_crit_led);
 220              		.loc 1 53 0
 221 0018 384B     		ldr	r3, .L2
 222 001a 1B68     		ldr	r3, [r3]
 223 001c 1846     		mov	r0, r3
 224 001e FFF7FEFF 		bl	d1_write
  54:led_manager.c ****     d2_write(tach_crit_led);
 225              		.loc 1 54 0
 226 0022 364B     		ldr	r3, .L2
 227 0024 1B68     		ldr	r3, [r3]
 228 0026 1846     		mov	r0, r3
 229 0028 FFF7FEFF 		bl	d2_write
  55:led_manager.c ****     d3_write(tach_crit_led);
 230              		.loc 1 55 0
 231 002c 334B     		ldr	r3, .L2
 232 002e 1B68     		ldr	r3, [r3]
 233 0030 1846     		mov	r0, r3
 234 0032 FFF7FEFF 		bl	d3_write
  56:led_manager.c ****     d4_write(tach_crit_led);
 235              		.loc 1 56 0
 236 0036 314B     		ldr	r3, .L2
 237 0038 1B68     		ldr	r3, [r3]
 238 003a 1846     		mov	r0, r3
 239 003c FFF7FEFF 		bl	d4_write
  57:led_manager.c ****     d5_write(tach_crit_led);
 240              		.loc 1 57 0
 241 0040 2E4B     		ldr	r3, .L2
 242 0042 1B68     		ldr	r3, [r3]
 243 0044 1846     		mov	r0, r3
 244 0046 FFF7FEFF 		bl	d5_write
  58:led_manager.c ****     d6_write(tach_crit_led);
 245              		.loc 1 58 0
 246 004a 2C4B     		ldr	r3, .L2
 247 004c 1B68     		ldr	r3, [r3]
 248 004e 1846     		mov	r0, r3
 249 0050 FFF7FEFF 		bl	d6_write
  59:led_manager.c ****     d7_write(tach_crit_led);
 250              		.loc 1 59 0
 251 0054 294B     		ldr	r3, .L2
 252 0056 1B68     		ldr	r3, [r3]
 253 0058 1846     		mov	r0, r3
 254 005a FFF7FEFF 		bl	d7_write
  60:led_manager.c ****     d8_write(tach_crit_led);
 255              		.loc 1 60 0
 256 005e 274B     		ldr	r3, .L2
 257 0060 1B68     		ldr	r3, [r3]
 258 0062 1846     		mov	r0, r3
 259 0064 FFF7FEFF 		bl	d8_write
  61:led_manager.c ****     d9_write(tach_crit_led);
 260              		.loc 1 61 0
 261 0068 244B     		ldr	r3, .L2
ARM GAS  D:\Windows\AppData\Local\Temp\ccYfDzHQ.s 			page 7


 262 006a 1B68     		ldr	r3, [r3]
 263 006c 1846     		mov	r0, r3
 264 006e FFF7FEFF 		bl	d9_write
  62:led_manager.c ****     d10_write(tach_crit_led);
 265              		.loc 1 62 0
 266 0072 224B     		ldr	r3, .L2
 267 0074 1B68     		ldr	r3, [r3]
 268 0076 1846     		mov	r0, r3
 269 0078 FFF7FEFF 		bl	d10_write
  63:led_manager.c ****     d11_write(tach_crit_led);
 270              		.loc 1 63 0
 271 007c 1F4B     		ldr	r3, .L2
 272 007e 1B68     		ldr	r3, [r3]
 273 0080 1846     		mov	r0, r3
 274 0082 FFF7FEFF 		bl	d11_write
  64:led_manager.c ****     d12_write(tach_crit_led);
 275              		.loc 1 64 0
 276 0086 1D4B     		ldr	r3, .L2
 277 0088 1B68     		ldr	r3, [r3]
 278 008a 1846     		mov	r0, r3
 279 008c FFF7FEFF 		bl	d12_write
  65:led_manager.c ****     d13_write(tach_crit_led);
 280              		.loc 1 65 0
 281 0090 1A4B     		ldr	r3, .L2
 282 0092 1B68     		ldr	r3, [r3]
 283 0094 1846     		mov	r0, r3
 284 0096 FFF7FEFF 		bl	d13_write
  66:led_manager.c ****     d14_write(tach_crit_led);
 285              		.loc 1 66 0
 286 009a 184B     		ldr	r3, .L2
 287 009c 1B68     		ldr	r3, [r3]
 288 009e 1846     		mov	r0, r3
 289 00a0 FFF7FEFF 		bl	d14_write
  67:led_manager.c ****     d15_write(tach_crit_led);
 290              		.loc 1 67 0
 291 00a4 154B     		ldr	r3, .L2
 292 00a6 1B68     		ldr	r3, [r3]
 293 00a8 1846     		mov	r0, r3
 294 00aa FFF7FEFF 		bl	d15_write
  68:led_manager.c ****     d16_write(tach_crit_led);
 295              		.loc 1 68 0
 296 00ae 134B     		ldr	r3, .L2
 297 00b0 1B68     		ldr	r3, [r3]
 298 00b2 1846     		mov	r0, r3
 299 00b4 FFF7FEFF 		bl	d16_write
  69:led_manager.c ****     d17_write(tach_crit_led);
 300              		.loc 1 69 0
 301 00b8 104B     		ldr	r3, .L2
 302 00ba 1B68     		ldr	r3, [r3]
 303 00bc 1846     		mov	r0, r3
 304 00be FFF7FEFF 		bl	d17_write
  70:led_manager.c ****     d18_write(tach_crit_led);
 305              		.loc 1 70 0
 306 00c2 0E4B     		ldr	r3, .L2
 307 00c4 1B68     		ldr	r3, [r3]
 308 00c6 1846     		mov	r0, r3
 309 00c8 FFF7FEFF 		bl	d18_write
ARM GAS  D:\Windows\AppData\Local\Temp\ccYfDzHQ.s 			page 8


  71:led_manager.c ****     d19_write(tach_crit_led);
 310              		.loc 1 71 0
 311 00cc 0B4B     		ldr	r3, .L2
 312 00ce 1B68     		ldr	r3, [r3]
 313 00d0 1846     		mov	r0, r3
 314 00d2 FFF7FEFF 		bl	d19_write
  72:led_manager.c ****     d20_write(tach_crit_led);
 315              		.loc 1 72 0
 316 00d6 094B     		ldr	r3, .L2
 317 00d8 1B68     		ldr	r3, [r3]
 318 00da 1846     		mov	r0, r3
 319 00dc FFF7FEFF 		bl	d20_write
  73:led_manager.c ****     d21_write(tach_crit_led);
 320              		.loc 1 73 0
 321 00e0 064B     		ldr	r3, .L2
 322 00e2 1B68     		ldr	r3, [r3]
 323 00e4 1846     		mov	r0, r3
 324 00e6 FFF7FEFF 		bl	d21_write
  74:led_manager.c ****     d22_write(tach_crit_led);
 325              		.loc 1 74 0
 326 00ea 044B     		ldr	r3, .L2
 327 00ec 1B68     		ldr	r3, [r3]
 328 00ee 1846     		mov	r0, r3
 329 00f0 FFF7FEFF 		bl	d22_write
  75:led_manager.c ****     led_update_tach();
 330              		.loc 1 75 0
 331 00f4 FFF7FEFF 		bl	led_update_tach
  76:led_manager.c **** }
 332              		.loc 1 76 0
 333 00f8 80BD     		pop	{r7, pc}
 334              	.L3:
 335 00fa 00BF     		.align	2
 336              	.L2:
 337 00fc 00000000 		.word	tach_crit_led
 338              		.cfi_endproc
 339              	.LFE63:
 340              		.size	tach_crit_isr, .-tach_crit_isr
 341              		.section	.text.b1_crit_isr,"ax",%progbits
 342              		.align	2
 343              		.global	b1_crit_isr
 344              		.thumb
 345              		.thumb_func
 346              		.type	b1_crit_isr, %function
 347              	b1_crit_isr:
 348              	.LFB64:
  77:led_manager.c **** 
  78:led_manager.c **** 
  79:led_manager.c **** CY_ISR(b1_crit_isr) {
 349              		.loc 1 79 0
 350              		.cfi_startproc
 351              		@ args = 0, pretend = 0, frame = 0
 352              		@ frame_needed = 1, uses_anonymous_args = 0
 353 0000 80B5     		push	{r7, lr}
 354              		.cfi_def_cfa_offset 8
 355              		.cfi_offset 7, -8
 356              		.cfi_offset 14, -4
 357 0002 00AF     		add	r7, sp, #0
ARM GAS  D:\Windows\AppData\Local\Temp\ccYfDzHQ.s 			page 9


 358              		.cfi_def_cfa_register 7
  80:led_manager.c **** 	b1_crit_led = b1_crit_led == 0 ? 1:0;
 359              		.loc 1 80 0
 360 0004 124B     		ldr	r3, .L5
 361 0006 1B68     		ldr	r3, [r3]
 362 0008 002B     		cmp	r3, #0
 363 000a 0CBF     		ite	eq
 364 000c 0123     		moveq	r3, #1
 365 000e 0023     		movne	r3, #0
 366 0010 DBB2     		uxtb	r3, r3
 367 0012 1A46     		mov	r2, r3
 368 0014 0E4B     		ldr	r3, .L5
 369 0016 1A60     		str	r2, [r3]
  81:led_manager.c **** 	b11_write(b1_crit_led);
 370              		.loc 1 81 0
 371 0018 0D4B     		ldr	r3, .L5
 372 001a 1B68     		ldr	r3, [r3]
 373 001c 1846     		mov	r0, r3
 374 001e FFF7FEFF 		bl	b11_write
  82:led_manager.c **** 	b12_write(b1_crit_led);
 375              		.loc 1 82 0
 376 0022 0B4B     		ldr	r3, .L5
 377 0024 1B68     		ldr	r3, [r3]
 378 0026 1846     		mov	r0, r3
 379 0028 FFF7FEFF 		bl	b12_write
  83:led_manager.c **** 	b13_write(b1_crit_led);
 380              		.loc 1 83 0
 381 002c 084B     		ldr	r3, .L5
 382 002e 1B68     		ldr	r3, [r3]
 383 0030 1846     		mov	r0, r3
 384 0032 FFF7FEFF 		bl	b13_write
  84:led_manager.c **** 	b14_write(b1_crit_led);
 385              		.loc 1 84 0
 386 0036 064B     		ldr	r3, .L5
 387 0038 1B68     		ldr	r3, [r3]
 388 003a 1846     		mov	r0, r3
 389 003c FFF7FEFF 		bl	b14_write
  85:led_manager.c **** 	b15_write(b1_crit_led);
 390              		.loc 1 85 0
 391 0040 034B     		ldr	r3, .L5
 392 0042 1B68     		ldr	r3, [r3]
 393 0044 1846     		mov	r0, r3
 394 0046 FFF7FEFF 		bl	b15_write
  86:led_manager.c ****     led_update_stat();
 395              		.loc 1 86 0
 396 004a FFF7FEFF 		bl	led_update_stat
  87:led_manager.c **** 
  88:led_manager.c **** }
 397              		.loc 1 88 0
 398 004e 80BD     		pop	{r7, pc}
 399              	.L6:
 400              		.align	2
 401              	.L5:
 402 0050 00000000 		.word	b1_crit_led
 403              		.cfi_endproc
 404              	.LFE64:
 405              		.size	b1_crit_isr, .-b1_crit_isr
ARM GAS  D:\Windows\AppData\Local\Temp\ccYfDzHQ.s 			page 10


 406              		.section	.text.b2_crit_isr,"ax",%progbits
 407              		.align	2
 408              		.global	b2_crit_isr
 409              		.thumb
 410              		.thumb_func
 411              		.type	b2_crit_isr, %function
 412              	b2_crit_isr:
 413              	.LFB65:
  89:led_manager.c **** CY_ISR(b2_crit_isr) {
 414              		.loc 1 89 0
 415              		.cfi_startproc
 416              		@ args = 0, pretend = 0, frame = 0
 417              		@ frame_needed = 1, uses_anonymous_args = 0
 418 0000 80B5     		push	{r7, lr}
 419              		.cfi_def_cfa_offset 8
 420              		.cfi_offset 7, -8
 421              		.cfi_offset 14, -4
 422 0002 00AF     		add	r7, sp, #0
 423              		.cfi_def_cfa_register 7
  90:led_manager.c **** 	b2_crit_led = b2_crit_led == 0 ? 1:0;
 424              		.loc 1 90 0
 425 0004 124B     		ldr	r3, .L8
 426 0006 1B68     		ldr	r3, [r3]
 427 0008 002B     		cmp	r3, #0
 428 000a 0CBF     		ite	eq
 429 000c 0123     		moveq	r3, #1
 430 000e 0023     		movne	r3, #0
 431 0010 DBB2     		uxtb	r3, r3
 432 0012 1A46     		mov	r2, r3
 433 0014 0E4B     		ldr	r3, .L8
 434 0016 1A60     		str	r2, [r3]
  91:led_manager.c **** 	b21_write(b2_crit_led);
 435              		.loc 1 91 0
 436 0018 0D4B     		ldr	r3, .L8
 437 001a 1B68     		ldr	r3, [r3]
 438 001c 1846     		mov	r0, r3
 439 001e FFF7FEFF 		bl	b21_write
  92:led_manager.c **** 	b22_write(b2_crit_led);
 440              		.loc 1 92 0
 441 0022 0B4B     		ldr	r3, .L8
 442 0024 1B68     		ldr	r3, [r3]
 443 0026 1846     		mov	r0, r3
 444 0028 FFF7FEFF 		bl	b22_write
  93:led_manager.c **** 	b23_write(b2_crit_led);
 445              		.loc 1 93 0
 446 002c 084B     		ldr	r3, .L8
 447 002e 1B68     		ldr	r3, [r3]
 448 0030 1846     		mov	r0, r3
 449 0032 FFF7FEFF 		bl	b23_write
  94:led_manager.c **** 	b24_write(b2_crit_led);
 450              		.loc 1 94 0
 451 0036 064B     		ldr	r3, .L8
 452 0038 1B68     		ldr	r3, [r3]
 453 003a 1846     		mov	r0, r3
 454 003c FFF7FEFF 		bl	b24_write
  95:led_manager.c **** 	b25_write(b2_crit_led);
 455              		.loc 1 95 0
ARM GAS  D:\Windows\AppData\Local\Temp\ccYfDzHQ.s 			page 11


 456 0040 034B     		ldr	r3, .L8
 457 0042 1B68     		ldr	r3, [r3]
 458 0044 1846     		mov	r0, r3
 459 0046 FFF7FEFF 		bl	b25_write
  96:led_manager.c ****     led_update_stat();
 460              		.loc 1 96 0
 461 004a FFF7FEFF 		bl	led_update_stat
  97:led_manager.c **** 
  98:led_manager.c **** }
 462              		.loc 1 98 0
 463 004e 80BD     		pop	{r7, pc}
 464              	.L9:
 465              		.align	2
 466              	.L8:
 467 0050 00000000 		.word	b2_crit_led
 468              		.cfi_endproc
 469              	.LFE65:
 470              		.size	b2_crit_isr, .-b2_crit_isr
 471              		.section	.text.b3_crit_isr,"ax",%progbits
 472              		.align	2
 473              		.global	b3_crit_isr
 474              		.thumb
 475              		.thumb_func
 476              		.type	b3_crit_isr, %function
 477              	b3_crit_isr:
 478              	.LFB66:
  99:led_manager.c **** CY_ISR(b3_crit_isr) {
 479              		.loc 1 99 0
 480              		.cfi_startproc
 481              		@ args = 0, pretend = 0, frame = 0
 482              		@ frame_needed = 1, uses_anonymous_args = 0
 483 0000 80B5     		push	{r7, lr}
 484              		.cfi_def_cfa_offset 8
 485              		.cfi_offset 7, -8
 486              		.cfi_offset 14, -4
 487 0002 00AF     		add	r7, sp, #0
 488              		.cfi_def_cfa_register 7
 100:led_manager.c **** 	b3_crit_led = b3_crit_led == 0 ? 1:0;
 489              		.loc 1 100 0
 490 0004 124B     		ldr	r3, .L11
 491 0006 1B68     		ldr	r3, [r3]
 492 0008 002B     		cmp	r3, #0
 493 000a 0CBF     		ite	eq
 494 000c 0123     		moveq	r3, #1
 495 000e 0023     		movne	r3, #0
 496 0010 DBB2     		uxtb	r3, r3
 497 0012 1A46     		mov	r2, r3
 498 0014 0E4B     		ldr	r3, .L11
 499 0016 1A60     		str	r2, [r3]
 101:led_manager.c **** 	b31_write(b3_crit_led);
 500              		.loc 1 101 0
 501 0018 0D4B     		ldr	r3, .L11
 502 001a 1B68     		ldr	r3, [r3]
 503 001c 1846     		mov	r0, r3
 504 001e FFF7FEFF 		bl	b31_write
 102:led_manager.c **** 	b32_write(b3_crit_led);
 505              		.loc 1 102 0
ARM GAS  D:\Windows\AppData\Local\Temp\ccYfDzHQ.s 			page 12


 506 0022 0B4B     		ldr	r3, .L11
 507 0024 1B68     		ldr	r3, [r3]
 508 0026 1846     		mov	r0, r3
 509 0028 FFF7FEFF 		bl	b32_write
 103:led_manager.c **** 	b33_write(b3_crit_led);
 510              		.loc 1 103 0
 511 002c 084B     		ldr	r3, .L11
 512 002e 1B68     		ldr	r3, [r3]
 513 0030 1846     		mov	r0, r3
 514 0032 FFF7FEFF 		bl	b33_write
 104:led_manager.c **** 	b34_write(b3_crit_led);
 515              		.loc 1 104 0
 516 0036 064B     		ldr	r3, .L11
 517 0038 1B68     		ldr	r3, [r3]
 518 003a 1846     		mov	r0, r3
 519 003c FFF7FEFF 		bl	b34_write
 105:led_manager.c **** 	b35_write(b3_crit_led);
 520              		.loc 1 105 0
 521 0040 034B     		ldr	r3, .L11
 522 0042 1B68     		ldr	r3, [r3]
 523 0044 1846     		mov	r0, r3
 524 0046 FFF7FEFF 		bl	b35_write
 106:led_manager.c ****     led_update_stat();
 525              		.loc 1 106 0
 526 004a FFF7FEFF 		bl	led_update_stat
 107:led_manager.c **** 
 108:led_manager.c **** }
 527              		.loc 1 108 0
 528 004e 80BD     		pop	{r7, pc}
 529              	.L12:
 530              		.align	2
 531              	.L11:
 532 0050 00000000 		.word	b3_crit_led
 533              		.cfi_endproc
 534              	.LFE66:
 535              		.size	b3_crit_isr, .-b3_crit_isr
 536              		.section	.text.c1_crit_isr,"ax",%progbits
 537              		.align	2
 538              		.global	c1_crit_isr
 539              		.thumb
 540              		.thumb_func
 541              		.type	c1_crit_isr, %function
 542              	c1_crit_isr:
 543              	.LFB67:
 109:led_manager.c **** CY_ISR(c1_crit_isr) {
 544              		.loc 1 109 0
 545              		.cfi_startproc
 546              		@ args = 0, pretend = 0, frame = 0
 547              		@ frame_needed = 1, uses_anonymous_args = 0
 548 0000 80B5     		push	{r7, lr}
 549              		.cfi_def_cfa_offset 8
 550              		.cfi_offset 7, -8
 551              		.cfi_offset 14, -4
 552 0002 00AF     		add	r7, sp, #0
 553              		.cfi_def_cfa_register 7
 110:led_manager.c **** 	c1_crit_led = c1_crit_led == 0 ? 1:0;
 554              		.loc 1 110 0
ARM GAS  D:\Windows\AppData\Local\Temp\ccYfDzHQ.s 			page 13


 555 0004 124B     		ldr	r3, .L14
 556 0006 1B68     		ldr	r3, [r3]
 557 0008 002B     		cmp	r3, #0
 558 000a 0CBF     		ite	eq
 559 000c 0123     		moveq	r3, #1
 560 000e 0023     		movne	r3, #0
 561 0010 DBB2     		uxtb	r3, r3
 562 0012 1A46     		mov	r2, r3
 563 0014 0E4B     		ldr	r3, .L14
 564 0016 1A60     		str	r2, [r3]
 111:led_manager.c **** 	c1_write(c1_crit_led);
 565              		.loc 1 111 0
 566 0018 0D4B     		ldr	r3, .L14
 567 001a 1B68     		ldr	r3, [r3]
 568 001c 1846     		mov	r0, r3
 569 001e FFF7FEFF 		bl	c1_write
 112:led_manager.c **** 	c2_write(c1_crit_led);
 570              		.loc 1 112 0
 571 0022 0B4B     		ldr	r3, .L14
 572 0024 1B68     		ldr	r3, [r3]
 573 0026 1846     		mov	r0, r3
 574 0028 FFF7FEFF 		bl	c2_write
 113:led_manager.c **** 	c3_write(c1_crit_led);
 575              		.loc 1 113 0
 576 002c 084B     		ldr	r3, .L14
 577 002e 1B68     		ldr	r3, [r3]
 578 0030 1846     		mov	r0, r3
 579 0032 FFF7FEFF 		bl	c3_write
 114:led_manager.c **** 	c4_write(c1_crit_led);
 580              		.loc 1 114 0
 581 0036 064B     		ldr	r3, .L14
 582 0038 1B68     		ldr	r3, [r3]
 583 003a 1846     		mov	r0, r3
 584 003c FFF7FEFF 		bl	c4_write
 115:led_manager.c **** 	c5_write(c1_crit_led);
 585              		.loc 1 115 0
 586 0040 034B     		ldr	r3, .L14
 587 0042 1B68     		ldr	r3, [r3]
 588 0044 1846     		mov	r0, r3
 589 0046 FFF7FEFF 		bl	c5_write
 116:led_manager.c ****     led_update_stat();
 590              		.loc 1 116 0
 591 004a FFF7FEFF 		bl	led_update_stat
 117:led_manager.c **** }
 592              		.loc 1 117 0
 593 004e 80BD     		pop	{r7, pc}
 594              	.L15:
 595              		.align	2
 596              	.L14:
 597 0050 00000000 		.word	c1_crit_led
 598              		.cfi_endproc
 599              	.LFE67:
 600              		.size	c1_crit_isr, .-c1_crit_isr
 601              		.section	.text.led_driver_init,"ax",%progbits
 602              		.align	2
 603              		.global	led_driver_init
 604              		.thumb
ARM GAS  D:\Windows\AppData\Local\Temp\ccYfDzHQ.s 			page 14


 605              		.thumb_func
 606              		.type	led_driver_init, %function
 607              	led_driver_init:
 608              	.LFB68:
 118:led_manager.c **** 
 119:led_manager.c **** 
 120:led_manager.c **** void led_driver_init() {
 609              		.loc 1 120 0
 610              		.cfi_startproc
 611              		@ args = 0, pretend = 0, frame = 8
 612              		@ frame_needed = 1, uses_anonymous_args = 0
 613 0000 80B5     		push	{r7, lr}
 614              		.cfi_def_cfa_offset 8
 615              		.cfi_offset 7, -8
 616              		.cfi_offset 14, -4
 617 0002 82B0     		sub	sp, sp, #8
 618              		.cfi_def_cfa_offset 16
 619 0004 00AF     		add	r7, sp, #0
 620              		.cfi_def_cfa_register 7
 121:led_manager.c ****     int status = 0;
 621              		.loc 1 121 0
 622 0006 0023     		movs	r3, #0
 623 0008 7B60     		str	r3, [r7, #4]
 122:led_manager.c **** 	//LED_Driver1_Start();
 123:led_manager.c **** 	LED_Driver2_Start();
 624              		.loc 1 123 0
 625 000a FFF7FEFF 		bl	LED_Driver2_Start
 124:led_manager.c ****     /*
 125:led_manager.c **** 	//tach settings
 126:led_manager.c **** 	LED_Driver1_MasterSendStart(LED_ADDR, 0);
 127:led_manager.c **** 	LED_Driver1_MasterWriteByte(0x00);				//move to 0x00 addr
 128:led_manager.c **** 	LED_Driver1_MasterWriteByte(serial_setting);	//0x00 addr
 129:led_manager.c **** 	LED_Driver1_MasterWriteByte(fade_setting);		//x01
 130:led_manager.c **** 	LED_Driver1_MasterWriteByte(RLED_curr);			//x02
 131:led_manager.c **** 	LED_Driver1_MasterWriteByte(GLED_curr);			//x03
 132:led_manager.c **** 	LED_Driver1_MasterWriteByte(BLED_curr);			//x04
 133:led_manager.c **** 	LED_Driver1_MasterSendStop();
 134:led_manager.c ****     CyDelay(50);
 135:led_manager.c **** 
 136:led_manager.c ****     LED_Driver1_MasterSendStart(LED_ADDR, 0);
 137:led_manager.c ****     LED_Driver1_MasterWriteByte(0x09);
 138:led_manager.c **** 	LED_Driver1_MasterWriteByte(output_setting);	//x09 addr
 139:led_manager.c **** 	LED_Driver1_MasterWriteByte(output_setting);	//x0A
 140:led_manager.c **** 	LED_Driver1_MasterWriteByte(output_setting);	//x0B
 141:led_manager.c **** 	LED_Driver1_MasterWriteByte(output_setting);	//x0C
 142:led_manager.c **** 	LED_Driver1_MasterWriteByte(output_setting);	//x0D
 143:led_manager.c **** 	LED_Driver1_MasterWriteByte(output_setting);	//x0E
 144:led_manager.c **** 	LED_Driver1_MasterWriteByte(fade_fn);			//x0F	LEDR
 145:led_manager.c **** 	LED_Driver1_MasterWriteByte(fade_fn);			//x10	LEDG
 146:led_manager.c **** 	LED_Driver1_MasterWriteByte(fade_fn);			//x11	LEDB
 147:led_manager.c **** 	LED_Driver1_MasterSendStop();
 148:led_manager.c ****     CyDelay(50);
 149:led_manager.c ****     */
 150:led_manager.c **** 	//monitor settings
 151:led_manager.c ****     LED_Driver2_MasterSendStart(LED_ADDR, 0);		//set mode
 626              		.loc 1 151 0
 627 000e 4020     		movs	r0, #64
ARM GAS  D:\Windows\AppData\Local\Temp\ccYfDzHQ.s 			page 15


 628 0010 0021     		movs	r1, #0
 629 0012 FFF7FEFF 		bl	LED_Driver2_MasterSendStart
 152:led_manager.c **** 	LED_Driver2_MasterWriteByte(0x00);				//move to 0x00 addr
 630              		.loc 1 152 0
 631 0016 0020     		movs	r0, #0
 632 0018 FFF7FEFF 		bl	LED_Driver2_MasterWriteByte
 153:led_manager.c **** 	LED_Driver2_MasterWriteByte(serial_setting);	//0x00 addr
 633              		.loc 1 153 0
 634 001c 0020     		movs	r0, #0
 635 001e FFF7FEFF 		bl	LED_Driver2_MasterWriteByte
 154:led_manager.c **** 	LED_Driver2_MasterWriteByte(fade_setting);		//x01
 636              		.loc 1 154 0
 637 0022 0020     		movs	r0, #0
 638 0024 FFF7FEFF 		bl	LED_Driver2_MasterWriteByte
 155:led_manager.c **** 	LED_Driver2_MasterWriteByte(RLED_curr);			//x02
 639              		.loc 1 155 0
 640 0028 1F20     		movs	r0, #31
 641 002a FFF7FEFF 		bl	LED_Driver2_MasterWriteByte
 156:led_manager.c **** 	LED_Driver2_MasterWriteByte(GLED_curr);			//x03
 642              		.loc 1 156 0
 643 002e 1F20     		movs	r0, #31
 644 0030 FFF7FEFF 		bl	LED_Driver2_MasterWriteByte
 157:led_manager.c **** 	LED_Driver2_MasterWriteByte(BLED_curr);			//x04
 645              		.loc 1 157 0
 646 0034 1F20     		movs	r0, #31
 647 0036 FFF7FEFF 		bl	LED_Driver2_MasterWriteByte
 158:led_manager.c **** 	LED_Driver2_MasterSendStop();
 648              		.loc 1 158 0
 649 003a FFF7FEFF 		bl	LED_Driver2_MasterSendStop
 159:led_manager.c ****     CyDelay(50);
 650              		.loc 1 159 0
 651 003e 3220     		movs	r0, #50
 652 0040 FFF7FEFF 		bl	CyDelay
 160:led_manager.c ****     
 161:led_manager.c ****     LED_Driver2_MasterSendStart(LED_ADDR, 0);		//set output setting PWM
 653              		.loc 1 161 0
 654 0044 4020     		movs	r0, #64
 655 0046 0021     		movs	r1, #0
 656 0048 FFF7FEFF 		bl	LED_Driver2_MasterSendStart
 162:led_manager.c **** 	LED_Driver2_MasterWriteByte(0x09);
 657              		.loc 1 162 0
 658 004c 0920     		movs	r0, #9
 659 004e FFF7FEFF 		bl	LED_Driver2_MasterWriteByte
 163:led_manager.c **** 	LED_Driver2_MasterWriteByte(output_setting);	//x09 addr
 660              		.loc 1 163 0
 661 0052 5520     		movs	r0, #85
 662 0054 FFF7FEFF 		bl	LED_Driver2_MasterWriteByte
 164:led_manager.c **** 	LED_Driver2_MasterWriteByte(output_setting);	//x0A
 663              		.loc 1 164 0
 664 0058 5520     		movs	r0, #85
 665 005a FFF7FEFF 		bl	LED_Driver2_MasterWriteByte
 165:led_manager.c **** 	LED_Driver2_MasterWriteByte(output_setting);	//x0B
 666              		.loc 1 165 0
 667 005e 5520     		movs	r0, #85
 668 0060 FFF7FEFF 		bl	LED_Driver2_MasterWriteByte
 166:led_manager.c **** 	LED_Driver2_MasterWriteByte(output_setting);	//x0C
 669              		.loc 1 166 0
ARM GAS  D:\Windows\AppData\Local\Temp\ccYfDzHQ.s 			page 16


 670 0064 5520     		movs	r0, #85
 671 0066 FFF7FEFF 		bl	LED_Driver2_MasterWriteByte
 167:led_manager.c **** 	LED_Driver2_MasterWriteByte(output_setting);	//x0D
 672              		.loc 1 167 0
 673 006a 5520     		movs	r0, #85
 674 006c FFF7FEFF 		bl	LED_Driver2_MasterWriteByte
 168:led_manager.c **** 	LED_Driver2_MasterWriteByte(output_setting);	//x0E
 675              		.loc 1 168 0
 676 0070 5520     		movs	r0, #85
 677 0072 FFF7FEFF 		bl	LED_Driver2_MasterWriteByte
 169:led_manager.c **** 	LED_Driver2_MasterWriteByte(fade_fn);			//x0F	LEDR
 678              		.loc 1 169 0
 679 0076 FF20     		movs	r0, #255
 680 0078 FFF7FEFF 		bl	LED_Driver2_MasterWriteByte
 170:led_manager.c **** 	LED_Driver2_MasterWriteByte(fade_fn);			//x10	LEDG
 681              		.loc 1 170 0
 682 007c FF20     		movs	r0, #255
 683 007e FFF7FEFF 		bl	LED_Driver2_MasterWriteByte
 171:led_manager.c **** 	LED_Driver2_MasterWriteByte(fade_fn);			//x11	LEDB
 684              		.loc 1 171 0
 685 0082 FF20     		movs	r0, #255
 686 0084 FFF7FEFF 		bl	LED_Driver2_MasterWriteByte
 172:led_manager.c **** 	LED_Driver2_MasterSendStop();
 687              		.loc 1 172 0
 688 0088 FFF7FEFF 		bl	LED_Driver2_MasterSendStop
 173:led_manager.c ****     CyDelay(50);
 689              		.loc 1 173 0
 690 008c 3220     		movs	r0, #50
 691 008e FFF7FEFF 		bl	CyDelay
 174:led_manager.c **** } //led_driver_init()
 692              		.loc 1 174 0
 693 0092 0837     		adds	r7, r7, #8
 694              		.cfi_def_cfa_offset 8
 695 0094 BD46     		mov	sp, r7
 696              		.cfi_def_cfa_register 13
 697              		@ sp needed
 698 0096 80BD     		pop	{r7, pc}
 699              		.cfi_endproc
 700              	.LFE68:
 701              		.size	led_driver_init, .-led_driver_init
 702              		.section	.text.led_write_tach,"ax",%progbits
 703              		.align	2
 704              		.global	led_write_tach
 705              		.thumb
 706              		.thumb_func
 707              		.type	led_write_tach, %function
 708              	led_write_tach:
 709              	.LFB69:
 175:led_manager.c **** 
 176:led_manager.c **** 
 177:led_manager.c **** //calculates and writes RPM to tach led bar based on the maxed RPM
 178:led_manager.c **** void led_write_tach(uint16_t MTR_RPM) {
 710              		.loc 1 178 0
 711              		.cfi_startproc
 712              		@ args = 0, pretend = 0, frame = 24
 713              		@ frame_needed = 1, uses_anonymous_args = 0
 714 0000 80B5     		push	{r7, lr}
ARM GAS  D:\Windows\AppData\Local\Temp\ccYfDzHQ.s 			page 17


 715              		.cfi_def_cfa_offset 8
 716              		.cfi_offset 7, -8
 717              		.cfi_offset 14, -4
 718 0002 86B0     		sub	sp, sp, #24
 719              		.cfi_def_cfa_offset 32
 720 0004 00AF     		add	r7, sp, #0
 721              		.cfi_def_cfa_register 7
 722 0006 0346     		mov	r3, r0
 723 0008 FB80     		strh	r3, [r7, #6]	@ movhi
 179:led_manager.c ****     //int MTR_RPM_int = (int) MTR_RPM;
 180:led_manager.c **** 	int tach_pct = (int)(MTR_RPM * 100 / MAX_RPM);	//tach percent
 724              		.loc 1 180 0
 725 000a FB88     		ldrh	r3, [r7, #6]
 726 000c 6422     		movs	r2, #100
 727 000e 02FB03F3 		mul	r3, r2, r3
 728 0012 7E4A     		ldr	r2, .L46
 729 0014 82FB0312 		smull	r1, r2, r2, r3
 730 0018 D211     		asrs	r2, r2, #7
 731 001a DB17     		asrs	r3, r3, #31
 732 001c D31A     		subs	r3, r2, r3
 733 001e FB60     		str	r3, [r7, #12]
 181:led_manager.c **** 	int steps = 0;
 734              		.loc 1 181 0
 735 0020 0023     		movs	r3, #0
 736 0022 7B61     		str	r3, [r7, #20]
 182:led_manager.c ****     
 183:led_manager.c ****     if(tach_pct < 100) { //not full rpm anymore
 737              		.loc 1 183 0
 738 0024 FB68     		ldr	r3, [r7, #12]
 739 0026 632B     		cmp	r3, #99
 740 0028 12DC     		bgt	.L18
 184:led_manager.c ****         if(tach_critical) {
 741              		.loc 1 184 0
 742 002a 794B     		ldr	r3, .L46+4
 743 002c 1B68     		ldr	r3, [r3]
 744 002e 002B     		cmp	r3, #0
 745 0030 0ED0     		beq	.L18
 185:led_manager.c ****             tach_critical = 0;
 746              		.loc 1 185 0
 747 0032 774B     		ldr	r3, .L46+4
 748 0034 0022     		movs	r2, #0
 749 0036 1A60     		str	r2, [r3]
 186:led_manager.c ****             tach_crit_int_Stop();
 750              		.loc 1 186 0
 751 0038 FFF7FEFF 		bl	tach_crit_int_Stop
 187:led_manager.c ****             tach_critical_timer_Stop();
 752              		.loc 1 187 0
 753 003c FFF7FEFF 		bl	tach_critical_timer_Stop
 188:led_manager.c ****             d21_write(0);
 754              		.loc 1 188 0
 755 0040 0020     		movs	r0, #0
 756 0042 FFF7FEFF 		bl	d21_write
 189:led_manager.c ****             d22_write(0);   //actually not using last led for anything but full rpm blinking
 757              		.loc 1 189 0
 758 0046 0020     		movs	r0, #0
 759 0048 FFF7FEFF 		bl	d22_write
 190:led_manager.c ****             led_update_tach();
ARM GAS  D:\Windows\AppData\Local\Temp\ccYfDzHQ.s 			page 18


 760              		.loc 1 190 0
 761 004c FFF7FEFF 		bl	led_update_tach
 762              	.L18:
 191:led_manager.c ****         } //if 
 192:led_manager.c ****     } //if
 193:led_manager.c ****     
 194:led_manager.c **** 	//using TACH_MAX_STEPS = 20 leds, 5% per step
 195:led_manager.c ****     if (tach_pct == 0)
 763              		.loc 1 195 0
 764 0050 FB68     		ldr	r3, [r7, #12]
 765 0052 002B     		cmp	r3, #0
 766 0054 02D1     		bne	.L19
 196:led_manager.c ****         steps = 0;
 767              		.loc 1 196 0
 768 0056 0023     		movs	r3, #0
 769 0058 7B61     		str	r3, [r7, #20]
 770 005a BFE0     		b	.L20
 771              	.L19:
 197:led_manager.c **** 	else if(tach_pct > 0 && tach_pct <= 5)
 772              		.loc 1 197 0
 773 005c FB68     		ldr	r3, [r7, #12]
 774 005e 002B     		cmp	r3, #0
 775 0060 05DD     		ble	.L21
 776              		.loc 1 197 0 is_stmt 0 discriminator 1
 777 0062 FB68     		ldr	r3, [r7, #12]
 778 0064 052B     		cmp	r3, #5
 779 0066 02DC     		bgt	.L21
 198:led_manager.c **** 		steps = 1;	//first step lights up first 2 led's
 780              		.loc 1 198 0 is_stmt 1
 781 0068 0123     		movs	r3, #1
 782 006a 7B61     		str	r3, [r7, #20]
 783 006c B6E0     		b	.L20
 784              	.L21:
 199:led_manager.c **** 	else if(tach_pct > 5 && tach_pct <= 10)
 785              		.loc 1 199 0
 786 006e FB68     		ldr	r3, [r7, #12]
 787 0070 052B     		cmp	r3, #5
 788 0072 05DD     		ble	.L22
 789              		.loc 1 199 0 is_stmt 0 discriminator 1
 790 0074 FB68     		ldr	r3, [r7, #12]
 791 0076 0A2B     		cmp	r3, #10
 792 0078 02DC     		bgt	.L22
 200:led_manager.c **** 		steps = 2;
 793              		.loc 1 200 0 is_stmt 1
 794 007a 0223     		movs	r3, #2
 795 007c 7B61     		str	r3, [r7, #20]
 796 007e ADE0     		b	.L20
 797              	.L22:
 201:led_manager.c **** 	else if(tach_pct > 10 && tach_pct <= 15)
 798              		.loc 1 201 0
 799 0080 FB68     		ldr	r3, [r7, #12]
 800 0082 0A2B     		cmp	r3, #10
 801 0084 05DD     		ble	.L23
 802              		.loc 1 201 0 is_stmt 0 discriminator 1
 803 0086 FB68     		ldr	r3, [r7, #12]
 804 0088 0F2B     		cmp	r3, #15
 805 008a 02DC     		bgt	.L23
ARM GAS  D:\Windows\AppData\Local\Temp\ccYfDzHQ.s 			page 19


 202:led_manager.c **** 		steps = 3;
 806              		.loc 1 202 0 is_stmt 1
 807 008c 0323     		movs	r3, #3
 808 008e 7B61     		str	r3, [r7, #20]
 809 0090 A4E0     		b	.L20
 810              	.L23:
 203:led_manager.c **** 	else if(tach_pct > 15 && tach_pct <= 20)
 811              		.loc 1 203 0
 812 0092 FB68     		ldr	r3, [r7, #12]
 813 0094 0F2B     		cmp	r3, #15
 814 0096 05DD     		ble	.L24
 815              		.loc 1 203 0 is_stmt 0 discriminator 1
 816 0098 FB68     		ldr	r3, [r7, #12]
 817 009a 142B     		cmp	r3, #20
 818 009c 02DC     		bgt	.L24
 204:led_manager.c **** 		steps = 4;
 819              		.loc 1 204 0 is_stmt 1
 820 009e 0423     		movs	r3, #4
 821 00a0 7B61     		str	r3, [r7, #20]
 822 00a2 9BE0     		b	.L20
 823              	.L24:
 205:led_manager.c **** 	else if(tach_pct > 20 && tach_pct <= 25)
 824              		.loc 1 205 0
 825 00a4 FB68     		ldr	r3, [r7, #12]
 826 00a6 142B     		cmp	r3, #20
 827 00a8 05DD     		ble	.L25
 828              		.loc 1 205 0 is_stmt 0 discriminator 1
 829 00aa FB68     		ldr	r3, [r7, #12]
 830 00ac 192B     		cmp	r3, #25
 831 00ae 02DC     		bgt	.L25
 206:led_manager.c **** 		steps = 5;
 832              		.loc 1 206 0 is_stmt 1
 833 00b0 0523     		movs	r3, #5
 834 00b2 7B61     		str	r3, [r7, #20]
 835 00b4 92E0     		b	.L20
 836              	.L25:
 207:led_manager.c **** 	else if(tach_pct > 25 && tach_pct <= 30)
 837              		.loc 1 207 0
 838 00b6 FB68     		ldr	r3, [r7, #12]
 839 00b8 192B     		cmp	r3, #25
 840 00ba 05DD     		ble	.L26
 841              		.loc 1 207 0 is_stmt 0 discriminator 1
 842 00bc FB68     		ldr	r3, [r7, #12]
 843 00be 1E2B     		cmp	r3, #30
 844 00c0 02DC     		bgt	.L26
 208:led_manager.c **** 		steps = 6;
 845              		.loc 1 208 0 is_stmt 1
 846 00c2 0623     		movs	r3, #6
 847 00c4 7B61     		str	r3, [r7, #20]
 848 00c6 89E0     		b	.L20
 849              	.L26:
 209:led_manager.c **** 	else if(tach_pct > 30 && tach_pct <= 35)
 850              		.loc 1 209 0
 851 00c8 FB68     		ldr	r3, [r7, #12]
 852 00ca 1E2B     		cmp	r3, #30
 853 00cc 05DD     		ble	.L27
 854              		.loc 1 209 0 is_stmt 0 discriminator 1
ARM GAS  D:\Windows\AppData\Local\Temp\ccYfDzHQ.s 			page 20


 855 00ce FB68     		ldr	r3, [r7, #12]
 856 00d0 232B     		cmp	r3, #35
 857 00d2 02DC     		bgt	.L27
 210:led_manager.c **** 		steps = 7;
 858              		.loc 1 210 0 is_stmt 1
 859 00d4 0723     		movs	r3, #7
 860 00d6 7B61     		str	r3, [r7, #20]
 861 00d8 80E0     		b	.L20
 862              	.L27:
 211:led_manager.c **** 	else if(tach_pct > 35 && tach_pct <= 40)
 863              		.loc 1 211 0
 864 00da FB68     		ldr	r3, [r7, #12]
 865 00dc 232B     		cmp	r3, #35
 866 00de 05DD     		ble	.L28
 867              		.loc 1 211 0 is_stmt 0 discriminator 1
 868 00e0 FB68     		ldr	r3, [r7, #12]
 869 00e2 282B     		cmp	r3, #40
 870 00e4 02DC     		bgt	.L28
 212:led_manager.c **** 		steps = 8;
 871              		.loc 1 212 0 is_stmt 1
 872 00e6 0823     		movs	r3, #8
 873 00e8 7B61     		str	r3, [r7, #20]
 874 00ea 77E0     		b	.L20
 875              	.L28:
 213:led_manager.c **** 	else if(tach_pct > 40 && tach_pct <= 45)
 876              		.loc 1 213 0
 877 00ec FB68     		ldr	r3, [r7, #12]
 878 00ee 282B     		cmp	r3, #40
 879 00f0 05DD     		ble	.L29
 880              		.loc 1 213 0 is_stmt 0 discriminator 1
 881 00f2 FB68     		ldr	r3, [r7, #12]
 882 00f4 2D2B     		cmp	r3, #45
 883 00f6 02DC     		bgt	.L29
 214:led_manager.c **** 		steps = 9;
 884              		.loc 1 214 0 is_stmt 1
 885 00f8 0923     		movs	r3, #9
 886 00fa 7B61     		str	r3, [r7, #20]
 887 00fc 6EE0     		b	.L20
 888              	.L29:
 215:led_manager.c **** 	else if(tach_pct > 45 && tach_pct <= 50)
 889              		.loc 1 215 0
 890 00fe FB68     		ldr	r3, [r7, #12]
 891 0100 2D2B     		cmp	r3, #45
 892 0102 05DD     		ble	.L30
 893              		.loc 1 215 0 is_stmt 0 discriminator 1
 894 0104 FB68     		ldr	r3, [r7, #12]
 895 0106 322B     		cmp	r3, #50
 896 0108 02DC     		bgt	.L30
 216:led_manager.c **** 		steps = 10;
 897              		.loc 1 216 0 is_stmt 1
 898 010a 0A23     		movs	r3, #10
 899 010c 7B61     		str	r3, [r7, #20]
 900 010e 65E0     		b	.L20
 901              	.L30:
 217:led_manager.c **** 	else if(tach_pct > 50 && tach_pct <= 55)
 902              		.loc 1 217 0
 903 0110 FB68     		ldr	r3, [r7, #12]
ARM GAS  D:\Windows\AppData\Local\Temp\ccYfDzHQ.s 			page 21


 904 0112 322B     		cmp	r3, #50
 905 0114 05DD     		ble	.L31
 906              		.loc 1 217 0 is_stmt 0 discriminator 1
 907 0116 FB68     		ldr	r3, [r7, #12]
 908 0118 372B     		cmp	r3, #55
 909 011a 02DC     		bgt	.L31
 218:led_manager.c **** 		steps = 11;
 910              		.loc 1 218 0 is_stmt 1
 911 011c 0B23     		movs	r3, #11
 912 011e 7B61     		str	r3, [r7, #20]
 913 0120 5CE0     		b	.L20
 914              	.L31:
 219:led_manager.c **** 	else if(tach_pct > 55 && tach_pct <= 60)
 915              		.loc 1 219 0
 916 0122 FB68     		ldr	r3, [r7, #12]
 917 0124 372B     		cmp	r3, #55
 918 0126 05DD     		ble	.L32
 919              		.loc 1 219 0 is_stmt 0 discriminator 1
 920 0128 FB68     		ldr	r3, [r7, #12]
 921 012a 3C2B     		cmp	r3, #60
 922 012c 02DC     		bgt	.L32
 220:led_manager.c **** 		steps = 12;
 923              		.loc 1 220 0 is_stmt 1
 924 012e 0C23     		movs	r3, #12
 925 0130 7B61     		str	r3, [r7, #20]
 926 0132 53E0     		b	.L20
 927              	.L32:
 221:led_manager.c **** 	else if(tach_pct > 60 && tach_pct <= 65)
 928              		.loc 1 221 0
 929 0134 FB68     		ldr	r3, [r7, #12]
 930 0136 3C2B     		cmp	r3, #60
 931 0138 05DD     		ble	.L33
 932              		.loc 1 221 0 is_stmt 0 discriminator 1
 933 013a FB68     		ldr	r3, [r7, #12]
 934 013c 412B     		cmp	r3, #65
 935 013e 02DC     		bgt	.L33
 222:led_manager.c **** 		steps = 13;
 936              		.loc 1 222 0 is_stmt 1
 937 0140 0D23     		movs	r3, #13
 938 0142 7B61     		str	r3, [r7, #20]
 939 0144 4AE0     		b	.L20
 940              	.L33:
 223:led_manager.c **** 	else if(tach_pct > 65 && tach_pct <= 70)
 941              		.loc 1 223 0
 942 0146 FB68     		ldr	r3, [r7, #12]
 943 0148 412B     		cmp	r3, #65
 944 014a 05DD     		ble	.L34
 945              		.loc 1 223 0 is_stmt 0 discriminator 1
 946 014c FB68     		ldr	r3, [r7, #12]
 947 014e 462B     		cmp	r3, #70
 948 0150 02DC     		bgt	.L34
 224:led_manager.c **** 		steps = 14;
 949              		.loc 1 224 0 is_stmt 1
 950 0152 0E23     		movs	r3, #14
 951 0154 7B61     		str	r3, [r7, #20]
 952 0156 41E0     		b	.L20
 953              	.L34:
ARM GAS  D:\Windows\AppData\Local\Temp\ccYfDzHQ.s 			page 22


 225:led_manager.c **** 	else if(tach_pct > 70 && tach_pct <= 75)
 954              		.loc 1 225 0
 955 0158 FB68     		ldr	r3, [r7, #12]
 956 015a 462B     		cmp	r3, #70
 957 015c 05DD     		ble	.L35
 958              		.loc 1 225 0 is_stmt 0 discriminator 1
 959 015e FB68     		ldr	r3, [r7, #12]
 960 0160 4B2B     		cmp	r3, #75
 961 0162 02DC     		bgt	.L35
 226:led_manager.c **** 		steps = 15;
 962              		.loc 1 226 0 is_stmt 1
 963 0164 0F23     		movs	r3, #15
 964 0166 7B61     		str	r3, [r7, #20]
 965 0168 38E0     		b	.L20
 966              	.L35:
 227:led_manager.c **** 	else if(tach_pct > 75 && tach_pct <= 80)
 967              		.loc 1 227 0
 968 016a FB68     		ldr	r3, [r7, #12]
 969 016c 4B2B     		cmp	r3, #75
 970 016e 05DD     		ble	.L36
 971              		.loc 1 227 0 is_stmt 0 discriminator 1
 972 0170 FB68     		ldr	r3, [r7, #12]
 973 0172 502B     		cmp	r3, #80
 974 0174 02DC     		bgt	.L36
 228:led_manager.c **** 		steps = 16;
 975              		.loc 1 228 0 is_stmt 1
 976 0176 1023     		movs	r3, #16
 977 0178 7B61     		str	r3, [r7, #20]
 978 017a 2FE0     		b	.L20
 979              	.L36:
 229:led_manager.c **** 	else if(tach_pct > 80 && tach_pct <= 85)
 980              		.loc 1 229 0
 981 017c FB68     		ldr	r3, [r7, #12]
 982 017e 502B     		cmp	r3, #80
 983 0180 05DD     		ble	.L37
 984              		.loc 1 229 0 is_stmt 0 discriminator 1
 985 0182 FB68     		ldr	r3, [r7, #12]
 986 0184 552B     		cmp	r3, #85
 987 0186 02DC     		bgt	.L37
 230:led_manager.c **** 		steps = 17;
 988              		.loc 1 230 0 is_stmt 1
 989 0188 1123     		movs	r3, #17
 990 018a 7B61     		str	r3, [r7, #20]
 991 018c 26E0     		b	.L20
 992              	.L37:
 231:led_manager.c **** 	else if(tach_pct > 85 && tach_pct <= 90)
 993              		.loc 1 231 0
 994 018e FB68     		ldr	r3, [r7, #12]
 995 0190 552B     		cmp	r3, #85
 996 0192 05DD     		ble	.L38
 997              		.loc 1 231 0 is_stmt 0 discriminator 1
 998 0194 FB68     		ldr	r3, [r7, #12]
 999 0196 5A2B     		cmp	r3, #90
 1000 0198 02DC     		bgt	.L38
 232:led_manager.c **** 		steps = 18;
 1001              		.loc 1 232 0 is_stmt 1
 1002 019a 1223     		movs	r3, #18
ARM GAS  D:\Windows\AppData\Local\Temp\ccYfDzHQ.s 			page 23


 1003 019c 7B61     		str	r3, [r7, #20]
 1004 019e 1DE0     		b	.L20
 1005              	.L38:
 233:led_manager.c **** 	else if(tach_pct > 90 && tach_pct <= 95)
 1006              		.loc 1 233 0
 1007 01a0 FB68     		ldr	r3, [r7, #12]
 1008 01a2 5A2B     		cmp	r3, #90
 1009 01a4 05DD     		ble	.L39
 1010              		.loc 1 233 0 is_stmt 0 discriminator 1
 1011 01a6 FB68     		ldr	r3, [r7, #12]
 1012 01a8 5F2B     		cmp	r3, #95
 1013 01aa 02DC     		bgt	.L39
 234:led_manager.c **** 		steps = 19;
 1014              		.loc 1 234 0 is_stmt 1
 1015 01ac 1323     		movs	r3, #19
 1016 01ae 7B61     		str	r3, [r7, #20]
 1017 01b0 14E0     		b	.L20
 1018              	.L39:
 235:led_manager.c **** 	else if(tach_pct > 95 && tach_pct <= 99)
 1019              		.loc 1 235 0
 1020 01b2 FB68     		ldr	r3, [r7, #12]
 1021 01b4 5F2B     		cmp	r3, #95
 1022 01b6 05DD     		ble	.L40
 1023              		.loc 1 235 0 is_stmt 0 discriminator 1
 1024 01b8 FB68     		ldr	r3, [r7, #12]
 1025 01ba 632B     		cmp	r3, #99
 1026 01bc 02DC     		bgt	.L40
 236:led_manager.c **** 		steps = 20;
 1027              		.loc 1 236 0 is_stmt 1
 1028 01be 1423     		movs	r3, #20
 1029 01c0 7B61     		str	r3, [r7, #20]
 1030 01c2 0BE0     		b	.L20
 1031              	.L40:
 237:led_manager.c ****     else { //(tach_pct = 100)
 238:led_manager.c ****         if(!tach_critical) {	//start blinking
 1032              		.loc 1 238 0
 1033 01c4 124B     		ldr	r3, .L46+4
 1034 01c6 1B68     		ldr	r3, [r3]
 1035 01c8 002B     		cmp	r3, #0
 1036 01ca 07D1     		bne	.L20
 239:led_manager.c **** 			tach_critical_timer_Start();
 1037              		.loc 1 239 0
 1038 01cc FFF7FEFF 		bl	tach_critical_timer_Start
 240:led_manager.c **** 			tach_crit_int_StartEx(tach_crit_isr);
 1039              		.loc 1 240 0
 1040 01d0 1048     		ldr	r0, .L46+8
 1041 01d2 FFF7FEFF 		bl	tach_crit_int_StartEx
 241:led_manager.c **** 			tach_critical = 1;
 1042              		.loc 1 241 0
 1043 01d6 0E4B     		ldr	r3, .L46+4
 1044 01d8 0122     		movs	r2, #1
 1045 01da 1A60     		str	r2, [r3]
 1046              	.L20:
 242:led_manager.c **** 		} //if
 243:led_manager.c **** 	} //else
 244:led_manager.c **** 	
 245:led_manager.c **** 	if(!tach_critical) {
ARM GAS  D:\Windows\AppData\Local\Temp\ccYfDzHQ.s 			page 24


 1047              		.loc 1 245 0
 1048 01dc 0C4B     		ldr	r3, .L46+4
 1049 01de 1B68     		ldr	r3, [r3]
 1050 01e0 002B     		cmp	r3, #0
 1051 01e2 40F08C80 		bne	.L17
 1052              	.LBB2:
 246:led_manager.c ****     	int i;
 247:led_manager.c ****     	for(i=0; i<steps; i++)
 1053              		.loc 1 247 0
 1054 01e6 0023     		movs	r3, #0
 1055 01e8 3B61     		str	r3, [r7, #16]
 1056 01ea 07E0     		b	.L42
 1057              	.L43:
 248:led_manager.c ****     		tach_arr[i] = 1;	//on leds
 1058              		.loc 1 248 0 discriminator 3
 1059 01ec 0A4A     		ldr	r2, .L46+12
 1060 01ee 3B69     		ldr	r3, [r7, #16]
 1061 01f0 0121     		movs	r1, #1
 1062 01f2 42F82310 		str	r1, [r2, r3, lsl #2]
 247:led_manager.c ****     		tach_arr[i] = 1;	//on leds
 1063              		.loc 1 247 0 discriminator 3
 1064 01f6 3B69     		ldr	r3, [r7, #16]
 1065 01f8 0133     		adds	r3, r3, #1
 1066 01fa 3B61     		str	r3, [r7, #16]
 1067              	.L42:
 247:led_manager.c ****     		tach_arr[i] = 1;	//on leds
 1068              		.loc 1 247 0 is_stmt 0 discriminator 1
 1069 01fc 3A69     		ldr	r2, [r7, #16]
 1070 01fe 7B69     		ldr	r3, [r7, #20]
 1071 0200 9A42     		cmp	r2, r3
 1072 0202 F3DB     		blt	.L43
 249:led_manager.c ****     	for(i=steps; i<TACH_MAX_STEPS; i++)	//
 1073              		.loc 1 249 0 is_stmt 1
 1074 0204 7B69     		ldr	r3, [r7, #20]
 1075 0206 3B61     		str	r3, [r7, #16]
 1076 0208 10E0     		b	.L44
 1077              	.L47:
 1078 020a 00BF     		.align	2
 1079              	.L46:
 1080 020c F1197605 		.word	91625969
 1081 0210 00000000 		.word	tach_critical
 1082 0214 00000000 		.word	tach_crit_isr
 1083 0218 00000000 		.word	tach_arr
 1084              	.L45:
 250:led_manager.c ****     		tach_arr[i] = 0;	//off leds
 1085              		.loc 1 250 0 discriminator 3
 1086 021c 394A     		ldr	r2, .L48
 1087 021e 3B69     		ldr	r3, [r7, #16]
 1088 0220 0021     		movs	r1, #0
 1089 0222 42F82310 		str	r1, [r2, r3, lsl #2]
 249:led_manager.c ****     	for(i=steps; i<TACH_MAX_STEPS; i++)	//
 1090              		.loc 1 249 0 discriminator 3
 1091 0226 3B69     		ldr	r3, [r7, #16]
 1092 0228 0133     		adds	r3, r3, #1
 1093 022a 3B61     		str	r3, [r7, #16]
 1094              	.L44:
 249:led_manager.c ****     	for(i=steps; i<TACH_MAX_STEPS; i++)	//
ARM GAS  D:\Windows\AppData\Local\Temp\ccYfDzHQ.s 			page 25


 1095              		.loc 1 249 0 is_stmt 0 discriminator 1
 1096 022c 3B69     		ldr	r3, [r7, #16]
 1097 022e 132B     		cmp	r3, #19
 1098 0230 F4DD     		ble	.L45
 251:led_manager.c ****     	
 252:led_manager.c ****     	d1_write(tach_arr[0]);
 1099              		.loc 1 252 0 is_stmt 1
 1100 0232 344B     		ldr	r3, .L48
 1101 0234 1B68     		ldr	r3, [r3]
 1102 0236 1846     		mov	r0, r3
 1103 0238 FFF7FEFF 		bl	d1_write
 253:led_manager.c ****     	d2_write(tach_arr[1]);
 1104              		.loc 1 253 0
 1105 023c 314B     		ldr	r3, .L48
 1106 023e 5B68     		ldr	r3, [r3, #4]
 1107 0240 1846     		mov	r0, r3
 1108 0242 FFF7FEFF 		bl	d2_write
 254:led_manager.c ****     	d3_write(tach_arr[2]);
 1109              		.loc 1 254 0
 1110 0246 2F4B     		ldr	r3, .L48
 1111 0248 9B68     		ldr	r3, [r3, #8]
 1112 024a 1846     		mov	r0, r3
 1113 024c FFF7FEFF 		bl	d3_write
 255:led_manager.c ****     	d4_write(tach_arr[3]);
 1114              		.loc 1 255 0
 1115 0250 2C4B     		ldr	r3, .L48
 1116 0252 DB68     		ldr	r3, [r3, #12]
 1117 0254 1846     		mov	r0, r3
 1118 0256 FFF7FEFF 		bl	d4_write
 256:led_manager.c ****     	d5_write(tach_arr[4]);
 1119              		.loc 1 256 0
 1120 025a 2A4B     		ldr	r3, .L48
 1121 025c 1B69     		ldr	r3, [r3, #16]
 1122 025e 1846     		mov	r0, r3
 1123 0260 FFF7FEFF 		bl	d5_write
 257:led_manager.c ****     	d6_write(tach_arr[5]);
 1124              		.loc 1 257 0
 1125 0264 274B     		ldr	r3, .L48
 1126 0266 5B69     		ldr	r3, [r3, #20]
 1127 0268 1846     		mov	r0, r3
 1128 026a FFF7FEFF 		bl	d6_write
 258:led_manager.c ****     	d7_write(tach_arr[6]);
 1129              		.loc 1 258 0
 1130 026e 254B     		ldr	r3, .L48
 1131 0270 9B69     		ldr	r3, [r3, #24]
 1132 0272 1846     		mov	r0, r3
 1133 0274 FFF7FEFF 		bl	d7_write
 259:led_manager.c ****     	d8_write(tach_arr[7]);
 1134              		.loc 1 259 0
 1135 0278 224B     		ldr	r3, .L48
 1136 027a DB69     		ldr	r3, [r3, #28]
 1137 027c 1846     		mov	r0, r3
 1138 027e FFF7FEFF 		bl	d8_write
 260:led_manager.c ****     	d9_write(tach_arr[8]);
 1139              		.loc 1 260 0
 1140 0282 204B     		ldr	r3, .L48
 1141 0284 1B6A     		ldr	r3, [r3, #32]
ARM GAS  D:\Windows\AppData\Local\Temp\ccYfDzHQ.s 			page 26


 1142 0286 1846     		mov	r0, r3
 1143 0288 FFF7FEFF 		bl	d9_write
 261:led_manager.c ****     	d10_write(tach_arr[9]);
 1144              		.loc 1 261 0
 1145 028c 1D4B     		ldr	r3, .L48
 1146 028e 5B6A     		ldr	r3, [r3, #36]
 1147 0290 1846     		mov	r0, r3
 1148 0292 FFF7FEFF 		bl	d10_write
 262:led_manager.c ****     	d11_write(tach_arr[10]);
 1149              		.loc 1 262 0
 1150 0296 1B4B     		ldr	r3, .L48
 1151 0298 9B6A     		ldr	r3, [r3, #40]
 1152 029a 1846     		mov	r0, r3
 1153 029c FFF7FEFF 		bl	d11_write
 263:led_manager.c ****     	d12_write(tach_arr[11]);
 1154              		.loc 1 263 0
 1155 02a0 184B     		ldr	r3, .L48
 1156 02a2 DB6A     		ldr	r3, [r3, #44]
 1157 02a4 1846     		mov	r0, r3
 1158 02a6 FFF7FEFF 		bl	d12_write
 264:led_manager.c ****     	d13_write(tach_arr[12]);
 1159              		.loc 1 264 0
 1160 02aa 164B     		ldr	r3, .L48
 1161 02ac 1B6B     		ldr	r3, [r3, #48]
 1162 02ae 1846     		mov	r0, r3
 1163 02b0 FFF7FEFF 		bl	d13_write
 265:led_manager.c ****     	d14_write(tach_arr[13]);
 1164              		.loc 1 265 0
 1165 02b4 134B     		ldr	r3, .L48
 1166 02b6 5B6B     		ldr	r3, [r3, #52]
 1167 02b8 1846     		mov	r0, r3
 1168 02ba FFF7FEFF 		bl	d14_write
 266:led_manager.c ****     	d15_write(tach_arr[14]);
 1169              		.loc 1 266 0
 1170 02be 114B     		ldr	r3, .L48
 1171 02c0 9B6B     		ldr	r3, [r3, #56]
 1172 02c2 1846     		mov	r0, r3
 1173 02c4 FFF7FEFF 		bl	d15_write
 267:led_manager.c ****     	d16_write(tach_arr[15]);
 1174              		.loc 1 267 0
 1175 02c8 0E4B     		ldr	r3, .L48
 1176 02ca DB6B     		ldr	r3, [r3, #60]
 1177 02cc 1846     		mov	r0, r3
 1178 02ce FFF7FEFF 		bl	d16_write
 268:led_manager.c ****     	d17_write(tach_arr[16]);
 1179              		.loc 1 268 0
 1180 02d2 0C4B     		ldr	r3, .L48
 1181 02d4 1B6C     		ldr	r3, [r3, #64]
 1182 02d6 1846     		mov	r0, r3
 1183 02d8 FFF7FEFF 		bl	d17_write
 269:led_manager.c ****     	d18_write(tach_arr[17]);
 1184              		.loc 1 269 0
 1185 02dc 094B     		ldr	r3, .L48
 1186 02de 5B6C     		ldr	r3, [r3, #68]
 1187 02e0 1846     		mov	r0, r3
 1188 02e2 FFF7FEFF 		bl	d18_write
 270:led_manager.c ****     	d19_write(tach_arr[18]);
ARM GAS  D:\Windows\AppData\Local\Temp\ccYfDzHQ.s 			page 27


 1189              		.loc 1 270 0
 1190 02e6 074B     		ldr	r3, .L48
 1191 02e8 9B6C     		ldr	r3, [r3, #72]
 1192 02ea 1846     		mov	r0, r3
 1193 02ec FFF7FEFF 		bl	d19_write
 271:led_manager.c ****     	d20_write(tach_arr[19]);
 1194              		.loc 1 271 0
 1195 02f0 044B     		ldr	r3, .L48
 1196 02f2 DB6C     		ldr	r3, [r3, #76]
 1197 02f4 1846     		mov	r0, r3
 1198 02f6 FFF7FEFF 		bl	d20_write
 272:led_manager.c ****     	//d21_write(tach_arr[20]);
 273:led_manager.c ****     	//d22_write(tach_arr[21]);
 274:led_manager.c ****         led_update_tach();
 1199              		.loc 1 274 0
 1200 02fa FFF7FEFF 		bl	led_update_tach
 1201              	.L17:
 1202              	.LBE2:
 275:led_manager.c ****     } //if
 276:led_manager.c **** } //led_write_tach
 1203              		.loc 1 276 0
 1204 02fe 1837     		adds	r7, r7, #24
 1205              		.cfi_def_cfa_offset 8
 1206 0300 BD46     		mov	sp, r7
 1207              		.cfi_def_cfa_register 13
 1208              		@ sp needed
 1209 0302 80BD     		pop	{r7, pc}
 1210              	.L49:
 1211              		.align	2
 1212              	.L48:
 1213 0304 00000000 		.word	tach_arr
 1214              		.cfi_endproc
 1215              	.LFE69:
 1216              		.size	led_write_tach, .-led_write_tach
 1217              		.section	.text.led_write_b1,"ax",%progbits
 1218              		.align	2
 1219              		.global	led_write_b1
 1220              		.thumb
 1221              		.thumb_func
 1222              		.type	led_write_b1, %function
 1223              	led_write_b1:
 1224              	.LFB70:
 277:led_manager.c **** 
 278:led_manager.c **** void led_write_b1(uint8_t BMS_TEMP) {	//left vertical bar, 5 leds
 1225              		.loc 1 278 0
 1226              		.cfi_startproc
 1227              		@ args = 0, pretend = 0, frame = 16
 1228              		@ frame_needed = 1, uses_anonymous_args = 0
 1229 0000 80B5     		push	{r7, lr}
 1230              		.cfi_def_cfa_offset 8
 1231              		.cfi_offset 7, -8
 1232              		.cfi_offset 14, -4
 1233 0002 84B0     		sub	sp, sp, #16
 1234              		.cfi_def_cfa_offset 24
 1235 0004 00AF     		add	r7, sp, #0
 1236              		.cfi_def_cfa_register 7
 1237 0006 0346     		mov	r3, r0
ARM GAS  D:\Windows\AppData\Local\Temp\ccYfDzHQ.s 			page 28


 1238 0008 FB71     		strb	r3, [r7, #7]
 279:led_manager.c ****     if(BMS_TEMP < mtr_temp_map[4]) { //temperature has cooled down, stop blinking
 1239              		.loc 1 279 0
 1240 000a FA79     		ldrb	r2, [r7, #7]	@ zero_extendqisi2
 1241 000c 4B4B     		ldr	r3, .L63
 1242 000e 1B69     		ldr	r3, [r3, #16]
 1243 0010 9A42     		cmp	r2, r3
 1244 0012 0ADA     		bge	.L51
 280:led_manager.c ****         if(b1_critical) {
 1245              		.loc 1 280 0
 1246 0014 4A4B     		ldr	r3, .L63+4
 1247 0016 1B68     		ldr	r3, [r3]
 1248 0018 002B     		cmp	r3, #0
 1249 001a 06D0     		beq	.L51
 281:led_manager.c ****             b1_critical = 0;
 1250              		.loc 1 281 0
 1251 001c 484B     		ldr	r3, .L63+4
 1252 001e 0022     		movs	r2, #0
 1253 0020 1A60     		str	r2, [r3]
 282:led_manager.c ****             b1_crit_int_Stop();
 1254              		.loc 1 282 0
 1255 0022 FFF7FEFF 		bl	b1_crit_int_Stop
 283:led_manager.c ****             b1_critical_timer_Stop();
 1256              		.loc 1 283 0
 1257 0026 FFF7FEFF 		bl	b1_critical_timer_Stop
 1258              	.L51:
 284:led_manager.c ****         } //if 
 285:led_manager.c ****     } //if
 286:led_manager.c **** 
 287:led_manager.c ****     int steps = 0;
 1259              		.loc 1 287 0
 1260 002a 0023     		movs	r3, #0
 1261 002c FB60     		str	r3, [r7, #12]
 288:led_manager.c **** 	if (BMS_TEMP <= bms_temp_map[0])
 1262              		.loc 1 288 0
 1263 002e FA79     		ldrb	r2, [r7, #7]	@ zero_extendqisi2
 1264 0030 444B     		ldr	r3, .L63+8
 1265 0032 1B68     		ldr	r3, [r3]
 1266 0034 9A42     		cmp	r2, r3
 1267 0036 02DC     		bgt	.L52
 289:led_manager.c **** 		steps = 1;
 1268              		.loc 1 289 0
 1269 0038 0123     		movs	r3, #1
 1270 003a FB60     		str	r3, [r7, #12]
 1271 003c 3FE0     		b	.L53
 1272              	.L52:
 290:led_manager.c **** 	else if (BMS_TEMP > bms_temp_map[0] && BMS_TEMP <= bms_temp_map[1])
 1273              		.loc 1 290 0
 1274 003e FA79     		ldrb	r2, [r7, #7]	@ zero_extendqisi2
 1275 0040 404B     		ldr	r3, .L63+8
 1276 0042 1B68     		ldr	r3, [r3]
 1277 0044 9A42     		cmp	r2, r3
 1278 0046 07DD     		ble	.L54
 1279              		.loc 1 290 0 is_stmt 0 discriminator 1
 1280 0048 FA79     		ldrb	r2, [r7, #7]	@ zero_extendqisi2
 1281 004a 3E4B     		ldr	r3, .L63+8
 1282 004c 5B68     		ldr	r3, [r3, #4]
ARM GAS  D:\Windows\AppData\Local\Temp\ccYfDzHQ.s 			page 29


 1283 004e 9A42     		cmp	r2, r3
 1284 0050 02DC     		bgt	.L54
 291:led_manager.c **** 		steps = 2;
 1285              		.loc 1 291 0 is_stmt 1
 1286 0052 0223     		movs	r3, #2
 1287 0054 FB60     		str	r3, [r7, #12]
 1288 0056 32E0     		b	.L53
 1289              	.L54:
 292:led_manager.c **** 	else if (BMS_TEMP > bms_temp_map[1] && BMS_TEMP <= bms_temp_map[2])
 1290              		.loc 1 292 0
 1291 0058 FA79     		ldrb	r2, [r7, #7]	@ zero_extendqisi2
 1292 005a 3A4B     		ldr	r3, .L63+8
 1293 005c 5B68     		ldr	r3, [r3, #4]
 1294 005e 9A42     		cmp	r2, r3
 1295 0060 07DD     		ble	.L55
 1296              		.loc 1 292 0 is_stmt 0 discriminator 1
 1297 0062 FA79     		ldrb	r2, [r7, #7]	@ zero_extendqisi2
 1298 0064 374B     		ldr	r3, .L63+8
 1299 0066 9B68     		ldr	r3, [r3, #8]
 1300 0068 9A42     		cmp	r2, r3
 1301 006a 02DC     		bgt	.L55
 293:led_manager.c **** 		steps = 3;
 1302              		.loc 1 293 0 is_stmt 1
 1303 006c 0323     		movs	r3, #3
 1304 006e FB60     		str	r3, [r7, #12]
 1305 0070 25E0     		b	.L53
 1306              	.L55:
 294:led_manager.c **** 	else if (BMS_TEMP > bms_temp_map[2] && BMS_TEMP <= bms_temp_map[3])
 1307              		.loc 1 294 0
 1308 0072 FA79     		ldrb	r2, [r7, #7]	@ zero_extendqisi2
 1309 0074 334B     		ldr	r3, .L63+8
 1310 0076 9B68     		ldr	r3, [r3, #8]
 1311 0078 9A42     		cmp	r2, r3
 1312 007a 07DD     		ble	.L56
 1313              		.loc 1 294 0 is_stmt 0 discriminator 1
 1314 007c FA79     		ldrb	r2, [r7, #7]	@ zero_extendqisi2
 1315 007e 314B     		ldr	r3, .L63+8
 1316 0080 DB68     		ldr	r3, [r3, #12]
 1317 0082 9A42     		cmp	r2, r3
 1318 0084 02DC     		bgt	.L56
 295:led_manager.c **** 		steps = 4;
 1319              		.loc 1 295 0 is_stmt 1
 1320 0086 0423     		movs	r3, #4
 1321 0088 FB60     		str	r3, [r7, #12]
 1322 008a 18E0     		b	.L53
 1323              	.L56:
 296:led_manager.c **** 	else if (BMS_TEMP > bms_temp_map[3] && BMS_TEMP < bms_temp_map[4])
 1324              		.loc 1 296 0
 1325 008c FA79     		ldrb	r2, [r7, #7]	@ zero_extendqisi2
 1326 008e 2D4B     		ldr	r3, .L63+8
 1327 0090 DB68     		ldr	r3, [r3, #12]
 1328 0092 9A42     		cmp	r2, r3
 1329 0094 07DD     		ble	.L57
 1330              		.loc 1 296 0 is_stmt 0 discriminator 1
 1331 0096 FA79     		ldrb	r2, [r7, #7]	@ zero_extendqisi2
 1332 0098 2A4B     		ldr	r3, .L63+8
 1333 009a 1B69     		ldr	r3, [r3, #16]
ARM GAS  D:\Windows\AppData\Local\Temp\ccYfDzHQ.s 			page 30


 1334 009c 9A42     		cmp	r2, r3
 1335 009e 02DA     		bge	.L57
 297:led_manager.c **** 		steps = 5;
 1336              		.loc 1 297 0 is_stmt 1
 1337 00a0 0523     		movs	r3, #5
 1338 00a2 FB60     		str	r3, [r7, #12]
 1339 00a4 0BE0     		b	.L53
 1340              	.L57:
 298:led_manager.c **** 	else {	//(BMS_TEMP >= 60)
 299:led_manager.c **** 		if(!b1_critical) {	//start blinking
 1341              		.loc 1 299 0
 1342 00a6 264B     		ldr	r3, .L63+4
 1343 00a8 1B68     		ldr	r3, [r3]
 1344 00aa 002B     		cmp	r3, #0
 1345 00ac 07D1     		bne	.L53
 300:led_manager.c **** 			b1_critical_timer_Start();
 1346              		.loc 1 300 0
 1347 00ae FFF7FEFF 		bl	b1_critical_timer_Start
 301:led_manager.c **** 			b1_crit_int_StartEx(b1_crit_isr);
 1348              		.loc 1 301 0
 1349 00b2 2548     		ldr	r0, .L63+12
 1350 00b4 FFF7FEFF 		bl	b1_crit_int_StartEx
 302:led_manager.c **** 			b1_critical = 1;
 1351              		.loc 1 302 0
 1352 00b8 214B     		ldr	r3, .L63+4
 1353 00ba 0122     		movs	r2, #1
 1354 00bc 1A60     		str	r2, [r3]
 1355              	.L53:
 303:led_manager.c **** 		} //if
 304:led_manager.c **** 	} //else
 305:led_manager.c **** 	
 306:led_manager.c **** 	if(!b1_critical) {
 1356              		.loc 1 306 0
 1357 00be 204B     		ldr	r3, .L63+4
 1358 00c0 1B68     		ldr	r3, [r3]
 1359 00c2 002B     		cmp	r3, #0
 1360 00c4 37D1     		bne	.L50
 1361              	.LBB3:
 307:led_manager.c **** 		int i;
 308:led_manager.c **** 		for(i=0; i<steps; i++)
 1362              		.loc 1 308 0
 1363 00c6 0023     		movs	r3, #0
 1364 00c8 BB60     		str	r3, [r7, #8]
 1365 00ca 07E0     		b	.L59
 1366              	.L60:
 309:led_manager.c **** 			b1_arr[i] = 1;	//on leds
 1367              		.loc 1 309 0 discriminator 3
 1368 00cc 1F4A     		ldr	r2, .L63+16
 1369 00ce BB68     		ldr	r3, [r7, #8]
 1370 00d0 0121     		movs	r1, #1
 1371 00d2 42F82310 		str	r1, [r2, r3, lsl #2]
 308:led_manager.c **** 			b1_arr[i] = 1;	//on leds
 1372              		.loc 1 308 0 discriminator 3
 1373 00d6 BB68     		ldr	r3, [r7, #8]
 1374 00d8 0133     		adds	r3, r3, #1
 1375 00da BB60     		str	r3, [r7, #8]
 1376              	.L59:
ARM GAS  D:\Windows\AppData\Local\Temp\ccYfDzHQ.s 			page 31


 308:led_manager.c **** 			b1_arr[i] = 1;	//on leds
 1377              		.loc 1 308 0 is_stmt 0 discriminator 1
 1378 00dc BA68     		ldr	r2, [r7, #8]
 1379 00de FB68     		ldr	r3, [r7, #12]
 1380 00e0 9A42     		cmp	r2, r3
 1381 00e2 F3DB     		blt	.L60
 310:led_manager.c **** 		for(i=steps; i<5; i++)
 1382              		.loc 1 310 0 is_stmt 1
 1383 00e4 FB68     		ldr	r3, [r7, #12]
 1384 00e6 BB60     		str	r3, [r7, #8]
 1385 00e8 07E0     		b	.L61
 1386              	.L62:
 311:led_manager.c **** 			b1_arr[i] = 0;	//off leds
 1387              		.loc 1 311 0 discriminator 3
 1388 00ea 184A     		ldr	r2, .L63+16
 1389 00ec BB68     		ldr	r3, [r7, #8]
 1390 00ee 0021     		movs	r1, #0
 1391 00f0 42F82310 		str	r1, [r2, r3, lsl #2]
 310:led_manager.c **** 		for(i=steps; i<5; i++)
 1392              		.loc 1 310 0 discriminator 3
 1393 00f4 BB68     		ldr	r3, [r7, #8]
 1394 00f6 0133     		adds	r3, r3, #1
 1395 00f8 BB60     		str	r3, [r7, #8]
 1396              	.L61:
 310:led_manager.c **** 		for(i=steps; i<5; i++)
 1397              		.loc 1 310 0 is_stmt 0 discriminator 1
 1398 00fa BB68     		ldr	r3, [r7, #8]
 1399 00fc 042B     		cmp	r3, #4
 1400 00fe F4DD     		ble	.L62
 312:led_manager.c **** 		
 313:led_manager.c **** 		b11_write(b1_arr[0]);
 1401              		.loc 1 313 0 is_stmt 1
 1402 0100 124B     		ldr	r3, .L63+16
 1403 0102 1B68     		ldr	r3, [r3]
 1404 0104 1846     		mov	r0, r3
 1405 0106 FFF7FEFF 		bl	b11_write
 314:led_manager.c **** 		b12_write(b1_arr[1]);
 1406              		.loc 1 314 0
 1407 010a 104B     		ldr	r3, .L63+16
 1408 010c 5B68     		ldr	r3, [r3, #4]
 1409 010e 1846     		mov	r0, r3
 1410 0110 FFF7FEFF 		bl	b12_write
 315:led_manager.c **** 		b13_write(b1_arr[2]);
 1411              		.loc 1 315 0
 1412 0114 0D4B     		ldr	r3, .L63+16
 1413 0116 9B68     		ldr	r3, [r3, #8]
 1414 0118 1846     		mov	r0, r3
 1415 011a FFF7FEFF 		bl	b13_write
 316:led_manager.c **** 		b14_write(b1_arr[3]);
 1416              		.loc 1 316 0
 1417 011e 0B4B     		ldr	r3, .L63+16
 1418 0120 DB68     		ldr	r3, [r3, #12]
 1419 0122 1846     		mov	r0, r3
 1420 0124 FFF7FEFF 		bl	b14_write
 317:led_manager.c **** 		b15_write(b1_arr[4]);
 1421              		.loc 1 317 0
 1422 0128 084B     		ldr	r3, .L63+16
ARM GAS  D:\Windows\AppData\Local\Temp\ccYfDzHQ.s 			page 32


 1423 012a 1B69     		ldr	r3, [r3, #16]
 1424 012c 1846     		mov	r0, r3
 1425 012e FFF7FEFF 		bl	b15_write
 318:led_manager.c ****         led_update_stat();
 1426              		.loc 1 318 0
 1427 0132 FFF7FEFF 		bl	led_update_stat
 1428              	.L50:
 1429              	.LBE3:
 319:led_manager.c **** 	} //if
 320:led_manager.c **** }	//led_write_b1()
 1430              		.loc 1 320 0
 1431 0136 1037     		adds	r7, r7, #16
 1432              		.cfi_def_cfa_offset 8
 1433 0138 BD46     		mov	sp, r7
 1434              		.cfi_def_cfa_register 13
 1435              		@ sp needed
 1436 013a 80BD     		pop	{r7, pc}
 1437              	.L64:
 1438              		.align	2
 1439              	.L63:
 1440 013c 00000000 		.word	mtr_temp_map
 1441 0140 00000000 		.word	b1_critical
 1442 0144 00000000 		.word	bms_temp_map
 1443 0148 00000000 		.word	b1_crit_isr
 1444 014c 00000000 		.word	b1_arr
 1445              		.cfi_endproc
 1446              	.LFE70:
 1447              		.size	led_write_b1, .-led_write_b1
 1448              		.section	.text.led_write_b2,"ax",%progbits
 1449              		.align	2
 1450              		.global	led_write_b2
 1451              		.thumb
 1452              		.thumb_func
 1453              		.type	led_write_b2, %function
 1454              	led_write_b2:
 1455              	.LFB71:
 321:led_manager.c **** 
 322:led_manager.c **** void led_write_b2(uint16_t MTR_TEMP_hex) {	//center vertical bar, 5 leds
 1456              		.loc 1 322 0
 1457              		.cfi_startproc
 1458              		@ args = 0, pretend = 0, frame = 24
 1459              		@ frame_needed = 1, uses_anonymous_args = 0
 1460 0000 80B5     		push	{r7, lr}
 1461              		.cfi_def_cfa_offset 8
 1462              		.cfi_offset 7, -8
 1463              		.cfi_offset 14, -4
 1464 0002 86B0     		sub	sp, sp, #24
 1465              		.cfi_def_cfa_offset 32
 1466 0004 00AF     		add	r7, sp, #0
 1467              		.cfi_def_cfa_register 7
 1468 0006 0346     		mov	r3, r0
 1469 0008 FB80     		strh	r3, [r7, #6]	@ movhi
 323:led_manager.c ****     int MTR_TEMP = (int)(MTR_TEMP_hex / 0x0A);
 1470              		.loc 1 323 0
 1471 000a FB88     		ldrh	r3, [r7, #6]
 1472 000c 4F4A     		ldr	r2, .L78
 1473 000e A2FB0323 		umull	r2, r3, r2, r3
ARM GAS  D:\Windows\AppData\Local\Temp\ccYfDzHQ.s 			page 33


 1474 0012 DB08     		lsrs	r3, r3, #3
 1475 0014 9BB2     		uxth	r3, r3
 1476 0016 FB60     		str	r3, [r7, #12]
 324:led_manager.c ****     
 325:led_manager.c ****     if(MTR_TEMP < mtr_temp_map[4]) { //temperature has cooled down, stop blinking
 1477              		.loc 1 325 0
 1478 0018 4D4B     		ldr	r3, .L78+4
 1479 001a 1A69     		ldr	r2, [r3, #16]
 1480 001c FB68     		ldr	r3, [r7, #12]
 1481 001e 9A42     		cmp	r2, r3
 1482 0020 0ADD     		ble	.L66
 326:led_manager.c ****         if(b2_critical) {
 1483              		.loc 1 326 0
 1484 0022 4C4B     		ldr	r3, .L78+8
 1485 0024 1B68     		ldr	r3, [r3]
 1486 0026 002B     		cmp	r3, #0
 1487 0028 06D0     		beq	.L66
 327:led_manager.c ****             b2_critical = 0;
 1488              		.loc 1 327 0
 1489 002a 4A4B     		ldr	r3, .L78+8
 1490 002c 0022     		movs	r2, #0
 1491 002e 1A60     		str	r2, [r3]
 328:led_manager.c ****             b2_crit_int_Stop();
 1492              		.loc 1 328 0
 1493 0030 FFF7FEFF 		bl	b2_crit_int_Stop
 329:led_manager.c ****             b2_critical_timer_Stop();
 1494              		.loc 1 329 0
 1495 0034 FFF7FEFF 		bl	b2_critical_timer_Stop
 1496              	.L66:
 330:led_manager.c ****         } //if 
 331:led_manager.c ****     } //if
 332:led_manager.c ****     
 333:led_manager.c **** 	int steps = 0;
 1497              		.loc 1 333 0
 1498 0038 0023     		movs	r3, #0
 1499 003a 7B61     		str	r3, [r7, #20]
 334:led_manager.c **** 	if (MTR_TEMP <= mtr_temp_map[0])
 1500              		.loc 1 334 0
 1501 003c 444B     		ldr	r3, .L78+4
 1502 003e 1A68     		ldr	r2, [r3]
 1503 0040 FB68     		ldr	r3, [r7, #12]
 1504 0042 9A42     		cmp	r2, r3
 1505 0044 02DB     		blt	.L67
 335:led_manager.c **** 		steps = 1;
 1506              		.loc 1 335 0
 1507 0046 0123     		movs	r3, #1
 1508 0048 7B61     		str	r3, [r7, #20]
 1509 004a 3FE0     		b	.L68
 1510              	.L67:
 336:led_manager.c **** 	else if (MTR_TEMP > mtr_temp_map[0] && MTR_TEMP <= mtr_temp_map[1])
 1511              		.loc 1 336 0
 1512 004c 404B     		ldr	r3, .L78+4
 1513 004e 1A68     		ldr	r2, [r3]
 1514 0050 FB68     		ldr	r3, [r7, #12]
 1515 0052 9A42     		cmp	r2, r3
 1516 0054 07DA     		bge	.L69
 1517              		.loc 1 336 0 is_stmt 0 discriminator 1
ARM GAS  D:\Windows\AppData\Local\Temp\ccYfDzHQ.s 			page 34


 1518 0056 3E4B     		ldr	r3, .L78+4
 1519 0058 5A68     		ldr	r2, [r3, #4]
 1520 005a FB68     		ldr	r3, [r7, #12]
 1521 005c 9A42     		cmp	r2, r3
 1522 005e 02DB     		blt	.L69
 337:led_manager.c **** 		steps = 2;
 1523              		.loc 1 337 0 is_stmt 1
 1524 0060 0223     		movs	r3, #2
 1525 0062 7B61     		str	r3, [r7, #20]
 1526 0064 32E0     		b	.L68
 1527              	.L69:
 338:led_manager.c **** 	else if (MTR_TEMP > mtr_temp_map[1] && MTR_TEMP <= mtr_temp_map[2])
 1528              		.loc 1 338 0
 1529 0066 3A4B     		ldr	r3, .L78+4
 1530 0068 5A68     		ldr	r2, [r3, #4]
 1531 006a FB68     		ldr	r3, [r7, #12]
 1532 006c 9A42     		cmp	r2, r3
 1533 006e 07DA     		bge	.L70
 1534              		.loc 1 338 0 is_stmt 0 discriminator 1
 1535 0070 374B     		ldr	r3, .L78+4
 1536 0072 9A68     		ldr	r2, [r3, #8]
 1537 0074 FB68     		ldr	r3, [r7, #12]
 1538 0076 9A42     		cmp	r2, r3
 1539 0078 02DB     		blt	.L70
 339:led_manager.c **** 		steps = 3;
 1540              		.loc 1 339 0 is_stmt 1
 1541 007a 0323     		movs	r3, #3
 1542 007c 7B61     		str	r3, [r7, #20]
 1543 007e 25E0     		b	.L68
 1544              	.L70:
 340:led_manager.c **** 	else if (MTR_TEMP > mtr_temp_map[2] && MTR_TEMP <= mtr_temp_map[3])
 1545              		.loc 1 340 0
 1546 0080 334B     		ldr	r3, .L78+4
 1547 0082 9A68     		ldr	r2, [r3, #8]
 1548 0084 FB68     		ldr	r3, [r7, #12]
 1549 0086 9A42     		cmp	r2, r3
 1550 0088 07DA     		bge	.L71
 1551              		.loc 1 340 0 is_stmt 0 discriminator 1
 1552 008a 314B     		ldr	r3, .L78+4
 1553 008c DA68     		ldr	r2, [r3, #12]
 1554 008e FB68     		ldr	r3, [r7, #12]
 1555 0090 9A42     		cmp	r2, r3
 1556 0092 02DB     		blt	.L71
 341:led_manager.c **** 		steps = 4;
 1557              		.loc 1 341 0 is_stmt 1
 1558 0094 0423     		movs	r3, #4
 1559 0096 7B61     		str	r3, [r7, #20]
 1560 0098 18E0     		b	.L68
 1561              	.L71:
 342:led_manager.c **** 	else if (MTR_TEMP > mtr_temp_map[3] && MTR_TEMP < mtr_temp_map[4])
 1562              		.loc 1 342 0
 1563 009a 2D4B     		ldr	r3, .L78+4
 1564 009c DA68     		ldr	r2, [r3, #12]
 1565 009e FB68     		ldr	r3, [r7, #12]
 1566 00a0 9A42     		cmp	r2, r3
 1567 00a2 07DA     		bge	.L72
 1568              		.loc 1 342 0 is_stmt 0 discriminator 1
ARM GAS  D:\Windows\AppData\Local\Temp\ccYfDzHQ.s 			page 35


 1569 00a4 2A4B     		ldr	r3, .L78+4
 1570 00a6 1A69     		ldr	r2, [r3, #16]
 1571 00a8 FB68     		ldr	r3, [r7, #12]
 1572 00aa 9A42     		cmp	r2, r3
 1573 00ac 02DD     		ble	.L72
 343:led_manager.c **** 		steps = 5;
 1574              		.loc 1 343 0 is_stmt 1
 1575 00ae 0523     		movs	r3, #5
 1576 00b0 7B61     		str	r3, [r7, #20]
 1577 00b2 0BE0     		b	.L68
 1578              	.L72:
 344:led_manager.c **** 	else {	//(MTR_TEMP >= 100)
 345:led_manager.c **** 		if(!b2_critical) {	//start blinking
 1579              		.loc 1 345 0
 1580 00b4 274B     		ldr	r3, .L78+8
 1581 00b6 1B68     		ldr	r3, [r3]
 1582 00b8 002B     		cmp	r3, #0
 1583 00ba 07D1     		bne	.L68
 346:led_manager.c **** 			b2_critical_timer_Start();
 1584              		.loc 1 346 0
 1585 00bc FFF7FEFF 		bl	b2_critical_timer_Start
 347:led_manager.c **** 			b2_crit_int_StartEx(b2_crit_isr);
 1586              		.loc 1 347 0
 1587 00c0 2548     		ldr	r0, .L78+12
 1588 00c2 FFF7FEFF 		bl	b2_crit_int_StartEx
 348:led_manager.c **** 			b2_critical = 1;
 1589              		.loc 1 348 0
 1590 00c6 234B     		ldr	r3, .L78+8
 1591 00c8 0122     		movs	r2, #1
 1592 00ca 1A60     		str	r2, [r3]
 1593              	.L68:
 349:led_manager.c **** 		} //if
 350:led_manager.c **** 	} //else
 351:led_manager.c **** 	
 352:led_manager.c **** 	if (!b2_critical) {
 1594              		.loc 1 352 0
 1595 00cc 214B     		ldr	r3, .L78+8
 1596 00ce 1B68     		ldr	r3, [r3]
 1597 00d0 002B     		cmp	r3, #0
 1598 00d2 37D1     		bne	.L65
 1599              	.LBB4:
 353:led_manager.c **** 		int i;
 354:led_manager.c **** 		for(i=0; i<steps; i++)
 1600              		.loc 1 354 0
 1601 00d4 0023     		movs	r3, #0
 1602 00d6 3B61     		str	r3, [r7, #16]
 1603 00d8 07E0     		b	.L74
 1604              	.L75:
 355:led_manager.c **** 			b2_arr[i] = 1;	//on leds
 1605              		.loc 1 355 0 discriminator 3
 1606 00da 204A     		ldr	r2, .L78+16
 1607 00dc 3B69     		ldr	r3, [r7, #16]
 1608 00de 0121     		movs	r1, #1
 1609 00e0 42F82310 		str	r1, [r2, r3, lsl #2]
 354:led_manager.c **** 			b2_arr[i] = 1;	//on leds
 1610              		.loc 1 354 0 discriminator 3
 1611 00e4 3B69     		ldr	r3, [r7, #16]
ARM GAS  D:\Windows\AppData\Local\Temp\ccYfDzHQ.s 			page 36


 1612 00e6 0133     		adds	r3, r3, #1
 1613 00e8 3B61     		str	r3, [r7, #16]
 1614              	.L74:
 354:led_manager.c **** 			b2_arr[i] = 1;	//on leds
 1615              		.loc 1 354 0 is_stmt 0 discriminator 1
 1616 00ea 3A69     		ldr	r2, [r7, #16]
 1617 00ec 7B69     		ldr	r3, [r7, #20]
 1618 00ee 9A42     		cmp	r2, r3
 1619 00f0 F3DB     		blt	.L75
 356:led_manager.c **** 		for(i=steps; i<5; i++)
 1620              		.loc 1 356 0 is_stmt 1
 1621 00f2 7B69     		ldr	r3, [r7, #20]
 1622 00f4 3B61     		str	r3, [r7, #16]
 1623 00f6 07E0     		b	.L76
 1624              	.L77:
 357:led_manager.c **** 			b2_arr[i] = 0;	//off leds
 1625              		.loc 1 357 0 discriminator 3
 1626 00f8 184A     		ldr	r2, .L78+16
 1627 00fa 3B69     		ldr	r3, [r7, #16]
 1628 00fc 0021     		movs	r1, #0
 1629 00fe 42F82310 		str	r1, [r2, r3, lsl #2]
 356:led_manager.c **** 		for(i=steps; i<5; i++)
 1630              		.loc 1 356 0 discriminator 3
 1631 0102 3B69     		ldr	r3, [r7, #16]
 1632 0104 0133     		adds	r3, r3, #1
 1633 0106 3B61     		str	r3, [r7, #16]
 1634              	.L76:
 356:led_manager.c **** 		for(i=steps; i<5; i++)
 1635              		.loc 1 356 0 is_stmt 0 discriminator 1
 1636 0108 3B69     		ldr	r3, [r7, #16]
 1637 010a 042B     		cmp	r3, #4
 1638 010c F4DD     		ble	.L77
 358:led_manager.c **** 		
 359:led_manager.c **** 		b21_write(b2_arr[0]);
 1639              		.loc 1 359 0 is_stmt 1
 1640 010e 134B     		ldr	r3, .L78+16
 1641 0110 1B68     		ldr	r3, [r3]
 1642 0112 1846     		mov	r0, r3
 1643 0114 FFF7FEFF 		bl	b21_write
 360:led_manager.c **** 		b22_write(b2_arr[1]);
 1644              		.loc 1 360 0
 1645 0118 104B     		ldr	r3, .L78+16
 1646 011a 5B68     		ldr	r3, [r3, #4]
 1647 011c 1846     		mov	r0, r3
 1648 011e FFF7FEFF 		bl	b22_write
 361:led_manager.c **** 		b23_write(b2_arr[2]);
 1649              		.loc 1 361 0
 1650 0122 0E4B     		ldr	r3, .L78+16
 1651 0124 9B68     		ldr	r3, [r3, #8]
 1652 0126 1846     		mov	r0, r3
 1653 0128 FFF7FEFF 		bl	b23_write
 362:led_manager.c **** 		b24_write(b2_arr[3]);
 1654              		.loc 1 362 0
 1655 012c 0B4B     		ldr	r3, .L78+16
 1656 012e DB68     		ldr	r3, [r3, #12]
 1657 0130 1846     		mov	r0, r3
 1658 0132 FFF7FEFF 		bl	b24_write
ARM GAS  D:\Windows\AppData\Local\Temp\ccYfDzHQ.s 			page 37


 363:led_manager.c **** 		b25_write(b2_arr[4]);
 1659              		.loc 1 363 0
 1660 0136 094B     		ldr	r3, .L78+16
 1661 0138 1B69     		ldr	r3, [r3, #16]
 1662 013a 1846     		mov	r0, r3
 1663 013c FFF7FEFF 		bl	b25_write
 364:led_manager.c ****         led_update_stat();
 1664              		.loc 1 364 0
 1665 0140 FFF7FEFF 		bl	led_update_stat
 1666              	.L65:
 1667              	.LBE4:
 365:led_manager.c **** 	} //if
 366:led_manager.c **** } //led_write_b2()
 1668              		.loc 1 366 0
 1669 0144 1837     		adds	r7, r7, #24
 1670              		.cfi_def_cfa_offset 8
 1671 0146 BD46     		mov	sp, r7
 1672              		.cfi_def_cfa_register 13
 1673              		@ sp needed
 1674 0148 80BD     		pop	{r7, pc}
 1675              	.L79:
 1676 014a 00BF     		.align	2
 1677              	.L78:
 1678 014c CDCCCCCC 		.word	-858993459
 1679 0150 00000000 		.word	mtr_temp_map
 1680 0154 00000000 		.word	b2_critical
 1681 0158 00000000 		.word	b2_crit_isr
 1682 015c 00000000 		.word	b2_arr
 1683              		.cfi_endproc
 1684              	.LFE71:
 1685              		.size	led_write_b2, .-led_write_b2
 1686              		.section	.text.led_write_b3,"ax",%progbits
 1687              		.align	2
 1688              		.global	led_write_b3
 1689              		.thumb
 1690              		.thumb_func
 1691              		.type	led_write_b3, %function
 1692              	led_write_b3:
 1693              	.LFB72:
 367:led_manager.c **** 
 368:led_manager.c **** void led_write_b3(uint16_t MTR_CTRL_TEMP_hex) {	//right vertical bar, 5 leds
 1694              		.loc 1 368 0
 1695              		.cfi_startproc
 1696              		@ args = 0, pretend = 0, frame = 24
 1697              		@ frame_needed = 1, uses_anonymous_args = 0
 1698 0000 80B5     		push	{r7, lr}
 1699              		.cfi_def_cfa_offset 8
 1700              		.cfi_offset 7, -8
 1701              		.cfi_offset 14, -4
 1702 0002 86B0     		sub	sp, sp, #24
 1703              		.cfi_def_cfa_offset 32
 1704 0004 00AF     		add	r7, sp, #0
 1705              		.cfi_def_cfa_register 7
 1706 0006 0346     		mov	r3, r0
 1707 0008 FB80     		strh	r3, [r7, #6]	@ movhi
 369:led_manager.c ****     int MTR_CTRL_TEMP = (int)(MTR_CTRL_TEMP_hex / 0x0A);
 1708              		.loc 1 369 0
ARM GAS  D:\Windows\AppData\Local\Temp\ccYfDzHQ.s 			page 38


 1709 000a FB88     		ldrh	r3, [r7, #6]
 1710 000c 4F4A     		ldr	r2, .L93
 1711 000e A2FB0323 		umull	r2, r3, r2, r3
 1712 0012 DB08     		lsrs	r3, r3, #3
 1713 0014 9BB2     		uxth	r3, r3
 1714 0016 FB60     		str	r3, [r7, #12]
 370:led_manager.c ****     if(MTR_CTRL_TEMP < mtr_ctrl_temp_map[4]) { //temperature has cooled down, stop blinking
 1715              		.loc 1 370 0
 1716 0018 4D4B     		ldr	r3, .L93+4
 1717 001a 1A69     		ldr	r2, [r3, #16]
 1718 001c FB68     		ldr	r3, [r7, #12]
 1719 001e 9A42     		cmp	r2, r3
 1720 0020 0ADD     		ble	.L81
 371:led_manager.c ****         if(b3_critical) {
 1721              		.loc 1 371 0
 1722 0022 4C4B     		ldr	r3, .L93+8
 1723 0024 1B68     		ldr	r3, [r3]
 1724 0026 002B     		cmp	r3, #0
 1725 0028 06D0     		beq	.L81
 372:led_manager.c ****             b3_critical = 0;
 1726              		.loc 1 372 0
 1727 002a 4A4B     		ldr	r3, .L93+8
 1728 002c 0022     		movs	r2, #0
 1729 002e 1A60     		str	r2, [r3]
 373:led_manager.c ****             b3_crit_int_Stop();
 1730              		.loc 1 373 0
 1731 0030 FFF7FEFF 		bl	b3_crit_int_Stop
 374:led_manager.c ****             b3_critical_timer_Stop();
 1732              		.loc 1 374 0
 1733 0034 FFF7FEFF 		bl	b3_critical_timer_Stop
 1734              	.L81:
 375:led_manager.c ****         } //if 
 376:led_manager.c ****     } //if
 377:led_manager.c ****     
 378:led_manager.c **** 	int steps = 0;
 1735              		.loc 1 378 0
 1736 0038 0023     		movs	r3, #0
 1737 003a 7B61     		str	r3, [r7, #20]
 379:led_manager.c **** 	if (MTR_CTRL_TEMP <= mtr_ctrl_temp_map[0])
 1738              		.loc 1 379 0
 1739 003c 444B     		ldr	r3, .L93+4
 1740 003e 1A68     		ldr	r2, [r3]
 1741 0040 FB68     		ldr	r3, [r7, #12]
 1742 0042 9A42     		cmp	r2, r3
 1743 0044 02DB     		blt	.L82
 380:led_manager.c **** 		steps = 1;
 1744              		.loc 1 380 0
 1745 0046 0123     		movs	r3, #1
 1746 0048 7B61     		str	r3, [r7, #20]
 1747 004a 3FE0     		b	.L83
 1748              	.L82:
 381:led_manager.c **** 	else if (MTR_CTRL_TEMP > mtr_ctrl_temp_map[0] && MTR_CTRL_TEMP <= mtr_ctrl_temp_map[1])
 1749              		.loc 1 381 0
 1750 004c 404B     		ldr	r3, .L93+4
 1751 004e 1A68     		ldr	r2, [r3]
 1752 0050 FB68     		ldr	r3, [r7, #12]
 1753 0052 9A42     		cmp	r2, r3
ARM GAS  D:\Windows\AppData\Local\Temp\ccYfDzHQ.s 			page 39


 1754 0054 07DA     		bge	.L84
 1755              		.loc 1 381 0 is_stmt 0 discriminator 1
 1756 0056 3E4B     		ldr	r3, .L93+4
 1757 0058 5A68     		ldr	r2, [r3, #4]
 1758 005a FB68     		ldr	r3, [r7, #12]
 1759 005c 9A42     		cmp	r2, r3
 1760 005e 02DB     		blt	.L84
 382:led_manager.c **** 		steps = 2;
 1761              		.loc 1 382 0 is_stmt 1
 1762 0060 0223     		movs	r3, #2
 1763 0062 7B61     		str	r3, [r7, #20]
 1764 0064 32E0     		b	.L83
 1765              	.L84:
 383:led_manager.c **** 	else if (MTR_CTRL_TEMP > mtr_ctrl_temp_map[1] && MTR_CTRL_TEMP <= mtr_ctrl_temp_map[2])
 1766              		.loc 1 383 0
 1767 0066 3A4B     		ldr	r3, .L93+4
 1768 0068 5A68     		ldr	r2, [r3, #4]
 1769 006a FB68     		ldr	r3, [r7, #12]
 1770 006c 9A42     		cmp	r2, r3
 1771 006e 07DA     		bge	.L85
 1772              		.loc 1 383 0 is_stmt 0 discriminator 1
 1773 0070 374B     		ldr	r3, .L93+4
 1774 0072 9A68     		ldr	r2, [r3, #8]
 1775 0074 FB68     		ldr	r3, [r7, #12]
 1776 0076 9A42     		cmp	r2, r3
 1777 0078 02DB     		blt	.L85
 384:led_manager.c **** 		steps = 3;
 1778              		.loc 1 384 0 is_stmt 1
 1779 007a 0323     		movs	r3, #3
 1780 007c 7B61     		str	r3, [r7, #20]
 1781 007e 25E0     		b	.L83
 1782              	.L85:
 385:led_manager.c **** 	else if (MTR_CTRL_TEMP > mtr_ctrl_temp_map[2] && MTR_CTRL_TEMP <= mtr_ctrl_temp_map[3])
 1783              		.loc 1 385 0
 1784 0080 334B     		ldr	r3, .L93+4
 1785 0082 9A68     		ldr	r2, [r3, #8]
 1786 0084 FB68     		ldr	r3, [r7, #12]
 1787 0086 9A42     		cmp	r2, r3
 1788 0088 07DA     		bge	.L86
 1789              		.loc 1 385 0 is_stmt 0 discriminator 1
 1790 008a 314B     		ldr	r3, .L93+4
 1791 008c DA68     		ldr	r2, [r3, #12]
 1792 008e FB68     		ldr	r3, [r7, #12]
 1793 0090 9A42     		cmp	r2, r3
 1794 0092 02DB     		blt	.L86
 386:led_manager.c **** 		steps = 4;
 1795              		.loc 1 386 0 is_stmt 1
 1796 0094 0423     		movs	r3, #4
 1797 0096 7B61     		str	r3, [r7, #20]
 1798 0098 18E0     		b	.L83
 1799              	.L86:
 387:led_manager.c **** 	else if (MTR_CTRL_TEMP > mtr_ctrl_temp_map[3] && MTR_CTRL_TEMP < mtr_ctrl_temp_map[4])
 1800              		.loc 1 387 0
 1801 009a 2D4B     		ldr	r3, .L93+4
 1802 009c DA68     		ldr	r2, [r3, #12]
 1803 009e FB68     		ldr	r3, [r7, #12]
 1804 00a0 9A42     		cmp	r2, r3
ARM GAS  D:\Windows\AppData\Local\Temp\ccYfDzHQ.s 			page 40


 1805 00a2 07DA     		bge	.L87
 1806              		.loc 1 387 0 is_stmt 0 discriminator 1
 1807 00a4 2A4B     		ldr	r3, .L93+4
 1808 00a6 1A69     		ldr	r2, [r3, #16]
 1809 00a8 FB68     		ldr	r3, [r7, #12]
 1810 00aa 9A42     		cmp	r2, r3
 1811 00ac 02DD     		ble	.L87
 388:led_manager.c **** 		steps = 5;
 1812              		.loc 1 388 0 is_stmt 1
 1813 00ae 0523     		movs	r3, #5
 1814 00b0 7B61     		str	r3, [r7, #20]
 1815 00b2 0BE0     		b	.L83
 1816              	.L87:
 389:led_manager.c **** 	else {	//(MTR_CTRL_TEMP >= 135)
 390:led_manager.c **** 		if(!b3_critical) {	//start blinking
 1817              		.loc 1 390 0
 1818 00b4 274B     		ldr	r3, .L93+8
 1819 00b6 1B68     		ldr	r3, [r3]
 1820 00b8 002B     		cmp	r3, #0
 1821 00ba 07D1     		bne	.L83
 391:led_manager.c **** 			b3_critical_timer_Start();
 1822              		.loc 1 391 0
 1823 00bc FFF7FEFF 		bl	b3_critical_timer_Start
 392:led_manager.c **** 			b3_crit_int_StartEx(b3_crit_isr);
 1824              		.loc 1 392 0
 1825 00c0 2548     		ldr	r0, .L93+12
 1826 00c2 FFF7FEFF 		bl	b3_crit_int_StartEx
 393:led_manager.c **** 			b3_critical = 1;
 1827              		.loc 1 393 0
 1828 00c6 234B     		ldr	r3, .L93+8
 1829 00c8 0122     		movs	r2, #1
 1830 00ca 1A60     		str	r2, [r3]
 1831              	.L83:
 394:led_manager.c **** 		} //if
 395:led_manager.c **** 	} 	//else
 396:led_manager.c **** 	
 397:led_manager.c **** 	if(!b3_critical) {
 1832              		.loc 1 397 0
 1833 00cc 214B     		ldr	r3, .L93+8
 1834 00ce 1B68     		ldr	r3, [r3]
 1835 00d0 002B     		cmp	r3, #0
 1836 00d2 37D1     		bne	.L80
 1837              	.LBB5:
 398:led_manager.c **** 		int i;
 399:led_manager.c **** 		for(i=0; i<steps; i++)
 1838              		.loc 1 399 0
 1839 00d4 0023     		movs	r3, #0
 1840 00d6 3B61     		str	r3, [r7, #16]
 1841 00d8 07E0     		b	.L89
 1842              	.L90:
 400:led_manager.c **** 			b3_arr[i] = 1;	//on leds
 1843              		.loc 1 400 0 discriminator 3
 1844 00da 204A     		ldr	r2, .L93+16
 1845 00dc 3B69     		ldr	r3, [r7, #16]
 1846 00de 0121     		movs	r1, #1
 1847 00e0 42F82310 		str	r1, [r2, r3, lsl #2]
 399:led_manager.c **** 			b3_arr[i] = 1;	//on leds
ARM GAS  D:\Windows\AppData\Local\Temp\ccYfDzHQ.s 			page 41


 1848              		.loc 1 399 0 discriminator 3
 1849 00e4 3B69     		ldr	r3, [r7, #16]
 1850 00e6 0133     		adds	r3, r3, #1
 1851 00e8 3B61     		str	r3, [r7, #16]
 1852              	.L89:
 399:led_manager.c **** 			b3_arr[i] = 1;	//on leds
 1853              		.loc 1 399 0 is_stmt 0 discriminator 1
 1854 00ea 3A69     		ldr	r2, [r7, #16]
 1855 00ec 7B69     		ldr	r3, [r7, #20]
 1856 00ee 9A42     		cmp	r2, r3
 1857 00f0 F3DB     		blt	.L90
 401:led_manager.c **** 		for(i=steps; i<5; i++)
 1858              		.loc 1 401 0 is_stmt 1
 1859 00f2 7B69     		ldr	r3, [r7, #20]
 1860 00f4 3B61     		str	r3, [r7, #16]
 1861 00f6 07E0     		b	.L91
 1862              	.L92:
 402:led_manager.c **** 			b3_arr[i] = 0;	//off leds
 1863              		.loc 1 402 0 discriminator 3
 1864 00f8 184A     		ldr	r2, .L93+16
 1865 00fa 3B69     		ldr	r3, [r7, #16]
 1866 00fc 0021     		movs	r1, #0
 1867 00fe 42F82310 		str	r1, [r2, r3, lsl #2]
 401:led_manager.c **** 		for(i=steps; i<5; i++)
 1868              		.loc 1 401 0 discriminator 3
 1869 0102 3B69     		ldr	r3, [r7, #16]
 1870 0104 0133     		adds	r3, r3, #1
 1871 0106 3B61     		str	r3, [r7, #16]
 1872              	.L91:
 401:led_manager.c **** 		for(i=steps; i<5; i++)
 1873              		.loc 1 401 0 is_stmt 0 discriminator 1
 1874 0108 3B69     		ldr	r3, [r7, #16]
 1875 010a 042B     		cmp	r3, #4
 1876 010c F4DD     		ble	.L92
 403:led_manager.c **** 		
 404:led_manager.c **** 		b31_write(b3_arr[0]);
 1877              		.loc 1 404 0 is_stmt 1
 1878 010e 134B     		ldr	r3, .L93+16
 1879 0110 1B68     		ldr	r3, [r3]
 1880 0112 1846     		mov	r0, r3
 1881 0114 FFF7FEFF 		bl	b31_write
 405:led_manager.c **** 		b32_write(b3_arr[1]);
 1882              		.loc 1 405 0
 1883 0118 104B     		ldr	r3, .L93+16
 1884 011a 5B68     		ldr	r3, [r3, #4]
 1885 011c 1846     		mov	r0, r3
 1886 011e FFF7FEFF 		bl	b32_write
 406:led_manager.c **** 		b33_write(b3_arr[2]);
 1887              		.loc 1 406 0
 1888 0122 0E4B     		ldr	r3, .L93+16
 1889 0124 9B68     		ldr	r3, [r3, #8]
 1890 0126 1846     		mov	r0, r3
 1891 0128 FFF7FEFF 		bl	b33_write
 407:led_manager.c **** 		b34_write(b3_arr[3]);
 1892              		.loc 1 407 0
 1893 012c 0B4B     		ldr	r3, .L93+16
 1894 012e DB68     		ldr	r3, [r3, #12]
ARM GAS  D:\Windows\AppData\Local\Temp\ccYfDzHQ.s 			page 42


 1895 0130 1846     		mov	r0, r3
 1896 0132 FFF7FEFF 		bl	b34_write
 408:led_manager.c **** 		b35_write(b3_arr[4]);
 1897              		.loc 1 408 0
 1898 0136 094B     		ldr	r3, .L93+16
 1899 0138 1B69     		ldr	r3, [r3, #16]
 1900 013a 1846     		mov	r0, r3
 1901 013c FFF7FEFF 		bl	b35_write
 409:led_manager.c ****         led_update_stat();
 1902              		.loc 1 409 0
 1903 0140 FFF7FEFF 		bl	led_update_stat
 1904              	.L80:
 1905              	.LBE5:
 410:led_manager.c **** 	} //if
 411:led_manager.c **** } //led_write_b3()
 1906              		.loc 1 411 0
 1907 0144 1837     		adds	r7, r7, #24
 1908              		.cfi_def_cfa_offset 8
 1909 0146 BD46     		mov	sp, r7
 1910              		.cfi_def_cfa_register 13
 1911              		@ sp needed
 1912 0148 80BD     		pop	{r7, pc}
 1913              	.L94:
 1914 014a 00BF     		.align	2
 1915              	.L93:
 1916 014c CDCCCCCC 		.word	-858993459
 1917 0150 00000000 		.word	mtr_ctrl_temp_map
 1918 0154 00000000 		.word	b3_critical
 1919 0158 00000000 		.word	b3_crit_isr
 1920 015c 00000000 		.word	b3_arr
 1921              		.cfi_endproc
 1922              	.LFE72:
 1923              		.size	led_write_b3, .-led_write_b3
 1924              		.section	.text.led_write_c1,"ax",%progbits
 1925              		.align	2
 1926              		.global	led_write_c1
 1927              		.thumb
 1928              		.thumb_func
 1929              		.type	led_write_c1, %function
 1930              	led_write_c1:
 1931              	.LFB73:
 412:led_manager.c **** 
 413:led_manager.c **** void led_write_c1(uint8_t SoC) {	//horizontal bar, 5 leds
 1932              		.loc 1 413 0
 1933              		.cfi_startproc
 1934              		@ args = 0, pretend = 0, frame = 16
 1935              		@ frame_needed = 1, uses_anonymous_args = 0
 1936 0000 80B5     		push	{r7, lr}
 1937              		.cfi_def_cfa_offset 8
 1938              		.cfi_offset 7, -8
 1939              		.cfi_offset 14, -4
 1940 0002 84B0     		sub	sp, sp, #16
 1941              		.cfi_def_cfa_offset 24
 1942 0004 00AF     		add	r7, sp, #0
 1943              		.cfi_def_cfa_register 7
 1944 0006 0346     		mov	r3, r0
 1945 0008 FB71     		strb	r3, [r7, #7]
ARM GAS  D:\Windows\AppData\Local\Temp\ccYfDzHQ.s 			page 43


 414:led_manager.c ****     if(SoC > SoC_pct_map[4]) {
 1946              		.loc 1 414 0
 1947 000a FA79     		ldrb	r2, [r7, #7]	@ zero_extendqisi2
 1948 000c 4B4B     		ldr	r3, .L108
 1949 000e 1B69     		ldr	r3, [r3, #16]
 1950 0010 9A42     		cmp	r2, r3
 1951 0012 0ADD     		ble	.L96
 415:led_manager.c ****         if(c1_critical) {
 1952              		.loc 1 415 0
 1953 0014 4A4B     		ldr	r3, .L108+4
 1954 0016 1B68     		ldr	r3, [r3]
 1955 0018 002B     		cmp	r3, #0
 1956 001a 06D0     		beq	.L96
 416:led_manager.c ****             c1_critical = 0;
 1957              		.loc 1 416 0
 1958 001c 484B     		ldr	r3, .L108+4
 1959 001e 0022     		movs	r2, #0
 1960 0020 1A60     		str	r2, [r3]
 417:led_manager.c ****             c1_crit_int_Stop();
 1961              		.loc 1 417 0
 1962 0022 FFF7FEFF 		bl	c1_crit_int_Stop
 418:led_manager.c ****             c1_critical_timer_Stop();
 1963              		.loc 1 418 0
 1964 0026 FFF7FEFF 		bl	c1_critical_timer_Stop
 1965              	.L96:
 419:led_manager.c ****         } //if 
 420:led_manager.c ****     } //if
 421:led_manager.c **** 	int steps = 0;
 1966              		.loc 1 421 0
 1967 002a 0023     		movs	r3, #0
 1968 002c FB60     		str	r3, [r7, #12]
 422:led_manager.c **** 	if (SoC > SoC_pct_map[0])
 1969              		.loc 1 422 0
 1970 002e FA79     		ldrb	r2, [r7, #7]	@ zero_extendqisi2
 1971 0030 424B     		ldr	r3, .L108
 1972 0032 1B68     		ldr	r3, [r3]
 1973 0034 9A42     		cmp	r2, r3
 1974 0036 02DD     		ble	.L97
 423:led_manager.c **** 		steps = 5;
 1975              		.loc 1 423 0
 1976 0038 0523     		movs	r3, #5
 1977 003a FB60     		str	r3, [r7, #12]
 1978 003c 3FE0     		b	.L98
 1979              	.L97:
 424:led_manager.c **** 	else if (SoC > SoC_pct_map[1] && SoC <= SoC_pct_map[0])
 1980              		.loc 1 424 0
 1981 003e FA79     		ldrb	r2, [r7, #7]	@ zero_extendqisi2
 1982 0040 3E4B     		ldr	r3, .L108
 1983 0042 5B68     		ldr	r3, [r3, #4]
 1984 0044 9A42     		cmp	r2, r3
 1985 0046 07DD     		ble	.L99
 1986              		.loc 1 424 0 is_stmt 0 discriminator 1
 1987 0048 FA79     		ldrb	r2, [r7, #7]	@ zero_extendqisi2
 1988 004a 3C4B     		ldr	r3, .L108
 1989 004c 1B68     		ldr	r3, [r3]
 1990 004e 9A42     		cmp	r2, r3
 1991 0050 02DC     		bgt	.L99
ARM GAS  D:\Windows\AppData\Local\Temp\ccYfDzHQ.s 			page 44


 425:led_manager.c **** 		steps = 4;
 1992              		.loc 1 425 0 is_stmt 1
 1993 0052 0423     		movs	r3, #4
 1994 0054 FB60     		str	r3, [r7, #12]
 1995 0056 32E0     		b	.L98
 1996              	.L99:
 426:led_manager.c **** 	else if (SoC > SoC_pct_map[2] && SoC <= SoC_pct_map[1])
 1997              		.loc 1 426 0
 1998 0058 FA79     		ldrb	r2, [r7, #7]	@ zero_extendqisi2
 1999 005a 384B     		ldr	r3, .L108
 2000 005c 9B68     		ldr	r3, [r3, #8]
 2001 005e 9A42     		cmp	r2, r3
 2002 0060 07DD     		ble	.L100
 2003              		.loc 1 426 0 is_stmt 0 discriminator 1
 2004 0062 FA79     		ldrb	r2, [r7, #7]	@ zero_extendqisi2
 2005 0064 354B     		ldr	r3, .L108
 2006 0066 5B68     		ldr	r3, [r3, #4]
 2007 0068 9A42     		cmp	r2, r3
 2008 006a 02DC     		bgt	.L100
 427:led_manager.c **** 		steps = 3;
 2009              		.loc 1 427 0 is_stmt 1
 2010 006c 0323     		movs	r3, #3
 2011 006e FB60     		str	r3, [r7, #12]
 2012 0070 25E0     		b	.L98
 2013              	.L100:
 428:led_manager.c **** 	else if (SoC > SoC_pct_map[3] && SoC <= SoC_pct_map[2])
 2014              		.loc 1 428 0
 2015 0072 FA79     		ldrb	r2, [r7, #7]	@ zero_extendqisi2
 2016 0074 314B     		ldr	r3, .L108
 2017 0076 DB68     		ldr	r3, [r3, #12]
 2018 0078 9A42     		cmp	r2, r3
 2019 007a 07DD     		ble	.L101
 2020              		.loc 1 428 0 is_stmt 0 discriminator 1
 2021 007c FA79     		ldrb	r2, [r7, #7]	@ zero_extendqisi2
 2022 007e 2F4B     		ldr	r3, .L108
 2023 0080 9B68     		ldr	r3, [r3, #8]
 2024 0082 9A42     		cmp	r2, r3
 2025 0084 02DC     		bgt	.L101
 429:led_manager.c **** 		steps = 2;
 2026              		.loc 1 429 0 is_stmt 1
 2027 0086 0223     		movs	r3, #2
 2028 0088 FB60     		str	r3, [r7, #12]
 2029 008a 18E0     		b	.L98
 2030              	.L101:
 430:led_manager.c **** 	else if (SoC > SoC_pct_map[4] && SoC <= SoC_pct_map[3])
 2031              		.loc 1 430 0
 2032 008c FA79     		ldrb	r2, [r7, #7]	@ zero_extendqisi2
 2033 008e 2B4B     		ldr	r3, .L108
 2034 0090 1B69     		ldr	r3, [r3, #16]
 2035 0092 9A42     		cmp	r2, r3
 2036 0094 07DD     		ble	.L102
 2037              		.loc 1 430 0 is_stmt 0 discriminator 1
 2038 0096 FA79     		ldrb	r2, [r7, #7]	@ zero_extendqisi2
 2039 0098 284B     		ldr	r3, .L108
 2040 009a DB68     		ldr	r3, [r3, #12]
 2041 009c 9A42     		cmp	r2, r3
 2042 009e 02DC     		bgt	.L102
ARM GAS  D:\Windows\AppData\Local\Temp\ccYfDzHQ.s 			page 45


 431:led_manager.c **** 		steps = 1;
 2043              		.loc 1 431 0 is_stmt 1
 2044 00a0 0123     		movs	r3, #1
 2045 00a2 FB60     		str	r3, [r7, #12]
 2046 00a4 0BE0     		b	.L98
 2047              	.L102:
 432:led_manager.c **** 	else {	//(SoC <= 10)
 433:led_manager.c **** 		if(!c1_critical) {	//start blinking
 2048              		.loc 1 433 0
 2049 00a6 264B     		ldr	r3, .L108+4
 2050 00a8 1B68     		ldr	r3, [r3]
 2051 00aa 002B     		cmp	r3, #0
 2052 00ac 07D1     		bne	.L98
 434:led_manager.c **** 			c1_critical_timer_Start();
 2053              		.loc 1 434 0
 2054 00ae FFF7FEFF 		bl	c1_critical_timer_Start
 435:led_manager.c **** 			c1_crit_int_StartEx(c1_crit_isr);
 2055              		.loc 1 435 0
 2056 00b2 2448     		ldr	r0, .L108+8
 2057 00b4 FFF7FEFF 		bl	c1_crit_int_StartEx
 436:led_manager.c **** 			c1_critical = 1;
 2058              		.loc 1 436 0
 2059 00b8 214B     		ldr	r3, .L108+4
 2060 00ba 0122     		movs	r2, #1
 2061 00bc 1A60     		str	r2, [r3]
 2062              	.L98:
 437:led_manager.c **** 		} //if
 438:led_manager.c **** 	} //else
 439:led_manager.c **** 	
 440:led_manager.c **** 	if(!c1_critical) {
 2063              		.loc 1 440 0
 2064 00be 204B     		ldr	r3, .L108+4
 2065 00c0 1B68     		ldr	r3, [r3]
 2066 00c2 002B     		cmp	r3, #0
 2067 00c4 37D1     		bne	.L95
 2068              	.LBB6:
 441:led_manager.c **** 		int i;
 442:led_manager.c ****         
 443:led_manager.c **** 		for(i=0; i<steps; i++)
 2069              		.loc 1 443 0
 2070 00c6 0023     		movs	r3, #0
 2071 00c8 BB60     		str	r3, [r7, #8]
 2072 00ca 07E0     		b	.L104
 2073              	.L105:
 444:led_manager.c **** 			c1_arr[i] = 1;	//on leds
 2074              		.loc 1 444 0 discriminator 3
 2075 00cc 1E4A     		ldr	r2, .L108+12
 2076 00ce BB68     		ldr	r3, [r7, #8]
 2077 00d0 0121     		movs	r1, #1
 2078 00d2 42F82310 		str	r1, [r2, r3, lsl #2]
 443:led_manager.c **** 			c1_arr[i] = 1;	//on leds
 2079              		.loc 1 443 0 discriminator 3
 2080 00d6 BB68     		ldr	r3, [r7, #8]
 2081 00d8 0133     		adds	r3, r3, #1
 2082 00da BB60     		str	r3, [r7, #8]
 2083              	.L104:
 443:led_manager.c **** 			c1_arr[i] = 1;	//on leds
ARM GAS  D:\Windows\AppData\Local\Temp\ccYfDzHQ.s 			page 46


 2084              		.loc 1 443 0 is_stmt 0 discriminator 1
 2085 00dc BA68     		ldr	r2, [r7, #8]
 2086 00de FB68     		ldr	r3, [r7, #12]
 2087 00e0 9A42     		cmp	r2, r3
 2088 00e2 F3DB     		blt	.L105
 445:led_manager.c **** 		for(i=steps; i<5; i++)
 2089              		.loc 1 445 0 is_stmt 1
 2090 00e4 FB68     		ldr	r3, [r7, #12]
 2091 00e6 BB60     		str	r3, [r7, #8]
 2092 00e8 07E0     		b	.L106
 2093              	.L107:
 446:led_manager.c **** 			c1_arr[i] = 0;	//off leds
 2094              		.loc 1 446 0 discriminator 3
 2095 00ea 174A     		ldr	r2, .L108+12
 2096 00ec BB68     		ldr	r3, [r7, #8]
 2097 00ee 0021     		movs	r1, #0
 2098 00f0 42F82310 		str	r1, [r2, r3, lsl #2]
 445:led_manager.c **** 		for(i=steps; i<5; i++)
 2099              		.loc 1 445 0 discriminator 3
 2100 00f4 BB68     		ldr	r3, [r7, #8]
 2101 00f6 0133     		adds	r3, r3, #1
 2102 00f8 BB60     		str	r3, [r7, #8]
 2103              	.L106:
 445:led_manager.c **** 		for(i=steps; i<5; i++)
 2104              		.loc 1 445 0 is_stmt 0 discriminator 1
 2105 00fa BB68     		ldr	r3, [r7, #8]
 2106 00fc 042B     		cmp	r3, #4
 2107 00fe F4DD     		ble	.L107
 447:led_manager.c **** 		
 448:led_manager.c **** 		c5_write(c1_arr[0]);    //d42
 2108              		.loc 1 448 0 is_stmt 1
 2109 0100 114B     		ldr	r3, .L108+12
 2110 0102 1B68     		ldr	r3, [r3]
 2111 0104 1846     		mov	r0, r3
 2112 0106 FFF7FEFF 		bl	c5_write
 449:led_manager.c **** 		c4_write(c1_arr[1]);    //d41    
 2113              		.loc 1 449 0
 2114 010a 0F4B     		ldr	r3, .L108+12
 2115 010c 5B68     		ldr	r3, [r3, #4]
 2116 010e 1846     		mov	r0, r3
 2117 0110 FFF7FEFF 		bl	c4_write
 450:led_manager.c **** 		c3_write(c1_arr[2]);    //d40
 2118              		.loc 1 450 0
 2119 0114 0C4B     		ldr	r3, .L108+12
 2120 0116 9B68     		ldr	r3, [r3, #8]
 2121 0118 1846     		mov	r0, r3
 2122 011a FFF7FEFF 		bl	c3_write
 451:led_manager.c **** 		c2_write(c1_arr[3]);    //d39
 2123              		.loc 1 451 0
 2124 011e 0A4B     		ldr	r3, .L108+12
 2125 0120 DB68     		ldr	r3, [r3, #12]
 2126 0122 1846     		mov	r0, r3
 2127 0124 FFF7FEFF 		bl	c2_write
 452:led_manager.c **** 		c1_write(c1_arr[4]);    //d38
 2128              		.loc 1 452 0
 2129 0128 074B     		ldr	r3, .L108+12
 2130 012a 1B69     		ldr	r3, [r3, #16]
ARM GAS  D:\Windows\AppData\Local\Temp\ccYfDzHQ.s 			page 47


 2131 012c 1846     		mov	r0, r3
 2132 012e FFF7FEFF 		bl	c1_write
 453:led_manager.c ****         led_update_stat();
 2133              		.loc 1 453 0
 2134 0132 FFF7FEFF 		bl	led_update_stat
 2135              	.L95:
 2136              	.LBE6:
 454:led_manager.c **** 	} //if
 455:led_manager.c **** } //led_write_c3()
 2137              		.loc 1 455 0
 2138 0136 1037     		adds	r7, r7, #16
 2139              		.cfi_def_cfa_offset 8
 2140 0138 BD46     		mov	sp, r7
 2141              		.cfi_def_cfa_register 13
 2142              		@ sp needed
 2143 013a 80BD     		pop	{r7, pc}
 2144              	.L109:
 2145              		.align	2
 2146              	.L108:
 2147 013c 00000000 		.word	SoC_pct_map
 2148 0140 00000000 		.word	c1_critical
 2149 0144 00000000 		.word	c1_crit_isr
 2150 0148 00000000 		.word	c1_arr
 2151              		.cfi_endproc
 2152              	.LFE73:
 2153              		.size	led_write_c1, .-led_write_c1
 2154              		.section	.text.write_all_tach,"ax",%progbits
 2155              		.align	2
 2156              		.global	write_all_tach
 2157              		.thumb
 2158              		.thumb_func
 2159              		.type	write_all_tach, %function
 2160              	write_all_tach:
 2161              	.LFB74:
 456:led_manager.c **** 
 457:led_manager.c **** void write_all_tach(int bool) {
 2162              		.loc 1 457 0
 2163              		.cfi_startproc
 2164              		@ args = 0, pretend = 0, frame = 16
 2165              		@ frame_needed = 1, uses_anonymous_args = 0
 2166 0000 80B5     		push	{r7, lr}
 2167              		.cfi_def_cfa_offset 8
 2168              		.cfi_offset 7, -8
 2169              		.cfi_offset 14, -4
 2170 0002 84B0     		sub	sp, sp, #16
 2171              		.cfi_def_cfa_offset 24
 2172 0004 00AF     		add	r7, sp, #0
 2173              		.cfi_def_cfa_register 7
 2174 0006 7860     		str	r0, [r7, #4]
 458:led_manager.c **** 	uint8_t allon = 0x77;
 2175              		.loc 1 458 0
 2176 0008 7723     		movs	r3, #119
 2177 000a FB73     		strb	r3, [r7, #15]
 459:led_manager.c **** 	
 460:led_manager.c **** 	LED_Driver1_MasterSendStart(LED_ADDR, 0);
 2178              		.loc 1 460 0
 2179 000c 4020     		movs	r0, #64
ARM GAS  D:\Windows\AppData\Local\Temp\ccYfDzHQ.s 			page 48


 2180 000e 0021     		movs	r1, #0
 2181 0010 FFF7FEFF 		bl	LED_Driver1_MasterSendStart
 461:led_manager.c **** 	LED_Driver1_MasterWriteByte(LED05);
 2182              		.loc 1 461 0
 2183 0014 0520     		movs	r0, #5
 2184 0016 FFF7FEFF 		bl	LED_Driver1_MasterWriteByte
 462:led_manager.c **** 	if(bool == 1) {
 2185              		.loc 1 462 0
 2186 001a 7B68     		ldr	r3, [r7, #4]
 2187 001c 012B     		cmp	r3, #1
 2188 001e 10D1     		bne	.L111
 463:led_manager.c **** 		LED_Driver1_MasterWriteByte(allon);			//0x05 addr
 2189              		.loc 1 463 0
 2190 0020 FB7B     		ldrb	r3, [r7, #15]	@ zero_extendqisi2
 2191 0022 1846     		mov	r0, r3
 2192 0024 FFF7FEFF 		bl	LED_Driver1_MasterWriteByte
 464:led_manager.c **** 		LED_Driver1_MasterWriteByte(allon);			//0x06 addr
 2193              		.loc 1 464 0
 2194 0028 FB7B     		ldrb	r3, [r7, #15]	@ zero_extendqisi2
 2195 002a 1846     		mov	r0, r3
 2196 002c FFF7FEFF 		bl	LED_Driver1_MasterWriteByte
 465:led_manager.c **** 		LED_Driver1_MasterWriteByte(allon);			//0x07 addr
 2197              		.loc 1 465 0
 2198 0030 FB7B     		ldrb	r3, [r7, #15]	@ zero_extendqisi2
 2199 0032 1846     		mov	r0, r3
 2200 0034 FFF7FEFF 		bl	LED_Driver1_MasterWriteByte
 466:led_manager.c **** 		LED_Driver1_MasterWriteByte(allon);			//0x08 addr
 2201              		.loc 1 466 0
 2202 0038 FB7B     		ldrb	r3, [r7, #15]	@ zero_extendqisi2
 2203 003a 1846     		mov	r0, r3
 2204 003c FFF7FEFF 		bl	LED_Driver1_MasterWriteByte
 2205 0040 0BE0     		b	.L112
 2206              	.L111:
 467:led_manager.c **** 	}
 468:led_manager.c **** 	else {
 469:led_manager.c **** 		LED_Driver1_MasterWriteByte(0x00);
 2207              		.loc 1 469 0
 2208 0042 0020     		movs	r0, #0
 2209 0044 FFF7FEFF 		bl	LED_Driver1_MasterWriteByte
 470:led_manager.c **** 		LED_Driver1_MasterWriteByte(0x00);
 2210              		.loc 1 470 0
 2211 0048 0020     		movs	r0, #0
 2212 004a FFF7FEFF 		bl	LED_Driver1_MasterWriteByte
 471:led_manager.c **** 		LED_Driver1_MasterWriteByte(0x00);
 2213              		.loc 1 471 0
 2214 004e 0020     		movs	r0, #0
 2215 0050 FFF7FEFF 		bl	LED_Driver1_MasterWriteByte
 472:led_manager.c **** 		LED_Driver1_MasterWriteByte(0x00);
 2216              		.loc 1 472 0
 2217 0054 0020     		movs	r0, #0
 2218 0056 FFF7FEFF 		bl	LED_Driver1_MasterWriteByte
 2219              	.L112:
 473:led_manager.c **** 	}
 474:led_manager.c **** 	LED_Driver1_MasterSendStop();
 2220              		.loc 1 474 0
 2221 005a FFF7FEFF 		bl	LED_Driver1_MasterSendStop
 475:led_manager.c **** }
ARM GAS  D:\Windows\AppData\Local\Temp\ccYfDzHQ.s 			page 49


 2222              		.loc 1 475 0
 2223 005e 1037     		adds	r7, r7, #16
 2224              		.cfi_def_cfa_offset 8
 2225 0060 BD46     		mov	sp, r7
 2226              		.cfi_def_cfa_register 13
 2227              		@ sp needed
 2228 0062 80BD     		pop	{r7, pc}
 2229              		.cfi_endproc
 2230              	.LFE74:
 2231              		.size	write_all_tach, .-write_all_tach
 2232              		.section	.text.write_all_stat,"ax",%progbits
 2233              		.align	2
 2234              		.global	write_all_stat
 2235              		.thumb
 2236              		.thumb_func
 2237              		.type	write_all_stat, %function
 2238              	write_all_stat:
 2239              	.LFB75:
 476:led_manager.c **** 
 477:led_manager.c **** void write_all_stat(int bool) {
 2240              		.loc 1 477 0
 2241              		.cfi_startproc
 2242              		@ args = 0, pretend = 0, frame = 16
 2243              		@ frame_needed = 1, uses_anonymous_args = 0
 2244 0000 80B5     		push	{r7, lr}
 2245              		.cfi_def_cfa_offset 8
 2246              		.cfi_offset 7, -8
 2247              		.cfi_offset 14, -4
 2248 0002 84B0     		sub	sp, sp, #16
 2249              		.cfi_def_cfa_offset 24
 2250 0004 00AF     		add	r7, sp, #0
 2251              		.cfi_def_cfa_register 7
 2252 0006 7860     		str	r0, [r7, #4]
 478:led_manager.c **** 	uint8_t allon = 0x77;
 2253              		.loc 1 478 0
 2254 0008 7723     		movs	r3, #119
 2255 000a FB73     		strb	r3, [r7, #15]
 479:led_manager.c **** 	
 480:led_manager.c **** 	LED_Driver2_MasterSendStart(LED_ADDR, 0);
 2256              		.loc 1 480 0
 2257 000c 4020     		movs	r0, #64
 2258 000e 0021     		movs	r1, #0
 2259 0010 FFF7FEFF 		bl	LED_Driver2_MasterSendStart
 481:led_manager.c **** 	LED_Driver2_MasterWriteByte(LED05);	
 2260              		.loc 1 481 0
 2261 0014 0520     		movs	r0, #5
 2262 0016 FFF7FEFF 		bl	LED_Driver2_MasterWriteByte
 482:led_manager.c **** 	if(bool == 1) {
 2263              		.loc 1 482 0
 2264 001a 7B68     		ldr	r3, [r7, #4]
 2265 001c 012B     		cmp	r3, #1
 2266 001e 10D1     		bne	.L114
 483:led_manager.c **** 		LED_Driver2_MasterWriteByte(allon);			//0x05 addr
 2267              		.loc 1 483 0
 2268 0020 FB7B     		ldrb	r3, [r7, #15]	@ zero_extendqisi2
 2269 0022 1846     		mov	r0, r3
 2270 0024 FFF7FEFF 		bl	LED_Driver2_MasterWriteByte
ARM GAS  D:\Windows\AppData\Local\Temp\ccYfDzHQ.s 			page 50


 484:led_manager.c **** 		LED_Driver2_MasterWriteByte(allon);			//0x06 addr
 2271              		.loc 1 484 0
 2272 0028 FB7B     		ldrb	r3, [r7, #15]	@ zero_extendqisi2
 2273 002a 1846     		mov	r0, r3
 2274 002c FFF7FEFF 		bl	LED_Driver2_MasterWriteByte
 485:led_manager.c **** 		LED_Driver2_MasterWriteByte(allon);			//0x07 addr
 2275              		.loc 1 485 0
 2276 0030 FB7B     		ldrb	r3, [r7, #15]	@ zero_extendqisi2
 2277 0032 1846     		mov	r0, r3
 2278 0034 FFF7FEFF 		bl	LED_Driver2_MasterWriteByte
 486:led_manager.c **** 		LED_Driver2_MasterWriteByte(allon);			//0x08 addr
 2279              		.loc 1 486 0
 2280 0038 FB7B     		ldrb	r3, [r7, #15]	@ zero_extendqisi2
 2281 003a 1846     		mov	r0, r3
 2282 003c FFF7FEFF 		bl	LED_Driver2_MasterWriteByte
 2283 0040 0BE0     		b	.L115
 2284              	.L114:
 487:led_manager.c **** 	}
 488:led_manager.c **** 	else {
 489:led_manager.c **** 		LED_Driver2_MasterWriteByte(0x00);
 2285              		.loc 1 489 0
 2286 0042 0020     		movs	r0, #0
 2287 0044 FFF7FEFF 		bl	LED_Driver2_MasterWriteByte
 490:led_manager.c **** 		LED_Driver2_MasterWriteByte(0x00);
 2288              		.loc 1 490 0
 2289 0048 0020     		movs	r0, #0
 2290 004a FFF7FEFF 		bl	LED_Driver2_MasterWriteByte
 491:led_manager.c **** 		LED_Driver2_MasterWriteByte(0x00);
 2291              		.loc 1 491 0
 2292 004e 0020     		movs	r0, #0
 2293 0050 FFF7FEFF 		bl	LED_Driver2_MasterWriteByte
 492:led_manager.c **** 		LED_Driver2_MasterWriteByte(0x00);
 2294              		.loc 1 492 0
 2295 0054 0020     		movs	r0, #0
 2296 0056 FFF7FEFF 		bl	LED_Driver2_MasterWriteByte
 2297              	.L115:
 493:led_manager.c **** 	}
 494:led_manager.c **** 	LED_Driver2_MasterSendStop();
 2298              		.loc 1 494 0
 2299 005a FFF7FEFF 		bl	LED_Driver2_MasterSendStop
 495:led_manager.c **** }
 2300              		.loc 1 495 0
 2301 005e 1037     		adds	r7, r7, #16
 2302              		.cfi_def_cfa_offset 8
 2303 0060 BD46     		mov	sp, r7
 2304              		.cfi_def_cfa_register 13
 2305              		@ sp needed
 2306 0062 80BD     		pop	{r7, pc}
 2307              		.cfi_endproc
 2308              	.LFE75:
 2309              		.size	write_all_stat, .-write_all_stat
 2310              		.section	.text.led_update_tach,"ax",%progbits
 2311              		.align	2
 2312              		.global	led_update_tach
 2313              		.thumb
 2314              		.thumb_func
 2315              		.type	led_update_tach, %function
ARM GAS  D:\Windows\AppData\Local\Temp\ccYfDzHQ.s 			page 51


 2316              	led_update_tach:
 2317              	.LFB76:
 496:led_manager.c **** 
 497:led_manager.c **** //display updated LED's to dashboard
 498:led_manager.c **** void led_update_tach() {
 2318              		.loc 1 498 0
 2319              		.cfi_startproc
 2320              		@ args = 0, pretend = 0, frame = 0
 2321              		@ frame_needed = 1, uses_anonymous_args = 0
 2322 0000 80B5     		push	{r7, lr}
 2323              		.cfi_def_cfa_offset 8
 2324              		.cfi_offset 7, -8
 2325              		.cfi_offset 14, -4
 2326 0002 00AF     		add	r7, sp, #0
 2327              		.cfi_def_cfa_register 7
 499:led_manager.c **** 	LED_Driver1_MasterSendStart(LED_ADDR, 0);	// 0 = send write command, 1 = send read command
 2328              		.loc 1 499 0
 2329 0004 4020     		movs	r0, #64
 2330 0006 0021     		movs	r1, #0
 2331 0008 FFF7FEFF 		bl	LED_Driver1_MasterSendStart
 500:led_manager.c **** 	LED_Driver1_MasterWriteByte(LED05);		//move to LED addr
 2332              		.loc 1 500 0
 2333 000c 0520     		movs	r0, #5
 2334 000e FFF7FEFF 		bl	LED_Driver1_MasterWriteByte
 501:led_manager.c **** 	LED_Driver1_MasterWriteByte(byte05);	//write byte to addr
 2335              		.loc 1 501 0
 2336 0012 0B4B     		ldr	r3, .L117
 2337 0014 1B78     		ldrb	r3, [r3]	@ zero_extendqisi2
 2338 0016 1846     		mov	r0, r3
 2339 0018 FFF7FEFF 		bl	LED_Driver1_MasterWriteByte
 502:led_manager.c ****     LED_Driver1_MasterWriteByte(byte06);
 2340              		.loc 1 502 0
 2341 001c 094B     		ldr	r3, .L117+4
 2342 001e 1B78     		ldrb	r3, [r3]	@ zero_extendqisi2
 2343 0020 1846     		mov	r0, r3
 2344 0022 FFF7FEFF 		bl	LED_Driver1_MasterWriteByte
 503:led_manager.c ****     LED_Driver1_MasterWriteByte(byte07);
 2345              		.loc 1 503 0
 2346 0026 084B     		ldr	r3, .L117+8
 2347 0028 1B78     		ldrb	r3, [r3]	@ zero_extendqisi2
 2348 002a 1846     		mov	r0, r3
 2349 002c FFF7FEFF 		bl	LED_Driver1_MasterWriteByte
 504:led_manager.c ****     LED_Driver1_MasterWriteByte(byte08);
 2350              		.loc 1 504 0
 2351 0030 064B     		ldr	r3, .L117+12
 2352 0032 1B78     		ldrb	r3, [r3]	@ zero_extendqisi2
 2353 0034 1846     		mov	r0, r3
 2354 0036 FFF7FEFF 		bl	LED_Driver1_MasterWriteByte
 505:led_manager.c **** 	LED_Driver1_MasterSendStop();  
 2355              		.loc 1 505 0
 2356 003a FFF7FEFF 		bl	LED_Driver1_MasterSendStop
 506:led_manager.c **** }
 2357              		.loc 1 506 0
 2358 003e 80BD     		pop	{r7, pc}
 2359              	.L118:
 2360              		.align	2
 2361              	.L117:
ARM GAS  D:\Windows\AppData\Local\Temp\ccYfDzHQ.s 			page 52


 2362 0040 00000000 		.word	byte05
 2363 0044 00000000 		.word	byte06
 2364 0048 00000000 		.word	byte07
 2365 004c 00000000 		.word	byte08
 2366              		.cfi_endproc
 2367              	.LFE76:
 2368              		.size	led_update_tach, .-led_update_tach
 2369              		.section	.text.led_update_stat,"ax",%progbits
 2370              		.align	2
 2371              		.global	led_update_stat
 2372              		.thumb
 2373              		.thumb_func
 2374              		.type	led_update_stat, %function
 2375              	led_update_stat:
 2376              	.LFB77:
 507:led_manager.c **** 
 508:led_manager.c **** void led_update_stat() {
 2377              		.loc 1 508 0
 2378              		.cfi_startproc
 2379              		@ args = 0, pretend = 0, frame = 0
 2380              		@ frame_needed = 1, uses_anonymous_args = 0
 2381 0000 80B5     		push	{r7, lr}
 2382              		.cfi_def_cfa_offset 8
 2383              		.cfi_offset 7, -8
 2384              		.cfi_offset 14, -4
 2385 0002 00AF     		add	r7, sp, #0
 2386              		.cfi_def_cfa_register 7
 509:led_manager.c **** 	LED_Driver2_MasterSendStart(LED_ADDR, 0);	// 0 = send write command, 1 = send read command
 2387              		.loc 1 509 0
 2388 0004 4020     		movs	r0, #64
 2389 0006 0021     		movs	r1, #0
 2390 0008 FFF7FEFF 		bl	LED_Driver2_MasterSendStart
 510:led_manager.c **** 	LED_Driver2_MasterWriteByte(LED05);		//move to LED addr
 2391              		.loc 1 510 0
 2392 000c 0520     		movs	r0, #5
 2393 000e FFF7FEFF 		bl	LED_Driver2_MasterWriteByte
 511:led_manager.c **** 	LED_Driver2_MasterWriteByte(byte05_2);	//write byte to addr
 2394              		.loc 1 511 0
 2395 0012 0B4B     		ldr	r3, .L120
 2396 0014 1B78     		ldrb	r3, [r3]	@ zero_extendqisi2
 2397 0016 1846     		mov	r0, r3
 2398 0018 FFF7FEFF 		bl	LED_Driver2_MasterWriteByte
 512:led_manager.c ****     LED_Driver2_MasterWriteByte(byte06_2);
 2399              		.loc 1 512 0
 2400 001c 094B     		ldr	r3, .L120+4
 2401 001e 1B78     		ldrb	r3, [r3]	@ zero_extendqisi2
 2402 0020 1846     		mov	r0, r3
 2403 0022 FFF7FEFF 		bl	LED_Driver2_MasterWriteByte
 513:led_manager.c ****     LED_Driver2_MasterWriteByte(byte07_2);
 2404              		.loc 1 513 0
 2405 0026 084B     		ldr	r3, .L120+8
 2406 0028 1B78     		ldrb	r3, [r3]	@ zero_extendqisi2
 2407 002a 1846     		mov	r0, r3
 2408 002c FFF7FEFF 		bl	LED_Driver2_MasterWriteByte
 514:led_manager.c ****     LED_Driver2_MasterWriteByte(byte08_2);
 2409              		.loc 1 514 0
 2410 0030 064B     		ldr	r3, .L120+12
ARM GAS  D:\Windows\AppData\Local\Temp\ccYfDzHQ.s 			page 53


 2411 0032 1B78     		ldrb	r3, [r3]	@ zero_extendqisi2
 2412 0034 1846     		mov	r0, r3
 2413 0036 FFF7FEFF 		bl	LED_Driver2_MasterWriteByte
 515:led_manager.c **** 	LED_Driver2_MasterSendStop();
 2414              		.loc 1 515 0
 2415 003a FFF7FEFF 		bl	LED_Driver2_MasterSendStop
 516:led_manager.c **** }
 2416              		.loc 1 516 0
 2417 003e 80BD     		pop	{r7, pc}
 2418              	.L121:
 2419              		.align	2
 2420              	.L120:
 2421 0040 00000000 		.word	byte05_2
 2422 0044 00000000 		.word	byte06_2
 2423 0048 00000000 		.word	byte07_2
 2424 004c 00000000 		.word	byte08_2
 2425              		.cfi_endproc
 2426              	.LFE77:
 2427              		.size	led_update_stat, .-led_update_stat
 2428              		.section	.text.write_startup_tach,"ax",%progbits
 2429              		.align	2
 2430              		.global	write_startup_tach
 2431              		.thumb
 2432              		.thumb_func
 2433              		.type	write_startup_tach, %function
 2434              	write_startup_tach:
 2435              	.LFB78:
 517:led_manager.c **** 
 518:led_manager.c **** 
 519:led_manager.c **** void write_startup_tach() { //based on max rpm = 6000
 2436              		.loc 1 519 0
 2437              		.cfi_startproc
 2438              		@ args = 0, pretend = 0, frame = 0
 2439              		@ frame_needed = 1, uses_anonymous_args = 0
 2440 0000 80B5     		push	{r7, lr}
 2441              		.cfi_def_cfa_offset 8
 2442              		.cfi_offset 7, -8
 2443              		.cfi_offset 14, -4
 2444 0002 00AF     		add	r7, sp, #0
 2445              		.cfi_def_cfa_register 7
 520:led_manager.c ****     //rev to max and back
 521:led_manager.c ****     led_write_tach(0);      CyDelay(TACH_STEP_DELAY);
 2446              		.loc 1 521 0
 2447 0004 0020     		movs	r0, #0
 2448 0006 FFF7FEFF 		bl	led_write_tach
 2449 000a 1420     		movs	r0, #20
 2450 000c FFF7FEFF 		bl	CyDelay
 522:led_manager.c ****     led_write_tach(300);    CyDelay(TACH_STEP_DELAY);
 2451              		.loc 1 522 0
 2452 0010 4FF49670 		mov	r0, #300
 2453 0014 FFF7FEFF 		bl	led_write_tach
 2454 0018 1420     		movs	r0, #20
 2455 001a FFF7FEFF 		bl	CyDelay
 523:led_manager.c ****     led_write_tach(600);    CyDelay(TACH_STEP_DELAY);
 2456              		.loc 1 523 0
 2457 001e 4FF41670 		mov	r0, #600
 2458 0022 FFF7FEFF 		bl	led_write_tach
ARM GAS  D:\Windows\AppData\Local\Temp\ccYfDzHQ.s 			page 54


 2459 0026 1420     		movs	r0, #20
 2460 0028 FFF7FEFF 		bl	CyDelay
 524:led_manager.c ****     led_write_tach(900);    CyDelay(TACH_STEP_DELAY);
 2461              		.loc 1 524 0
 2462 002c 4FF46170 		mov	r0, #900
 2463 0030 FFF7FEFF 		bl	led_write_tach
 2464 0034 1420     		movs	r0, #20
 2465 0036 FFF7FEFF 		bl	CyDelay
 525:led_manager.c ****     led_write_tach(1200);   CyDelay(TACH_STEP_DELAY);
 2466              		.loc 1 525 0
 2467 003a 4FF49660 		mov	r0, #1200
 2468 003e FFF7FEFF 		bl	led_write_tach
 2469 0042 1420     		movs	r0, #20
 2470 0044 FFF7FEFF 		bl	CyDelay
 526:led_manager.c ****     led_write_tach(1500);   CyDelay(TACH_STEP_DELAY);
 2471              		.loc 1 526 0
 2472 0048 40F2DC50 		movw	r0, #1500
 2473 004c FFF7FEFF 		bl	led_write_tach
 2474 0050 1420     		movs	r0, #20
 2475 0052 FFF7FEFF 		bl	CyDelay
 527:led_manager.c ****     led_write_tach(1800);   CyDelay(TACH_STEP_DELAY);
 2476              		.loc 1 527 0
 2477 0056 4FF4E160 		mov	r0, #1800
 2478 005a FFF7FEFF 		bl	led_write_tach
 2479 005e 1420     		movs	r0, #20
 2480 0060 FFF7FEFF 		bl	CyDelay
 528:led_manager.c ****     led_write_tach(2100);   CyDelay(TACH_STEP_DELAY);
 2481              		.loc 1 528 0
 2482 0064 40F63400 		movw	r0, #2100
 2483 0068 FFF7FEFF 		bl	led_write_tach
 2484 006c 1420     		movs	r0, #20
 2485 006e FFF7FEFF 		bl	CyDelay
 529:led_manager.c ****     led_write_tach(2400);   CyDelay(TACH_STEP_DELAY);
 2486              		.loc 1 529 0
 2487 0072 4FF41660 		mov	r0, #2400
 2488 0076 FFF7FEFF 		bl	led_write_tach
 2489 007a 1420     		movs	r0, #20
 2490 007c FFF7FEFF 		bl	CyDelay
 530:led_manager.c ****     led_write_tach(2700);   CyDelay(TACH_STEP_DELAY);
 2491              		.loc 1 530 0
 2492 0080 40F68C20 		movw	r0, #2700
 2493 0084 FFF7FEFF 		bl	led_write_tach
 2494 0088 1420     		movs	r0, #20
 2495 008a FFF7FEFF 		bl	CyDelay
 531:led_manager.c ****     led_write_tach(3000);   CyDelay(TACH_STEP_DELAY);
 2496              		.loc 1 531 0
 2497 008e 40F6B830 		movw	r0, #3000
 2498 0092 FFF7FEFF 		bl	led_write_tach
 2499 0096 1420     		movs	r0, #20
 2500 0098 FFF7FEFF 		bl	CyDelay
 532:led_manager.c ****     led_write_tach(3300);   CyDelay(TACH_STEP_DELAY);
 2501              		.loc 1 532 0
 2502 009c 40F6E440 		movw	r0, #3300
 2503 00a0 FFF7FEFF 		bl	led_write_tach
 2504 00a4 1420     		movs	r0, #20
 2505 00a6 FFF7FEFF 		bl	CyDelay
 533:led_manager.c ****     led_write_tach(3600);   CyDelay(TACH_STEP_DELAY);
ARM GAS  D:\Windows\AppData\Local\Temp\ccYfDzHQ.s 			page 55


 2506              		.loc 1 533 0
 2507 00aa 4FF46160 		mov	r0, #3600
 2508 00ae FFF7FEFF 		bl	led_write_tach
 2509 00b2 1420     		movs	r0, #20
 2510 00b4 FFF7FEFF 		bl	CyDelay
 534:led_manager.c ****     led_write_tach(3900);   CyDelay(TACH_STEP_DELAY);
 2511              		.loc 1 534 0
 2512 00b8 40F63C70 		movw	r0, #3900
 2513 00bc FFF7FEFF 		bl	led_write_tach
 2514 00c0 1420     		movs	r0, #20
 2515 00c2 FFF7FEFF 		bl	CyDelay
 535:led_manager.c ****     led_write_tach(4200);   CyDelay(TACH_STEP_DELAY);
 2516              		.loc 1 535 0
 2517 00c6 41F26800 		movw	r0, #4200
 2518 00ca FFF7FEFF 		bl	led_write_tach
 2519 00ce 1420     		movs	r0, #20
 2520 00d0 FFF7FEFF 		bl	CyDelay
 536:led_manager.c ****     led_write_tach(4500);   CyDelay(TACH_STEP_DELAY);
 2521              		.loc 1 536 0
 2522 00d4 41F29410 		movw	r0, #4500
 2523 00d8 FFF7FEFF 		bl	led_write_tach
 2524 00dc 1420     		movs	r0, #20
 2525 00de FFF7FEFF 		bl	CyDelay
 537:led_manager.c ****     led_write_tach(4800);   CyDelay(TACH_STEP_DELAY);
 2526              		.loc 1 537 0
 2527 00e2 4FF49650 		mov	r0, #4800
 2528 00e6 FFF7FEFF 		bl	led_write_tach
 2529 00ea 1420     		movs	r0, #20
 2530 00ec FFF7FEFF 		bl	CyDelay
 538:led_manager.c ****     led_write_tach(5100);   CyDelay(TACH_STEP_DELAY);
 2531              		.loc 1 538 0
 2532 00f0 41F2EC30 		movw	r0, #5100
 2533 00f4 FFF7FEFF 		bl	led_write_tach
 2534 00f8 1420     		movs	r0, #20
 2535 00fa FFF7FEFF 		bl	CyDelay
 539:led_manager.c ****     led_write_tach(5400);   CyDelay(TACH_STEP_DELAY);
 2536              		.loc 1 539 0
 2537 00fe 41F21850 		movw	r0, #5400
 2538 0102 FFF7FEFF 		bl	led_write_tach
 2539 0106 1420     		movs	r0, #20
 2540 0108 FFF7FEFF 		bl	CyDelay
 540:led_manager.c ****     led_write_tach(5700);   CyDelay(TACH_STEP_DELAY);
 2541              		.loc 1 540 0
 2542 010c 41F24460 		movw	r0, #5700
 2543 0110 FFF7FEFF 		bl	led_write_tach
 2544 0114 1420     		movs	r0, #20
 2545 0116 FFF7FEFF 		bl	CyDelay
 541:led_manager.c ****     led_write_tach(6000);   CyDelay(TACH_STEP_DELAY);
 2546              		.loc 1 541 0
 2547 011a 41F27070 		movw	r0, #6000
 2548 011e FFF7FEFF 		bl	led_write_tach
 2549 0122 1420     		movs	r0, #20
 2550 0124 FFF7FEFF 		bl	CyDelay
 542:led_manager.c ****     led_write_tach(5700);   CyDelay(TACH_STEP_DELAY);
 2551              		.loc 1 542 0
 2552 0128 41F24460 		movw	r0, #5700
 2553 012c FFF7FEFF 		bl	led_write_tach
ARM GAS  D:\Windows\AppData\Local\Temp\ccYfDzHQ.s 			page 56


 2554 0130 1420     		movs	r0, #20
 2555 0132 FFF7FEFF 		bl	CyDelay
 543:led_manager.c ****     led_write_tach(5400);   CyDelay(TACH_STEP_DELAY);
 2556              		.loc 1 543 0
 2557 0136 41F21850 		movw	r0, #5400
 2558 013a FFF7FEFF 		bl	led_write_tach
 2559 013e 1420     		movs	r0, #20
 2560 0140 FFF7FEFF 		bl	CyDelay
 544:led_manager.c ****     led_write_tach(5100);   CyDelay(TACH_STEP_DELAY);
 2561              		.loc 1 544 0
 2562 0144 41F2EC30 		movw	r0, #5100
 2563 0148 FFF7FEFF 		bl	led_write_tach
 2564 014c 1420     		movs	r0, #20
 2565 014e FFF7FEFF 		bl	CyDelay
 545:led_manager.c ****     led_write_tach(4800);   CyDelay(TACH_STEP_DELAY);
 2566              		.loc 1 545 0
 2567 0152 4FF49650 		mov	r0, #4800
 2568 0156 FFF7FEFF 		bl	led_write_tach
 2569 015a 1420     		movs	r0, #20
 2570 015c FFF7FEFF 		bl	CyDelay
 546:led_manager.c ****     led_write_tach(4500);   CyDelay(TACH_STEP_DELAY);
 2571              		.loc 1 546 0
 2572 0160 41F29410 		movw	r0, #4500
 2573 0164 FFF7FEFF 		bl	led_write_tach
 2574 0168 1420     		movs	r0, #20
 2575 016a FFF7FEFF 		bl	CyDelay
 547:led_manager.c ****     led_write_tach(4200);   CyDelay(TACH_STEP_DELAY);
 2576              		.loc 1 547 0
 2577 016e 41F26800 		movw	r0, #4200
 2578 0172 FFF7FEFF 		bl	led_write_tach
 2579 0176 1420     		movs	r0, #20
 2580 0178 FFF7FEFF 		bl	CyDelay
 548:led_manager.c ****     led_write_tach(3900);   CyDelay(TACH_STEP_DELAY);
 2581              		.loc 1 548 0
 2582 017c 40F63C70 		movw	r0, #3900
 2583 0180 FFF7FEFF 		bl	led_write_tach
 2584 0184 1420     		movs	r0, #20
 2585 0186 FFF7FEFF 		bl	CyDelay
 549:led_manager.c ****     led_write_tach(3600);   CyDelay(TACH_STEP_DELAY);
 2586              		.loc 1 549 0
 2587 018a 4FF46160 		mov	r0, #3600
 2588 018e FFF7FEFF 		bl	led_write_tach
 2589 0192 1420     		movs	r0, #20
 2590 0194 FFF7FEFF 		bl	CyDelay
 550:led_manager.c ****     led_write_tach(3300);   CyDelay(TACH_STEP_DELAY);
 2591              		.loc 1 550 0
 2592 0198 40F6E440 		movw	r0, #3300
 2593 019c FFF7FEFF 		bl	led_write_tach
 2594 01a0 1420     		movs	r0, #20
 2595 01a2 FFF7FEFF 		bl	CyDelay
 551:led_manager.c ****     led_write_tach(3000);   CyDelay(TACH_STEP_DELAY);
 2596              		.loc 1 551 0
 2597 01a6 40F6B830 		movw	r0, #3000
 2598 01aa FFF7FEFF 		bl	led_write_tach
 2599 01ae 1420     		movs	r0, #20
 2600 01b0 FFF7FEFF 		bl	CyDelay
 552:led_manager.c ****     led_write_tach(2700);   CyDelay(TACH_STEP_DELAY);
ARM GAS  D:\Windows\AppData\Local\Temp\ccYfDzHQ.s 			page 57


 2601              		.loc 1 552 0
 2602 01b4 40F68C20 		movw	r0, #2700
 2603 01b8 FFF7FEFF 		bl	led_write_tach
 2604 01bc 1420     		movs	r0, #20
 2605 01be FFF7FEFF 		bl	CyDelay
 553:led_manager.c ****     led_write_tach(2400);   CyDelay(TACH_STEP_DELAY);
 2606              		.loc 1 553 0
 2607 01c2 4FF41660 		mov	r0, #2400
 2608 01c6 FFF7FEFF 		bl	led_write_tach
 2609 01ca 1420     		movs	r0, #20
 2610 01cc FFF7FEFF 		bl	CyDelay
 554:led_manager.c ****     led_write_tach(2100);   CyDelay(TACH_STEP_DELAY);
 2611              		.loc 1 554 0
 2612 01d0 40F63400 		movw	r0, #2100
 2613 01d4 FFF7FEFF 		bl	led_write_tach
 2614 01d8 1420     		movs	r0, #20
 2615 01da FFF7FEFF 		bl	CyDelay
 555:led_manager.c ****     led_write_tach(1800);   CyDelay(TACH_STEP_DELAY);
 2616              		.loc 1 555 0
 2617 01de 4FF4E160 		mov	r0, #1800
 2618 01e2 FFF7FEFF 		bl	led_write_tach
 2619 01e6 1420     		movs	r0, #20
 2620 01e8 FFF7FEFF 		bl	CyDelay
 556:led_manager.c ****     led_write_tach(1500);   CyDelay(TACH_STEP_DELAY);
 2621              		.loc 1 556 0
 2622 01ec 40F2DC50 		movw	r0, #1500
 2623 01f0 FFF7FEFF 		bl	led_write_tach
 2624 01f4 1420     		movs	r0, #20
 2625 01f6 FFF7FEFF 		bl	CyDelay
 557:led_manager.c ****     led_write_tach(1200);   CyDelay(TACH_STEP_DELAY);
 2626              		.loc 1 557 0
 2627 01fa 4FF49660 		mov	r0, #1200
 2628 01fe FFF7FEFF 		bl	led_write_tach
 2629 0202 1420     		movs	r0, #20
 2630 0204 FFF7FEFF 		bl	CyDelay
 558:led_manager.c ****     led_write_tach(900);    CyDelay(TACH_STEP_DELAY);
 2631              		.loc 1 558 0
 2632 0208 4FF46170 		mov	r0, #900
 2633 020c FFF7FEFF 		bl	led_write_tach
 2634 0210 1420     		movs	r0, #20
 2635 0212 FFF7FEFF 		bl	CyDelay
 559:led_manager.c ****     led_write_tach(600);    CyDelay(TACH_STEP_DELAY);
 2636              		.loc 1 559 0
 2637 0216 4FF41670 		mov	r0, #600
 2638 021a FFF7FEFF 		bl	led_write_tach
 2639 021e 1420     		movs	r0, #20
 2640 0220 FFF7FEFF 		bl	CyDelay
 560:led_manager.c ****     led_write_tach(300);    CyDelay(TACH_STEP_DELAY);
 2641              		.loc 1 560 0
 2642 0224 4FF49670 		mov	r0, #300
 2643 0228 FFF7FEFF 		bl	led_write_tach
 2644 022c 1420     		movs	r0, #20
 2645 022e FFF7FEFF 		bl	CyDelay
 561:led_manager.c ****     led_write_tach(0);      CyDelay(TACH_STEP_DELAY);
 2646              		.loc 1 561 0
 2647 0232 0020     		movs	r0, #0
 2648 0234 FFF7FEFF 		bl	led_write_tach
ARM GAS  D:\Windows\AppData\Local\Temp\ccYfDzHQ.s 			page 58


 2649 0238 1420     		movs	r0, #20
 2650 023a FFF7FEFF 		bl	CyDelay
 562:led_manager.c **** }
 2651              		.loc 1 562 0
 2652 023e 80BD     		pop	{r7, pc}
 2653              		.cfi_endproc
 2654              	.LFE78:
 2655              		.size	write_startup_tach, .-write_startup_tach
 2656              		.section	.text.write_startup_stat,"ax",%progbits
 2657              		.align	2
 2658              		.global	write_startup_stat
 2659              		.thumb
 2660              		.thumb_func
 2661              		.type	write_startup_stat, %function
 2662              	write_startup_stat:
 2663              	.LFB79:
 563:led_manager.c **** void write_startup_stat() {
 2664              		.loc 1 563 0
 2665              		.cfi_startproc
 2666              		@ args = 0, pretend = 0, frame = 0
 2667              		@ frame_needed = 1, uses_anonymous_args = 0
 2668 0000 80B5     		push	{r7, lr}
 2669              		.cfi_def_cfa_offset 8
 2670              		.cfi_offset 7, -8
 2671              		.cfi_offset 14, -4
 2672 0002 00AF     		add	r7, sp, #0
 2673              		.cfi_def_cfa_register 7
 564:led_manager.c ****     //slowly turns on all bars of each monitor at a time
 565:led_manager.c ****     write_all_stat(0);
 2674              		.loc 1 565 0
 2675 0004 0020     		movs	r0, #0
 2676 0006 FFF7FEFF 		bl	write_all_stat
 566:led_manager.c ****     LED_Driver2_MasterSendStart(LED_ADDR, 0);       //max fade 
 2677              		.loc 1 566 0
 2678 000a 4020     		movs	r0, #64
 2679 000c 0021     		movs	r1, #0
 2680 000e FFF7FEFF 		bl	LED_Driver2_MasterSendStart
 567:led_manager.c ****     LED_Driver2_MasterWriteByte(0x01);
 2681              		.loc 1 567 0
 2682 0012 0120     		movs	r0, #1
 2683 0014 FFF7FEFF 		bl	LED_Driver2_MasterWriteByte
 568:led_manager.c ****     LED_Driver2_MasterWriteByte(0x77);
 2684              		.loc 1 568 0
 2685 0018 7720     		movs	r0, #119
 2686 001a FFF7FEFF 		bl	LED_Driver2_MasterWriteByte
 569:led_manager.c **** 	LED_Driver2_MasterWriteByte(RLED_curr);			//x02
 2687              		.loc 1 569 0
 2688 001e 1F20     		movs	r0, #31
 2689 0020 FFF7FEFF 		bl	LED_Driver2_MasterWriteByte
 570:led_manager.c **** 	LED_Driver2_MasterWriteByte(GLED_curr);			//x03
 2690              		.loc 1 570 0
 2691 0024 1F20     		movs	r0, #31
 2692 0026 FFF7FEFF 		bl	LED_Driver2_MasterWriteByte
 571:led_manager.c **** 	LED_Driver2_MasterWriteByte(BLED_curr);			//x04
 2693              		.loc 1 571 0
 2694 002a 1F20     		movs	r0, #31
 2695 002c FFF7FEFF 		bl	LED_Driver2_MasterWriteByte
ARM GAS  D:\Windows\AppData\Local\Temp\ccYfDzHQ.s 			page 59


 572:led_manager.c ****     LED_Driver2_MasterSendStop();
 2696              		.loc 1 572 0
 2697 0030 FFF7FEFF 		bl	LED_Driver2_MasterSendStop
 573:led_manager.c ****     CyDelay(50);
 2698              		.loc 1 573 0
 2699 0034 3220     		movs	r0, #50
 2700 0036 FFF7FEFF 		bl	CyDelay
 574:led_manager.c ****     
 575:led_manager.c ****     led_write_b1(0x59);
 2701              		.loc 1 575 0
 2702 003a 5920     		movs	r0, #89
 2703 003c FFF7FEFF 		bl	led_write_b1
 576:led_manager.c ****     CyDelay(300);
 2704              		.loc 1 576 0
 2705 0040 4FF49670 		mov	r0, #300
 2706 0044 FFF7FEFF 		bl	CyDelay
 577:led_manager.c ****     led_write_b2(0x3E7);    //999/10
 2707              		.loc 1 577 0
 2708 0048 40F2E730 		movw	r0, #999
 2709 004c FFF7FEFF 		bl	led_write_b2
 578:led_manager.c ****     CyDelay(300);
 2710              		.loc 1 578 0
 2711 0050 4FF49670 		mov	r0, #300
 2712 0054 FFF7FEFF 		bl	CyDelay
 579:led_manager.c ****     led_write_b3(0x513);         //1300/10
 2713              		.loc 1 579 0
 2714 0058 40F21350 		movw	r0, #1299
 2715 005c FFF7FEFF 		bl	led_write_b3
 580:led_manager.c ****     CyDelay(300);
 2716              		.loc 1 580 0
 2717 0060 4FF49670 		mov	r0, #300
 2718 0064 FFF7FEFF 		bl	CyDelay
 581:led_manager.c ****     led_write_c1(99);
 2719              		.loc 1 581 0
 2720 0068 6320     		movs	r0, #99
 2721 006a FFF7FEFF 		bl	led_write_c1
 582:led_manager.c ****     CyDelay(50);
 2722              		.loc 1 582 0
 2723 006e 3220     		movs	r0, #50
 2724 0070 FFF7FEFF 		bl	CyDelay
 583:led_manager.c ****     
 584:led_manager.c ****     LED_Driver2_MasterSendStart(LED_ADDR, 0);       //zero fade 
 2725              		.loc 1 584 0
 2726 0074 4020     		movs	r0, #64
 2727 0076 0021     		movs	r1, #0
 2728 0078 FFF7FEFF 		bl	LED_Driver2_MasterSendStart
 585:led_manager.c ****     LED_Driver2_MasterWriteByte(0x01);              //0x1 addr
 2729              		.loc 1 585 0
 2730 007c 0120     		movs	r0, #1
 2731 007e FFF7FEFF 		bl	LED_Driver2_MasterWriteByte
 586:led_manager.c ****     LED_Driver2_MasterWriteByte(0x00);
 2732              		.loc 1 586 0
 2733 0082 0020     		movs	r0, #0
 2734 0084 FFF7FEFF 		bl	LED_Driver2_MasterWriteByte
 587:led_manager.c **** 	LED_Driver2_MasterWriteByte(RLED_curr);			//x02
 2735              		.loc 1 587 0
 2736 0088 1F20     		movs	r0, #31
ARM GAS  D:\Windows\AppData\Local\Temp\ccYfDzHQ.s 			page 60


 2737 008a FFF7FEFF 		bl	LED_Driver2_MasterWriteByte
 588:led_manager.c **** 	LED_Driver2_MasterWriteByte(GLED_curr);			//x03
 2738              		.loc 1 588 0
 2739 008e 1F20     		movs	r0, #31
 2740 0090 FFF7FEFF 		bl	LED_Driver2_MasterWriteByte
 589:led_manager.c **** 	LED_Driver2_MasterWriteByte(BLED_curr);			//x04
 2741              		.loc 1 589 0
 2742 0094 1F20     		movs	r0, #31
 2743 0096 FFF7FEFF 		bl	LED_Driver2_MasterWriteByte
 590:led_manager.c ****     LED_Driver2_MasterSendStop();
 2744              		.loc 1 590 0
 2745 009a FFF7FEFF 		bl	LED_Driver2_MasterSendStop
 591:led_manager.c **** 
 592:led_manager.c **** }
 2746              		.loc 1 592 0
 2747 009e 80BD     		pop	{r7, pc}
 2748              		.cfi_endproc
 2749              	.LFE79:
 2750              		.size	write_startup_stat, .-write_startup_stat
 2751              		.section	.text.led_on,"ax",%progbits
 2752              		.align	2
 2753              		.global	led_on
 2754              		.thumb
 2755              		.thumb_func
 2756              		.type	led_on, %function
 2757              	led_on:
 2758              	.LFB80:
 593:led_manager.c **** 
 594:led_manager.c **** 
 595:led_manager.c **** //test stuff
 596:led_manager.c **** void led_on() {
 2759              		.loc 1 596 0
 2760              		.cfi_startproc
 2761              		@ args = 0, pretend = 0, frame = 0
 2762              		@ frame_needed = 1, uses_anonymous_args = 0
 2763 0000 80B5     		push	{r7, lr}
 2764              		.cfi_def_cfa_offset 8
 2765              		.cfi_offset 7, -8
 2766              		.cfi_offset 14, -4
 2767 0002 00AF     		add	r7, sp, #0
 2768              		.cfi_def_cfa_register 7
 597:led_manager.c **** 	d1_write(1);
 2769              		.loc 1 597 0
 2770 0004 0120     		movs	r0, #1
 2771 0006 FFF7FEFF 		bl	d1_write
 598:led_manager.c **** 	//d2_write(1);
 599:led_manager.c **** 	//d3_write(1);
 600:led_manager.c **** 	//d4_write(1);
 601:led_manager.c **** 	//d5_write(1);
 602:led_manager.c **** 	//d6_write(1);
 603:led_manager.c **** 	//d7_write(1);
 604:led_manager.c **** 	//d8_write(1);
 605:led_manager.c **** 	//d9_write(1);
 606:led_manager.c **** 	//d10_write(1);
 607:led_manager.c **** 	//d11_write(1);
 608:led_manager.c **** 	//d12_write(1);
 609:led_manager.c **** 	//d13_write(1);
ARM GAS  D:\Windows\AppData\Local\Temp\ccYfDzHQ.s 			page 61


 610:led_manager.c **** 	d14_write(1);
 2772              		.loc 1 610 0
 2773 000a 0120     		movs	r0, #1
 2774 000c FFF7FEFF 		bl	d14_write
 611:led_manager.c **** 	d15_write(1);
 2775              		.loc 1 611 0
 2776 0010 0120     		movs	r0, #1
 2777 0012 FFF7FEFF 		bl	d15_write
 612:led_manager.c **** 	//d16_write(1);
 613:led_manager.c **** 	//d17_write(1);
 614:led_manager.c **** 	//d18_write(1);
 615:led_manager.c **** 	d19_write(1);
 2778              		.loc 1 615 0
 2779 0016 0120     		movs	r0, #1
 2780 0018 FFF7FEFF 		bl	d19_write
 616:led_manager.c **** 	//d20_write(1);
 617:led_manager.c **** 	//d21_write(1);
 618:led_manager.c **** 	//d22_write(1);
 619:led_manager.c **** 	
 620:led_manager.c **** 	/*
 621:led_manager.c **** 	b11_write(1);
 622:led_manager.c **** 	b12_write(1);
 623:led_manager.c **** 	b13_write(1);
 624:led_manager.c **** 	b14_write(1);
 625:led_manager.c **** 	b15_write(1);
 626:led_manager.c **** 	
 627:led_manager.c **** 	b21_write(1);
 628:led_manager.c **** 	b22_write(1);
 629:led_manager.c **** 	b23_write(1);
 630:led_manager.c **** 	b24_write(1);
 631:led_manager.c **** 	b25_write(1);
 632:led_manager.c **** 	
 633:led_manager.c **** 	b31_write(1);
 634:led_manager.c **** 	b32_write(1);
 635:led_manager.c **** 	b33_write(1);
 636:led_manager.c **** 	b34_write(1);
 637:led_manager.c **** 	b35_write(1);
 638:led_manager.c **** 	*/
 639:led_manager.c **** 	/*
 640:led_manager.c **** 	c1_write(1);
 641:led_manager.c **** 	c2_write(1);
 642:led_manager.c **** 	c3_write(1);
 643:led_manager.c **** 	c4_write(1);
 644:led_manager.c **** 	c5_write(1);
 645:led_manager.c **** 	*/
 646:led_manager.c **** }
 2781              		.loc 1 646 0
 2782 001c 80BD     		pop	{r7, pc}
 2783              		.cfi_endproc
 2784              	.LFE80:
 2785              		.size	led_on, .-led_on
 2786 001e 00BF     		.section	.text.led_off,"ax",%progbits
 2787              		.align	2
 2788              		.global	led_off
 2789              		.thumb
 2790              		.thumb_func
 2791              		.type	led_off, %function
ARM GAS  D:\Windows\AppData\Local\Temp\ccYfDzHQ.s 			page 62


 2792              	led_off:
 2793              	.LFB81:
 647:led_manager.c **** void led_off() {
 2794              		.loc 1 647 0
 2795              		.cfi_startproc
 2796              		@ args = 0, pretend = 0, frame = 0
 2797              		@ frame_needed = 1, uses_anonymous_args = 0
 2798 0000 80B5     		push	{r7, lr}
 2799              		.cfi_def_cfa_offset 8
 2800              		.cfi_offset 7, -8
 2801              		.cfi_offset 14, -4
 2802 0002 00AF     		add	r7, sp, #0
 2803              		.cfi_def_cfa_register 7
 648:led_manager.c **** 	d1_write(0);
 2804              		.loc 1 648 0
 2805 0004 0020     		movs	r0, #0
 2806 0006 FFF7FEFF 		bl	d1_write
 649:led_manager.c **** 	//d2_write(0);
 650:led_manager.c **** 	//d3_write(0);
 651:led_manager.c **** 	//d4_write(0);
 652:led_manager.c **** 	//d5_write(0);
 653:led_manager.c **** 	//d6_write(0);
 654:led_manager.c **** 	//d7_write(0);
 655:led_manager.c **** 	//d8_write(0);
 656:led_manager.c **** 	//d9_write(0);
 657:led_manager.c **** 	//d10_write(0);
 658:led_manager.c **** 	//d11_write(0);
 659:led_manager.c **** 	//d12_write(0);
 660:led_manager.c **** 	//d13_write(0);
 661:led_manager.c **** 	d14_write(0);
 2807              		.loc 1 661 0
 2808 000a 0020     		movs	r0, #0
 2809 000c FFF7FEFF 		bl	d14_write
 662:led_manager.c **** 	d15_write(0);
 2810              		.loc 1 662 0
 2811 0010 0020     		movs	r0, #0
 2812 0012 FFF7FEFF 		bl	d15_write
 663:led_manager.c **** 	//d16_write(0);
 664:led_manager.c **** 	//d17_write(0);
 665:led_manager.c **** 	//d18_write(0);
 666:led_manager.c **** 	d19_write(0);
 2813              		.loc 1 666 0
 2814 0016 0020     		movs	r0, #0
 2815 0018 FFF7FEFF 		bl	d19_write
 667:led_manager.c **** 	//d20_write(0);
 668:led_manager.c **** 	//d21_write(0);
 669:led_manager.c **** 	//d22_write(0);
 670:led_manager.c **** 	/*
 671:led_manager.c **** 	b11_write(0);
 672:led_manager.c **** 	b12_write(0);
 673:led_manager.c **** 	b13_write(0);
 674:led_manager.c **** 	b14_write(0);
 675:led_manager.c **** 	b15_write(0);
 676:led_manager.c **** 	
 677:led_manager.c **** 	b21_write(0);
 678:led_manager.c **** 	b22_write(0);
 679:led_manager.c **** 	b23_write(0);
ARM GAS  D:\Windows\AppData\Local\Temp\ccYfDzHQ.s 			page 63


 680:led_manager.c **** 	b24_write(0);
 681:led_manager.c **** 	b25_write(0);
 682:led_manager.c **** 	
 683:led_manager.c **** 	b31_write(0);
 684:led_manager.c **** 	b32_write(0);
 685:led_manager.c **** 	b33_write(0);
 686:led_manager.c **** 	b34_write(0);
 687:led_manager.c **** 	b35_write(0);
 688:led_manager.c **** 	*/
 689:led_manager.c **** 	/*
 690:led_manager.c **** 	c1_write(0);
 691:led_manager.c **** 	c2_write(0);
 692:led_manager.c **** 	c3_write(0);
 693:led_manager.c **** 	c4_write(0);
 694:led_manager.c **** 	c5_write(0);
 695:led_manager.c **** 	*/
 696:led_manager.c **** }
 2816              		.loc 1 696 0
 2817 001c 80BD     		pop	{r7, pc}
 2818              		.cfi_endproc
 2819              	.LFE81:
 2820              		.size	led_off, .-led_off
 2821 001e 00BF     		.section	.text.led_writetest,"ax",%progbits
 2822              		.align	2
 2823              		.global	led_writetest
 2824              		.thumb
 2825              		.thumb_func
 2826              		.type	led_writetest, %function
 2827              	led_writetest:
 2828              	.LFB82:
 697:led_manager.c **** int led_writetest(int i, int* arr) {
 2829              		.loc 1 697 0
 2830              		.cfi_startproc
 2831              		@ args = 0, pretend = 0, frame = 8
 2832              		@ frame_needed = 1, uses_anonymous_args = 0
 2833 0000 80B5     		push	{r7, lr}
 2834              		.cfi_def_cfa_offset 8
 2835              		.cfi_offset 7, -8
 2836              		.cfi_offset 14, -4
 2837 0002 82B0     		sub	sp, sp, #8
 2838              		.cfi_def_cfa_offset 16
 2839 0004 00AF     		add	r7, sp, #0
 2840              		.cfi_def_cfa_register 7
 2841 0006 7860     		str	r0, [r7, #4]
 2842 0008 3960     		str	r1, [r7]
 698:led_manager.c **** 	d1_write(arr[0]);
 2843              		.loc 1 698 0
 2844 000a 3B68     		ldr	r3, [r7]
 2845 000c 1B68     		ldr	r3, [r3]
 2846 000e 1846     		mov	r0, r3
 2847 0010 FFF7FEFF 		bl	d1_write
 699:led_manager.c **** 	d2_write(arr[1]);
 2848              		.loc 1 699 0
 2849 0014 3B68     		ldr	r3, [r7]
 2850 0016 0433     		adds	r3, r3, #4
 2851 0018 1B68     		ldr	r3, [r3]
 2852 001a 1846     		mov	r0, r3
ARM GAS  D:\Windows\AppData\Local\Temp\ccYfDzHQ.s 			page 64


 2853 001c FFF7FEFF 		bl	d2_write
 700:led_manager.c **** 	d3_write(arr[2]);
 2854              		.loc 1 700 0
 2855 0020 3B68     		ldr	r3, [r7]
 2856 0022 0833     		adds	r3, r3, #8
 2857 0024 1B68     		ldr	r3, [r3]
 2858 0026 1846     		mov	r0, r3
 2859 0028 FFF7FEFF 		bl	d3_write
 701:led_manager.c **** 	d4_write(arr[3]);
 2860              		.loc 1 701 0
 2861 002c 3B68     		ldr	r3, [r7]
 2862 002e 0C33     		adds	r3, r3, #12
 2863 0030 1B68     		ldr	r3, [r3]
 2864 0032 1846     		mov	r0, r3
 2865 0034 FFF7FEFF 		bl	d4_write
 702:led_manager.c **** 	d5_write(arr[4]);
 2866              		.loc 1 702 0
 2867 0038 3B68     		ldr	r3, [r7]
 2868 003a 1033     		adds	r3, r3, #16
 2869 003c 1B68     		ldr	r3, [r3]
 2870 003e 1846     		mov	r0, r3
 2871 0040 FFF7FEFF 		bl	d5_write
 703:led_manager.c **** 	d6_write(arr[5]);
 2872              		.loc 1 703 0
 2873 0044 3B68     		ldr	r3, [r7]
 2874 0046 1433     		adds	r3, r3, #20
 2875 0048 1B68     		ldr	r3, [r3]
 2876 004a 1846     		mov	r0, r3
 2877 004c FFF7FEFF 		bl	d6_write
 704:led_manager.c **** 	d7_write(arr[6]);
 2878              		.loc 1 704 0
 2879 0050 3B68     		ldr	r3, [r7]
 2880 0052 1833     		adds	r3, r3, #24
 2881 0054 1B68     		ldr	r3, [r3]
 2882 0056 1846     		mov	r0, r3
 2883 0058 FFF7FEFF 		bl	d7_write
 705:led_manager.c **** 	d8_write(arr[7]);
 2884              		.loc 1 705 0
 2885 005c 3B68     		ldr	r3, [r7]
 2886 005e 1C33     		adds	r3, r3, #28
 2887 0060 1B68     		ldr	r3, [r3]
 2888 0062 1846     		mov	r0, r3
 2889 0064 FFF7FEFF 		bl	d8_write
 706:led_manager.c **** 	d9_write(arr[8]);
 2890              		.loc 1 706 0
 2891 0068 3B68     		ldr	r3, [r7]
 2892 006a 2033     		adds	r3, r3, #32
 2893 006c 1B68     		ldr	r3, [r3]
 2894 006e 1846     		mov	r0, r3
 2895 0070 FFF7FEFF 		bl	d9_write
 707:led_manager.c **** 	d10_write(arr[9]);
 2896              		.loc 1 707 0
 2897 0074 3B68     		ldr	r3, [r7]
 2898 0076 2433     		adds	r3, r3, #36
 2899 0078 1B68     		ldr	r3, [r3]
 2900 007a 1846     		mov	r0, r3
 2901 007c FFF7FEFF 		bl	d10_write
ARM GAS  D:\Windows\AppData\Local\Temp\ccYfDzHQ.s 			page 65


 708:led_manager.c **** 	d11_write(arr[10]);
 2902              		.loc 1 708 0
 2903 0080 3B68     		ldr	r3, [r7]
 2904 0082 2833     		adds	r3, r3, #40
 2905 0084 1B68     		ldr	r3, [r3]
 2906 0086 1846     		mov	r0, r3
 2907 0088 FFF7FEFF 		bl	d11_write
 709:led_manager.c **** 	d12_write(arr[11]);
 2908              		.loc 1 709 0
 2909 008c 3B68     		ldr	r3, [r7]
 2910 008e 2C33     		adds	r3, r3, #44
 2911 0090 1B68     		ldr	r3, [r3]
 2912 0092 1846     		mov	r0, r3
 2913 0094 FFF7FEFF 		bl	d12_write
 710:led_manager.c **** 	d13_write(arr[12]);
 2914              		.loc 1 710 0
 2915 0098 3B68     		ldr	r3, [r7]
 2916 009a 3033     		adds	r3, r3, #48
 2917 009c 1B68     		ldr	r3, [r3]
 2918 009e 1846     		mov	r0, r3
 2919 00a0 FFF7FEFF 		bl	d13_write
 711:led_manager.c **** 	d14_write(arr[13]);
 2920              		.loc 1 711 0
 2921 00a4 3B68     		ldr	r3, [r7]
 2922 00a6 3433     		adds	r3, r3, #52
 2923 00a8 1B68     		ldr	r3, [r3]
 2924 00aa 1846     		mov	r0, r3
 2925 00ac FFF7FEFF 		bl	d14_write
 712:led_manager.c **** 	d15_write(arr[14]);
 2926              		.loc 1 712 0
 2927 00b0 3B68     		ldr	r3, [r7]
 2928 00b2 3833     		adds	r3, r3, #56
 2929 00b4 1B68     		ldr	r3, [r3]
 2930 00b6 1846     		mov	r0, r3
 2931 00b8 FFF7FEFF 		bl	d15_write
 713:led_manager.c **** 	d16_write(arr[15]);
 2932              		.loc 1 713 0
 2933 00bc 3B68     		ldr	r3, [r7]
 2934 00be 3C33     		adds	r3, r3, #60
 2935 00c0 1B68     		ldr	r3, [r3]
 2936 00c2 1846     		mov	r0, r3
 2937 00c4 FFF7FEFF 		bl	d16_write
 714:led_manager.c **** 	d17_write(arr[16]);
 2938              		.loc 1 714 0
 2939 00c8 3B68     		ldr	r3, [r7]
 2940 00ca 4033     		adds	r3, r3, #64
 2941 00cc 1B68     		ldr	r3, [r3]
 2942 00ce 1846     		mov	r0, r3
 2943 00d0 FFF7FEFF 		bl	d17_write
 715:led_manager.c **** 	d18_write(arr[17]);
 2944              		.loc 1 715 0
 2945 00d4 3B68     		ldr	r3, [r7]
 2946 00d6 4433     		adds	r3, r3, #68
 2947 00d8 1B68     		ldr	r3, [r3]
 2948 00da 1846     		mov	r0, r3
 2949 00dc FFF7FEFF 		bl	d18_write
 716:led_manager.c **** 	d19_write(arr[18]);
ARM GAS  D:\Windows\AppData\Local\Temp\ccYfDzHQ.s 			page 66


 2950              		.loc 1 716 0
 2951 00e0 3B68     		ldr	r3, [r7]
 2952 00e2 4833     		adds	r3, r3, #72
 2953 00e4 1B68     		ldr	r3, [r3]
 2954 00e6 1846     		mov	r0, r3
 2955 00e8 FFF7FEFF 		bl	d19_write
 717:led_manager.c **** 	d20_write(arr[19]);
 2956              		.loc 1 717 0
 2957 00ec 3B68     		ldr	r3, [r7]
 2958 00ee 4C33     		adds	r3, r3, #76
 2959 00f0 1B68     		ldr	r3, [r3]
 2960 00f2 1846     		mov	r0, r3
 2961 00f4 FFF7FEFF 		bl	d20_write
 718:led_manager.c **** 	d21_write(arr[20]);
 2962              		.loc 1 718 0
 2963 00f8 3B68     		ldr	r3, [r7]
 2964 00fa 5033     		adds	r3, r3, #80
 2965 00fc 1B68     		ldr	r3, [r3]
 2966 00fe 1846     		mov	r0, r3
 2967 0100 FFF7FEFF 		bl	d21_write
 719:led_manager.c **** 	d22_write(arr[21]);
 2968              		.loc 1 719 0
 2969 0104 3B68     		ldr	r3, [r7]
 2970 0106 5433     		adds	r3, r3, #84
 2971 0108 1B68     		ldr	r3, [r3]
 2972 010a 1846     		mov	r0, r3
 2973 010c FFF7FEFF 		bl	d22_write
 720:led_manager.c **** 	
 721:led_manager.c **** 	arr[i] = 0;
 2974              		.loc 1 721 0
 2975 0110 7B68     		ldr	r3, [r7, #4]
 2976 0112 9B00     		lsls	r3, r3, #2
 2977 0114 3A68     		ldr	r2, [r7]
 2978 0116 1344     		add	r3, r3, r2
 2979 0118 0022     		movs	r2, #0
 2980 011a 1A60     		str	r2, [r3]
 722:led_manager.c **** 	arr[(i+5) % 22] = 1;
 2981              		.loc 1 722 0
 2982 011c 7B68     		ldr	r3, [r7, #4]
 2983 011e 0533     		adds	r3, r3, #5
 2984 0120 0E4A     		ldr	r2, .L129
 2985 0122 82FB0312 		smull	r1, r2, r2, r3
 2986 0126 9110     		asrs	r1, r2, #2
 2987 0128 DA17     		asrs	r2, r3, #31
 2988 012a 8A1A     		subs	r2, r1, r2
 2989 012c 1621     		movs	r1, #22
 2990 012e 01FB02F2 		mul	r2, r1, r2
 2991 0132 9A1A     		subs	r2, r3, r2
 2992 0134 1346     		mov	r3, r2
 2993 0136 9B00     		lsls	r3, r3, #2
 2994 0138 3A68     		ldr	r2, [r7]
 2995 013a 1344     		add	r3, r3, r2
 2996 013c 0122     		movs	r2, #1
 2997 013e 1A60     		str	r2, [r3]
 723:led_manager.c **** 	i++;
 2998              		.loc 1 723 0
 2999 0140 7B68     		ldr	r3, [r7, #4]
ARM GAS  D:\Windows\AppData\Local\Temp\ccYfDzHQ.s 			page 67


 3000 0142 0133     		adds	r3, r3, #1
 3001 0144 7B60     		str	r3, [r7, #4]
 724:led_manager.c **** 	if(i > 21)
 3002              		.loc 1 724 0
 3003 0146 7B68     		ldr	r3, [r7, #4]
 3004 0148 152B     		cmp	r3, #21
 3005 014a 01DD     		ble	.L127
 725:led_manager.c **** 		i=0;
 3006              		.loc 1 725 0
 3007 014c 0023     		movs	r3, #0
 3008 014e 7B60     		str	r3, [r7, #4]
 3009              	.L127:
 726:led_manager.c **** 	return i;
 3010              		.loc 1 726 0
 3011 0150 7B68     		ldr	r3, [r7, #4]
 727:led_manager.c **** }
 3012              		.loc 1 727 0
 3013 0152 1846     		mov	r0, r3
 3014 0154 0837     		adds	r7, r7, #8
 3015              		.cfi_def_cfa_offset 8
 3016 0156 BD46     		mov	sp, r7
 3017              		.cfi_def_cfa_register 13
 3018              		@ sp needed
 3019 0158 80BD     		pop	{r7, pc}
 3020              	.L130:
 3021 015a 00BF     		.align	2
 3022              	.L129:
 3023 015c E9A28B2E 		.word	780903145
 3024              		.cfi_endproc
 3025              	.LFE82:
 3026              		.size	led_writetest, .-led_writetest
 3027              		.section	.text.d1_write,"ax",%progbits
 3028              		.align	2
 3029              		.global	d1_write
 3030              		.thumb
 3031              		.thumb_func
 3032              		.type	d1_write, %function
 3033              	d1_write:
 3034              	.LFB83:
 728:led_manager.c **** 
 729:led_manager.c **** //tach
 730:led_manager.c **** void d1_write(int bool) {
 3035              		.loc 1 730 0
 3036              		.cfi_startproc
 3037              		@ args = 0, pretend = 0, frame = 16
 3038              		@ frame_needed = 1, uses_anonymous_args = 0
 3039              		@ link register save eliminated.
 3040 0000 80B4     		push	{r7}
 3041              		.cfi_def_cfa_offset 4
 3042              		.cfi_offset 7, -4
 3043 0002 85B0     		sub	sp, sp, #20
 3044              		.cfi_def_cfa_offset 24
 3045 0004 00AF     		add	r7, sp, #0
 3046              		.cfi_def_cfa_register 7
 3047 0006 7860     		str	r0, [r7, #4]
 731:led_manager.c **** 	uint8_t bit = 0x01;
 3048              		.loc 1 731 0
ARM GAS  D:\Windows\AppData\Local\Temp\ccYfDzHQ.s 			page 68


 3049 0008 0123     		movs	r3, #1
 3050 000a FB73     		strb	r3, [r7, #15]
 732:led_manager.c **** 	if(bool == 1) 	//led on
 3051              		.loc 1 732 0
 3052 000c 7B68     		ldr	r3, [r7, #4]
 3053 000e 012B     		cmp	r3, #1
 3054 0010 07D1     		bne	.L132
 733:led_manager.c **** 		byte05 = byte05 | bit;
 3055              		.loc 1 733 0
 3056 0012 0C4B     		ldr	r3, .L134
 3057 0014 1A78     		ldrb	r2, [r3]	@ zero_extendqisi2
 3058 0016 FB7B     		ldrb	r3, [r7, #15]
 3059 0018 1343     		orrs	r3, r3, r2
 3060 001a DAB2     		uxtb	r2, r3
 3061 001c 094B     		ldr	r3, .L134
 3062 001e 1A70     		strb	r2, [r3]
 3063 0020 0AE0     		b	.L131
 3064              	.L132:
 734:led_manager.c **** 	else			//led off
 735:led_manager.c **** 		byte05 = byte05 & ~bit;
 3065              		.loc 1 735 0
 3066 0022 FB7B     		ldrb	r3, [r7, #15]	@ zero_extendqisi2
 3067 0024 DB43     		mvns	r3, r3
 3068 0026 DAB2     		uxtb	r2, r3
 3069 0028 064B     		ldr	r3, .L134
 3070 002a 1B78     		ldrb	r3, [r3]	@ zero_extendqisi2
 3071 002c DBB2     		uxtb	r3, r3
 3072 002e 1340     		ands	r3, r3, r2
 3073 0030 DBB2     		uxtb	r3, r3
 3074 0032 DAB2     		uxtb	r2, r3
 3075 0034 034B     		ldr	r3, .L134
 3076 0036 1A70     		strb	r2, [r3]
 3077              	.L131:
 736:led_manager.c **** }
 3078              		.loc 1 736 0
 3079 0038 1437     		adds	r7, r7, #20
 3080              		.cfi_def_cfa_offset 4
 3081 003a BD46     		mov	sp, r7
 3082              		.cfi_def_cfa_register 13
 3083              		@ sp needed
 3084 003c 5DF8047B 		ldr	r7, [sp], #4
 3085              		.cfi_restore 7
 3086              		.cfi_def_cfa_offset 0
 3087 0040 7047     		bx	lr
 3088              	.L135:
 3089 0042 00BF     		.align	2
 3090              	.L134:
 3091 0044 00000000 		.word	byte05
 3092              		.cfi_endproc
 3093              	.LFE83:
 3094              		.size	d1_write, .-d1_write
 3095              		.section	.text.d2_write,"ax",%progbits
 3096              		.align	2
 3097              		.global	d2_write
 3098              		.thumb
 3099              		.thumb_func
 3100              		.type	d2_write, %function
ARM GAS  D:\Windows\AppData\Local\Temp\ccYfDzHQ.s 			page 69


 3101              	d2_write:
 3102              	.LFB84:
 737:led_manager.c **** void d2_write(int bool) {
 3103              		.loc 1 737 0
 3104              		.cfi_startproc
 3105              		@ args = 0, pretend = 0, frame = 16
 3106              		@ frame_needed = 1, uses_anonymous_args = 0
 3107              		@ link register save eliminated.
 3108 0000 80B4     		push	{r7}
 3109              		.cfi_def_cfa_offset 4
 3110              		.cfi_offset 7, -4
 3111 0002 85B0     		sub	sp, sp, #20
 3112              		.cfi_def_cfa_offset 24
 3113 0004 00AF     		add	r7, sp, #0
 3114              		.cfi_def_cfa_register 7
 3115 0006 7860     		str	r0, [r7, #4]
 738:led_manager.c **** 	uint8_t bit = 0x10;
 3116              		.loc 1 738 0
 3117 0008 1023     		movs	r3, #16
 3118 000a FB73     		strb	r3, [r7, #15]
 739:led_manager.c **** 	if(bool == 1) 	//led on
 3119              		.loc 1 739 0
 3120 000c 7B68     		ldr	r3, [r7, #4]
 3121 000e 012B     		cmp	r3, #1
 3122 0010 07D1     		bne	.L137
 740:led_manager.c **** 		byte05 = byte05 | bit;
 3123              		.loc 1 740 0
 3124 0012 0C4B     		ldr	r3, .L139
 3125 0014 1A78     		ldrb	r2, [r3]	@ zero_extendqisi2
 3126 0016 FB7B     		ldrb	r3, [r7, #15]
 3127 0018 1343     		orrs	r3, r3, r2
 3128 001a DAB2     		uxtb	r2, r3
 3129 001c 094B     		ldr	r3, .L139
 3130 001e 1A70     		strb	r2, [r3]
 3131 0020 0AE0     		b	.L136
 3132              	.L137:
 741:led_manager.c **** 	else			//led off
 742:led_manager.c **** 		byte05 = byte05 & ~bit;
 3133              		.loc 1 742 0
 3134 0022 FB7B     		ldrb	r3, [r7, #15]	@ zero_extendqisi2
 3135 0024 DB43     		mvns	r3, r3
 3136 0026 DAB2     		uxtb	r2, r3
 3137 0028 064B     		ldr	r3, .L139
 3138 002a 1B78     		ldrb	r3, [r3]	@ zero_extendqisi2
 3139 002c DBB2     		uxtb	r3, r3
 3140 002e 1340     		ands	r3, r3, r2
 3141 0030 DBB2     		uxtb	r3, r3
 3142 0032 DAB2     		uxtb	r2, r3
 3143 0034 034B     		ldr	r3, .L139
 3144 0036 1A70     		strb	r2, [r3]
 3145              	.L136:
 743:led_manager.c **** }
 3146              		.loc 1 743 0
 3147 0038 1437     		adds	r7, r7, #20
 3148              		.cfi_def_cfa_offset 4
 3149 003a BD46     		mov	sp, r7
 3150              		.cfi_def_cfa_register 13
ARM GAS  D:\Windows\AppData\Local\Temp\ccYfDzHQ.s 			page 70


 3151              		@ sp needed
 3152 003c 5DF8047B 		ldr	r7, [sp], #4
 3153              		.cfi_restore 7
 3154              		.cfi_def_cfa_offset 0
 3155 0040 7047     		bx	lr
 3156              	.L140:
 3157 0042 00BF     		.align	2
 3158              	.L139:
 3159 0044 00000000 		.word	byte05
 3160              		.cfi_endproc
 3161              	.LFE84:
 3162              		.size	d2_write, .-d2_write
 3163              		.section	.text.d3_write,"ax",%progbits
 3164              		.align	2
 3165              		.global	d3_write
 3166              		.thumb
 3167              		.thumb_func
 3168              		.type	d3_write, %function
 3169              	d3_write:
 3170              	.LFB85:
 744:led_manager.c **** void d3_write(int bool) {
 3171              		.loc 1 744 0
 3172              		.cfi_startproc
 3173              		@ args = 0, pretend = 0, frame = 16
 3174              		@ frame_needed = 1, uses_anonymous_args = 0
 3175              		@ link register save eliminated.
 3176 0000 80B4     		push	{r7}
 3177              		.cfi_def_cfa_offset 4
 3178              		.cfi_offset 7, -4
 3179 0002 85B0     		sub	sp, sp, #20
 3180              		.cfi_def_cfa_offset 24
 3181 0004 00AF     		add	r7, sp, #0
 3182              		.cfi_def_cfa_register 7
 3183 0006 7860     		str	r0, [r7, #4]
 745:led_manager.c **** 	uint8_t bit = 0x01;
 3184              		.loc 1 745 0
 3185 0008 0123     		movs	r3, #1
 3186 000a FB73     		strb	r3, [r7, #15]
 746:led_manager.c **** 	if(bool == 1) 	//led on
 3187              		.loc 1 746 0
 3188 000c 7B68     		ldr	r3, [r7, #4]
 3189 000e 012B     		cmp	r3, #1
 3190 0010 07D1     		bne	.L142
 747:led_manager.c **** 		byte06 = byte06 | bit;
 3191              		.loc 1 747 0
 3192 0012 0C4B     		ldr	r3, .L144
 3193 0014 1A78     		ldrb	r2, [r3]	@ zero_extendqisi2
 3194 0016 FB7B     		ldrb	r3, [r7, #15]
 3195 0018 1343     		orrs	r3, r3, r2
 3196 001a DAB2     		uxtb	r2, r3
 3197 001c 094B     		ldr	r3, .L144
 3198 001e 1A70     		strb	r2, [r3]
 3199 0020 0AE0     		b	.L141
 3200              	.L142:
 748:led_manager.c **** 	else
 749:led_manager.c ****     //led off
 750:led_manager.c **** 		byte06 = byte06 & ~bit;
ARM GAS  D:\Windows\AppData\Local\Temp\ccYfDzHQ.s 			page 71


 3201              		.loc 1 750 0
 3202 0022 FB7B     		ldrb	r3, [r7, #15]	@ zero_extendqisi2
 3203 0024 DB43     		mvns	r3, r3
 3204 0026 DAB2     		uxtb	r2, r3
 3205 0028 064B     		ldr	r3, .L144
 3206 002a 1B78     		ldrb	r3, [r3]	@ zero_extendqisi2
 3207 002c DBB2     		uxtb	r3, r3
 3208 002e 1340     		ands	r3, r3, r2
 3209 0030 DBB2     		uxtb	r3, r3
 3210 0032 DAB2     		uxtb	r2, r3
 3211 0034 034B     		ldr	r3, .L144
 3212 0036 1A70     		strb	r2, [r3]
 3213              	.L141:
 751:led_manager.c **** }
 3214              		.loc 1 751 0
 3215 0038 1437     		adds	r7, r7, #20
 3216              		.cfi_def_cfa_offset 4
 3217 003a BD46     		mov	sp, r7
 3218              		.cfi_def_cfa_register 13
 3219              		@ sp needed
 3220 003c 5DF8047B 		ldr	r7, [sp], #4
 3221              		.cfi_restore 7
 3222              		.cfi_def_cfa_offset 0
 3223 0040 7047     		bx	lr
 3224              	.L145:
 3225 0042 00BF     		.align	2
 3226              	.L144:
 3227 0044 00000000 		.word	byte06
 3228              		.cfi_endproc
 3229              	.LFE85:
 3230              		.size	d3_write, .-d3_write
 3231              		.section	.text.d4_write,"ax",%progbits
 3232              		.align	2
 3233              		.global	d4_write
 3234              		.thumb
 3235              		.thumb_func
 3236              		.type	d4_write, %function
 3237              	d4_write:
 3238              	.LFB86:
 752:led_manager.c **** void d4_write(int bool) {
 3239              		.loc 1 752 0
 3240              		.cfi_startproc
 3241              		@ args = 0, pretend = 0, frame = 16
 3242              		@ frame_needed = 1, uses_anonymous_args = 0
 3243              		@ link register save eliminated.
 3244 0000 80B4     		push	{r7}
 3245              		.cfi_def_cfa_offset 4
 3246              		.cfi_offset 7, -4
 3247 0002 85B0     		sub	sp, sp, #20
 3248              		.cfi_def_cfa_offset 24
 3249 0004 00AF     		add	r7, sp, #0
 3250              		.cfi_def_cfa_register 7
 3251 0006 7860     		str	r0, [r7, #4]
 753:led_manager.c **** 	uint8_t bit = 0x10;
 3252              		.loc 1 753 0
 3253 0008 1023     		movs	r3, #16
 3254 000a FB73     		strb	r3, [r7, #15]
ARM GAS  D:\Windows\AppData\Local\Temp\ccYfDzHQ.s 			page 72


 754:led_manager.c **** 	if(bool == 1) 	//led on
 3255              		.loc 1 754 0
 3256 000c 7B68     		ldr	r3, [r7, #4]
 3257 000e 012B     		cmp	r3, #1
 3258 0010 07D1     		bne	.L147
 755:led_manager.c **** 		byte06 = byte06 | bit;
 3259              		.loc 1 755 0
 3260 0012 0C4B     		ldr	r3, .L149
 3261 0014 1A78     		ldrb	r2, [r3]	@ zero_extendqisi2
 3262 0016 FB7B     		ldrb	r3, [r7, #15]
 3263 0018 1343     		orrs	r3, r3, r2
 3264 001a DAB2     		uxtb	r2, r3
 3265 001c 094B     		ldr	r3, .L149
 3266 001e 1A70     		strb	r2, [r3]
 3267 0020 0AE0     		b	.L146
 3268              	.L147:
 756:led_manager.c **** 	else			//led off
 757:led_manager.c **** 		byte06 = byte06 & ~bit;
 3269              		.loc 1 757 0
 3270 0022 FB7B     		ldrb	r3, [r7, #15]	@ zero_extendqisi2
 3271 0024 DB43     		mvns	r3, r3
 3272 0026 DAB2     		uxtb	r2, r3
 3273 0028 064B     		ldr	r3, .L149
 3274 002a 1B78     		ldrb	r3, [r3]	@ zero_extendqisi2
 3275 002c DBB2     		uxtb	r3, r3
 3276 002e 1340     		ands	r3, r3, r2
 3277 0030 DBB2     		uxtb	r3, r3
 3278 0032 DAB2     		uxtb	r2, r3
 3279 0034 034B     		ldr	r3, .L149
 3280 0036 1A70     		strb	r2, [r3]
 3281              	.L146:
 758:led_manager.c **** }
 3282              		.loc 1 758 0
 3283 0038 1437     		adds	r7, r7, #20
 3284              		.cfi_def_cfa_offset 4
 3285 003a BD46     		mov	sp, r7
 3286              		.cfi_def_cfa_register 13
 3287              		@ sp needed
 3288 003c 5DF8047B 		ldr	r7, [sp], #4
 3289              		.cfi_restore 7
 3290              		.cfi_def_cfa_offset 0
 3291 0040 7047     		bx	lr
 3292              	.L150:
 3293 0042 00BF     		.align	2
 3294              	.L149:
 3295 0044 00000000 		.word	byte06
 3296              		.cfi_endproc
 3297              	.LFE86:
 3298              		.size	d4_write, .-d4_write
 3299              		.section	.text.d5_write,"ax",%progbits
 3300              		.align	2
 3301              		.global	d5_write
 3302              		.thumb
 3303              		.thumb_func
 3304              		.type	d5_write, %function
 3305              	d5_write:
 3306              	.LFB87:
ARM GAS  D:\Windows\AppData\Local\Temp\ccYfDzHQ.s 			page 73


 759:led_manager.c **** void d5_write(int bool) {
 3307              		.loc 1 759 0
 3308              		.cfi_startproc
 3309              		@ args = 0, pretend = 0, frame = 16
 3310              		@ frame_needed = 1, uses_anonymous_args = 0
 3311              		@ link register save eliminated.
 3312 0000 80B4     		push	{r7}
 3313              		.cfi_def_cfa_offset 4
 3314              		.cfi_offset 7, -4
 3315 0002 85B0     		sub	sp, sp, #20
 3316              		.cfi_def_cfa_offset 24
 3317 0004 00AF     		add	r7, sp, #0
 3318              		.cfi_def_cfa_register 7
 3319 0006 7860     		str	r0, [r7, #4]
 760:led_manager.c **** 	uint8_t bit = 0x01;
 3320              		.loc 1 760 0
 3321 0008 0123     		movs	r3, #1
 3322 000a FB73     		strb	r3, [r7, #15]
 761:led_manager.c **** 	if(bool == 1) 	//led on
 3323              		.loc 1 761 0
 3324 000c 7B68     		ldr	r3, [r7, #4]
 3325 000e 012B     		cmp	r3, #1
 3326 0010 07D1     		bne	.L152
 762:led_manager.c **** 		byte07 = byte07 | bit;
 3327              		.loc 1 762 0
 3328 0012 0C4B     		ldr	r3, .L154
 3329 0014 1A78     		ldrb	r2, [r3]	@ zero_extendqisi2
 3330 0016 FB7B     		ldrb	r3, [r7, #15]
 3331 0018 1343     		orrs	r3, r3, r2
 3332 001a DAB2     		uxtb	r2, r3
 3333 001c 094B     		ldr	r3, .L154
 3334 001e 1A70     		strb	r2, [r3]
 3335 0020 0AE0     		b	.L151
 3336              	.L152:
 763:led_manager.c **** 	else			//led off
 764:led_manager.c **** 		byte07 = byte07 & ~bit;
 3337              		.loc 1 764 0
 3338 0022 FB7B     		ldrb	r3, [r7, #15]	@ zero_extendqisi2
 3339 0024 DB43     		mvns	r3, r3
 3340 0026 DAB2     		uxtb	r2, r3
 3341 0028 064B     		ldr	r3, .L154
 3342 002a 1B78     		ldrb	r3, [r3]	@ zero_extendqisi2
 3343 002c DBB2     		uxtb	r3, r3
 3344 002e 1340     		ands	r3, r3, r2
 3345 0030 DBB2     		uxtb	r3, r3
 3346 0032 DAB2     		uxtb	r2, r3
 3347 0034 034B     		ldr	r3, .L154
 3348 0036 1A70     		strb	r2, [r3]
 3349              	.L151:
 765:led_manager.c **** }
 3350              		.loc 1 765 0
 3351 0038 1437     		adds	r7, r7, #20
 3352              		.cfi_def_cfa_offset 4
 3353 003a BD46     		mov	sp, r7
 3354              		.cfi_def_cfa_register 13
 3355              		@ sp needed
 3356 003c 5DF8047B 		ldr	r7, [sp], #4
ARM GAS  D:\Windows\AppData\Local\Temp\ccYfDzHQ.s 			page 74


 3357              		.cfi_restore 7
 3358              		.cfi_def_cfa_offset 0
 3359 0040 7047     		bx	lr
 3360              	.L155:
 3361 0042 00BF     		.align	2
 3362              	.L154:
 3363 0044 00000000 		.word	byte07
 3364              		.cfi_endproc
 3365              	.LFE87:
 3366              		.size	d5_write, .-d5_write
 3367              		.section	.text.d6_write,"ax",%progbits
 3368              		.align	2
 3369              		.global	d6_write
 3370              		.thumb
 3371              		.thumb_func
 3372              		.type	d6_write, %function
 3373              	d6_write:
 3374              	.LFB88:
 766:led_manager.c **** void d6_write(int bool) {
 3375              		.loc 1 766 0
 3376              		.cfi_startproc
 3377              		@ args = 0, pretend = 0, frame = 16
 3378              		@ frame_needed = 1, uses_anonymous_args = 0
 3379              		@ link register save eliminated.
 3380 0000 80B4     		push	{r7}
 3381              		.cfi_def_cfa_offset 4
 3382              		.cfi_offset 7, -4
 3383 0002 85B0     		sub	sp, sp, #20
 3384              		.cfi_def_cfa_offset 24
 3385 0004 00AF     		add	r7, sp, #0
 3386              		.cfi_def_cfa_register 7
 3387 0006 7860     		str	r0, [r7, #4]
 767:led_manager.c **** 	uint8_t bit = 0x10;
 3388              		.loc 1 767 0
 3389 0008 1023     		movs	r3, #16
 3390 000a FB73     		strb	r3, [r7, #15]
 768:led_manager.c **** 	if(bool == 1) 	//led on
 3391              		.loc 1 768 0
 3392 000c 7B68     		ldr	r3, [r7, #4]
 3393 000e 012B     		cmp	r3, #1
 3394 0010 07D1     		bne	.L157
 769:led_manager.c **** 		byte07 = byte07 | bit;
 3395              		.loc 1 769 0
 3396 0012 0C4B     		ldr	r3, .L159
 3397 0014 1A78     		ldrb	r2, [r3]	@ zero_extendqisi2
 3398 0016 FB7B     		ldrb	r3, [r7, #15]
 3399 0018 1343     		orrs	r3, r3, r2
 3400 001a DAB2     		uxtb	r2, r3
 3401 001c 094B     		ldr	r3, .L159
 3402 001e 1A70     		strb	r2, [r3]
 3403 0020 0AE0     		b	.L156
 3404              	.L157:
 770:led_manager.c **** 	else			//led off
 771:led_manager.c **** 		byte07 = byte07 & ~bit;
 3405              		.loc 1 771 0
 3406 0022 FB7B     		ldrb	r3, [r7, #15]	@ zero_extendqisi2
 3407 0024 DB43     		mvns	r3, r3
ARM GAS  D:\Windows\AppData\Local\Temp\ccYfDzHQ.s 			page 75


 3408 0026 DAB2     		uxtb	r2, r3
 3409 0028 064B     		ldr	r3, .L159
 3410 002a 1B78     		ldrb	r3, [r3]	@ zero_extendqisi2
 3411 002c DBB2     		uxtb	r3, r3
 3412 002e 1340     		ands	r3, r3, r2
 3413 0030 DBB2     		uxtb	r3, r3
 3414 0032 DAB2     		uxtb	r2, r3
 3415 0034 034B     		ldr	r3, .L159
 3416 0036 1A70     		strb	r2, [r3]
 3417              	.L156:
 772:led_manager.c **** }
 3418              		.loc 1 772 0
 3419 0038 1437     		adds	r7, r7, #20
 3420              		.cfi_def_cfa_offset 4
 3421 003a BD46     		mov	sp, r7
 3422              		.cfi_def_cfa_register 13
 3423              		@ sp needed
 3424 003c 5DF8047B 		ldr	r7, [sp], #4
 3425              		.cfi_restore 7
 3426              		.cfi_def_cfa_offset 0
 3427 0040 7047     		bx	lr
 3428              	.L160:
 3429 0042 00BF     		.align	2
 3430              	.L159:
 3431 0044 00000000 		.word	byte07
 3432              		.cfi_endproc
 3433              	.LFE88:
 3434              		.size	d6_write, .-d6_write
 3435              		.section	.text.d7_write,"ax",%progbits
 3436              		.align	2
 3437              		.global	d7_write
 3438              		.thumb
 3439              		.thumb_func
 3440              		.type	d7_write, %function
 3441              	d7_write:
 3442              	.LFB89:
 773:led_manager.c **** void d7_write(int bool) {
 3443              		.loc 1 773 0
 3444              		.cfi_startproc
 3445              		@ args = 0, pretend = 0, frame = 16
 3446              		@ frame_needed = 1, uses_anonymous_args = 0
 3447              		@ link register save eliminated.
 3448 0000 80B4     		push	{r7}
 3449              		.cfi_def_cfa_offset 4
 3450              		.cfi_offset 7, -4
 3451 0002 85B0     		sub	sp, sp, #20
 3452              		.cfi_def_cfa_offset 24
 3453 0004 00AF     		add	r7, sp, #0
 3454              		.cfi_def_cfa_register 7
 3455 0006 7860     		str	r0, [r7, #4]
 774:led_manager.c **** 	uint8_t bit = 0x01;
 3456              		.loc 1 774 0
 3457 0008 0123     		movs	r3, #1
 3458 000a FB73     		strb	r3, [r7, #15]
 775:led_manager.c **** 	if(bool == 1) 	//led on
 3459              		.loc 1 775 0
 3460 000c 7B68     		ldr	r3, [r7, #4]
ARM GAS  D:\Windows\AppData\Local\Temp\ccYfDzHQ.s 			page 76


 3461 000e 012B     		cmp	r3, #1
 3462 0010 07D1     		bne	.L162
 776:led_manager.c **** 		byte08 = byte08 | bit;
 3463              		.loc 1 776 0
 3464 0012 0C4B     		ldr	r3, .L164
 3465 0014 1A78     		ldrb	r2, [r3]	@ zero_extendqisi2
 3466 0016 FB7B     		ldrb	r3, [r7, #15]
 3467 0018 1343     		orrs	r3, r3, r2
 3468 001a DAB2     		uxtb	r2, r3
 3469 001c 094B     		ldr	r3, .L164
 3470 001e 1A70     		strb	r2, [r3]
 3471 0020 0AE0     		b	.L161
 3472              	.L162:
 777:led_manager.c **** 	else			//led off
 778:led_manager.c **** 		byte08 = byte08 & ~bit;
 3473              		.loc 1 778 0
 3474 0022 FB7B     		ldrb	r3, [r7, #15]	@ zero_extendqisi2
 3475 0024 DB43     		mvns	r3, r3
 3476 0026 DAB2     		uxtb	r2, r3
 3477 0028 064B     		ldr	r3, .L164
 3478 002a 1B78     		ldrb	r3, [r3]	@ zero_extendqisi2
 3479 002c DBB2     		uxtb	r3, r3
 3480 002e 1340     		ands	r3, r3, r2
 3481 0030 DBB2     		uxtb	r3, r3
 3482 0032 DAB2     		uxtb	r2, r3
 3483 0034 034B     		ldr	r3, .L164
 3484 0036 1A70     		strb	r2, [r3]
 3485              	.L161:
 779:led_manager.c **** }
 3486              		.loc 1 779 0
 3487 0038 1437     		adds	r7, r7, #20
 3488              		.cfi_def_cfa_offset 4
 3489 003a BD46     		mov	sp, r7
 3490              		.cfi_def_cfa_register 13
 3491              		@ sp needed
 3492 003c 5DF8047B 		ldr	r7, [sp], #4
 3493              		.cfi_restore 7
 3494              		.cfi_def_cfa_offset 0
 3495 0040 7047     		bx	lr
 3496              	.L165:
 3497 0042 00BF     		.align	2
 3498              	.L164:
 3499 0044 00000000 		.word	byte08
 3500              		.cfi_endproc
 3501              	.LFE89:
 3502              		.size	d7_write, .-d7_write
 3503              		.section	.text.d8_write,"ax",%progbits
 3504              		.align	2
 3505              		.global	d8_write
 3506              		.thumb
 3507              		.thumb_func
 3508              		.type	d8_write, %function
 3509              	d8_write:
 3510              	.LFB90:
 780:led_manager.c **** void d8_write(int bool) {
 3511              		.loc 1 780 0
 3512              		.cfi_startproc
ARM GAS  D:\Windows\AppData\Local\Temp\ccYfDzHQ.s 			page 77


 3513              		@ args = 0, pretend = 0, frame = 16
 3514              		@ frame_needed = 1, uses_anonymous_args = 0
 3515              		@ link register save eliminated.
 3516 0000 80B4     		push	{r7}
 3517              		.cfi_def_cfa_offset 4
 3518              		.cfi_offset 7, -4
 3519 0002 85B0     		sub	sp, sp, #20
 3520              		.cfi_def_cfa_offset 24
 3521 0004 00AF     		add	r7, sp, #0
 3522              		.cfi_def_cfa_register 7
 3523 0006 7860     		str	r0, [r7, #4]
 781:led_manager.c **** 	uint8_t bit = 0x10;
 3524              		.loc 1 781 0
 3525 0008 1023     		movs	r3, #16
 3526 000a FB73     		strb	r3, [r7, #15]
 782:led_manager.c **** 	if(bool == 1) 	//led on
 3527              		.loc 1 782 0
 3528 000c 7B68     		ldr	r3, [r7, #4]
 3529 000e 012B     		cmp	r3, #1
 3530 0010 07D1     		bne	.L167
 783:led_manager.c **** 		byte08 = byte08 | bit;
 3531              		.loc 1 783 0
 3532 0012 0C4B     		ldr	r3, .L169
 3533 0014 1A78     		ldrb	r2, [r3]	@ zero_extendqisi2
 3534 0016 FB7B     		ldrb	r3, [r7, #15]
 3535 0018 1343     		orrs	r3, r3, r2
 3536 001a DAB2     		uxtb	r2, r3
 3537 001c 094B     		ldr	r3, .L169
 3538 001e 1A70     		strb	r2, [r3]
 3539 0020 0AE0     		b	.L166
 3540              	.L167:
 784:led_manager.c **** 	else			//led off
 785:led_manager.c **** 		byte08 = byte08 & ~bit;
 3541              		.loc 1 785 0
 3542 0022 FB7B     		ldrb	r3, [r7, #15]	@ zero_extendqisi2
 3543 0024 DB43     		mvns	r3, r3
 3544 0026 DAB2     		uxtb	r2, r3
 3545 0028 064B     		ldr	r3, .L169
 3546 002a 1B78     		ldrb	r3, [r3]	@ zero_extendqisi2
 3547 002c DBB2     		uxtb	r3, r3
 3548 002e 1340     		ands	r3, r3, r2
 3549 0030 DBB2     		uxtb	r3, r3
 3550 0032 DAB2     		uxtb	r2, r3
 3551 0034 034B     		ldr	r3, .L169
 3552 0036 1A70     		strb	r2, [r3]
 3553              	.L166:
 786:led_manager.c **** }
 3554              		.loc 1 786 0
 3555 0038 1437     		adds	r7, r7, #20
 3556              		.cfi_def_cfa_offset 4
 3557 003a BD46     		mov	sp, r7
 3558              		.cfi_def_cfa_register 13
 3559              		@ sp needed
 3560 003c 5DF8047B 		ldr	r7, [sp], #4
 3561              		.cfi_restore 7
 3562              		.cfi_def_cfa_offset 0
 3563 0040 7047     		bx	lr
ARM GAS  D:\Windows\AppData\Local\Temp\ccYfDzHQ.s 			page 78


 3564              	.L170:
 3565 0042 00BF     		.align	2
 3566              	.L169:
 3567 0044 00000000 		.word	byte08
 3568              		.cfi_endproc
 3569              	.LFE90:
 3570              		.size	d8_write, .-d8_write
 3571              		.section	.text.d9_write,"ax",%progbits
 3572              		.align	2
 3573              		.global	d9_write
 3574              		.thumb
 3575              		.thumb_func
 3576              		.type	d9_write, %function
 3577              	d9_write:
 3578              	.LFB91:
 787:led_manager.c **** void d9_write(int bool) {
 3579              		.loc 1 787 0
 3580              		.cfi_startproc
 3581              		@ args = 0, pretend = 0, frame = 16
 3582              		@ frame_needed = 1, uses_anonymous_args = 0
 3583              		@ link register save eliminated.
 3584 0000 80B4     		push	{r7}
 3585              		.cfi_def_cfa_offset 4
 3586              		.cfi_offset 7, -4
 3587 0002 85B0     		sub	sp, sp, #20
 3588              		.cfi_def_cfa_offset 24
 3589 0004 00AF     		add	r7, sp, #0
 3590              		.cfi_def_cfa_register 7
 3591 0006 7860     		str	r0, [r7, #4]
 788:led_manager.c **** 	uint8_t bit = 0x02;
 3592              		.loc 1 788 0
 3593 0008 0223     		movs	r3, #2
 3594 000a FB73     		strb	r3, [r7, #15]
 789:led_manager.c **** 	if(bool == 1) 	//led on
 3595              		.loc 1 789 0
 3596 000c 7B68     		ldr	r3, [r7, #4]
 3597 000e 012B     		cmp	r3, #1
 3598 0010 07D1     		bne	.L172
 790:led_manager.c **** 		byte05 = byte05 | bit;
 3599              		.loc 1 790 0
 3600 0012 0C4B     		ldr	r3, .L174
 3601 0014 1A78     		ldrb	r2, [r3]	@ zero_extendqisi2
 3602 0016 FB7B     		ldrb	r3, [r7, #15]
 3603 0018 1343     		orrs	r3, r3, r2
 3604 001a DAB2     		uxtb	r2, r3
 3605 001c 094B     		ldr	r3, .L174
 3606 001e 1A70     		strb	r2, [r3]
 3607 0020 0AE0     		b	.L171
 3608              	.L172:
 791:led_manager.c **** 	else			//led off
 792:led_manager.c **** 		byte05 = byte05 & ~bit;
 3609              		.loc 1 792 0
 3610 0022 FB7B     		ldrb	r3, [r7, #15]	@ zero_extendqisi2
 3611 0024 DB43     		mvns	r3, r3
 3612 0026 DAB2     		uxtb	r2, r3
 3613 0028 064B     		ldr	r3, .L174
 3614 002a 1B78     		ldrb	r3, [r3]	@ zero_extendqisi2
ARM GAS  D:\Windows\AppData\Local\Temp\ccYfDzHQ.s 			page 79


 3615 002c DBB2     		uxtb	r3, r3
 3616 002e 1340     		ands	r3, r3, r2
 3617 0030 DBB2     		uxtb	r3, r3
 3618 0032 DAB2     		uxtb	r2, r3
 3619 0034 034B     		ldr	r3, .L174
 3620 0036 1A70     		strb	r2, [r3]
 3621              	.L171:
 793:led_manager.c **** }
 3622              		.loc 1 793 0
 3623 0038 1437     		adds	r7, r7, #20
 3624              		.cfi_def_cfa_offset 4
 3625 003a BD46     		mov	sp, r7
 3626              		.cfi_def_cfa_register 13
 3627              		@ sp needed
 3628 003c 5DF8047B 		ldr	r7, [sp], #4
 3629              		.cfi_restore 7
 3630              		.cfi_def_cfa_offset 0
 3631 0040 7047     		bx	lr
 3632              	.L175:
 3633 0042 00BF     		.align	2
 3634              	.L174:
 3635 0044 00000000 		.word	byte05
 3636              		.cfi_endproc
 3637              	.LFE91:
 3638              		.size	d9_write, .-d9_write
 3639              		.section	.text.d10_write,"ax",%progbits
 3640              		.align	2
 3641              		.global	d10_write
 3642              		.thumb
 3643              		.thumb_func
 3644              		.type	d10_write, %function
 3645              	d10_write:
 3646              	.LFB92:
 794:led_manager.c **** void d10_write(int bool) {
 3647              		.loc 1 794 0
 3648              		.cfi_startproc
 3649              		@ args = 0, pretend = 0, frame = 16
 3650              		@ frame_needed = 1, uses_anonymous_args = 0
 3651              		@ link register save eliminated.
 3652 0000 80B4     		push	{r7}
 3653              		.cfi_def_cfa_offset 4
 3654              		.cfi_offset 7, -4
 3655 0002 85B0     		sub	sp, sp, #20
 3656              		.cfi_def_cfa_offset 24
 3657 0004 00AF     		add	r7, sp, #0
 3658              		.cfi_def_cfa_register 7
 3659 0006 7860     		str	r0, [r7, #4]
 795:led_manager.c **** 	uint8_t bit = 0x20;
 3660              		.loc 1 795 0
 3661 0008 2023     		movs	r3, #32
 3662 000a FB73     		strb	r3, [r7, #15]
 796:led_manager.c **** 	if(bool == 1) 	//led on
 3663              		.loc 1 796 0
 3664 000c 7B68     		ldr	r3, [r7, #4]
 3665 000e 012B     		cmp	r3, #1
 3666 0010 07D1     		bne	.L177
 797:led_manager.c **** 		byte05 = byte05 | bit;
ARM GAS  D:\Windows\AppData\Local\Temp\ccYfDzHQ.s 			page 80


 3667              		.loc 1 797 0
 3668 0012 0C4B     		ldr	r3, .L179
 3669 0014 1A78     		ldrb	r2, [r3]	@ zero_extendqisi2
 3670 0016 FB7B     		ldrb	r3, [r7, #15]
 3671 0018 1343     		orrs	r3, r3, r2
 3672 001a DAB2     		uxtb	r2, r3
 3673 001c 094B     		ldr	r3, .L179
 3674 001e 1A70     		strb	r2, [r3]
 3675 0020 0AE0     		b	.L176
 3676              	.L177:
 798:led_manager.c **** 	else			//led off
 799:led_manager.c **** 		byte05 = byte05 & ~bit;
 3677              		.loc 1 799 0
 3678 0022 FB7B     		ldrb	r3, [r7, #15]	@ zero_extendqisi2
 3679 0024 DB43     		mvns	r3, r3
 3680 0026 DAB2     		uxtb	r2, r3
 3681 0028 064B     		ldr	r3, .L179
 3682 002a 1B78     		ldrb	r3, [r3]	@ zero_extendqisi2
 3683 002c DBB2     		uxtb	r3, r3
 3684 002e 1340     		ands	r3, r3, r2
 3685 0030 DBB2     		uxtb	r3, r3
 3686 0032 DAB2     		uxtb	r2, r3
 3687 0034 034B     		ldr	r3, .L179
 3688 0036 1A70     		strb	r2, [r3]
 3689              	.L176:
 800:led_manager.c **** }
 3690              		.loc 1 800 0
 3691 0038 1437     		adds	r7, r7, #20
 3692              		.cfi_def_cfa_offset 4
 3693 003a BD46     		mov	sp, r7
 3694              		.cfi_def_cfa_register 13
 3695              		@ sp needed
 3696 003c 5DF8047B 		ldr	r7, [sp], #4
 3697              		.cfi_restore 7
 3698              		.cfi_def_cfa_offset 0
 3699 0040 7047     		bx	lr
 3700              	.L180:
 3701 0042 00BF     		.align	2
 3702              	.L179:
 3703 0044 00000000 		.word	byte05
 3704              		.cfi_endproc
 3705              	.LFE92:
 3706              		.size	d10_write, .-d10_write
 3707              		.section	.text.d11_write,"ax",%progbits
 3708              		.align	2
 3709              		.global	d11_write
 3710              		.thumb
 3711              		.thumb_func
 3712              		.type	d11_write, %function
 3713              	d11_write:
 3714              	.LFB93:
 801:led_manager.c **** void d11_write(int bool) {
 3715              		.loc 1 801 0
 3716              		.cfi_startproc
 3717              		@ args = 0, pretend = 0, frame = 16
 3718              		@ frame_needed = 1, uses_anonymous_args = 0
 3719              		@ link register save eliminated.
ARM GAS  D:\Windows\AppData\Local\Temp\ccYfDzHQ.s 			page 81


 3720 0000 80B4     		push	{r7}
 3721              		.cfi_def_cfa_offset 4
 3722              		.cfi_offset 7, -4
 3723 0002 85B0     		sub	sp, sp, #20
 3724              		.cfi_def_cfa_offset 24
 3725 0004 00AF     		add	r7, sp, #0
 3726              		.cfi_def_cfa_register 7
 3727 0006 7860     		str	r0, [r7, #4]
 802:led_manager.c **** 	uint8_t bit = 0x02;
 3728              		.loc 1 802 0
 3729 0008 0223     		movs	r3, #2
 3730 000a FB73     		strb	r3, [r7, #15]
 803:led_manager.c **** 	if(bool == 1) 	//led on
 3731              		.loc 1 803 0
 3732 000c 7B68     		ldr	r3, [r7, #4]
 3733 000e 012B     		cmp	r3, #1
 3734 0010 07D1     		bne	.L182
 804:led_manager.c **** 		byte06 = byte06 | bit;
 3735              		.loc 1 804 0
 3736 0012 0C4B     		ldr	r3, .L184
 3737 0014 1A78     		ldrb	r2, [r3]	@ zero_extendqisi2
 3738 0016 FB7B     		ldrb	r3, [r7, #15]
 3739 0018 1343     		orrs	r3, r3, r2
 3740 001a DAB2     		uxtb	r2, r3
 3741 001c 094B     		ldr	r3, .L184
 3742 001e 1A70     		strb	r2, [r3]
 3743 0020 0AE0     		b	.L181
 3744              	.L182:
 805:led_manager.c **** 	else			//led off
 806:led_manager.c **** 		byte06 = byte06 & ~bit;
 3745              		.loc 1 806 0
 3746 0022 FB7B     		ldrb	r3, [r7, #15]	@ zero_extendqisi2
 3747 0024 DB43     		mvns	r3, r3
 3748 0026 DAB2     		uxtb	r2, r3
 3749 0028 064B     		ldr	r3, .L184
 3750 002a 1B78     		ldrb	r3, [r3]	@ zero_extendqisi2
 3751 002c DBB2     		uxtb	r3, r3
 3752 002e 1340     		ands	r3, r3, r2
 3753 0030 DBB2     		uxtb	r3, r3
 3754 0032 DAB2     		uxtb	r2, r3
 3755 0034 034B     		ldr	r3, .L184
 3756 0036 1A70     		strb	r2, [r3]
 3757              	.L181:
 807:led_manager.c **** }
 3758              		.loc 1 807 0
 3759 0038 1437     		adds	r7, r7, #20
 3760              		.cfi_def_cfa_offset 4
 3761 003a BD46     		mov	sp, r7
 3762              		.cfi_def_cfa_register 13
 3763              		@ sp needed
 3764 003c 5DF8047B 		ldr	r7, [sp], #4
 3765              		.cfi_restore 7
 3766              		.cfi_def_cfa_offset 0
 3767 0040 7047     		bx	lr
 3768              	.L185:
 3769 0042 00BF     		.align	2
 3770              	.L184:
ARM GAS  D:\Windows\AppData\Local\Temp\ccYfDzHQ.s 			page 82


 3771 0044 00000000 		.word	byte06
 3772              		.cfi_endproc
 3773              	.LFE93:
 3774              		.size	d11_write, .-d11_write
 3775              		.section	.text.d12_write,"ax",%progbits
 3776              		.align	2
 3777              		.global	d12_write
 3778              		.thumb
 3779              		.thumb_func
 3780              		.type	d12_write, %function
 3781              	d12_write:
 3782              	.LFB94:
 808:led_manager.c **** void d12_write(int bool) {
 3783              		.loc 1 808 0
 3784              		.cfi_startproc
 3785              		@ args = 0, pretend = 0, frame = 16
 3786              		@ frame_needed = 1, uses_anonymous_args = 0
 3787              		@ link register save eliminated.
 3788 0000 80B4     		push	{r7}
 3789              		.cfi_def_cfa_offset 4
 3790              		.cfi_offset 7, -4
 3791 0002 85B0     		sub	sp, sp, #20
 3792              		.cfi_def_cfa_offset 24
 3793 0004 00AF     		add	r7, sp, #0
 3794              		.cfi_def_cfa_register 7
 3795 0006 7860     		str	r0, [r7, #4]
 809:led_manager.c **** 	uint8_t bit = 0x20;
 3796              		.loc 1 809 0
 3797 0008 2023     		movs	r3, #32
 3798 000a FB73     		strb	r3, [r7, #15]
 810:led_manager.c **** 	if(bool == 1) 	//led on
 3799              		.loc 1 810 0
 3800 000c 7B68     		ldr	r3, [r7, #4]
 3801 000e 012B     		cmp	r3, #1
 3802 0010 07D1     		bne	.L187
 811:led_manager.c **** 		byte06 = byte06 | bit;
 3803              		.loc 1 811 0
 3804 0012 0C4B     		ldr	r3, .L189
 3805 0014 1A78     		ldrb	r2, [r3]	@ zero_extendqisi2
 3806 0016 FB7B     		ldrb	r3, [r7, #15]
 3807 0018 1343     		orrs	r3, r3, r2
 3808 001a DAB2     		uxtb	r2, r3
 3809 001c 094B     		ldr	r3, .L189
 3810 001e 1A70     		strb	r2, [r3]
 3811 0020 0AE0     		b	.L186
 3812              	.L187:
 812:led_manager.c **** 	else			//led off
 813:led_manager.c **** 		byte06 = byte06 & ~bit;
 3813              		.loc 1 813 0
 3814 0022 FB7B     		ldrb	r3, [r7, #15]	@ zero_extendqisi2
 3815 0024 DB43     		mvns	r3, r3
 3816 0026 DAB2     		uxtb	r2, r3
 3817 0028 064B     		ldr	r3, .L189
 3818 002a 1B78     		ldrb	r3, [r3]	@ zero_extendqisi2
 3819 002c DBB2     		uxtb	r3, r3
 3820 002e 1340     		ands	r3, r3, r2
 3821 0030 DBB2     		uxtb	r3, r3
ARM GAS  D:\Windows\AppData\Local\Temp\ccYfDzHQ.s 			page 83


 3822 0032 DAB2     		uxtb	r2, r3
 3823 0034 034B     		ldr	r3, .L189
 3824 0036 1A70     		strb	r2, [r3]
 3825              	.L186:
 814:led_manager.c **** }
 3826              		.loc 1 814 0
 3827 0038 1437     		adds	r7, r7, #20
 3828              		.cfi_def_cfa_offset 4
 3829 003a BD46     		mov	sp, r7
 3830              		.cfi_def_cfa_register 13
 3831              		@ sp needed
 3832 003c 5DF8047B 		ldr	r7, [sp], #4
 3833              		.cfi_restore 7
 3834              		.cfi_def_cfa_offset 0
 3835 0040 7047     		bx	lr
 3836              	.L190:
 3837 0042 00BF     		.align	2
 3838              	.L189:
 3839 0044 00000000 		.word	byte06
 3840              		.cfi_endproc
 3841              	.LFE94:
 3842              		.size	d12_write, .-d12_write
 3843              		.section	.text.d13_write,"ax",%progbits
 3844              		.align	2
 3845              		.global	d13_write
 3846              		.thumb
 3847              		.thumb_func
 3848              		.type	d13_write, %function
 3849              	d13_write:
 3850              	.LFB95:
 815:led_manager.c **** void d13_write(int bool) {
 3851              		.loc 1 815 0
 3852              		.cfi_startproc
 3853              		@ args = 0, pretend = 0, frame = 16
 3854              		@ frame_needed = 1, uses_anonymous_args = 0
 3855              		@ link register save eliminated.
 3856 0000 80B4     		push	{r7}
 3857              		.cfi_def_cfa_offset 4
 3858              		.cfi_offset 7, -4
 3859 0002 85B0     		sub	sp, sp, #20
 3860              		.cfi_def_cfa_offset 24
 3861 0004 00AF     		add	r7, sp, #0
 3862              		.cfi_def_cfa_register 7
 3863 0006 7860     		str	r0, [r7, #4]
 816:led_manager.c **** 	uint8_t bit = 0x02;
 3864              		.loc 1 816 0
 3865 0008 0223     		movs	r3, #2
 3866 000a FB73     		strb	r3, [r7, #15]
 817:led_manager.c **** 	if(bool == 1) 	//led on
 3867              		.loc 1 817 0
 3868 000c 7B68     		ldr	r3, [r7, #4]
 3869 000e 012B     		cmp	r3, #1
 3870 0010 07D1     		bne	.L192
 818:led_manager.c **** 		byte07 = byte07 | bit;
 3871              		.loc 1 818 0
 3872 0012 0C4B     		ldr	r3, .L194
 3873 0014 1A78     		ldrb	r2, [r3]	@ zero_extendqisi2
ARM GAS  D:\Windows\AppData\Local\Temp\ccYfDzHQ.s 			page 84


 3874 0016 FB7B     		ldrb	r3, [r7, #15]
 3875 0018 1343     		orrs	r3, r3, r2
 3876 001a DAB2     		uxtb	r2, r3
 3877 001c 094B     		ldr	r3, .L194
 3878 001e 1A70     		strb	r2, [r3]
 3879 0020 0AE0     		b	.L191
 3880              	.L192:
 819:led_manager.c **** 	else			//led off
 820:led_manager.c **** 		byte07 = byte07 & ~bit;
 3881              		.loc 1 820 0
 3882 0022 FB7B     		ldrb	r3, [r7, #15]	@ zero_extendqisi2
 3883 0024 DB43     		mvns	r3, r3
 3884 0026 DAB2     		uxtb	r2, r3
 3885 0028 064B     		ldr	r3, .L194
 3886 002a 1B78     		ldrb	r3, [r3]	@ zero_extendqisi2
 3887 002c DBB2     		uxtb	r3, r3
 3888 002e 1340     		ands	r3, r3, r2
 3889 0030 DBB2     		uxtb	r3, r3
 3890 0032 DAB2     		uxtb	r2, r3
 3891 0034 034B     		ldr	r3, .L194
 3892 0036 1A70     		strb	r2, [r3]
 3893              	.L191:
 821:led_manager.c **** }
 3894              		.loc 1 821 0
 3895 0038 1437     		adds	r7, r7, #20
 3896              		.cfi_def_cfa_offset 4
 3897 003a BD46     		mov	sp, r7
 3898              		.cfi_def_cfa_register 13
 3899              		@ sp needed
 3900 003c 5DF8047B 		ldr	r7, [sp], #4
 3901              		.cfi_restore 7
 3902              		.cfi_def_cfa_offset 0
 3903 0040 7047     		bx	lr
 3904              	.L195:
 3905 0042 00BF     		.align	2
 3906              	.L194:
 3907 0044 00000000 		.word	byte07
 3908              		.cfi_endproc
 3909              	.LFE95:
 3910              		.size	d13_write, .-d13_write
 3911              		.section	.text.d14_write,"ax",%progbits
 3912              		.align	2
 3913              		.global	d14_write
 3914              		.thumb
 3915              		.thumb_func
 3916              		.type	d14_write, %function
 3917              	d14_write:
 3918              	.LFB96:
 822:led_manager.c **** void d14_write(int bool) {
 3919              		.loc 1 822 0
 3920              		.cfi_startproc
 3921              		@ args = 0, pretend = 0, frame = 16
 3922              		@ frame_needed = 1, uses_anonymous_args = 0
 3923              		@ link register save eliminated.
 3924 0000 80B4     		push	{r7}
 3925              		.cfi_def_cfa_offset 4
 3926              		.cfi_offset 7, -4
ARM GAS  D:\Windows\AppData\Local\Temp\ccYfDzHQ.s 			page 85


 3927 0002 85B0     		sub	sp, sp, #20
 3928              		.cfi_def_cfa_offset 24
 3929 0004 00AF     		add	r7, sp, #0
 3930              		.cfi_def_cfa_register 7
 3931 0006 7860     		str	r0, [r7, #4]
 823:led_manager.c **** 	uint8_t bit = 0x20;
 3932              		.loc 1 823 0
 3933 0008 2023     		movs	r3, #32
 3934 000a FB73     		strb	r3, [r7, #15]
 824:led_manager.c **** 	if(bool == 1) 	//led on
 3935              		.loc 1 824 0
 3936 000c 7B68     		ldr	r3, [r7, #4]
 3937 000e 012B     		cmp	r3, #1
 3938 0010 07D1     		bne	.L197
 825:led_manager.c **** 		byte07 = byte07 | bit;
 3939              		.loc 1 825 0
 3940 0012 0C4B     		ldr	r3, .L199
 3941 0014 1A78     		ldrb	r2, [r3]	@ zero_extendqisi2
 3942 0016 FB7B     		ldrb	r3, [r7, #15]
 3943 0018 1343     		orrs	r3, r3, r2
 3944 001a DAB2     		uxtb	r2, r3
 3945 001c 094B     		ldr	r3, .L199
 3946 001e 1A70     		strb	r2, [r3]
 3947 0020 0AE0     		b	.L196
 3948              	.L197:
 826:led_manager.c **** 	else			//led off
 827:led_manager.c **** 		byte07 = byte07 & ~bit;
 3949              		.loc 1 827 0
 3950 0022 FB7B     		ldrb	r3, [r7, #15]	@ zero_extendqisi2
 3951 0024 DB43     		mvns	r3, r3
 3952 0026 DAB2     		uxtb	r2, r3
 3953 0028 064B     		ldr	r3, .L199
 3954 002a 1B78     		ldrb	r3, [r3]	@ zero_extendqisi2
 3955 002c DBB2     		uxtb	r3, r3
 3956 002e 1340     		ands	r3, r3, r2
 3957 0030 DBB2     		uxtb	r3, r3
 3958 0032 DAB2     		uxtb	r2, r3
 3959 0034 034B     		ldr	r3, .L199
 3960 0036 1A70     		strb	r2, [r3]
 3961              	.L196:
 828:led_manager.c **** }
 3962              		.loc 1 828 0
 3963 0038 1437     		adds	r7, r7, #20
 3964              		.cfi_def_cfa_offset 4
 3965 003a BD46     		mov	sp, r7
 3966              		.cfi_def_cfa_register 13
 3967              		@ sp needed
 3968 003c 5DF8047B 		ldr	r7, [sp], #4
 3969              		.cfi_restore 7
 3970              		.cfi_def_cfa_offset 0
 3971 0040 7047     		bx	lr
 3972              	.L200:
 3973 0042 00BF     		.align	2
 3974              	.L199:
 3975 0044 00000000 		.word	byte07
 3976              		.cfi_endproc
 3977              	.LFE96:
ARM GAS  D:\Windows\AppData\Local\Temp\ccYfDzHQ.s 			page 86


 3978              		.size	d14_write, .-d14_write
 3979              		.section	.text.d15_write,"ax",%progbits
 3980              		.align	2
 3981              		.global	d15_write
 3982              		.thumb
 3983              		.thumb_func
 3984              		.type	d15_write, %function
 3985              	d15_write:
 3986              	.LFB97:
 829:led_manager.c **** void d15_write(int bool) {
 3987              		.loc 1 829 0
 3988              		.cfi_startproc
 3989              		@ args = 0, pretend = 0, frame = 16
 3990              		@ frame_needed = 1, uses_anonymous_args = 0
 3991              		@ link register save eliminated.
 3992 0000 80B4     		push	{r7}
 3993              		.cfi_def_cfa_offset 4
 3994              		.cfi_offset 7, -4
 3995 0002 85B0     		sub	sp, sp, #20
 3996              		.cfi_def_cfa_offset 24
 3997 0004 00AF     		add	r7, sp, #0
 3998              		.cfi_def_cfa_register 7
 3999 0006 7860     		str	r0, [r7, #4]
 830:led_manager.c **** 	uint8_t bit = 0x02;
 4000              		.loc 1 830 0
 4001 0008 0223     		movs	r3, #2
 4002 000a FB73     		strb	r3, [r7, #15]
 831:led_manager.c **** 	if(bool == 1) 	//led on
 4003              		.loc 1 831 0
 4004 000c 7B68     		ldr	r3, [r7, #4]
 4005 000e 012B     		cmp	r3, #1
 4006 0010 07D1     		bne	.L202
 832:led_manager.c **** 		byte08 = byte08 | bit;
 4007              		.loc 1 832 0
 4008 0012 0C4B     		ldr	r3, .L204
 4009 0014 1A78     		ldrb	r2, [r3]	@ zero_extendqisi2
 4010 0016 FB7B     		ldrb	r3, [r7, #15]
 4011 0018 1343     		orrs	r3, r3, r2
 4012 001a DAB2     		uxtb	r2, r3
 4013 001c 094B     		ldr	r3, .L204
 4014 001e 1A70     		strb	r2, [r3]
 4015 0020 0AE0     		b	.L201
 4016              	.L202:
 833:led_manager.c **** 	else			//led off
 834:led_manager.c **** 		byte08 = byte08 & ~bit;
 4017              		.loc 1 834 0
 4018 0022 FB7B     		ldrb	r3, [r7, #15]	@ zero_extendqisi2
 4019 0024 DB43     		mvns	r3, r3
 4020 0026 DAB2     		uxtb	r2, r3
 4021 0028 064B     		ldr	r3, .L204
 4022 002a 1B78     		ldrb	r3, [r3]	@ zero_extendqisi2
 4023 002c DBB2     		uxtb	r3, r3
 4024 002e 1340     		ands	r3, r3, r2
 4025 0030 DBB2     		uxtb	r3, r3
 4026 0032 DAB2     		uxtb	r2, r3
 4027 0034 034B     		ldr	r3, .L204
 4028 0036 1A70     		strb	r2, [r3]
ARM GAS  D:\Windows\AppData\Local\Temp\ccYfDzHQ.s 			page 87


 4029              	.L201:
 835:led_manager.c **** }
 4030              		.loc 1 835 0
 4031 0038 1437     		adds	r7, r7, #20
 4032              		.cfi_def_cfa_offset 4
 4033 003a BD46     		mov	sp, r7
 4034              		.cfi_def_cfa_register 13
 4035              		@ sp needed
 4036 003c 5DF8047B 		ldr	r7, [sp], #4
 4037              		.cfi_restore 7
 4038              		.cfi_def_cfa_offset 0
 4039 0040 7047     		bx	lr
 4040              	.L205:
 4041 0042 00BF     		.align	2
 4042              	.L204:
 4043 0044 00000000 		.word	byte08
 4044              		.cfi_endproc
 4045              	.LFE97:
 4046              		.size	d15_write, .-d15_write
 4047              		.section	.text.d16_write,"ax",%progbits
 4048              		.align	2
 4049              		.global	d16_write
 4050              		.thumb
 4051              		.thumb_func
 4052              		.type	d16_write, %function
 4053              	d16_write:
 4054              	.LFB98:
 836:led_manager.c **** void d16_write(int bool) {
 4055              		.loc 1 836 0
 4056              		.cfi_startproc
 4057              		@ args = 0, pretend = 0, frame = 16
 4058              		@ frame_needed = 1, uses_anonymous_args = 0
 4059              		@ link register save eliminated.
 4060 0000 80B4     		push	{r7}
 4061              		.cfi_def_cfa_offset 4
 4062              		.cfi_offset 7, -4
 4063 0002 85B0     		sub	sp, sp, #20
 4064              		.cfi_def_cfa_offset 24
 4065 0004 00AF     		add	r7, sp, #0
 4066              		.cfi_def_cfa_register 7
 4067 0006 7860     		str	r0, [r7, #4]
 837:led_manager.c **** 	uint8_t bit = 0x20;
 4068              		.loc 1 837 0
 4069 0008 2023     		movs	r3, #32
 4070 000a FB73     		strb	r3, [r7, #15]
 838:led_manager.c **** 	if(bool == 1) 	//led on
 4071              		.loc 1 838 0
 4072 000c 7B68     		ldr	r3, [r7, #4]
 4073 000e 012B     		cmp	r3, #1
 4074 0010 07D1     		bne	.L207
 839:led_manager.c **** 		byte08 = byte08 | bit;
 4075              		.loc 1 839 0
 4076 0012 0C4B     		ldr	r3, .L209
 4077 0014 1A78     		ldrb	r2, [r3]	@ zero_extendqisi2
 4078 0016 FB7B     		ldrb	r3, [r7, #15]
 4079 0018 1343     		orrs	r3, r3, r2
 4080 001a DAB2     		uxtb	r2, r3
ARM GAS  D:\Windows\AppData\Local\Temp\ccYfDzHQ.s 			page 88


 4081 001c 094B     		ldr	r3, .L209
 4082 001e 1A70     		strb	r2, [r3]
 4083 0020 0AE0     		b	.L206
 4084              	.L207:
 840:led_manager.c **** 	else			//led off
 841:led_manager.c **** 		byte08 = byte08 & ~bit;
 4085              		.loc 1 841 0
 4086 0022 FB7B     		ldrb	r3, [r7, #15]	@ zero_extendqisi2
 4087 0024 DB43     		mvns	r3, r3
 4088 0026 DAB2     		uxtb	r2, r3
 4089 0028 064B     		ldr	r3, .L209
 4090 002a 1B78     		ldrb	r3, [r3]	@ zero_extendqisi2
 4091 002c DBB2     		uxtb	r3, r3
 4092 002e 1340     		ands	r3, r3, r2
 4093 0030 DBB2     		uxtb	r3, r3
 4094 0032 DAB2     		uxtb	r2, r3
 4095 0034 034B     		ldr	r3, .L209
 4096 0036 1A70     		strb	r2, [r3]
 4097              	.L206:
 842:led_manager.c **** }
 4098              		.loc 1 842 0
 4099 0038 1437     		adds	r7, r7, #20
 4100              		.cfi_def_cfa_offset 4
 4101 003a BD46     		mov	sp, r7
 4102              		.cfi_def_cfa_register 13
 4103              		@ sp needed
 4104 003c 5DF8047B 		ldr	r7, [sp], #4
 4105              		.cfi_restore 7
 4106              		.cfi_def_cfa_offset 0
 4107 0040 7047     		bx	lr
 4108              	.L210:
 4109 0042 00BF     		.align	2
 4110              	.L209:
 4111 0044 00000000 		.word	byte08
 4112              		.cfi_endproc
 4113              	.LFE98:
 4114              		.size	d16_write, .-d16_write
 4115              		.section	.text.d17_write,"ax",%progbits
 4116              		.align	2
 4117              		.global	d17_write
 4118              		.thumb
 4119              		.thumb_func
 4120              		.type	d17_write, %function
 4121              	d17_write:
 4122              	.LFB99:
 843:led_manager.c **** void d17_write(int bool) {
 4123              		.loc 1 843 0
 4124              		.cfi_startproc
 4125              		@ args = 0, pretend = 0, frame = 16
 4126              		@ frame_needed = 1, uses_anonymous_args = 0
 4127              		@ link register save eliminated.
 4128 0000 80B4     		push	{r7}
 4129              		.cfi_def_cfa_offset 4
 4130              		.cfi_offset 7, -4
 4131 0002 85B0     		sub	sp, sp, #20
 4132              		.cfi_def_cfa_offset 24
 4133 0004 00AF     		add	r7, sp, #0
ARM GAS  D:\Windows\AppData\Local\Temp\ccYfDzHQ.s 			page 89


 4134              		.cfi_def_cfa_register 7
 4135 0006 7860     		str	r0, [r7, #4]
 844:led_manager.c **** 	uint8_t bit = 0x04;
 4136              		.loc 1 844 0
 4137 0008 0423     		movs	r3, #4
 4138 000a FB73     		strb	r3, [r7, #15]
 845:led_manager.c **** 	if(bool == 1) 	//led on
 4139              		.loc 1 845 0
 4140 000c 7B68     		ldr	r3, [r7, #4]
 4141 000e 012B     		cmp	r3, #1
 4142 0010 07D1     		bne	.L212
 846:led_manager.c **** 		byte05 = byte05 | bit;
 4143              		.loc 1 846 0
 4144 0012 0C4B     		ldr	r3, .L214
 4145 0014 1A78     		ldrb	r2, [r3]	@ zero_extendqisi2
 4146 0016 FB7B     		ldrb	r3, [r7, #15]
 4147 0018 1343     		orrs	r3, r3, r2
 4148 001a DAB2     		uxtb	r2, r3
 4149 001c 094B     		ldr	r3, .L214
 4150 001e 1A70     		strb	r2, [r3]
 4151 0020 0AE0     		b	.L211
 4152              	.L212:
 847:led_manager.c **** 	else			//led off
 848:led_manager.c **** 		byte05 = byte05 & ~bit;
 4153              		.loc 1 848 0
 4154 0022 FB7B     		ldrb	r3, [r7, #15]	@ zero_extendqisi2
 4155 0024 DB43     		mvns	r3, r3
 4156 0026 DAB2     		uxtb	r2, r3
 4157 0028 064B     		ldr	r3, .L214
 4158 002a 1B78     		ldrb	r3, [r3]	@ zero_extendqisi2
 4159 002c DBB2     		uxtb	r3, r3
 4160 002e 1340     		ands	r3, r3, r2
 4161 0030 DBB2     		uxtb	r3, r3
 4162 0032 DAB2     		uxtb	r2, r3
 4163 0034 034B     		ldr	r3, .L214
 4164 0036 1A70     		strb	r2, [r3]
 4165              	.L211:
 849:led_manager.c **** }
 4166              		.loc 1 849 0
 4167 0038 1437     		adds	r7, r7, #20
 4168              		.cfi_def_cfa_offset 4
 4169 003a BD46     		mov	sp, r7
 4170              		.cfi_def_cfa_register 13
 4171              		@ sp needed
 4172 003c 5DF8047B 		ldr	r7, [sp], #4
 4173              		.cfi_restore 7
 4174              		.cfi_def_cfa_offset 0
 4175 0040 7047     		bx	lr
 4176              	.L215:
 4177 0042 00BF     		.align	2
 4178              	.L214:
 4179 0044 00000000 		.word	byte05
 4180              		.cfi_endproc
 4181              	.LFE99:
 4182              		.size	d17_write, .-d17_write
 4183              		.section	.text.d18_write,"ax",%progbits
 4184              		.align	2
ARM GAS  D:\Windows\AppData\Local\Temp\ccYfDzHQ.s 			page 90


 4185              		.global	d18_write
 4186              		.thumb
 4187              		.thumb_func
 4188              		.type	d18_write, %function
 4189              	d18_write:
 4190              	.LFB100:
 850:led_manager.c **** void d18_write(int bool) {
 4191              		.loc 1 850 0
 4192              		.cfi_startproc
 4193              		@ args = 0, pretend = 0, frame = 16
 4194              		@ frame_needed = 1, uses_anonymous_args = 0
 4195              		@ link register save eliminated.
 4196 0000 80B4     		push	{r7}
 4197              		.cfi_def_cfa_offset 4
 4198              		.cfi_offset 7, -4
 4199 0002 85B0     		sub	sp, sp, #20
 4200              		.cfi_def_cfa_offset 24
 4201 0004 00AF     		add	r7, sp, #0
 4202              		.cfi_def_cfa_register 7
 4203 0006 7860     		str	r0, [r7, #4]
 851:led_manager.c **** 	uint8_t bit = 0x40;
 4204              		.loc 1 851 0
 4205 0008 4023     		movs	r3, #64
 4206 000a FB73     		strb	r3, [r7, #15]
 852:led_manager.c **** 	if(bool == 1) 	//led on
 4207              		.loc 1 852 0
 4208 000c 7B68     		ldr	r3, [r7, #4]
 4209 000e 012B     		cmp	r3, #1
 4210 0010 07D1     		bne	.L217
 853:led_manager.c **** 		byte05 = byte05 | bit;
 4211              		.loc 1 853 0
 4212 0012 0C4B     		ldr	r3, .L219
 4213 0014 1A78     		ldrb	r2, [r3]	@ zero_extendqisi2
 4214 0016 FB7B     		ldrb	r3, [r7, #15]
 4215 0018 1343     		orrs	r3, r3, r2
 4216 001a DAB2     		uxtb	r2, r3
 4217 001c 094B     		ldr	r3, .L219
 4218 001e 1A70     		strb	r2, [r3]
 4219 0020 0AE0     		b	.L216
 4220              	.L217:
 854:led_manager.c **** 	else			//led off
 855:led_manager.c **** 		byte05 = byte05 & ~bit;
 4221              		.loc 1 855 0
 4222 0022 FB7B     		ldrb	r3, [r7, #15]	@ zero_extendqisi2
 4223 0024 DB43     		mvns	r3, r3
 4224 0026 DAB2     		uxtb	r2, r3
 4225 0028 064B     		ldr	r3, .L219
 4226 002a 1B78     		ldrb	r3, [r3]	@ zero_extendqisi2
 4227 002c DBB2     		uxtb	r3, r3
 4228 002e 1340     		ands	r3, r3, r2
 4229 0030 DBB2     		uxtb	r3, r3
 4230 0032 DAB2     		uxtb	r2, r3
 4231 0034 034B     		ldr	r3, .L219
 4232 0036 1A70     		strb	r2, [r3]
 4233              	.L216:
 856:led_manager.c **** }
 4234              		.loc 1 856 0
ARM GAS  D:\Windows\AppData\Local\Temp\ccYfDzHQ.s 			page 91


 4235 0038 1437     		adds	r7, r7, #20
 4236              		.cfi_def_cfa_offset 4
 4237 003a BD46     		mov	sp, r7
 4238              		.cfi_def_cfa_register 13
 4239              		@ sp needed
 4240 003c 5DF8047B 		ldr	r7, [sp], #4
 4241              		.cfi_restore 7
 4242              		.cfi_def_cfa_offset 0
 4243 0040 7047     		bx	lr
 4244              	.L220:
 4245 0042 00BF     		.align	2
 4246              	.L219:
 4247 0044 00000000 		.word	byte05
 4248              		.cfi_endproc
 4249              	.LFE100:
 4250              		.size	d18_write, .-d18_write
 4251              		.section	.text.d19_write,"ax",%progbits
 4252              		.align	2
 4253              		.global	d19_write
 4254              		.thumb
 4255              		.thumb_func
 4256              		.type	d19_write, %function
 4257              	d19_write:
 4258              	.LFB101:
 857:led_manager.c **** void d19_write(int bool) {
 4259              		.loc 1 857 0
 4260              		.cfi_startproc
 4261              		@ args = 0, pretend = 0, frame = 16
 4262              		@ frame_needed = 1, uses_anonymous_args = 0
 4263              		@ link register save eliminated.
 4264 0000 80B4     		push	{r7}
 4265              		.cfi_def_cfa_offset 4
 4266              		.cfi_offset 7, -4
 4267 0002 85B0     		sub	sp, sp, #20
 4268              		.cfi_def_cfa_offset 24
 4269 0004 00AF     		add	r7, sp, #0
 4270              		.cfi_def_cfa_register 7
 4271 0006 7860     		str	r0, [r7, #4]
 858:led_manager.c **** 	uint8_t bit = 0x04;
 4272              		.loc 1 858 0
 4273 0008 0423     		movs	r3, #4
 4274 000a FB73     		strb	r3, [r7, #15]
 859:led_manager.c **** 	if(bool == 1) 	//led on
 4275              		.loc 1 859 0
 4276 000c 7B68     		ldr	r3, [r7, #4]
 4277 000e 012B     		cmp	r3, #1
 4278 0010 07D1     		bne	.L222
 860:led_manager.c **** 		byte06 = byte06 | bit;
 4279              		.loc 1 860 0
 4280 0012 0C4B     		ldr	r3, .L224
 4281 0014 1A78     		ldrb	r2, [r3]	@ zero_extendqisi2
 4282 0016 FB7B     		ldrb	r3, [r7, #15]
 4283 0018 1343     		orrs	r3, r3, r2
 4284 001a DAB2     		uxtb	r2, r3
 4285 001c 094B     		ldr	r3, .L224
 4286 001e 1A70     		strb	r2, [r3]
 4287 0020 0AE0     		b	.L221
ARM GAS  D:\Windows\AppData\Local\Temp\ccYfDzHQ.s 			page 92


 4288              	.L222:
 861:led_manager.c **** 	else			//led off
 862:led_manager.c **** 		byte06 = byte06 & ~bit;
 4289              		.loc 1 862 0
 4290 0022 FB7B     		ldrb	r3, [r7, #15]	@ zero_extendqisi2
 4291 0024 DB43     		mvns	r3, r3
 4292 0026 DAB2     		uxtb	r2, r3
 4293 0028 064B     		ldr	r3, .L224
 4294 002a 1B78     		ldrb	r3, [r3]	@ zero_extendqisi2
 4295 002c DBB2     		uxtb	r3, r3
 4296 002e 1340     		ands	r3, r3, r2
 4297 0030 DBB2     		uxtb	r3, r3
 4298 0032 DAB2     		uxtb	r2, r3
 4299 0034 034B     		ldr	r3, .L224
 4300 0036 1A70     		strb	r2, [r3]
 4301              	.L221:
 863:led_manager.c **** }
 4302              		.loc 1 863 0
 4303 0038 1437     		adds	r7, r7, #20
 4304              		.cfi_def_cfa_offset 4
 4305 003a BD46     		mov	sp, r7
 4306              		.cfi_def_cfa_register 13
 4307              		@ sp needed
 4308 003c 5DF8047B 		ldr	r7, [sp], #4
 4309              		.cfi_restore 7
 4310              		.cfi_def_cfa_offset 0
 4311 0040 7047     		bx	lr
 4312              	.L225:
 4313 0042 00BF     		.align	2
 4314              	.L224:
 4315 0044 00000000 		.word	byte06
 4316              		.cfi_endproc
 4317              	.LFE101:
 4318              		.size	d19_write, .-d19_write
 4319              		.section	.text.d20_write,"ax",%progbits
 4320              		.align	2
 4321              		.global	d20_write
 4322              		.thumb
 4323              		.thumb_func
 4324              		.type	d20_write, %function
 4325              	d20_write:
 4326              	.LFB102:
 864:led_manager.c **** void d20_write(int bool) {
 4327              		.loc 1 864 0
 4328              		.cfi_startproc
 4329              		@ args = 0, pretend = 0, frame = 16
 4330              		@ frame_needed = 1, uses_anonymous_args = 0
 4331              		@ link register save eliminated.
 4332 0000 80B4     		push	{r7}
 4333              		.cfi_def_cfa_offset 4
 4334              		.cfi_offset 7, -4
 4335 0002 85B0     		sub	sp, sp, #20
 4336              		.cfi_def_cfa_offset 24
 4337 0004 00AF     		add	r7, sp, #0
 4338              		.cfi_def_cfa_register 7
 4339 0006 7860     		str	r0, [r7, #4]
 865:led_manager.c **** 	uint8_t bit = 0x40;
ARM GAS  D:\Windows\AppData\Local\Temp\ccYfDzHQ.s 			page 93


 4340              		.loc 1 865 0
 4341 0008 4023     		movs	r3, #64
 4342 000a FB73     		strb	r3, [r7, #15]
 866:led_manager.c **** 	if(bool == 1) 	//led on
 4343              		.loc 1 866 0
 4344 000c 7B68     		ldr	r3, [r7, #4]
 4345 000e 012B     		cmp	r3, #1
 4346 0010 07D1     		bne	.L227
 867:led_manager.c **** 		byte06 = byte06 | bit;
 4347              		.loc 1 867 0
 4348 0012 0C4B     		ldr	r3, .L229
 4349 0014 1A78     		ldrb	r2, [r3]	@ zero_extendqisi2
 4350 0016 FB7B     		ldrb	r3, [r7, #15]
 4351 0018 1343     		orrs	r3, r3, r2
 4352 001a DAB2     		uxtb	r2, r3
 4353 001c 094B     		ldr	r3, .L229
 4354 001e 1A70     		strb	r2, [r3]
 4355 0020 0AE0     		b	.L226
 4356              	.L227:
 868:led_manager.c **** 	else			//led off
 869:led_manager.c **** 		byte06 = byte06 & ~bit;
 4357              		.loc 1 869 0
 4358 0022 FB7B     		ldrb	r3, [r7, #15]	@ zero_extendqisi2
 4359 0024 DB43     		mvns	r3, r3
 4360 0026 DAB2     		uxtb	r2, r3
 4361 0028 064B     		ldr	r3, .L229
 4362 002a 1B78     		ldrb	r3, [r3]	@ zero_extendqisi2
 4363 002c DBB2     		uxtb	r3, r3
 4364 002e 1340     		ands	r3, r3, r2
 4365 0030 DBB2     		uxtb	r3, r3
 4366 0032 DAB2     		uxtb	r2, r3
 4367 0034 034B     		ldr	r3, .L229
 4368 0036 1A70     		strb	r2, [r3]
 4369              	.L226:
 870:led_manager.c **** }
 4370              		.loc 1 870 0
 4371 0038 1437     		adds	r7, r7, #20
 4372              		.cfi_def_cfa_offset 4
 4373 003a BD46     		mov	sp, r7
 4374              		.cfi_def_cfa_register 13
 4375              		@ sp needed
 4376 003c 5DF8047B 		ldr	r7, [sp], #4
 4377              		.cfi_restore 7
 4378              		.cfi_def_cfa_offset 0
 4379 0040 7047     		bx	lr
 4380              	.L230:
 4381 0042 00BF     		.align	2
 4382              	.L229:
 4383 0044 00000000 		.word	byte06
 4384              		.cfi_endproc
 4385              	.LFE102:
 4386              		.size	d20_write, .-d20_write
 4387              		.section	.text.d21_write,"ax",%progbits
 4388              		.align	2
 4389              		.global	d21_write
 4390              		.thumb
 4391              		.thumb_func
ARM GAS  D:\Windows\AppData\Local\Temp\ccYfDzHQ.s 			page 94


 4392              		.type	d21_write, %function
 4393              	d21_write:
 4394              	.LFB103:
 871:led_manager.c **** void d21_write(int bool) {
 4395              		.loc 1 871 0
 4396              		.cfi_startproc
 4397              		@ args = 0, pretend = 0, frame = 16
 4398              		@ frame_needed = 1, uses_anonymous_args = 0
 4399              		@ link register save eliminated.
 4400 0000 80B4     		push	{r7}
 4401              		.cfi_def_cfa_offset 4
 4402              		.cfi_offset 7, -4
 4403 0002 85B0     		sub	sp, sp, #20
 4404              		.cfi_def_cfa_offset 24
 4405 0004 00AF     		add	r7, sp, #0
 4406              		.cfi_def_cfa_register 7
 4407 0006 7860     		str	r0, [r7, #4]
 872:led_manager.c **** 	uint8_t bit = 0x04;
 4408              		.loc 1 872 0
 4409 0008 0423     		movs	r3, #4
 4410 000a FB73     		strb	r3, [r7, #15]
 873:led_manager.c **** 	if(bool == 1) 	//led on
 4411              		.loc 1 873 0
 4412 000c 7B68     		ldr	r3, [r7, #4]
 4413 000e 012B     		cmp	r3, #1
 4414 0010 07D1     		bne	.L232
 874:led_manager.c **** 		byte07 = byte07 | bit;
 4415              		.loc 1 874 0
 4416 0012 0C4B     		ldr	r3, .L234
 4417 0014 1A78     		ldrb	r2, [r3]	@ zero_extendqisi2
 4418 0016 FB7B     		ldrb	r3, [r7, #15]
 4419 0018 1343     		orrs	r3, r3, r2
 4420 001a DAB2     		uxtb	r2, r3
 4421 001c 094B     		ldr	r3, .L234
 4422 001e 1A70     		strb	r2, [r3]
 4423 0020 0AE0     		b	.L231
 4424              	.L232:
 875:led_manager.c **** 	else			//led off
 876:led_manager.c **** 		byte07 = byte07 & ~bit;
 4425              		.loc 1 876 0
 4426 0022 FB7B     		ldrb	r3, [r7, #15]	@ zero_extendqisi2
 4427 0024 DB43     		mvns	r3, r3
 4428 0026 DAB2     		uxtb	r2, r3
 4429 0028 064B     		ldr	r3, .L234
 4430 002a 1B78     		ldrb	r3, [r3]	@ zero_extendqisi2
 4431 002c DBB2     		uxtb	r3, r3
 4432 002e 1340     		ands	r3, r3, r2
 4433 0030 DBB2     		uxtb	r3, r3
 4434 0032 DAB2     		uxtb	r2, r3
 4435 0034 034B     		ldr	r3, .L234
 4436 0036 1A70     		strb	r2, [r3]
 4437              	.L231:
 877:led_manager.c **** }
 4438              		.loc 1 877 0
 4439 0038 1437     		adds	r7, r7, #20
 4440              		.cfi_def_cfa_offset 4
 4441 003a BD46     		mov	sp, r7
ARM GAS  D:\Windows\AppData\Local\Temp\ccYfDzHQ.s 			page 95


 4442              		.cfi_def_cfa_register 13
 4443              		@ sp needed
 4444 003c 5DF8047B 		ldr	r7, [sp], #4
 4445              		.cfi_restore 7
 4446              		.cfi_def_cfa_offset 0
 4447 0040 7047     		bx	lr
 4448              	.L235:
 4449 0042 00BF     		.align	2
 4450              	.L234:
 4451 0044 00000000 		.word	byte07
 4452              		.cfi_endproc
 4453              	.LFE103:
 4454              		.size	d21_write, .-d21_write
 4455              		.section	.text.d22_write,"ax",%progbits
 4456              		.align	2
 4457              		.global	d22_write
 4458              		.thumb
 4459              		.thumb_func
 4460              		.type	d22_write, %function
 4461              	d22_write:
 4462              	.LFB104:
 878:led_manager.c **** void d22_write(int bool) {
 4463              		.loc 1 878 0
 4464              		.cfi_startproc
 4465              		@ args = 0, pretend = 0, frame = 16
 4466              		@ frame_needed = 1, uses_anonymous_args = 0
 4467              		@ link register save eliminated.
 4468 0000 80B4     		push	{r7}
 4469              		.cfi_def_cfa_offset 4
 4470              		.cfi_offset 7, -4
 4471 0002 85B0     		sub	sp, sp, #20
 4472              		.cfi_def_cfa_offset 24
 4473 0004 00AF     		add	r7, sp, #0
 4474              		.cfi_def_cfa_register 7
 4475 0006 7860     		str	r0, [r7, #4]
 879:led_manager.c **** 	uint8_t bit = 0x40;
 4476              		.loc 1 879 0
 4477 0008 4023     		movs	r3, #64
 4478 000a FB73     		strb	r3, [r7, #15]
 880:led_manager.c **** 	if(bool == 1) 	//led on
 4479              		.loc 1 880 0
 4480 000c 7B68     		ldr	r3, [r7, #4]
 4481 000e 012B     		cmp	r3, #1
 4482 0010 07D1     		bne	.L237
 881:led_manager.c **** 		byte07 = byte07 | bit;
 4483              		.loc 1 881 0
 4484 0012 0C4B     		ldr	r3, .L239
 4485 0014 1A78     		ldrb	r2, [r3]	@ zero_extendqisi2
 4486 0016 FB7B     		ldrb	r3, [r7, #15]
 4487 0018 1343     		orrs	r3, r3, r2
 4488 001a DAB2     		uxtb	r2, r3
 4489 001c 094B     		ldr	r3, .L239
 4490 001e 1A70     		strb	r2, [r3]
 4491 0020 0AE0     		b	.L236
 4492              	.L237:
 882:led_manager.c **** 	else			//led off
 883:led_manager.c **** 		byte07 = byte07 & ~bit;
ARM GAS  D:\Windows\AppData\Local\Temp\ccYfDzHQ.s 			page 96


 4493              		.loc 1 883 0
 4494 0022 FB7B     		ldrb	r3, [r7, #15]	@ zero_extendqisi2
 4495 0024 DB43     		mvns	r3, r3
 4496 0026 DAB2     		uxtb	r2, r3
 4497 0028 064B     		ldr	r3, .L239
 4498 002a 1B78     		ldrb	r3, [r3]	@ zero_extendqisi2
 4499 002c DBB2     		uxtb	r3, r3
 4500 002e 1340     		ands	r3, r3, r2
 4501 0030 DBB2     		uxtb	r3, r3
 4502 0032 DAB2     		uxtb	r2, r3
 4503 0034 034B     		ldr	r3, .L239
 4504 0036 1A70     		strb	r2, [r3]
 4505              	.L236:
 884:led_manager.c **** }
 4506              		.loc 1 884 0
 4507 0038 1437     		adds	r7, r7, #20
 4508              		.cfi_def_cfa_offset 4
 4509 003a BD46     		mov	sp, r7
 4510              		.cfi_def_cfa_register 13
 4511              		@ sp needed
 4512 003c 5DF8047B 		ldr	r7, [sp], #4
 4513              		.cfi_restore 7
 4514              		.cfi_def_cfa_offset 0
 4515 0040 7047     		bx	lr
 4516              	.L240:
 4517 0042 00BF     		.align	2
 4518              	.L239:
 4519 0044 00000000 		.word	byte07
 4520              		.cfi_endproc
 4521              	.LFE104:
 4522              		.size	d22_write, .-d22_write
 4523              		.section	.text.b11_write,"ax",%progbits
 4524              		.align	2
 4525              		.global	b11_write
 4526              		.thumb
 4527              		.thumb_func
 4528              		.type	b11_write, %function
 4529              	b11_write:
 4530              	.LFB105:
 885:led_manager.c **** 
 886:led_manager.c **** //side bars
 887:led_manager.c **** //left vertical bar
 888:led_manager.c **** void b11_write(int bool) {
 4531              		.loc 1 888 0
 4532              		.cfi_startproc
 4533              		@ args = 0, pretend = 0, frame = 16
 4534              		@ frame_needed = 1, uses_anonymous_args = 0
 4535              		@ link register save eliminated.
 4536 0000 80B4     		push	{r7}
 4537              		.cfi_def_cfa_offset 4
 4538              		.cfi_offset 7, -4
 4539 0002 85B0     		sub	sp, sp, #20
 4540              		.cfi_def_cfa_offset 24
 4541 0004 00AF     		add	r7, sp, #0
 4542              		.cfi_def_cfa_register 7
 4543 0006 7860     		str	r0, [r7, #4]
 889:led_manager.c **** 	uint8_t bit = 0x01;
ARM GAS  D:\Windows\AppData\Local\Temp\ccYfDzHQ.s 			page 97


 4544              		.loc 1 889 0
 4545 0008 0123     		movs	r3, #1
 4546 000a FB73     		strb	r3, [r7, #15]
 890:led_manager.c **** 	if(bool == 1) 	//led on
 4547              		.loc 1 890 0
 4548 000c 7B68     		ldr	r3, [r7, #4]
 4549 000e 012B     		cmp	r3, #1
 4550 0010 07D1     		bne	.L242
 891:led_manager.c **** 		byte05_2 = byte05_2 | bit;
 4551              		.loc 1 891 0
 4552 0012 0C4B     		ldr	r3, .L244
 4553 0014 1A78     		ldrb	r2, [r3]	@ zero_extendqisi2
 4554 0016 FB7B     		ldrb	r3, [r7, #15]
 4555 0018 1343     		orrs	r3, r3, r2
 4556 001a DAB2     		uxtb	r2, r3
 4557 001c 094B     		ldr	r3, .L244
 4558 001e 1A70     		strb	r2, [r3]
 4559 0020 0AE0     		b	.L241
 4560              	.L242:
 892:led_manager.c **** 	else			//led off
 893:led_manager.c **** 		byte05_2 = byte05_2 & ~bit;
 4561              		.loc 1 893 0
 4562 0022 FB7B     		ldrb	r3, [r7, #15]	@ zero_extendqisi2
 4563 0024 DB43     		mvns	r3, r3
 4564 0026 DAB2     		uxtb	r2, r3
 4565 0028 064B     		ldr	r3, .L244
 4566 002a 1B78     		ldrb	r3, [r3]	@ zero_extendqisi2
 4567 002c DBB2     		uxtb	r3, r3
 4568 002e 1340     		ands	r3, r3, r2
 4569 0030 DBB2     		uxtb	r3, r3
 4570 0032 DAB2     		uxtb	r2, r3
 4571 0034 034B     		ldr	r3, .L244
 4572 0036 1A70     		strb	r2, [r3]
 4573              	.L241:
 894:led_manager.c **** }
 4574              		.loc 1 894 0
 4575 0038 1437     		adds	r7, r7, #20
 4576              		.cfi_def_cfa_offset 4
 4577 003a BD46     		mov	sp, r7
 4578              		.cfi_def_cfa_register 13
 4579              		@ sp needed
 4580 003c 5DF8047B 		ldr	r7, [sp], #4
 4581              		.cfi_restore 7
 4582              		.cfi_def_cfa_offset 0
 4583 0040 7047     		bx	lr
 4584              	.L245:
 4585 0042 00BF     		.align	2
 4586              	.L244:
 4587 0044 00000000 		.word	byte05_2
 4588              		.cfi_endproc
 4589              	.LFE105:
 4590              		.size	b11_write, .-b11_write
 4591              		.section	.text.b12_write,"ax",%progbits
 4592              		.align	2
 4593              		.global	b12_write
 4594              		.thumb
 4595              		.thumb_func
ARM GAS  D:\Windows\AppData\Local\Temp\ccYfDzHQ.s 			page 98


 4596              		.type	b12_write, %function
 4597              	b12_write:
 4598              	.LFB106:
 895:led_manager.c **** void b12_write(int bool) {
 4599              		.loc 1 895 0
 4600              		.cfi_startproc
 4601              		@ args = 0, pretend = 0, frame = 16
 4602              		@ frame_needed = 1, uses_anonymous_args = 0
 4603              		@ link register save eliminated.
 4604 0000 80B4     		push	{r7}
 4605              		.cfi_def_cfa_offset 4
 4606              		.cfi_offset 7, -4
 4607 0002 85B0     		sub	sp, sp, #20
 4608              		.cfi_def_cfa_offset 24
 4609 0004 00AF     		add	r7, sp, #0
 4610              		.cfi_def_cfa_register 7
 4611 0006 7860     		str	r0, [r7, #4]
 896:led_manager.c **** 	uint8_t bit = 0x10;
 4612              		.loc 1 896 0
 4613 0008 1023     		movs	r3, #16
 4614 000a FB73     		strb	r3, [r7, #15]
 897:led_manager.c **** 	if(bool == 1) 	//led on
 4615              		.loc 1 897 0
 4616 000c 7B68     		ldr	r3, [r7, #4]
 4617 000e 012B     		cmp	r3, #1
 4618 0010 07D1     		bne	.L247
 898:led_manager.c **** 		byte05_2 = byte05_2 | bit;
 4619              		.loc 1 898 0
 4620 0012 0C4B     		ldr	r3, .L249
 4621 0014 1A78     		ldrb	r2, [r3]	@ zero_extendqisi2
 4622 0016 FB7B     		ldrb	r3, [r7, #15]
 4623 0018 1343     		orrs	r3, r3, r2
 4624 001a DAB2     		uxtb	r2, r3
 4625 001c 094B     		ldr	r3, .L249
 4626 001e 1A70     		strb	r2, [r3]
 4627 0020 0AE0     		b	.L246
 4628              	.L247:
 899:led_manager.c **** 	else			//led off
 900:led_manager.c **** 		byte05_2 = byte05_2 & ~bit;
 4629              		.loc 1 900 0
 4630 0022 FB7B     		ldrb	r3, [r7, #15]	@ zero_extendqisi2
 4631 0024 DB43     		mvns	r3, r3
 4632 0026 DAB2     		uxtb	r2, r3
 4633 0028 064B     		ldr	r3, .L249
 4634 002a 1B78     		ldrb	r3, [r3]	@ zero_extendqisi2
 4635 002c DBB2     		uxtb	r3, r3
 4636 002e 1340     		ands	r3, r3, r2
 4637 0030 DBB2     		uxtb	r3, r3
 4638 0032 DAB2     		uxtb	r2, r3
 4639 0034 034B     		ldr	r3, .L249
 4640 0036 1A70     		strb	r2, [r3]
 4641              	.L246:
 901:led_manager.c **** }
 4642              		.loc 1 901 0
 4643 0038 1437     		adds	r7, r7, #20
 4644              		.cfi_def_cfa_offset 4
 4645 003a BD46     		mov	sp, r7
ARM GAS  D:\Windows\AppData\Local\Temp\ccYfDzHQ.s 			page 99


 4646              		.cfi_def_cfa_register 13
 4647              		@ sp needed
 4648 003c 5DF8047B 		ldr	r7, [sp], #4
 4649              		.cfi_restore 7
 4650              		.cfi_def_cfa_offset 0
 4651 0040 7047     		bx	lr
 4652              	.L250:
 4653 0042 00BF     		.align	2
 4654              	.L249:
 4655 0044 00000000 		.word	byte05_2
 4656              		.cfi_endproc
 4657              	.LFE106:
 4658              		.size	b12_write, .-b12_write
 4659              		.section	.text.b13_write,"ax",%progbits
 4660              		.align	2
 4661              		.global	b13_write
 4662              		.thumb
 4663              		.thumb_func
 4664              		.type	b13_write, %function
 4665              	b13_write:
 4666              	.LFB107:
 902:led_manager.c **** void b13_write(int bool) {
 4667              		.loc 1 902 0
 4668              		.cfi_startproc
 4669              		@ args = 0, pretend = 0, frame = 16
 4670              		@ frame_needed = 1, uses_anonymous_args = 0
 4671              		@ link register save eliminated.
 4672 0000 80B4     		push	{r7}
 4673              		.cfi_def_cfa_offset 4
 4674              		.cfi_offset 7, -4
 4675 0002 85B0     		sub	sp, sp, #20
 4676              		.cfi_def_cfa_offset 24
 4677 0004 00AF     		add	r7, sp, #0
 4678              		.cfi_def_cfa_register 7
 4679 0006 7860     		str	r0, [r7, #4]
 903:led_manager.c **** 	uint8_t bit = 0x01;
 4680              		.loc 1 903 0
 4681 0008 0123     		movs	r3, #1
 4682 000a FB73     		strb	r3, [r7, #15]
 904:led_manager.c **** 	if(bool == 1) 	//led on
 4683              		.loc 1 904 0
 4684 000c 7B68     		ldr	r3, [r7, #4]
 4685 000e 012B     		cmp	r3, #1
 4686 0010 07D1     		bne	.L252
 905:led_manager.c **** 		byte06_2 = byte06_2 | bit;
 4687              		.loc 1 905 0
 4688 0012 0C4B     		ldr	r3, .L254
 4689 0014 1A78     		ldrb	r2, [r3]	@ zero_extendqisi2
 4690 0016 FB7B     		ldrb	r3, [r7, #15]
 4691 0018 1343     		orrs	r3, r3, r2
 4692 001a DAB2     		uxtb	r2, r3
 4693 001c 094B     		ldr	r3, .L254
 4694 001e 1A70     		strb	r2, [r3]
 4695 0020 0AE0     		b	.L251
 4696              	.L252:
 906:led_manager.c **** 	else			//led off
 907:led_manager.c **** 		byte06_2 = byte06_2 & ~bit;
ARM GAS  D:\Windows\AppData\Local\Temp\ccYfDzHQ.s 			page 100


 4697              		.loc 1 907 0
 4698 0022 FB7B     		ldrb	r3, [r7, #15]	@ zero_extendqisi2
 4699 0024 DB43     		mvns	r3, r3
 4700 0026 DAB2     		uxtb	r2, r3
 4701 0028 064B     		ldr	r3, .L254
 4702 002a 1B78     		ldrb	r3, [r3]	@ zero_extendqisi2
 4703 002c DBB2     		uxtb	r3, r3
 4704 002e 1340     		ands	r3, r3, r2
 4705 0030 DBB2     		uxtb	r3, r3
 4706 0032 DAB2     		uxtb	r2, r3
 4707 0034 034B     		ldr	r3, .L254
 4708 0036 1A70     		strb	r2, [r3]
 4709              	.L251:
 908:led_manager.c **** }
 4710              		.loc 1 908 0
 4711 0038 1437     		adds	r7, r7, #20
 4712              		.cfi_def_cfa_offset 4
 4713 003a BD46     		mov	sp, r7
 4714              		.cfi_def_cfa_register 13
 4715              		@ sp needed
 4716 003c 5DF8047B 		ldr	r7, [sp], #4
 4717              		.cfi_restore 7
 4718              		.cfi_def_cfa_offset 0
 4719 0040 7047     		bx	lr
 4720              	.L255:
 4721 0042 00BF     		.align	2
 4722              	.L254:
 4723 0044 00000000 		.word	byte06_2
 4724              		.cfi_endproc
 4725              	.LFE107:
 4726              		.size	b13_write, .-b13_write
 4727              		.section	.text.b14_write,"ax",%progbits
 4728              		.align	2
 4729              		.global	b14_write
 4730              		.thumb
 4731              		.thumb_func
 4732              		.type	b14_write, %function
 4733              	b14_write:
 4734              	.LFB108:
 909:led_manager.c **** void b14_write(int bool) {
 4735              		.loc 1 909 0
 4736              		.cfi_startproc
 4737              		@ args = 0, pretend = 0, frame = 16
 4738              		@ frame_needed = 1, uses_anonymous_args = 0
 4739              		@ link register save eliminated.
 4740 0000 80B4     		push	{r7}
 4741              		.cfi_def_cfa_offset 4
 4742              		.cfi_offset 7, -4
 4743 0002 85B0     		sub	sp, sp, #20
 4744              		.cfi_def_cfa_offset 24
 4745 0004 00AF     		add	r7, sp, #0
 4746              		.cfi_def_cfa_register 7
 4747 0006 7860     		str	r0, [r7, #4]
 910:led_manager.c **** 	uint8_t bit = 0x10;
 4748              		.loc 1 910 0
 4749 0008 1023     		movs	r3, #16
 4750 000a FB73     		strb	r3, [r7, #15]
ARM GAS  D:\Windows\AppData\Local\Temp\ccYfDzHQ.s 			page 101


 911:led_manager.c **** 	if(bool == 1) 	//led on
 4751              		.loc 1 911 0
 4752 000c 7B68     		ldr	r3, [r7, #4]
 4753 000e 012B     		cmp	r3, #1
 4754 0010 07D1     		bne	.L257
 912:led_manager.c **** 		byte06_2 = byte06_2 | bit;
 4755              		.loc 1 912 0
 4756 0012 0C4B     		ldr	r3, .L259
 4757 0014 1A78     		ldrb	r2, [r3]	@ zero_extendqisi2
 4758 0016 FB7B     		ldrb	r3, [r7, #15]
 4759 0018 1343     		orrs	r3, r3, r2
 4760 001a DAB2     		uxtb	r2, r3
 4761 001c 094B     		ldr	r3, .L259
 4762 001e 1A70     		strb	r2, [r3]
 4763 0020 0AE0     		b	.L256
 4764              	.L257:
 913:led_manager.c **** 	else			//led off
 914:led_manager.c **** 		byte06_2 = byte06_2 & ~bit;
 4765              		.loc 1 914 0
 4766 0022 FB7B     		ldrb	r3, [r7, #15]	@ zero_extendqisi2
 4767 0024 DB43     		mvns	r3, r3
 4768 0026 DAB2     		uxtb	r2, r3
 4769 0028 064B     		ldr	r3, .L259
 4770 002a 1B78     		ldrb	r3, [r3]	@ zero_extendqisi2
 4771 002c DBB2     		uxtb	r3, r3
 4772 002e 1340     		ands	r3, r3, r2
 4773 0030 DBB2     		uxtb	r3, r3
 4774 0032 DAB2     		uxtb	r2, r3
 4775 0034 034B     		ldr	r3, .L259
 4776 0036 1A70     		strb	r2, [r3]
 4777              	.L256:
 915:led_manager.c **** }
 4778              		.loc 1 915 0
 4779 0038 1437     		adds	r7, r7, #20
 4780              		.cfi_def_cfa_offset 4
 4781 003a BD46     		mov	sp, r7
 4782              		.cfi_def_cfa_register 13
 4783              		@ sp needed
 4784 003c 5DF8047B 		ldr	r7, [sp], #4
 4785              		.cfi_restore 7
 4786              		.cfi_def_cfa_offset 0
 4787 0040 7047     		bx	lr
 4788              	.L260:
 4789 0042 00BF     		.align	2
 4790              	.L259:
 4791 0044 00000000 		.word	byte06_2
 4792              		.cfi_endproc
 4793              	.LFE108:
 4794              		.size	b14_write, .-b14_write
 4795              		.section	.text.b15_write,"ax",%progbits
 4796              		.align	2
 4797              		.global	b15_write
 4798              		.thumb
 4799              		.thumb_func
 4800              		.type	b15_write, %function
 4801              	b15_write:
 4802              	.LFB109:
ARM GAS  D:\Windows\AppData\Local\Temp\ccYfDzHQ.s 			page 102


 916:led_manager.c **** void b15_write(int bool) {
 4803              		.loc 1 916 0
 4804              		.cfi_startproc
 4805              		@ args = 0, pretend = 0, frame = 16
 4806              		@ frame_needed = 1, uses_anonymous_args = 0
 4807              		@ link register save eliminated.
 4808 0000 80B4     		push	{r7}
 4809              		.cfi_def_cfa_offset 4
 4810              		.cfi_offset 7, -4
 4811 0002 85B0     		sub	sp, sp, #20
 4812              		.cfi_def_cfa_offset 24
 4813 0004 00AF     		add	r7, sp, #0
 4814              		.cfi_def_cfa_register 7
 4815 0006 7860     		str	r0, [r7, #4]
 917:led_manager.c **** 	uint8_t bit = 0x01;
 4816              		.loc 1 917 0
 4817 0008 0123     		movs	r3, #1
 4818 000a FB73     		strb	r3, [r7, #15]
 918:led_manager.c **** 	if(bool == 1) 	//led on
 4819              		.loc 1 918 0
 4820 000c 7B68     		ldr	r3, [r7, #4]
 4821 000e 012B     		cmp	r3, #1
 4822 0010 07D1     		bne	.L262
 919:led_manager.c **** 		byte07_2 = byte07_2 | bit;
 4823              		.loc 1 919 0
 4824 0012 0C4B     		ldr	r3, .L264
 4825 0014 1A78     		ldrb	r2, [r3]	@ zero_extendqisi2
 4826 0016 FB7B     		ldrb	r3, [r7, #15]
 4827 0018 1343     		orrs	r3, r3, r2
 4828 001a DAB2     		uxtb	r2, r3
 4829 001c 094B     		ldr	r3, .L264
 4830 001e 1A70     		strb	r2, [r3]
 4831 0020 0AE0     		b	.L261
 4832              	.L262:
 920:led_manager.c **** 	else			//led off
 921:led_manager.c **** 		byte07_2 = byte07_2 & ~bit;
 4833              		.loc 1 921 0
 4834 0022 FB7B     		ldrb	r3, [r7, #15]	@ zero_extendqisi2
 4835 0024 DB43     		mvns	r3, r3
 4836 0026 DAB2     		uxtb	r2, r3
 4837 0028 064B     		ldr	r3, .L264
 4838 002a 1B78     		ldrb	r3, [r3]	@ zero_extendqisi2
 4839 002c DBB2     		uxtb	r3, r3
 4840 002e 1340     		ands	r3, r3, r2
 4841 0030 DBB2     		uxtb	r3, r3
 4842 0032 DAB2     		uxtb	r2, r3
 4843 0034 034B     		ldr	r3, .L264
 4844 0036 1A70     		strb	r2, [r3]
 4845              	.L261:
 922:led_manager.c **** }
 4846              		.loc 1 922 0
 4847 0038 1437     		adds	r7, r7, #20
 4848              		.cfi_def_cfa_offset 4
 4849 003a BD46     		mov	sp, r7
 4850              		.cfi_def_cfa_register 13
 4851              		@ sp needed
 4852 003c 5DF8047B 		ldr	r7, [sp], #4
ARM GAS  D:\Windows\AppData\Local\Temp\ccYfDzHQ.s 			page 103


 4853              		.cfi_restore 7
 4854              		.cfi_def_cfa_offset 0
 4855 0040 7047     		bx	lr
 4856              	.L265:
 4857 0042 00BF     		.align	2
 4858              	.L264:
 4859 0044 00000000 		.word	byte07_2
 4860              		.cfi_endproc
 4861              	.LFE109:
 4862              		.size	b15_write, .-b15_write
 4863              		.section	.text.b21_write,"ax",%progbits
 4864              		.align	2
 4865              		.global	b21_write
 4866              		.thumb
 4867              		.thumb_func
 4868              		.type	b21_write, %function
 4869              	b21_write:
 4870              	.LFB110:
 923:led_manager.c **** 
 924:led_manager.c **** //center vertical bar
 925:led_manager.c **** void b21_write(int bool) {
 4871              		.loc 1 925 0
 4872              		.cfi_startproc
 4873              		@ args = 0, pretend = 0, frame = 16
 4874              		@ frame_needed = 1, uses_anonymous_args = 0
 4875              		@ link register save eliminated.
 4876 0000 80B4     		push	{r7}
 4877              		.cfi_def_cfa_offset 4
 4878              		.cfi_offset 7, -4
 4879 0002 85B0     		sub	sp, sp, #20
 4880              		.cfi_def_cfa_offset 24
 4881 0004 00AF     		add	r7, sp, #0
 4882              		.cfi_def_cfa_register 7
 4883 0006 7860     		str	r0, [r7, #4]
 926:led_manager.c **** 	uint8_t bit = 0x10;
 4884              		.loc 1 926 0
 4885 0008 1023     		movs	r3, #16
 4886 000a FB73     		strb	r3, [r7, #15]
 927:led_manager.c **** 	if(bool == 1) 	//led on
 4887              		.loc 1 927 0
 4888 000c 7B68     		ldr	r3, [r7, #4]
 4889 000e 012B     		cmp	r3, #1
 4890 0010 07D1     		bne	.L267
 928:led_manager.c **** 		byte07_2 = byte07_2 | bit;
 4891              		.loc 1 928 0
 4892 0012 0C4B     		ldr	r3, .L269
 4893 0014 1A78     		ldrb	r2, [r3]	@ zero_extendqisi2
 4894 0016 FB7B     		ldrb	r3, [r7, #15]
 4895 0018 1343     		orrs	r3, r3, r2
 4896 001a DAB2     		uxtb	r2, r3
 4897 001c 094B     		ldr	r3, .L269
 4898 001e 1A70     		strb	r2, [r3]
 4899 0020 0AE0     		b	.L266
 4900              	.L267:
 929:led_manager.c **** 	else			//led off
 930:led_manager.c **** 		byte07_2 = byte07_2 & ~bit;
 4901              		.loc 1 930 0
ARM GAS  D:\Windows\AppData\Local\Temp\ccYfDzHQ.s 			page 104


 4902 0022 FB7B     		ldrb	r3, [r7, #15]	@ zero_extendqisi2
 4903 0024 DB43     		mvns	r3, r3
 4904 0026 DAB2     		uxtb	r2, r3
 4905 0028 064B     		ldr	r3, .L269
 4906 002a 1B78     		ldrb	r3, [r3]	@ zero_extendqisi2
 4907 002c DBB2     		uxtb	r3, r3
 4908 002e 1340     		ands	r3, r3, r2
 4909 0030 DBB2     		uxtb	r3, r3
 4910 0032 DAB2     		uxtb	r2, r3
 4911 0034 034B     		ldr	r3, .L269
 4912 0036 1A70     		strb	r2, [r3]
 4913              	.L266:
 931:led_manager.c **** }
 4914              		.loc 1 931 0
 4915 0038 1437     		adds	r7, r7, #20
 4916              		.cfi_def_cfa_offset 4
 4917 003a BD46     		mov	sp, r7
 4918              		.cfi_def_cfa_register 13
 4919              		@ sp needed
 4920 003c 5DF8047B 		ldr	r7, [sp], #4
 4921              		.cfi_restore 7
 4922              		.cfi_def_cfa_offset 0
 4923 0040 7047     		bx	lr
 4924              	.L270:
 4925 0042 00BF     		.align	2
 4926              	.L269:
 4927 0044 00000000 		.word	byte07_2
 4928              		.cfi_endproc
 4929              	.LFE110:
 4930              		.size	b21_write, .-b21_write
 4931              		.section	.text.b22_write,"ax",%progbits
 4932              		.align	2
 4933              		.global	b22_write
 4934              		.thumb
 4935              		.thumb_func
 4936              		.type	b22_write, %function
 4937              	b22_write:
 4938              	.LFB111:
 932:led_manager.c **** void b22_write(int bool) {
 4939              		.loc 1 932 0
 4940              		.cfi_startproc
 4941              		@ args = 0, pretend = 0, frame = 16
 4942              		@ frame_needed = 1, uses_anonymous_args = 0
 4943              		@ link register save eliminated.
 4944 0000 80B4     		push	{r7}
 4945              		.cfi_def_cfa_offset 4
 4946              		.cfi_offset 7, -4
 4947 0002 85B0     		sub	sp, sp, #20
 4948              		.cfi_def_cfa_offset 24
 4949 0004 00AF     		add	r7, sp, #0
 4950              		.cfi_def_cfa_register 7
 4951 0006 7860     		str	r0, [r7, #4]
 933:led_manager.c **** 	uint8_t bit = 0x01;
 4952              		.loc 1 933 0
 4953 0008 0123     		movs	r3, #1
 4954 000a FB73     		strb	r3, [r7, #15]
 934:led_manager.c **** 	if(bool == 1) 	//led on
ARM GAS  D:\Windows\AppData\Local\Temp\ccYfDzHQ.s 			page 105


 4955              		.loc 1 934 0
 4956 000c 7B68     		ldr	r3, [r7, #4]
 4957 000e 012B     		cmp	r3, #1
 4958 0010 07D1     		bne	.L272
 935:led_manager.c **** 		byte08_2 = byte08_2 | bit;
 4959              		.loc 1 935 0
 4960 0012 0C4B     		ldr	r3, .L274
 4961 0014 1A78     		ldrb	r2, [r3]	@ zero_extendqisi2
 4962 0016 FB7B     		ldrb	r3, [r7, #15]
 4963 0018 1343     		orrs	r3, r3, r2
 4964 001a DAB2     		uxtb	r2, r3
 4965 001c 094B     		ldr	r3, .L274
 4966 001e 1A70     		strb	r2, [r3]
 4967 0020 0AE0     		b	.L271
 4968              	.L272:
 936:led_manager.c **** 	else			//led off
 937:led_manager.c **** 		byte08_2 = byte08_2 & ~bit;
 4969              		.loc 1 937 0
 4970 0022 FB7B     		ldrb	r3, [r7, #15]	@ zero_extendqisi2
 4971 0024 DB43     		mvns	r3, r3
 4972 0026 DAB2     		uxtb	r2, r3
 4973 0028 064B     		ldr	r3, .L274
 4974 002a 1B78     		ldrb	r3, [r3]	@ zero_extendqisi2
 4975 002c DBB2     		uxtb	r3, r3
 4976 002e 1340     		ands	r3, r3, r2
 4977 0030 DBB2     		uxtb	r3, r3
 4978 0032 DAB2     		uxtb	r2, r3
 4979 0034 034B     		ldr	r3, .L274
 4980 0036 1A70     		strb	r2, [r3]
 4981              	.L271:
 938:led_manager.c **** }
 4982              		.loc 1 938 0
 4983 0038 1437     		adds	r7, r7, #20
 4984              		.cfi_def_cfa_offset 4
 4985 003a BD46     		mov	sp, r7
 4986              		.cfi_def_cfa_register 13
 4987              		@ sp needed
 4988 003c 5DF8047B 		ldr	r7, [sp], #4
 4989              		.cfi_restore 7
 4990              		.cfi_def_cfa_offset 0
 4991 0040 7047     		bx	lr
 4992              	.L275:
 4993 0042 00BF     		.align	2
 4994              	.L274:
 4995 0044 00000000 		.word	byte08_2
 4996              		.cfi_endproc
 4997              	.LFE111:
 4998              		.size	b22_write, .-b22_write
 4999              		.section	.text.b23_write,"ax",%progbits
 5000              		.align	2
 5001              		.global	b23_write
 5002              		.thumb
 5003              		.thumb_func
 5004              		.type	b23_write, %function
 5005              	b23_write:
 5006              	.LFB112:
 939:led_manager.c **** void b23_write(int bool) {
ARM GAS  D:\Windows\AppData\Local\Temp\ccYfDzHQ.s 			page 106


 5007              		.loc 1 939 0
 5008              		.cfi_startproc
 5009              		@ args = 0, pretend = 0, frame = 16
 5010              		@ frame_needed = 1, uses_anonymous_args = 0
 5011              		@ link register save eliminated.
 5012 0000 80B4     		push	{r7}
 5013              		.cfi_def_cfa_offset 4
 5014              		.cfi_offset 7, -4
 5015 0002 85B0     		sub	sp, sp, #20
 5016              		.cfi_def_cfa_offset 24
 5017 0004 00AF     		add	r7, sp, #0
 5018              		.cfi_def_cfa_register 7
 5019 0006 7860     		str	r0, [r7, #4]
 940:led_manager.c **** 	uint8_t bit = 0x10;
 5020              		.loc 1 940 0
 5021 0008 1023     		movs	r3, #16
 5022 000a FB73     		strb	r3, [r7, #15]
 941:led_manager.c **** 	if(bool == 1) 	//led on
 5023              		.loc 1 941 0
 5024 000c 7B68     		ldr	r3, [r7, #4]
 5025 000e 012B     		cmp	r3, #1
 5026 0010 07D1     		bne	.L277
 942:led_manager.c **** 		byte08_2 = byte08_2 | bit;
 5027              		.loc 1 942 0
 5028 0012 0C4B     		ldr	r3, .L279
 5029 0014 1A78     		ldrb	r2, [r3]	@ zero_extendqisi2
 5030 0016 FB7B     		ldrb	r3, [r7, #15]
 5031 0018 1343     		orrs	r3, r3, r2
 5032 001a DAB2     		uxtb	r2, r3
 5033 001c 094B     		ldr	r3, .L279
 5034 001e 1A70     		strb	r2, [r3]
 5035 0020 0AE0     		b	.L276
 5036              	.L277:
 943:led_manager.c **** 	else			//led off
 944:led_manager.c **** 		byte08_2 = byte08_2 & ~bit;
 5037              		.loc 1 944 0
 5038 0022 FB7B     		ldrb	r3, [r7, #15]	@ zero_extendqisi2
 5039 0024 DB43     		mvns	r3, r3
 5040 0026 DAB2     		uxtb	r2, r3
 5041 0028 064B     		ldr	r3, .L279
 5042 002a 1B78     		ldrb	r3, [r3]	@ zero_extendqisi2
 5043 002c DBB2     		uxtb	r3, r3
 5044 002e 1340     		ands	r3, r3, r2
 5045 0030 DBB2     		uxtb	r3, r3
 5046 0032 DAB2     		uxtb	r2, r3
 5047 0034 034B     		ldr	r3, .L279
 5048 0036 1A70     		strb	r2, [r3]
 5049              	.L276:
 945:led_manager.c **** }
 5050              		.loc 1 945 0
 5051 0038 1437     		adds	r7, r7, #20
 5052              		.cfi_def_cfa_offset 4
 5053 003a BD46     		mov	sp, r7
 5054              		.cfi_def_cfa_register 13
 5055              		@ sp needed
 5056 003c 5DF8047B 		ldr	r7, [sp], #4
 5057              		.cfi_restore 7
ARM GAS  D:\Windows\AppData\Local\Temp\ccYfDzHQ.s 			page 107


 5058              		.cfi_def_cfa_offset 0
 5059 0040 7047     		bx	lr
 5060              	.L280:
 5061 0042 00BF     		.align	2
 5062              	.L279:
 5063 0044 00000000 		.word	byte08_2
 5064              		.cfi_endproc
 5065              	.LFE112:
 5066              		.size	b23_write, .-b23_write
 5067              		.section	.text.b24_write,"ax",%progbits
 5068              		.align	2
 5069              		.global	b24_write
 5070              		.thumb
 5071              		.thumb_func
 5072              		.type	b24_write, %function
 5073              	b24_write:
 5074              	.LFB113:
 946:led_manager.c **** void b24_write(int bool) {
 5075              		.loc 1 946 0
 5076              		.cfi_startproc
 5077              		@ args = 0, pretend = 0, frame = 16
 5078              		@ frame_needed = 1, uses_anonymous_args = 0
 5079              		@ link register save eliminated.
 5080 0000 80B4     		push	{r7}
 5081              		.cfi_def_cfa_offset 4
 5082              		.cfi_offset 7, -4
 5083 0002 85B0     		sub	sp, sp, #20
 5084              		.cfi_def_cfa_offset 24
 5085 0004 00AF     		add	r7, sp, #0
 5086              		.cfi_def_cfa_register 7
 5087 0006 7860     		str	r0, [r7, #4]
 947:led_manager.c **** 	uint8_t bit = 0x02;
 5088              		.loc 1 947 0
 5089 0008 0223     		movs	r3, #2
 5090 000a FB73     		strb	r3, [r7, #15]
 948:led_manager.c **** 	if(bool == 1) 	//led on
 5091              		.loc 1 948 0
 5092 000c 7B68     		ldr	r3, [r7, #4]
 5093 000e 012B     		cmp	r3, #1
 5094 0010 07D1     		bne	.L282
 949:led_manager.c **** 		byte05_2 = byte05_2 | bit;
 5095              		.loc 1 949 0
 5096 0012 0C4B     		ldr	r3, .L284
 5097 0014 1A78     		ldrb	r2, [r3]	@ zero_extendqisi2
 5098 0016 FB7B     		ldrb	r3, [r7, #15]
 5099 0018 1343     		orrs	r3, r3, r2
 5100 001a DAB2     		uxtb	r2, r3
 5101 001c 094B     		ldr	r3, .L284
 5102 001e 1A70     		strb	r2, [r3]
 5103 0020 0AE0     		b	.L281
 5104              	.L282:
 950:led_manager.c **** 	else			//led off
 951:led_manager.c **** 		byte05_2 = byte05_2 & ~bit;
 5105              		.loc 1 951 0
 5106 0022 FB7B     		ldrb	r3, [r7, #15]	@ zero_extendqisi2
 5107 0024 DB43     		mvns	r3, r3
 5108 0026 DAB2     		uxtb	r2, r3
ARM GAS  D:\Windows\AppData\Local\Temp\ccYfDzHQ.s 			page 108


 5109 0028 064B     		ldr	r3, .L284
 5110 002a 1B78     		ldrb	r3, [r3]	@ zero_extendqisi2
 5111 002c DBB2     		uxtb	r3, r3
 5112 002e 1340     		ands	r3, r3, r2
 5113 0030 DBB2     		uxtb	r3, r3
 5114 0032 DAB2     		uxtb	r2, r3
 5115 0034 034B     		ldr	r3, .L284
 5116 0036 1A70     		strb	r2, [r3]
 5117              	.L281:
 952:led_manager.c **** }
 5118              		.loc 1 952 0
 5119 0038 1437     		adds	r7, r7, #20
 5120              		.cfi_def_cfa_offset 4
 5121 003a BD46     		mov	sp, r7
 5122              		.cfi_def_cfa_register 13
 5123              		@ sp needed
 5124 003c 5DF8047B 		ldr	r7, [sp], #4
 5125              		.cfi_restore 7
 5126              		.cfi_def_cfa_offset 0
 5127 0040 7047     		bx	lr
 5128              	.L285:
 5129 0042 00BF     		.align	2
 5130              	.L284:
 5131 0044 00000000 		.word	byte05_2
 5132              		.cfi_endproc
 5133              	.LFE113:
 5134              		.size	b24_write, .-b24_write
 5135              		.section	.text.b25_write,"ax",%progbits
 5136              		.align	2
 5137              		.global	b25_write
 5138              		.thumb
 5139              		.thumb_func
 5140              		.type	b25_write, %function
 5141              	b25_write:
 5142              	.LFB114:
 953:led_manager.c **** void b25_write(int bool) {
 5143              		.loc 1 953 0
 5144              		.cfi_startproc
 5145              		@ args = 0, pretend = 0, frame = 16
 5146              		@ frame_needed = 1, uses_anonymous_args = 0
 5147              		@ link register save eliminated.
 5148 0000 80B4     		push	{r7}
 5149              		.cfi_def_cfa_offset 4
 5150              		.cfi_offset 7, -4
 5151 0002 85B0     		sub	sp, sp, #20
 5152              		.cfi_def_cfa_offset 24
 5153 0004 00AF     		add	r7, sp, #0
 5154              		.cfi_def_cfa_register 7
 5155 0006 7860     		str	r0, [r7, #4]
 954:led_manager.c **** 	uint8_t bit = 0x20;
 5156              		.loc 1 954 0
 5157 0008 2023     		movs	r3, #32
 5158 000a FB73     		strb	r3, [r7, #15]
 955:led_manager.c **** 	if(bool == 1) 	//led on
 5159              		.loc 1 955 0
 5160 000c 7B68     		ldr	r3, [r7, #4]
 5161 000e 012B     		cmp	r3, #1
ARM GAS  D:\Windows\AppData\Local\Temp\ccYfDzHQ.s 			page 109


 5162 0010 07D1     		bne	.L287
 956:led_manager.c **** 		byte05_2 = byte05_2 | bit;
 5163              		.loc 1 956 0
 5164 0012 0C4B     		ldr	r3, .L289
 5165 0014 1A78     		ldrb	r2, [r3]	@ zero_extendqisi2
 5166 0016 FB7B     		ldrb	r3, [r7, #15]
 5167 0018 1343     		orrs	r3, r3, r2
 5168 001a DAB2     		uxtb	r2, r3
 5169 001c 094B     		ldr	r3, .L289
 5170 001e 1A70     		strb	r2, [r3]
 5171 0020 0AE0     		b	.L286
 5172              	.L287:
 957:led_manager.c **** 	else			//led off
 958:led_manager.c **** 		byte05_2 = byte05_2 & ~bit;
 5173              		.loc 1 958 0
 5174 0022 FB7B     		ldrb	r3, [r7, #15]	@ zero_extendqisi2
 5175 0024 DB43     		mvns	r3, r3
 5176 0026 DAB2     		uxtb	r2, r3
 5177 0028 064B     		ldr	r3, .L289
 5178 002a 1B78     		ldrb	r3, [r3]	@ zero_extendqisi2
 5179 002c DBB2     		uxtb	r3, r3
 5180 002e 1340     		ands	r3, r3, r2
 5181 0030 DBB2     		uxtb	r3, r3
 5182 0032 DAB2     		uxtb	r2, r3
 5183 0034 034B     		ldr	r3, .L289
 5184 0036 1A70     		strb	r2, [r3]
 5185              	.L286:
 959:led_manager.c **** }
 5186              		.loc 1 959 0
 5187 0038 1437     		adds	r7, r7, #20
 5188              		.cfi_def_cfa_offset 4
 5189 003a BD46     		mov	sp, r7
 5190              		.cfi_def_cfa_register 13
 5191              		@ sp needed
 5192 003c 5DF8047B 		ldr	r7, [sp], #4
 5193              		.cfi_restore 7
 5194              		.cfi_def_cfa_offset 0
 5195 0040 7047     		bx	lr
 5196              	.L290:
 5197 0042 00BF     		.align	2
 5198              	.L289:
 5199 0044 00000000 		.word	byte05_2
 5200              		.cfi_endproc
 5201              	.LFE114:
 5202              		.size	b25_write, .-b25_write
 5203              		.section	.text.b31_write,"ax",%progbits
 5204              		.align	2
 5205              		.global	b31_write
 5206              		.thumb
 5207              		.thumb_func
 5208              		.type	b31_write, %function
 5209              	b31_write:
 5210              	.LFB115:
 960:led_manager.c **** 
 961:led_manager.c **** //right bar
 962:led_manager.c **** void b31_write(int bool) {
 5211              		.loc 1 962 0
ARM GAS  D:\Windows\AppData\Local\Temp\ccYfDzHQ.s 			page 110


 5212              		.cfi_startproc
 5213              		@ args = 0, pretend = 0, frame = 16
 5214              		@ frame_needed = 1, uses_anonymous_args = 0
 5215              		@ link register save eliminated.
 5216 0000 80B4     		push	{r7}
 5217              		.cfi_def_cfa_offset 4
 5218              		.cfi_offset 7, -4
 5219 0002 85B0     		sub	sp, sp, #20
 5220              		.cfi_def_cfa_offset 24
 5221 0004 00AF     		add	r7, sp, #0
 5222              		.cfi_def_cfa_register 7
 5223 0006 7860     		str	r0, [r7, #4]
 963:led_manager.c **** 	uint8_t bit = 0x02;
 5224              		.loc 1 963 0
 5225 0008 0223     		movs	r3, #2
 5226 000a FB73     		strb	r3, [r7, #15]
 964:led_manager.c **** 	if(bool == 1) 	//led on
 5227              		.loc 1 964 0
 5228 000c 7B68     		ldr	r3, [r7, #4]
 5229 000e 012B     		cmp	r3, #1
 5230 0010 07D1     		bne	.L292
 965:led_manager.c **** 		byte06_2 = byte06_2 | bit;
 5231              		.loc 1 965 0
 5232 0012 0C4B     		ldr	r3, .L294
 5233 0014 1A78     		ldrb	r2, [r3]	@ zero_extendqisi2
 5234 0016 FB7B     		ldrb	r3, [r7, #15]
 5235 0018 1343     		orrs	r3, r3, r2
 5236 001a DAB2     		uxtb	r2, r3
 5237 001c 094B     		ldr	r3, .L294
 5238 001e 1A70     		strb	r2, [r3]
 5239 0020 0AE0     		b	.L291
 5240              	.L292:
 966:led_manager.c **** 	else			//led off
 967:led_manager.c **** 		byte06_2 = byte06_2 & ~bit;
 5241              		.loc 1 967 0
 5242 0022 FB7B     		ldrb	r3, [r7, #15]	@ zero_extendqisi2
 5243 0024 DB43     		mvns	r3, r3
 5244 0026 DAB2     		uxtb	r2, r3
 5245 0028 064B     		ldr	r3, .L294
 5246 002a 1B78     		ldrb	r3, [r3]	@ zero_extendqisi2
 5247 002c DBB2     		uxtb	r3, r3
 5248 002e 1340     		ands	r3, r3, r2
 5249 0030 DBB2     		uxtb	r3, r3
 5250 0032 DAB2     		uxtb	r2, r3
 5251 0034 034B     		ldr	r3, .L294
 5252 0036 1A70     		strb	r2, [r3]
 5253              	.L291:
 968:led_manager.c **** }
 5254              		.loc 1 968 0
 5255 0038 1437     		adds	r7, r7, #20
 5256              		.cfi_def_cfa_offset 4
 5257 003a BD46     		mov	sp, r7
 5258              		.cfi_def_cfa_register 13
 5259              		@ sp needed
 5260 003c 5DF8047B 		ldr	r7, [sp], #4
 5261              		.cfi_restore 7
 5262              		.cfi_def_cfa_offset 0
ARM GAS  D:\Windows\AppData\Local\Temp\ccYfDzHQ.s 			page 111


 5263 0040 7047     		bx	lr
 5264              	.L295:
 5265 0042 00BF     		.align	2
 5266              	.L294:
 5267 0044 00000000 		.word	byte06_2
 5268              		.cfi_endproc
 5269              	.LFE115:
 5270              		.size	b31_write, .-b31_write
 5271              		.section	.text.b32_write,"ax",%progbits
 5272              		.align	2
 5273              		.global	b32_write
 5274              		.thumb
 5275              		.thumb_func
 5276              		.type	b32_write, %function
 5277              	b32_write:
 5278              	.LFB116:
 969:led_manager.c **** void b32_write(int bool) {
 5279              		.loc 1 969 0
 5280              		.cfi_startproc
 5281              		@ args = 0, pretend = 0, frame = 16
 5282              		@ frame_needed = 1, uses_anonymous_args = 0
 5283              		@ link register save eliminated.
 5284 0000 80B4     		push	{r7}
 5285              		.cfi_def_cfa_offset 4
 5286              		.cfi_offset 7, -4
 5287 0002 85B0     		sub	sp, sp, #20
 5288              		.cfi_def_cfa_offset 24
 5289 0004 00AF     		add	r7, sp, #0
 5290              		.cfi_def_cfa_register 7
 5291 0006 7860     		str	r0, [r7, #4]
 970:led_manager.c **** 	uint8_t bit = 0x20;
 5292              		.loc 1 970 0
 5293 0008 2023     		movs	r3, #32
 5294 000a FB73     		strb	r3, [r7, #15]
 971:led_manager.c **** 	if(bool == 1) 	//led on
 5295              		.loc 1 971 0
 5296 000c 7B68     		ldr	r3, [r7, #4]
 5297 000e 012B     		cmp	r3, #1
 5298 0010 07D1     		bne	.L297
 972:led_manager.c **** 		byte06_2 = byte06_2 | bit;
 5299              		.loc 1 972 0
 5300 0012 0C4B     		ldr	r3, .L299
 5301 0014 1A78     		ldrb	r2, [r3]	@ zero_extendqisi2
 5302 0016 FB7B     		ldrb	r3, [r7, #15]
 5303 0018 1343     		orrs	r3, r3, r2
 5304 001a DAB2     		uxtb	r2, r3
 5305 001c 094B     		ldr	r3, .L299
 5306 001e 1A70     		strb	r2, [r3]
 5307 0020 0AE0     		b	.L296
 5308              	.L297:
 973:led_manager.c **** 	else			//led off
 974:led_manager.c **** 		byte06_2 = byte06_2 & ~bit;
 5309              		.loc 1 974 0
 5310 0022 FB7B     		ldrb	r3, [r7, #15]	@ zero_extendqisi2
 5311 0024 DB43     		mvns	r3, r3
 5312 0026 DAB2     		uxtb	r2, r3
 5313 0028 064B     		ldr	r3, .L299
ARM GAS  D:\Windows\AppData\Local\Temp\ccYfDzHQ.s 			page 112


 5314 002a 1B78     		ldrb	r3, [r3]	@ zero_extendqisi2
 5315 002c DBB2     		uxtb	r3, r3
 5316 002e 1340     		ands	r3, r3, r2
 5317 0030 DBB2     		uxtb	r3, r3
 5318 0032 DAB2     		uxtb	r2, r3
 5319 0034 034B     		ldr	r3, .L299
 5320 0036 1A70     		strb	r2, [r3]
 5321              	.L296:
 975:led_manager.c **** }
 5322              		.loc 1 975 0
 5323 0038 1437     		adds	r7, r7, #20
 5324              		.cfi_def_cfa_offset 4
 5325 003a BD46     		mov	sp, r7
 5326              		.cfi_def_cfa_register 13
 5327              		@ sp needed
 5328 003c 5DF8047B 		ldr	r7, [sp], #4
 5329              		.cfi_restore 7
 5330              		.cfi_def_cfa_offset 0
 5331 0040 7047     		bx	lr
 5332              	.L300:
 5333 0042 00BF     		.align	2
 5334              	.L299:
 5335 0044 00000000 		.word	byte06_2
 5336              		.cfi_endproc
 5337              	.LFE116:
 5338              		.size	b32_write, .-b32_write
 5339              		.section	.text.b33_write,"ax",%progbits
 5340              		.align	2
 5341              		.global	b33_write
 5342              		.thumb
 5343              		.thumb_func
 5344              		.type	b33_write, %function
 5345              	b33_write:
 5346              	.LFB117:
 976:led_manager.c **** void b33_write(int bool) {
 5347              		.loc 1 976 0
 5348              		.cfi_startproc
 5349              		@ args = 0, pretend = 0, frame = 16
 5350              		@ frame_needed = 1, uses_anonymous_args = 0
 5351              		@ link register save eliminated.
 5352 0000 80B4     		push	{r7}
 5353              		.cfi_def_cfa_offset 4
 5354              		.cfi_offset 7, -4
 5355 0002 85B0     		sub	sp, sp, #20
 5356              		.cfi_def_cfa_offset 24
 5357 0004 00AF     		add	r7, sp, #0
 5358              		.cfi_def_cfa_register 7
 5359 0006 7860     		str	r0, [r7, #4]
 977:led_manager.c **** 	uint8_t bit = 0x02;
 5360              		.loc 1 977 0
 5361 0008 0223     		movs	r3, #2
 5362 000a FB73     		strb	r3, [r7, #15]
 978:led_manager.c **** 	if(bool == 1) 	//led on
 5363              		.loc 1 978 0
 5364 000c 7B68     		ldr	r3, [r7, #4]
 5365 000e 012B     		cmp	r3, #1
 5366 0010 07D1     		bne	.L302
ARM GAS  D:\Windows\AppData\Local\Temp\ccYfDzHQ.s 			page 113


 979:led_manager.c **** 		byte07_2 = byte07_2 | bit;
 5367              		.loc 1 979 0
 5368 0012 0C4B     		ldr	r3, .L304
 5369 0014 1A78     		ldrb	r2, [r3]	@ zero_extendqisi2
 5370 0016 FB7B     		ldrb	r3, [r7, #15]
 5371 0018 1343     		orrs	r3, r3, r2
 5372 001a DAB2     		uxtb	r2, r3
 5373 001c 094B     		ldr	r3, .L304
 5374 001e 1A70     		strb	r2, [r3]
 5375 0020 0AE0     		b	.L301
 5376              	.L302:
 980:led_manager.c **** 	else			//led off
 981:led_manager.c **** 		byte07_2 = byte07_2 & ~bit;
 5377              		.loc 1 981 0
 5378 0022 FB7B     		ldrb	r3, [r7, #15]	@ zero_extendqisi2
 5379 0024 DB43     		mvns	r3, r3
 5380 0026 DAB2     		uxtb	r2, r3
 5381 0028 064B     		ldr	r3, .L304
 5382 002a 1B78     		ldrb	r3, [r3]	@ zero_extendqisi2
 5383 002c DBB2     		uxtb	r3, r3
 5384 002e 1340     		ands	r3, r3, r2
 5385 0030 DBB2     		uxtb	r3, r3
 5386 0032 DAB2     		uxtb	r2, r3
 5387 0034 034B     		ldr	r3, .L304
 5388 0036 1A70     		strb	r2, [r3]
 5389              	.L301:
 982:led_manager.c **** }
 5390              		.loc 1 982 0
 5391 0038 1437     		adds	r7, r7, #20
 5392              		.cfi_def_cfa_offset 4
 5393 003a BD46     		mov	sp, r7
 5394              		.cfi_def_cfa_register 13
 5395              		@ sp needed
 5396 003c 5DF8047B 		ldr	r7, [sp], #4
 5397              		.cfi_restore 7
 5398              		.cfi_def_cfa_offset 0
 5399 0040 7047     		bx	lr
 5400              	.L305:
 5401 0042 00BF     		.align	2
 5402              	.L304:
 5403 0044 00000000 		.word	byte07_2
 5404              		.cfi_endproc
 5405              	.LFE117:
 5406              		.size	b33_write, .-b33_write
 5407              		.section	.text.b34_write,"ax",%progbits
 5408              		.align	2
 5409              		.global	b34_write
 5410              		.thumb
 5411              		.thumb_func
 5412              		.type	b34_write, %function
 5413              	b34_write:
 5414              	.LFB118:
 983:led_manager.c **** void b34_write(int bool) {
 5415              		.loc 1 983 0
 5416              		.cfi_startproc
 5417              		@ args = 0, pretend = 0, frame = 16
 5418              		@ frame_needed = 1, uses_anonymous_args = 0
ARM GAS  D:\Windows\AppData\Local\Temp\ccYfDzHQ.s 			page 114


 5419              		@ link register save eliminated.
 5420 0000 80B4     		push	{r7}
 5421              		.cfi_def_cfa_offset 4
 5422              		.cfi_offset 7, -4
 5423 0002 85B0     		sub	sp, sp, #20
 5424              		.cfi_def_cfa_offset 24
 5425 0004 00AF     		add	r7, sp, #0
 5426              		.cfi_def_cfa_register 7
 5427 0006 7860     		str	r0, [r7, #4]
 984:led_manager.c **** 	uint8_t bit = 0x20;
 5428              		.loc 1 984 0
 5429 0008 2023     		movs	r3, #32
 5430 000a FB73     		strb	r3, [r7, #15]
 985:led_manager.c **** 	if(bool == 1) 	//led on
 5431              		.loc 1 985 0
 5432 000c 7B68     		ldr	r3, [r7, #4]
 5433 000e 012B     		cmp	r3, #1
 5434 0010 07D1     		bne	.L307
 986:led_manager.c **** 		byte07_2 = byte07_2 | bit;
 5435              		.loc 1 986 0
 5436 0012 0C4B     		ldr	r3, .L309
 5437 0014 1A78     		ldrb	r2, [r3]	@ zero_extendqisi2
 5438 0016 FB7B     		ldrb	r3, [r7, #15]
 5439 0018 1343     		orrs	r3, r3, r2
 5440 001a DAB2     		uxtb	r2, r3
 5441 001c 094B     		ldr	r3, .L309
 5442 001e 1A70     		strb	r2, [r3]
 5443 0020 0AE0     		b	.L306
 5444              	.L307:
 987:led_manager.c **** 	else			//led off
 988:led_manager.c **** 		byte07_2 = byte07_2 & ~bit;
 5445              		.loc 1 988 0
 5446 0022 FB7B     		ldrb	r3, [r7, #15]	@ zero_extendqisi2
 5447 0024 DB43     		mvns	r3, r3
 5448 0026 DAB2     		uxtb	r2, r3
 5449 0028 064B     		ldr	r3, .L309
 5450 002a 1B78     		ldrb	r3, [r3]	@ zero_extendqisi2
 5451 002c DBB2     		uxtb	r3, r3
 5452 002e 1340     		ands	r3, r3, r2
 5453 0030 DBB2     		uxtb	r3, r3
 5454 0032 DAB2     		uxtb	r2, r3
 5455 0034 034B     		ldr	r3, .L309
 5456 0036 1A70     		strb	r2, [r3]
 5457              	.L306:
 989:led_manager.c **** }
 5458              		.loc 1 989 0
 5459 0038 1437     		adds	r7, r7, #20
 5460              		.cfi_def_cfa_offset 4
 5461 003a BD46     		mov	sp, r7
 5462              		.cfi_def_cfa_register 13
 5463              		@ sp needed
 5464 003c 5DF8047B 		ldr	r7, [sp], #4
 5465              		.cfi_restore 7
 5466              		.cfi_def_cfa_offset 0
 5467 0040 7047     		bx	lr
 5468              	.L310:
 5469 0042 00BF     		.align	2
ARM GAS  D:\Windows\AppData\Local\Temp\ccYfDzHQ.s 			page 115


 5470              	.L309:
 5471 0044 00000000 		.word	byte07_2
 5472              		.cfi_endproc
 5473              	.LFE118:
 5474              		.size	b34_write, .-b34_write
 5475              		.section	.text.b35_write,"ax",%progbits
 5476              		.align	2
 5477              		.global	b35_write
 5478              		.thumb
 5479              		.thumb_func
 5480              		.type	b35_write, %function
 5481              	b35_write:
 5482              	.LFB119:
 990:led_manager.c **** void b35_write(int bool) {
 5483              		.loc 1 990 0
 5484              		.cfi_startproc
 5485              		@ args = 0, pretend = 0, frame = 16
 5486              		@ frame_needed = 1, uses_anonymous_args = 0
 5487              		@ link register save eliminated.
 5488 0000 80B4     		push	{r7}
 5489              		.cfi_def_cfa_offset 4
 5490              		.cfi_offset 7, -4
 5491 0002 85B0     		sub	sp, sp, #20
 5492              		.cfi_def_cfa_offset 24
 5493 0004 00AF     		add	r7, sp, #0
 5494              		.cfi_def_cfa_register 7
 5495 0006 7860     		str	r0, [r7, #4]
 991:led_manager.c **** 	uint8_t bit = 0x02;
 5496              		.loc 1 991 0
 5497 0008 0223     		movs	r3, #2
 5498 000a FB73     		strb	r3, [r7, #15]
 992:led_manager.c **** 	if(bool == 1) 	//led on
 5499              		.loc 1 992 0
 5500 000c 7B68     		ldr	r3, [r7, #4]
 5501 000e 012B     		cmp	r3, #1
 5502 0010 07D1     		bne	.L312
 993:led_manager.c **** 		byte08_2 = byte08_2 | bit;
 5503              		.loc 1 993 0
 5504 0012 0C4B     		ldr	r3, .L314
 5505 0014 1A78     		ldrb	r2, [r3]	@ zero_extendqisi2
 5506 0016 FB7B     		ldrb	r3, [r7, #15]
 5507 0018 1343     		orrs	r3, r3, r2
 5508 001a DAB2     		uxtb	r2, r3
 5509 001c 094B     		ldr	r3, .L314
 5510 001e 1A70     		strb	r2, [r3]
 5511 0020 0AE0     		b	.L311
 5512              	.L312:
 994:led_manager.c **** 	else			//led off
 995:led_manager.c **** 		byte08_2 = byte08_2 & ~bit;
 5513              		.loc 1 995 0
 5514 0022 FB7B     		ldrb	r3, [r7, #15]	@ zero_extendqisi2
 5515 0024 DB43     		mvns	r3, r3
 5516 0026 DAB2     		uxtb	r2, r3
 5517 0028 064B     		ldr	r3, .L314
 5518 002a 1B78     		ldrb	r3, [r3]	@ zero_extendqisi2
 5519 002c DBB2     		uxtb	r3, r3
 5520 002e 1340     		ands	r3, r3, r2
ARM GAS  D:\Windows\AppData\Local\Temp\ccYfDzHQ.s 			page 116


 5521 0030 DBB2     		uxtb	r3, r3
 5522 0032 DAB2     		uxtb	r2, r3
 5523 0034 034B     		ldr	r3, .L314
 5524 0036 1A70     		strb	r2, [r3]
 5525              	.L311:
 996:led_manager.c **** }
 5526              		.loc 1 996 0
 5527 0038 1437     		adds	r7, r7, #20
 5528              		.cfi_def_cfa_offset 4
 5529 003a BD46     		mov	sp, r7
 5530              		.cfi_def_cfa_register 13
 5531              		@ sp needed
 5532 003c 5DF8047B 		ldr	r7, [sp], #4
 5533              		.cfi_restore 7
 5534              		.cfi_def_cfa_offset 0
 5535 0040 7047     		bx	lr
 5536              	.L315:
 5537 0042 00BF     		.align	2
 5538              	.L314:
 5539 0044 00000000 		.word	byte08_2
 5540              		.cfi_endproc
 5541              	.LFE119:
 5542              		.size	b35_write, .-b35_write
 5543              		.section	.text.c5_write,"ax",%progbits
 5544              		.align	2
 5545              		.global	c5_write
 5546              		.thumb
 5547              		.thumb_func
 5548              		.type	c5_write, %function
 5549              	c5_write:
 5550              	.LFB120:
 997:led_manager.c **** 
 998:led_manager.c **** //main center horizontal bar
 999:led_manager.c **** void c5_write(int bool) {
 5551              		.loc 1 999 0
 5552              		.cfi_startproc
 5553              		@ args = 0, pretend = 0, frame = 16
 5554              		@ frame_needed = 1, uses_anonymous_args = 0
 5555              		@ link register save eliminated.
 5556 0000 80B4     		push	{r7}
 5557              		.cfi_def_cfa_offset 4
 5558              		.cfi_offset 7, -4
 5559 0002 85B0     		sub	sp, sp, #20
 5560              		.cfi_def_cfa_offset 24
 5561 0004 00AF     		add	r7, sp, #0
 5562              		.cfi_def_cfa_register 7
 5563 0006 7860     		str	r0, [r7, #4]
1000:led_manager.c **** 	uint8_t bit = 0x20;
 5564              		.loc 1 1000 0
 5565 0008 2023     		movs	r3, #32
 5566 000a FB73     		strb	r3, [r7, #15]
1001:led_manager.c **** 	if(bool == 1) 	//led on
 5567              		.loc 1 1001 0
 5568 000c 7B68     		ldr	r3, [r7, #4]
 5569 000e 012B     		cmp	r3, #1
 5570 0010 07D1     		bne	.L317
1002:led_manager.c **** 		byte08_2 = byte08_2 | bit;
ARM GAS  D:\Windows\AppData\Local\Temp\ccYfDzHQ.s 			page 117


 5571              		.loc 1 1002 0
 5572 0012 0C4B     		ldr	r3, .L319
 5573 0014 1A78     		ldrb	r2, [r3]	@ zero_extendqisi2
 5574 0016 FB7B     		ldrb	r3, [r7, #15]
 5575 0018 1343     		orrs	r3, r3, r2
 5576 001a DAB2     		uxtb	r2, r3
 5577 001c 094B     		ldr	r3, .L319
 5578 001e 1A70     		strb	r2, [r3]
 5579 0020 0AE0     		b	.L316
 5580              	.L317:
1003:led_manager.c **** 	else			//led off
1004:led_manager.c **** 		byte08_2 = byte08_2 & ~bit;
 5581              		.loc 1 1004 0
 5582 0022 FB7B     		ldrb	r3, [r7, #15]	@ zero_extendqisi2
 5583 0024 DB43     		mvns	r3, r3
 5584 0026 DAB2     		uxtb	r2, r3
 5585 0028 064B     		ldr	r3, .L319
 5586 002a 1B78     		ldrb	r3, [r3]	@ zero_extendqisi2
 5587 002c DBB2     		uxtb	r3, r3
 5588 002e 1340     		ands	r3, r3, r2
 5589 0030 DBB2     		uxtb	r3, r3
 5590 0032 DAB2     		uxtb	r2, r3
 5591 0034 034B     		ldr	r3, .L319
 5592 0036 1A70     		strb	r2, [r3]
 5593              	.L316:
1005:led_manager.c **** }
 5594              		.loc 1 1005 0
 5595 0038 1437     		adds	r7, r7, #20
 5596              		.cfi_def_cfa_offset 4
 5597 003a BD46     		mov	sp, r7
 5598              		.cfi_def_cfa_register 13
 5599              		@ sp needed
 5600 003c 5DF8047B 		ldr	r7, [sp], #4
 5601              		.cfi_restore 7
 5602              		.cfi_def_cfa_offset 0
 5603 0040 7047     		bx	lr
 5604              	.L320:
 5605 0042 00BF     		.align	2
 5606              	.L319:
 5607 0044 00000000 		.word	byte08_2
 5608              		.cfi_endproc
 5609              	.LFE120:
 5610              		.size	c5_write, .-c5_write
 5611              		.section	.text.c4_write,"ax",%progbits
 5612              		.align	2
 5613              		.global	c4_write
 5614              		.thumb
 5615              		.thumb_func
 5616              		.type	c4_write, %function
 5617              	c4_write:
 5618              	.LFB121:
1006:led_manager.c **** void c4_write(int bool) {
 5619              		.loc 1 1006 0
 5620              		.cfi_startproc
 5621              		@ args = 0, pretend = 0, frame = 16
 5622              		@ frame_needed = 1, uses_anonymous_args = 0
 5623              		@ link register save eliminated.
ARM GAS  D:\Windows\AppData\Local\Temp\ccYfDzHQ.s 			page 118


 5624 0000 80B4     		push	{r7}
 5625              		.cfi_def_cfa_offset 4
 5626              		.cfi_offset 7, -4
 5627 0002 85B0     		sub	sp, sp, #20
 5628              		.cfi_def_cfa_offset 24
 5629 0004 00AF     		add	r7, sp, #0
 5630              		.cfi_def_cfa_register 7
 5631 0006 7860     		str	r0, [r7, #4]
1007:led_manager.c **** 	uint8_t bit = 0x04;
 5632              		.loc 1 1007 0
 5633 0008 0423     		movs	r3, #4
 5634 000a FB73     		strb	r3, [r7, #15]
1008:led_manager.c **** 	if(bool == 1) 	//led on
 5635              		.loc 1 1008 0
 5636 000c 7B68     		ldr	r3, [r7, #4]
 5637 000e 012B     		cmp	r3, #1
 5638 0010 07D1     		bne	.L322
1009:led_manager.c **** 		byte05_2 = byte05_2 | bit;
 5639              		.loc 1 1009 0
 5640 0012 0C4B     		ldr	r3, .L324
 5641 0014 1A78     		ldrb	r2, [r3]	@ zero_extendqisi2
 5642 0016 FB7B     		ldrb	r3, [r7, #15]
 5643 0018 1343     		orrs	r3, r3, r2
 5644 001a DAB2     		uxtb	r2, r3
 5645 001c 094B     		ldr	r3, .L324
 5646 001e 1A70     		strb	r2, [r3]
 5647 0020 0AE0     		b	.L321
 5648              	.L322:
1010:led_manager.c **** 	else			//led off
1011:led_manager.c **** 		byte05_2 = byte05_2 & ~bit;
 5649              		.loc 1 1011 0
 5650 0022 FB7B     		ldrb	r3, [r7, #15]	@ zero_extendqisi2
 5651 0024 DB43     		mvns	r3, r3
 5652 0026 DAB2     		uxtb	r2, r3
 5653 0028 064B     		ldr	r3, .L324
 5654 002a 1B78     		ldrb	r3, [r3]	@ zero_extendqisi2
 5655 002c DBB2     		uxtb	r3, r3
 5656 002e 1340     		ands	r3, r3, r2
 5657 0030 DBB2     		uxtb	r3, r3
 5658 0032 DAB2     		uxtb	r2, r3
 5659 0034 034B     		ldr	r3, .L324
 5660 0036 1A70     		strb	r2, [r3]
 5661              	.L321:
1012:led_manager.c **** }
 5662              		.loc 1 1012 0
 5663 0038 1437     		adds	r7, r7, #20
 5664              		.cfi_def_cfa_offset 4
 5665 003a BD46     		mov	sp, r7
 5666              		.cfi_def_cfa_register 13
 5667              		@ sp needed
 5668 003c 5DF8047B 		ldr	r7, [sp], #4
 5669              		.cfi_restore 7
 5670              		.cfi_def_cfa_offset 0
 5671 0040 7047     		bx	lr
 5672              	.L325:
 5673 0042 00BF     		.align	2
 5674              	.L324:
ARM GAS  D:\Windows\AppData\Local\Temp\ccYfDzHQ.s 			page 119


 5675 0044 00000000 		.word	byte05_2
 5676              		.cfi_endproc
 5677              	.LFE121:
 5678              		.size	c4_write, .-c4_write
 5679              		.section	.text.c3_write,"ax",%progbits
 5680              		.align	2
 5681              		.global	c3_write
 5682              		.thumb
 5683              		.thumb_func
 5684              		.type	c3_write, %function
 5685              	c3_write:
 5686              	.LFB122:
1013:led_manager.c **** void c3_write(int bool) {
 5687              		.loc 1 1013 0
 5688              		.cfi_startproc
 5689              		@ args = 0, pretend = 0, frame = 16
 5690              		@ frame_needed = 1, uses_anonymous_args = 0
 5691              		@ link register save eliminated.
 5692 0000 80B4     		push	{r7}
 5693              		.cfi_def_cfa_offset 4
 5694              		.cfi_offset 7, -4
 5695 0002 85B0     		sub	sp, sp, #20
 5696              		.cfi_def_cfa_offset 24
 5697 0004 00AF     		add	r7, sp, #0
 5698              		.cfi_def_cfa_register 7
 5699 0006 7860     		str	r0, [r7, #4]
1014:led_manager.c **** 	uint8_t bit = 0x40;
 5700              		.loc 1 1014 0
 5701 0008 4023     		movs	r3, #64
 5702 000a FB73     		strb	r3, [r7, #15]
1015:led_manager.c **** 	if(bool == 1) 	//led on
 5703              		.loc 1 1015 0
 5704 000c 7B68     		ldr	r3, [r7, #4]
 5705 000e 012B     		cmp	r3, #1
 5706 0010 07D1     		bne	.L327
1016:led_manager.c **** 		byte05_2 = byte05_2 | bit;
 5707              		.loc 1 1016 0
 5708 0012 0C4B     		ldr	r3, .L329
 5709 0014 1A78     		ldrb	r2, [r3]	@ zero_extendqisi2
 5710 0016 FB7B     		ldrb	r3, [r7, #15]
 5711 0018 1343     		orrs	r3, r3, r2
 5712 001a DAB2     		uxtb	r2, r3
 5713 001c 094B     		ldr	r3, .L329
 5714 001e 1A70     		strb	r2, [r3]
 5715 0020 0AE0     		b	.L326
 5716              	.L327:
1017:led_manager.c **** 	else			//led off
1018:led_manager.c **** 		byte05_2 = byte05_2 & ~bit;
 5717              		.loc 1 1018 0
 5718 0022 FB7B     		ldrb	r3, [r7, #15]	@ zero_extendqisi2
 5719 0024 DB43     		mvns	r3, r3
 5720 0026 DAB2     		uxtb	r2, r3
 5721 0028 064B     		ldr	r3, .L329
 5722 002a 1B78     		ldrb	r3, [r3]	@ zero_extendqisi2
 5723 002c DBB2     		uxtb	r3, r3
 5724 002e 1340     		ands	r3, r3, r2
 5725 0030 DBB2     		uxtb	r3, r3
ARM GAS  D:\Windows\AppData\Local\Temp\ccYfDzHQ.s 			page 120


 5726 0032 DAB2     		uxtb	r2, r3
 5727 0034 034B     		ldr	r3, .L329
 5728 0036 1A70     		strb	r2, [r3]
 5729              	.L326:
1019:led_manager.c **** }
 5730              		.loc 1 1019 0
 5731 0038 1437     		adds	r7, r7, #20
 5732              		.cfi_def_cfa_offset 4
 5733 003a BD46     		mov	sp, r7
 5734              		.cfi_def_cfa_register 13
 5735              		@ sp needed
 5736 003c 5DF8047B 		ldr	r7, [sp], #4
 5737              		.cfi_restore 7
 5738              		.cfi_def_cfa_offset 0
 5739 0040 7047     		bx	lr
 5740              	.L330:
 5741 0042 00BF     		.align	2
 5742              	.L329:
 5743 0044 00000000 		.word	byte05_2
 5744              		.cfi_endproc
 5745              	.LFE122:
 5746              		.size	c3_write, .-c3_write
 5747              		.section	.text.c2_write,"ax",%progbits
 5748              		.align	2
 5749              		.global	c2_write
 5750              		.thumb
 5751              		.thumb_func
 5752              		.type	c2_write, %function
 5753              	c2_write:
 5754              	.LFB123:
1020:led_manager.c **** //right bar
1021:led_manager.c **** void c2_write(int bool) {
 5755              		.loc 1 1021 0
 5756              		.cfi_startproc
 5757              		@ args = 0, pretend = 0, frame = 16
 5758              		@ frame_needed = 1, uses_anonymous_args = 0
 5759              		@ link register save eliminated.
 5760 0000 80B4     		push	{r7}
 5761              		.cfi_def_cfa_offset 4
 5762              		.cfi_offset 7, -4
 5763 0002 85B0     		sub	sp, sp, #20
 5764              		.cfi_def_cfa_offset 24
 5765 0004 00AF     		add	r7, sp, #0
 5766              		.cfi_def_cfa_register 7
 5767 0006 7860     		str	r0, [r7, #4]
1022:led_manager.c **** 	uint8_t bit = 0x04;
 5768              		.loc 1 1022 0
 5769 0008 0423     		movs	r3, #4
 5770 000a FB73     		strb	r3, [r7, #15]
1023:led_manager.c **** 	if(bool == 1) 	//led on
 5771              		.loc 1 1023 0
 5772 000c 7B68     		ldr	r3, [r7, #4]
 5773 000e 012B     		cmp	r3, #1
 5774 0010 07D1     		bne	.L332
1024:led_manager.c **** 		byte06_2 = byte06_2 | bit;
 5775              		.loc 1 1024 0
 5776 0012 0C4B     		ldr	r3, .L334
ARM GAS  D:\Windows\AppData\Local\Temp\ccYfDzHQ.s 			page 121


 5777 0014 1A78     		ldrb	r2, [r3]	@ zero_extendqisi2
 5778 0016 FB7B     		ldrb	r3, [r7, #15]
 5779 0018 1343     		orrs	r3, r3, r2
 5780 001a DAB2     		uxtb	r2, r3
 5781 001c 094B     		ldr	r3, .L334
 5782 001e 1A70     		strb	r2, [r3]
 5783 0020 0AE0     		b	.L331
 5784              	.L332:
1025:led_manager.c **** 	else			//led off
1026:led_manager.c **** 		byte06_2 = byte06_2 & ~bit;
 5785              		.loc 1 1026 0
 5786 0022 FB7B     		ldrb	r3, [r7, #15]	@ zero_extendqisi2
 5787 0024 DB43     		mvns	r3, r3
 5788 0026 DAB2     		uxtb	r2, r3
 5789 0028 064B     		ldr	r3, .L334
 5790 002a 1B78     		ldrb	r3, [r3]	@ zero_extendqisi2
 5791 002c DBB2     		uxtb	r3, r3
 5792 002e 1340     		ands	r3, r3, r2
 5793 0030 DBB2     		uxtb	r3, r3
 5794 0032 DAB2     		uxtb	r2, r3
 5795 0034 034B     		ldr	r3, .L334
 5796 0036 1A70     		strb	r2, [r3]
 5797              	.L331:
1027:led_manager.c **** }
 5798              		.loc 1 1027 0
 5799 0038 1437     		adds	r7, r7, #20
 5800              		.cfi_def_cfa_offset 4
 5801 003a BD46     		mov	sp, r7
 5802              		.cfi_def_cfa_register 13
 5803              		@ sp needed
 5804 003c 5DF8047B 		ldr	r7, [sp], #4
 5805              		.cfi_restore 7
 5806              		.cfi_def_cfa_offset 0
 5807 0040 7047     		bx	lr
 5808              	.L335:
 5809 0042 00BF     		.align	2
 5810              	.L334:
 5811 0044 00000000 		.word	byte06_2
 5812              		.cfi_endproc
 5813              	.LFE123:
 5814              		.size	c2_write, .-c2_write
 5815              		.section	.text.c1_write,"ax",%progbits
 5816              		.align	2
 5817              		.global	c1_write
 5818              		.thumb
 5819              		.thumb_func
 5820              		.type	c1_write, %function
 5821              	c1_write:
 5822              	.LFB124:
1028:led_manager.c **** //right bar
1029:led_manager.c **** void c1_write(int bool) {
 5823              		.loc 1 1029 0
 5824              		.cfi_startproc
 5825              		@ args = 0, pretend = 0, frame = 16
 5826              		@ frame_needed = 1, uses_anonymous_args = 0
 5827              		@ link register save eliminated.
 5828 0000 80B4     		push	{r7}
ARM GAS  D:\Windows\AppData\Local\Temp\ccYfDzHQ.s 			page 122


 5829              		.cfi_def_cfa_offset 4
 5830              		.cfi_offset 7, -4
 5831 0002 85B0     		sub	sp, sp, #20
 5832              		.cfi_def_cfa_offset 24
 5833 0004 00AF     		add	r7, sp, #0
 5834              		.cfi_def_cfa_register 7
 5835 0006 7860     		str	r0, [r7, #4]
1030:led_manager.c **** 	uint8_t bit = 0x40;
 5836              		.loc 1 1030 0
 5837 0008 4023     		movs	r3, #64
 5838 000a FB73     		strb	r3, [r7, #15]
1031:led_manager.c **** 	if(bool == 1) 	//led on
 5839              		.loc 1 1031 0
 5840 000c 7B68     		ldr	r3, [r7, #4]
 5841 000e 012B     		cmp	r3, #1
 5842 0010 07D1     		bne	.L337
1032:led_manager.c **** 		byte06_2 = byte06_2 | bit;
 5843              		.loc 1 1032 0
 5844 0012 0C4B     		ldr	r3, .L339
 5845 0014 1A78     		ldrb	r2, [r3]	@ zero_extendqisi2
 5846 0016 FB7B     		ldrb	r3, [r7, #15]
 5847 0018 1343     		orrs	r3, r3, r2
 5848 001a DAB2     		uxtb	r2, r3
 5849 001c 094B     		ldr	r3, .L339
 5850 001e 1A70     		strb	r2, [r3]
 5851 0020 0AE0     		b	.L336
 5852              	.L337:
1033:led_manager.c **** 	else			//led off
1034:led_manager.c **** 		byte06_2 = byte06_2 & ~bit;
 5853              		.loc 1 1034 0
 5854 0022 FB7B     		ldrb	r3, [r7, #15]	@ zero_extendqisi2
 5855 0024 DB43     		mvns	r3, r3
 5856 0026 DAB2     		uxtb	r2, r3
 5857 0028 064B     		ldr	r3, .L339
 5858 002a 1B78     		ldrb	r3, [r3]	@ zero_extendqisi2
 5859 002c DBB2     		uxtb	r3, r3
 5860 002e 1340     		ands	r3, r3, r2
 5861 0030 DBB2     		uxtb	r3, r3
 5862 0032 DAB2     		uxtb	r2, r3
 5863 0034 034B     		ldr	r3, .L339
 5864 0036 1A70     		strb	r2, [r3]
 5865              	.L336:
1035:led_manager.c **** }...
 5866              		.loc 1 1035 0
 5867 0038 1437     		adds	r7, r7, #20
 5868              		.cfi_def_cfa_offset 4
 5869 003a BD46     		mov	sp, r7
 5870              		.cfi_def_cfa_register 13
 5871              		@ sp needed
 5872 003c 5DF8047B 		ldr	r7, [sp], #4
 5873              		.cfi_restore 7
 5874              		.cfi_def_cfa_offset 0
 5875 0040 7047     		bx	lr
 5876              	.L340:
 5877 0042 00BF     		.align	2
 5878              	.L339:
 5879 0044 00000000 		.word	byte06_2
ARM GAS  D:\Windows\AppData\Local\Temp\ccYfDzHQ.s 			page 123


 5880              		.cfi_endproc
 5881              	.LFE124:
 5882              		.size	c1_write, .-c1_write
 5883              		.text
 5884              	.Letext0:
 5885              		.file 2 "d:\\programming\\cypress\\psoc creator\\4.0\\psoc creator\\import\\gnu\\arm\\4.9.3\\arm-n
 5886              		.file 3 "d:\\programming\\cypress\\psoc creator\\4.0\\psoc creator\\import\\gnu\\arm\\4.9.3\\arm-n
 5887              		.file 4 "Generated_Source\\PSoC5/core_cm3.h"
 5888              		.section	.debug_info,"",%progbits
 5889              	.Ldebug_info0:
 5890 0000 A40E0000 		.4byte	0xea4
 5891 0004 0400     		.2byte	0x4
 5892 0006 00000000 		.4byte	.Ldebug_abbrev0
 5893 000a 04       		.byte	0x4
 5894 000b 01       		.uleb128 0x1
 5895 000c D5020000 		.4byte	.LASF118
 5896 0010 01       		.byte	0x1
 5897 0011 1B040000 		.4byte	.LASF119
 5898 0015 30000000 		.4byte	.LASF120
 5899 0019 00000000 		.4byte	.Ldebug_ranges0+0
 5900 001d 00000000 		.4byte	0
 5901 0021 00000000 		.4byte	.Ldebug_line0
 5902 0025 02       		.uleb128 0x2
 5903 0026 01       		.byte	0x1
 5904 0027 06       		.byte	0x6
 5905 0028 7E050000 		.4byte	.LASF0
 5906 002c 03       		.uleb128 0x3
 5907 002d 59040000 		.4byte	.LASF3
 5908 0031 02       		.byte	0x2
 5909 0032 1D       		.byte	0x1d
 5910 0033 37000000 		.4byte	0x37
 5911 0037 02       		.uleb128 0x2
 5912 0038 01       		.byte	0x1
 5913 0039 08       		.byte	0x8
 5914 003a FD040000 		.4byte	.LASF1
 5915 003e 02       		.uleb128 0x2
 5916 003f 02       		.byte	0x2
 5917 0040 05       		.byte	0x5
 5918 0041 E5030000 		.4byte	.LASF2
 5919 0045 03       		.uleb128 0x3
 5920 0046 59010000 		.4byte	.LASF4
 5921 004a 02       		.byte	0x2
 5922 004b 2B       		.byte	0x2b
 5923 004c 50000000 		.4byte	0x50
 5924 0050 02       		.uleb128 0x2
 5925 0051 02       		.byte	0x2
 5926 0052 07       		.byte	0x7
 5927 0053 A0050000 		.4byte	.LASF5
 5928 0057 03       		.uleb128 0x3
 5929 0058 C2000000 		.4byte	.LASF6
 5930 005c 02       		.byte	0x2
 5931 005d 3F       		.byte	0x3f
 5932 005e 62000000 		.4byte	0x62
 5933 0062 02       		.uleb128 0x2
 5934 0063 04       		.byte	0x4
 5935 0064 05       		.byte	0x5
 5936 0065 F5030000 		.4byte	.LASF7
ARM GAS  D:\Windows\AppData\Local\Temp\ccYfDzHQ.s 			page 124


 5937 0069 02       		.uleb128 0x2
 5938 006a 04       		.byte	0x4
 5939 006b 07       		.byte	0x7
 5940 006c A5040000 		.4byte	.LASF8
 5941 0070 02       		.uleb128 0x2
 5942 0071 08       		.byte	0x8
 5943 0072 05       		.byte	0x5
 5944 0073 95020000 		.4byte	.LASF9
 5945 0077 02       		.uleb128 0x2
 5946 0078 08       		.byte	0x8
 5947 0079 07       		.byte	0x7
 5948 007a 38010000 		.4byte	.LASF10
 5949 007e 04       		.uleb128 0x4
 5950 007f 04       		.byte	0x4
 5951 0080 05       		.byte	0x5
 5952 0081 696E7400 		.ascii	"int\000"
 5953 0085 02       		.uleb128 0x2
 5954 0086 04       		.byte	0x4
 5955 0087 07       		.byte	0x7
 5956 0088 B5000000 		.4byte	.LASF11
 5957 008c 03       		.uleb128 0x3
 5958 008d 46020000 		.4byte	.LASF12
 5959 0091 03       		.byte	0x3
 5960 0092 15       		.byte	0x15
 5961 0093 2C000000 		.4byte	0x2c
 5962 0097 03       		.uleb128 0x3
 5963 0098 AA030000 		.4byte	.LASF13
 5964 009c 03       		.byte	0x3
 5965 009d 21       		.byte	0x21
 5966 009e 45000000 		.4byte	0x45
 5967 00a2 03       		.uleb128 0x3
 5968 00a3 C3040000 		.4byte	.LASF14
 5969 00a7 03       		.byte	0x3
 5970 00a8 2C       		.byte	0x2c
 5971 00a9 57000000 		.4byte	0x57
 5972 00ad 02       		.uleb128 0x2
 5973 00ae 04       		.byte	0x4
 5974 00af 04       		.byte	0x4
 5975 00b0 16010000 		.4byte	.LASF15
 5976 00b4 02       		.uleb128 0x2
 5977 00b5 08       		.byte	0x8
 5978 00b6 04       		.byte	0x4
 5979 00b7 B3050000 		.4byte	.LASF16
 5980 00bb 02       		.uleb128 0x2
 5981 00bc 01       		.byte	0x1
 5982 00bd 08       		.byte	0x8
 5983 00be EC010000 		.4byte	.LASF17
 5984 00c2 02       		.uleb128 0x2
 5985 00c3 04       		.byte	0x4
 5986 00c4 07       		.byte	0x7
 5987 00c5 9C040000 		.4byte	.LASF18
 5988 00c9 05       		.uleb128 0x5
 5989 00ca 32040000 		.4byte	.LASF19
 5990 00ce 01       		.byte	0x1
 5991 00cf 33       		.byte	0x33
 5992 00d0 00000000 		.4byte	.LFB63
 5993 00d4 00010000 		.4byte	.LFE63-.LFB63
ARM GAS  D:\Windows\AppData\Local\Temp\ccYfDzHQ.s 			page 125


 5994 00d8 01       		.uleb128 0x1
 5995 00d9 9C       		.byte	0x9c
 5996 00da 05       		.uleb128 0x5
 5997 00db 6C030000 		.4byte	.LASF20
 5998 00df 01       		.byte	0x1
 5999 00e0 4F       		.byte	0x4f
 6000 00e1 00000000 		.4byte	.LFB64
 6001 00e5 54000000 		.4byte	.LFE64-.LFB64
 6002 00e9 01       		.uleb128 0x1
 6003 00ea 9C       		.byte	0x9c
 6004 00eb 05       		.uleb128 0x5
 6005 00ec B7040000 		.4byte	.LASF21
 6006 00f0 01       		.byte	0x1
 6007 00f1 59       		.byte	0x59
 6008 00f2 00000000 		.4byte	.LFB65
 6009 00f6 54000000 		.4byte	.LFE65-.LFB65
 6010 00fa 01       		.uleb128 0x1
 6011 00fb 9C       		.byte	0x9c
 6012 00fc 05       		.uleb128 0x5
 6013 00fd 24000000 		.4byte	.LASF22
 6014 0101 01       		.byte	0x1
 6015 0102 63       		.byte	0x63
 6016 0103 00000000 		.4byte	.LFB66
 6017 0107 54000000 		.4byte	.LFE66-.LFB66
 6018 010b 01       		.uleb128 0x1
 6019 010c 9C       		.byte	0x9c
 6020 010d 05       		.uleb128 0x5
 6021 010e A1010000 		.4byte	.LASF23
 6022 0112 01       		.byte	0x1
 6023 0113 6D       		.byte	0x6d
 6024 0114 00000000 		.4byte	.LFB67
 6025 0118 54000000 		.4byte	.LFE67-.LFB67
 6026 011c 01       		.uleb128 0x1
 6027 011d 9C       		.byte	0x9c
 6028 011e 06       		.uleb128 0x6
 6029 011f FE030000 		.4byte	.LASF121
 6030 0123 01       		.byte	0x1
 6031 0124 78       		.byte	0x78
 6032 0125 00000000 		.4byte	.LFB68
 6033 0129 98000000 		.4byte	.LFE68-.LFB68
 6034 012d 01       		.uleb128 0x1
 6035 012e 9C       		.byte	0x9c
 6036 012f 42010000 		.4byte	0x142
 6037 0133 07       		.uleb128 0x7
 6038 0134 4E020000 		.4byte	.LASF24
 6039 0138 01       		.byte	0x1
 6040 0139 79       		.byte	0x79
 6041 013a 7E000000 		.4byte	0x7e
 6042 013e 02       		.uleb128 0x2
 6043 013f 91       		.byte	0x91
 6044 0140 74       		.sleb128 -12
 6045 0141 00       		.byte	0
 6046 0142 08       		.uleb128 0x8
 6047 0143 83040000 		.4byte	.LASF27
 6048 0147 01       		.byte	0x1
 6049 0148 B2       		.byte	0xb2
 6050 0149 00000000 		.4byte	.LFB69
ARM GAS  D:\Windows\AppData\Local\Temp\ccYfDzHQ.s 			page 126


 6051 014d 08030000 		.4byte	.LFE69-.LFB69
 6052 0151 01       		.uleb128 0x1
 6053 0152 9C       		.byte	0x9c
 6054 0153 98010000 		.4byte	0x198
 6055 0157 09       		.uleb128 0x9
 6056 0158 DA010000 		.4byte	.LASF29
 6057 015c 01       		.byte	0x1
 6058 015d B2       		.byte	0xb2
 6059 015e 97000000 		.4byte	0x97
 6060 0162 02       		.uleb128 0x2
 6061 0163 91       		.byte	0x91
 6062 0164 66       		.sleb128 -26
 6063 0165 07       		.uleb128 0x7
 6064 0166 28010000 		.4byte	.LASF25
 6065 016a 01       		.byte	0x1
 6066 016b B4       		.byte	0xb4
 6067 016c 7E000000 		.4byte	0x7e
 6068 0170 02       		.uleb128 0x2
 6069 0171 91       		.byte	0x91
 6070 0172 6C       		.sleb128 -20
 6071 0173 07       		.uleb128 0x7
 6072 0174 06010000 		.4byte	.LASF26
 6073 0178 01       		.byte	0x1
 6074 0179 B5       		.byte	0xb5
 6075 017a 7E000000 		.4byte	0x7e
 6076 017e 02       		.uleb128 0x2
 6077 017f 91       		.byte	0x91
 6078 0180 74       		.sleb128 -12
 6079 0181 0A       		.uleb128 0xa
 6080 0182 E6010000 		.4byte	.LBB2
 6081 0186 18010000 		.4byte	.LBE2-.LBB2
 6082 018a 0B       		.uleb128 0xb
 6083 018b 6900     		.ascii	"i\000"
 6084 018d 01       		.byte	0x1
 6085 018e F6       		.byte	0xf6
 6086 018f 7E000000 		.4byte	0x7e
 6087 0193 02       		.uleb128 0x2
 6088 0194 91       		.byte	0x91
 6089 0195 70       		.sleb128 -16
 6090 0196 00       		.byte	0
 6091 0197 00       		.byte	0
 6092 0198 0C       		.uleb128 0xc
 6093 0199 4D050000 		.4byte	.LASF28
 6094 019d 01       		.byte	0x1
 6095 019e 1601     		.2byte	0x116
 6096 01a0 00000000 		.4byte	.LFB70
 6097 01a4 50010000 		.4byte	.LFE70-.LFB70
 6098 01a8 01       		.uleb128 0x1
 6099 01a9 9C       		.byte	0x9c
 6100 01aa E4010000 		.4byte	0x1e4
 6101 01ae 0D       		.uleb128 0xd
 6102 01af BB020000 		.4byte	.LASF30
 6103 01b3 01       		.byte	0x1
 6104 01b4 1601     		.2byte	0x116
 6105 01b6 8C000000 		.4byte	0x8c
 6106 01ba 02       		.uleb128 0x2
 6107 01bb 91       		.byte	0x91
ARM GAS  D:\Windows\AppData\Local\Temp\ccYfDzHQ.s 			page 127


 6108 01bc 6F       		.sleb128 -17
 6109 01bd 0E       		.uleb128 0xe
 6110 01be 06010000 		.4byte	.LASF26
 6111 01c2 01       		.byte	0x1
 6112 01c3 1F01     		.2byte	0x11f
 6113 01c5 7E000000 		.4byte	0x7e
 6114 01c9 02       		.uleb128 0x2
 6115 01ca 91       		.byte	0x91
 6116 01cb 74       		.sleb128 -12
 6117 01cc 0A       		.uleb128 0xa
 6118 01cd C6000000 		.4byte	.LBB3
 6119 01d1 70000000 		.4byte	.LBE3-.LBB3
 6120 01d5 0F       		.uleb128 0xf
 6121 01d6 6900     		.ascii	"i\000"
 6122 01d8 01       		.byte	0x1
 6123 01d9 3301     		.2byte	0x133
 6124 01db 7E000000 		.4byte	0x7e
 6125 01df 02       		.uleb128 0x2
 6126 01e0 91       		.byte	0x91
 6127 01e1 70       		.sleb128 -16
 6128 01e2 00       		.byte	0
 6129 01e3 00       		.byte	0
 6130 01e4 0C       		.uleb128 0xc
 6131 01e5 5A050000 		.4byte	.LASF31
 6132 01e9 01       		.byte	0x1
 6133 01ea 4201     		.2byte	0x142
 6134 01ec 00000000 		.4byte	.LFB71
 6135 01f0 60010000 		.4byte	.LFE71-.LFB71
 6136 01f4 01       		.uleb128 0x1
 6137 01f5 9C       		.byte	0x9c
 6138 01f6 3F020000 		.4byte	0x23f
 6139 01fa 0D       		.uleb128 0xd
 6140 01fb 8A050000 		.4byte	.LASF32
 6141 01ff 01       		.byte	0x1
 6142 0200 4201     		.2byte	0x142
 6143 0202 97000000 		.4byte	0x97
 6144 0206 02       		.uleb128 0x2
 6145 0207 91       		.byte	0x91
 6146 0208 66       		.sleb128 -26
 6147 0209 0E       		.uleb128 0xe
 6148 020a 47040000 		.4byte	.LASF33
 6149 020e 01       		.byte	0x1
 6150 020f 4301     		.2byte	0x143
 6151 0211 7E000000 		.4byte	0x7e
 6152 0215 02       		.uleb128 0x2
 6153 0216 91       		.byte	0x91
 6154 0217 6C       		.sleb128 -20
 6155 0218 0E       		.uleb128 0xe
 6156 0219 06010000 		.4byte	.LASF26
 6157 021d 01       		.byte	0x1
 6158 021e 4D01     		.2byte	0x14d
 6159 0220 7E000000 		.4byte	0x7e
 6160 0224 02       		.uleb128 0x2
 6161 0225 91       		.byte	0x91
 6162 0226 74       		.sleb128 -12
 6163 0227 0A       		.uleb128 0xa
 6164 0228 D4000000 		.4byte	.LBB4
ARM GAS  D:\Windows\AppData\Local\Temp\ccYfDzHQ.s 			page 128


 6165 022c 70000000 		.4byte	.LBE4-.LBB4
 6166 0230 0F       		.uleb128 0xf
 6167 0231 6900     		.ascii	"i\000"
 6168 0233 01       		.byte	0x1
 6169 0234 6101     		.2byte	0x161
 6170 0236 7E000000 		.4byte	0x7e
 6171 023a 02       		.uleb128 0x2
 6172 023b 91       		.byte	0x91
 6173 023c 70       		.sleb128 -16
 6174 023d 00       		.byte	0
 6175 023e 00       		.byte	0
 6176 023f 0C       		.uleb128 0xc
 6177 0240 67050000 		.4byte	.LASF34
 6178 0244 01       		.byte	0x1
 6179 0245 7001     		.2byte	0x170
 6180 0247 00000000 		.4byte	.LFB72
 6181 024b 60010000 		.4byte	.LFE72-.LFB72
 6182 024f 01       		.uleb128 0x1
 6183 0250 9C       		.byte	0x9c
 6184 0251 9A020000 		.4byte	0x29a
 6185 0255 0D       		.uleb128 0xd
 6186 0256 CB030000 		.4byte	.LASF35
 6187 025a 01       		.byte	0x1
 6188 025b 7001     		.2byte	0x170
 6189 025d 97000000 		.4byte	0x97
 6190 0261 02       		.uleb128 0x2
 6191 0262 91       		.byte	0x91
 6192 0263 66       		.sleb128 -26
 6193 0264 0E       		.uleb128 0xe
 6194 0265 BD030000 		.4byte	.LASF36
 6195 0269 01       		.byte	0x1
 6196 026a 7101     		.2byte	0x171
 6197 026c 7E000000 		.4byte	0x7e
 6198 0270 02       		.uleb128 0x2
 6199 0271 91       		.byte	0x91
 6200 0272 6C       		.sleb128 -20
 6201 0273 0E       		.uleb128 0xe
 6202 0274 06010000 		.4byte	.LASF26
 6203 0278 01       		.byte	0x1
 6204 0279 7A01     		.2byte	0x17a
 6205 027b 7E000000 		.4byte	0x7e
 6206 027f 02       		.uleb128 0x2
 6207 0280 91       		.byte	0x91
 6208 0281 74       		.sleb128 -12
 6209 0282 0A       		.uleb128 0xa
 6210 0283 D4000000 		.4byte	.LBB5
 6211 0287 70000000 		.4byte	.LBE5-.LBB5
 6212 028b 0F       		.uleb128 0xf
 6213 028c 6900     		.ascii	"i\000"
 6214 028e 01       		.byte	0x1
 6215 028f 8E01     		.2byte	0x18e
 6216 0291 7E000000 		.4byte	0x7e
 6217 0295 02       		.uleb128 0x2
 6218 0296 91       		.byte	0x91
 6219 0297 70       		.sleb128 -16
 6220 0298 00       		.byte	0
 6221 0299 00       		.byte	0
ARM GAS  D:\Windows\AppData\Local\Temp\ccYfDzHQ.s 			page 129


 6222 029a 0C       		.uleb128 0xc
 6223 029b CF050000 		.4byte	.LASF37
 6224 029f 01       		.byte	0x1
 6225 02a0 9D01     		.2byte	0x19d
 6226 02a2 00000000 		.4byte	.LFB73
 6227 02a6 4C010000 		.4byte	.LFE73-.LFB73
 6228 02aa 01       		.uleb128 0x1
 6229 02ab 9C       		.byte	0x9c
 6230 02ac E6020000 		.4byte	0x2e6
 6231 02b0 10       		.uleb128 0x10
 6232 02b1 536F4300 		.ascii	"SoC\000"
 6233 02b5 01       		.byte	0x1
 6234 02b6 9D01     		.2byte	0x19d
 6235 02b8 8C000000 		.4byte	0x8c
 6236 02bc 02       		.uleb128 0x2
 6237 02bd 91       		.byte	0x91
 6238 02be 6F       		.sleb128 -17
 6239 02bf 0E       		.uleb128 0xe
 6240 02c0 06010000 		.4byte	.LASF26
 6241 02c4 01       		.byte	0x1
 6242 02c5 A501     		.2byte	0x1a5
 6243 02c7 7E000000 		.4byte	0x7e
 6244 02cb 02       		.uleb128 0x2
 6245 02cc 91       		.byte	0x91
 6246 02cd 74       		.sleb128 -12
 6247 02ce 0A       		.uleb128 0xa
 6248 02cf C6000000 		.4byte	.LBB6
 6249 02d3 70000000 		.4byte	.LBE6-.LBB6
 6250 02d7 0F       		.uleb128 0xf
 6251 02d8 6900     		.ascii	"i\000"
 6252 02da 01       		.byte	0x1
 6253 02db B901     		.2byte	0x1b9
 6254 02dd 7E000000 		.4byte	0x7e
 6255 02e1 02       		.uleb128 0x2
 6256 02e2 91       		.byte	0x91
 6257 02e3 70       		.sleb128 -16
 6258 02e4 00       		.byte	0
 6259 02e5 00       		.byte	0
 6260 02e6 0C       		.uleb128 0xc
 6261 02e7 70010000 		.4byte	.LASF38
 6262 02eb 01       		.byte	0x1
 6263 02ec C901     		.2byte	0x1c9
 6264 02ee 00000000 		.4byte	.LFB74
 6265 02f2 64000000 		.4byte	.LFE74-.LFB74
 6266 02f6 01       		.uleb128 0x1
 6267 02f7 9C       		.byte	0x9c
 6268 02f8 1B030000 		.4byte	0x31b
 6269 02fc 0D       		.uleb128 0xd
 6270 02fd D0020000 		.4byte	.LASF39
 6271 0301 01       		.byte	0x1
 6272 0302 C901     		.2byte	0x1c9
 6273 0304 7E000000 		.4byte	0x7e
 6274 0308 02       		.uleb128 0x2
 6275 0309 91       		.byte	0x91
 6276 030a 6C       		.sleb128 -20
 6277 030b 0E       		.uleb128 0xe
 6278 030c EF030000 		.4byte	.LASF40
ARM GAS  D:\Windows\AppData\Local\Temp\ccYfDzHQ.s 			page 130


 6279 0310 01       		.byte	0x1
 6280 0311 CA01     		.2byte	0x1ca
 6281 0313 8C000000 		.4byte	0x8c
 6282 0317 02       		.uleb128 0x2
 6283 0318 91       		.byte	0x91
 6284 0319 77       		.sleb128 -9
 6285 031a 00       		.byte	0
 6286 031b 0C       		.uleb128 0xc
 6287 031c CC000000 		.4byte	.LASF41
 6288 0320 01       		.byte	0x1
 6289 0321 DD01     		.2byte	0x1dd
 6290 0323 00000000 		.4byte	.LFB75
 6291 0327 64000000 		.4byte	.LFE75-.LFB75
 6292 032b 01       		.uleb128 0x1
 6293 032c 9C       		.byte	0x9c
 6294 032d 50030000 		.4byte	0x350
 6295 0331 0D       		.uleb128 0xd
 6296 0332 D0020000 		.4byte	.LASF39
 6297 0336 01       		.byte	0x1
 6298 0337 DD01     		.2byte	0x1dd
 6299 0339 7E000000 		.4byte	0x7e
 6300 033d 02       		.uleb128 0x2
 6301 033e 91       		.byte	0x91
 6302 033f 6C       		.sleb128 -20
 6303 0340 0E       		.uleb128 0xe
 6304 0341 EF030000 		.4byte	.LASF40
 6305 0345 01       		.byte	0x1
 6306 0346 DE01     		.2byte	0x1de
 6307 0348 8C000000 		.4byte	0x8c
 6308 034c 02       		.uleb128 0x2
 6309 034d 91       		.byte	0x91
 6310 034e 77       		.sleb128 -9
 6311 034f 00       		.byte	0
 6312 0350 11       		.uleb128 0x11
 6313 0351 55020000 		.4byte	.LASF42
 6314 0355 01       		.byte	0x1
 6315 0356 F201     		.2byte	0x1f2
 6316 0358 00000000 		.4byte	.LFB76
 6317 035c 50000000 		.4byte	.LFE76-.LFB76
 6318 0360 01       		.uleb128 0x1
 6319 0361 9C       		.byte	0x9c
 6320 0362 11       		.uleb128 0x11
 6321 0363 88010000 		.4byte	.LASF43
 6322 0367 01       		.byte	0x1
 6323 0368 FC01     		.2byte	0x1fc
 6324 036a 00000000 		.4byte	.LFB77
 6325 036e 50000000 		.4byte	.LFE77-.LFB77
 6326 0372 01       		.uleb128 0x1
 6327 0373 9C       		.byte	0x9c
 6328 0374 11       		.uleb128 0x11
 6329 0375 78020000 		.4byte	.LASF44
 6330 0379 01       		.byte	0x1
 6331 037a 0702     		.2byte	0x207
 6332 037c 00000000 		.4byte	.LFB78
 6333 0380 40020000 		.4byte	.LFE78-.LFB78
 6334 0384 01       		.uleb128 0x1
 6335 0385 9C       		.byte	0x9c
ARM GAS  D:\Windows\AppData\Local\Temp\ccYfDzHQ.s 			page 131


 6336 0386 11       		.uleb128 0x11
 6337 0387 AD010000 		.4byte	.LASF45
 6338 038b 01       		.byte	0x1
 6339 038c 3302     		.2byte	0x233
 6340 038e 00000000 		.4byte	.LFB79
 6341 0392 A0000000 		.4byte	.LFE79-.LFB79
 6342 0396 01       		.uleb128 0x1
 6343 0397 9C       		.byte	0x9c
 6344 0398 11       		.uleb128 0x11
 6345 0399 FB010000 		.4byte	.LASF46
 6346 039d 01       		.byte	0x1
 6347 039e 5402     		.2byte	0x254
 6348 03a0 00000000 		.4byte	.LFB80
 6349 03a4 1E000000 		.4byte	.LFE80-.LFB80
 6350 03a8 01       		.uleb128 0x1
 6351 03a9 9C       		.byte	0x9c
 6352 03aa 11       		.uleb128 0x11
 6353 03ab DD030000 		.4byte	.LASF47
 6354 03af 01       		.byte	0x1
 6355 03b0 8702     		.2byte	0x287
 6356 03b2 00000000 		.4byte	.LFB81
 6357 03b6 1E000000 		.4byte	.LFE81-.LFB81
 6358 03ba 01       		.uleb128 0x1
 6359 03bb 9C       		.byte	0x9c
 6360 03bc 12       		.uleb128 0x12
 6361 03bd E4000000 		.4byte	.LASF122
 6362 03c1 01       		.byte	0x1
 6363 03c2 B902     		.2byte	0x2b9
 6364 03c4 7E000000 		.4byte	0x7e
 6365 03c8 00000000 		.4byte	.LFB82
 6366 03cc 60010000 		.4byte	.LFE82-.LFB82
 6367 03d0 01       		.uleb128 0x1
 6368 03d1 9C       		.byte	0x9c
 6369 03d2 F3030000 		.4byte	0x3f3
 6370 03d6 10       		.uleb128 0x10
 6371 03d7 6900     		.ascii	"i\000"
 6372 03d9 01       		.byte	0x1
 6373 03da B902     		.2byte	0x2b9
 6374 03dc 7E000000 		.4byte	0x7e
 6375 03e0 02       		.uleb128 0x2
 6376 03e1 91       		.byte	0x91
 6377 03e2 74       		.sleb128 -12
 6378 03e3 10       		.uleb128 0x10
 6379 03e4 61727200 		.ascii	"arr\000"
 6380 03e8 01       		.byte	0x1
 6381 03e9 B902     		.2byte	0x2b9
 6382 03eb F3030000 		.4byte	0x3f3
 6383 03ef 02       		.uleb128 0x2
 6384 03f0 91       		.byte	0x91
 6385 03f1 70       		.sleb128 -16
 6386 03f2 00       		.byte	0
 6387 03f3 13       		.uleb128 0x13
 6388 03f4 04       		.byte	0x4
 6389 03f5 7E000000 		.4byte	0x7e
 6390 03f9 14       		.uleb128 0x14
 6391 03fa 7F010000 		.4byte	.LASF48
 6392 03fe 01       		.byte	0x1
ARM GAS  D:\Windows\AppData\Local\Temp\ccYfDzHQ.s 			page 132


 6393 03ff DA02     		.2byte	0x2da
 6394 0401 00000000 		.4byte	.LFB83
 6395 0405 48000000 		.4byte	.LFE83-.LFB83
 6396 0409 01       		.uleb128 0x1
 6397 040a 9C       		.byte	0x9c
 6398 040b 2E040000 		.4byte	0x42e
 6399 040f 0D       		.uleb128 0xd
 6400 0410 D0020000 		.4byte	.LASF39
 6401 0414 01       		.byte	0x1
 6402 0415 DA02     		.2byte	0x2da
 6403 0417 7E000000 		.4byte	0x7e
 6404 041b 02       		.uleb128 0x2
 6405 041c 91       		.byte	0x91
 6406 041d 6C       		.sleb128 -20
 6407 041e 0F       		.uleb128 0xf
 6408 041f 62697400 		.ascii	"bit\000"
 6409 0423 01       		.byte	0x1
 6410 0424 DB02     		.2byte	0x2db
 6411 0426 8C000000 		.4byte	0x8c
 6412 042a 02       		.uleb128 0x2
 6413 042b 91       		.byte	0x91
 6414 042c 77       		.sleb128 -9
 6415 042d 00       		.byte	0
 6416 042e 14       		.uleb128 0x14
 6417 042f 1D050000 		.4byte	.LASF49
 6418 0433 01       		.byte	0x1
 6419 0434 E102     		.2byte	0x2e1
 6420 0436 00000000 		.4byte	.LFB84
 6421 043a 48000000 		.4byte	.LFE84-.LFB84
 6422 043e 01       		.uleb128 0x1
 6423 043f 9C       		.byte	0x9c
 6424 0440 63040000 		.4byte	0x463
 6425 0444 0D       		.uleb128 0xd
 6426 0445 D0020000 		.4byte	.LASF39
 6427 0449 01       		.byte	0x1
 6428 044a E102     		.2byte	0x2e1
 6429 044c 7E000000 		.4byte	0x7e
 6430 0450 02       		.uleb128 0x2
 6431 0451 91       		.byte	0x91
 6432 0452 6C       		.sleb128 -20
 6433 0453 0F       		.uleb128 0xf
 6434 0454 62697400 		.ascii	"bit\000"
 6435 0458 01       		.byte	0x1
 6436 0459 E202     		.2byte	0x2e2
 6437 045b 8C000000 		.4byte	0x8c
 6438 045f 02       		.uleb128 0x2
 6439 0460 91       		.byte	0x91
 6440 0461 77       		.sleb128 -9
 6441 0462 00       		.byte	0
 6442 0463 14       		.uleb128 0x14
 6443 0464 98010000 		.4byte	.LASF50
 6444 0468 01       		.byte	0x1
 6445 0469 E802     		.2byte	0x2e8
 6446 046b 00000000 		.4byte	.LFB85
 6447 046f 48000000 		.4byte	.LFE85-.LFB85
 6448 0473 01       		.uleb128 0x1
 6449 0474 9C       		.byte	0x9c
ARM GAS  D:\Windows\AppData\Local\Temp\ccYfDzHQ.s 			page 133


 6450 0475 98040000 		.4byte	0x498
 6451 0479 0D       		.uleb128 0xd
 6452 047a D0020000 		.4byte	.LASF39
 6453 047e 01       		.byte	0x1
 6454 047f E802     		.2byte	0x2e8
 6455 0481 7E000000 		.4byte	0x7e
 6456 0485 02       		.uleb128 0x2
 6457 0486 91       		.byte	0x91
 6458 0487 6C       		.sleb128 -20
 6459 0488 0F       		.uleb128 0xf
 6460 0489 62697400 		.ascii	"bit\000"
 6461 048d 01       		.byte	0x1
 6462 048e E902     		.2byte	0x2e9
 6463 0490 8C000000 		.4byte	0x8c
 6464 0494 02       		.uleb128 0x2
 6465 0495 91       		.byte	0x91
 6466 0496 77       		.sleb128 -9
 6467 0497 00       		.byte	0
 6468 0498 14       		.uleb128 0x14
 6469 0499 3A050000 		.4byte	.LASF51
 6470 049d 01       		.byte	0x1
 6471 049e F002     		.2byte	0x2f0
 6472 04a0 00000000 		.4byte	.LFB86
 6473 04a4 48000000 		.4byte	.LFE86-.LFB86
 6474 04a8 01       		.uleb128 0x1
 6475 04a9 9C       		.byte	0x9c
 6476 04aa CD040000 		.4byte	0x4cd
 6477 04ae 0D       		.uleb128 0xd
 6478 04af D0020000 		.4byte	.LASF39
 6479 04b3 01       		.byte	0x1
 6480 04b4 F002     		.2byte	0x2f0
 6481 04b6 7E000000 		.4byte	0x7e
 6482 04ba 02       		.uleb128 0x2
 6483 04bb 91       		.byte	0x91
 6484 04bc 6C       		.sleb128 -20
 6485 04bd 0F       		.uleb128 0xf
 6486 04be 62697400 		.ascii	"bit\000"
 6487 04c2 01       		.byte	0x1
 6488 04c3 F102     		.2byte	0x2f1
 6489 04c5 8C000000 		.4byte	0x8c
 6490 04c9 02       		.uleb128 0x2
 6491 04ca 91       		.byte	0x91
 6492 04cb 77       		.sleb128 -9
 6493 04cc 00       		.byte	0
 6494 04cd 14       		.uleb128 0x14
 6495 04ce 0C020000 		.4byte	.LASF52
 6496 04d2 01       		.byte	0x1
 6497 04d3 F702     		.2byte	0x2f7
 6498 04d5 00000000 		.4byte	.LFB87
 6499 04d9 48000000 		.4byte	.LFE87-.LFB87
 6500 04dd 01       		.uleb128 0x1
 6501 04de 9C       		.byte	0x9c
 6502 04df 02050000 		.4byte	0x502
 6503 04e3 0D       		.uleb128 0xd
 6504 04e4 D0020000 		.4byte	.LASF39
 6505 04e8 01       		.byte	0x1
 6506 04e9 F702     		.2byte	0x2f7
ARM GAS  D:\Windows\AppData\Local\Temp\ccYfDzHQ.s 			page 134


 6507 04eb 7E000000 		.4byte	0x7e
 6508 04ef 02       		.uleb128 0x2
 6509 04f0 91       		.byte	0x91
 6510 04f1 6C       		.sleb128 -20
 6511 04f2 0F       		.uleb128 0xf
 6512 04f3 62697400 		.ascii	"bit\000"
 6513 04f7 01       		.byte	0x1
 6514 04f8 F802     		.2byte	0x2f8
 6515 04fa 8C000000 		.4byte	0x8c
 6516 04fe 02       		.uleb128 0x2
 6517 04ff 91       		.byte	0x91
 6518 0500 77       		.sleb128 -9
 6519 0501 00       		.byte	0
 6520 0502 14       		.uleb128 0x14
 6521 0503 0A000000 		.4byte	.LASF53
 6522 0507 01       		.byte	0x1
 6523 0508 FE02     		.2byte	0x2fe
 6524 050a 00000000 		.4byte	.LFB88
 6525 050e 48000000 		.4byte	.LFE88-.LFB88
 6526 0512 01       		.uleb128 0x1
 6527 0513 9C       		.byte	0x9c
 6528 0514 37050000 		.4byte	0x537
 6529 0518 0D       		.uleb128 0xd
 6530 0519 D0020000 		.4byte	.LASF39
 6531 051d 01       		.byte	0x1
 6532 051e FE02     		.2byte	0x2fe
 6533 0520 7E000000 		.4byte	0x7e
 6534 0524 02       		.uleb128 0x2
 6535 0525 91       		.byte	0x91
 6536 0526 6C       		.sleb128 -20
 6537 0527 0F       		.uleb128 0xf
 6538 0528 62697400 		.ascii	"bit\000"
 6539 052c 01       		.byte	0x1
 6540 052d FF02     		.2byte	0x2ff
 6541 052f 8C000000 		.4byte	0x8c
 6542 0533 02       		.uleb128 0x2
 6543 0534 91       		.byte	0x91
 6544 0535 77       		.sleb128 -9
 6545 0536 00       		.byte	0
 6546 0537 14       		.uleb128 0x14
 6547 0538 78030000 		.4byte	.LASF54
 6548 053c 01       		.byte	0x1
 6549 053d 0503     		.2byte	0x305
 6550 053f 00000000 		.4byte	.LFB89
 6551 0543 48000000 		.4byte	.LFE89-.LFB89
 6552 0547 01       		.uleb128 0x1
 6553 0548 9C       		.byte	0x9c
 6554 0549 6C050000 		.4byte	0x56c
 6555 054d 0D       		.uleb128 0xd
 6556 054e D0020000 		.4byte	.LASF39
 6557 0552 01       		.byte	0x1
 6558 0553 0503     		.2byte	0x305
 6559 0555 7E000000 		.4byte	0x7e
 6560 0559 02       		.uleb128 0x2
 6561 055a 91       		.byte	0x91
 6562 055b 6C       		.sleb128 -20
 6563 055c 0F       		.uleb128 0xf
ARM GAS  D:\Windows\AppData\Local\Temp\ccYfDzHQ.s 			page 135


 6564 055d 62697400 		.ascii	"bit\000"
 6565 0561 01       		.byte	0x1
 6566 0562 0603     		.2byte	0x306
 6567 0564 8C000000 		.4byte	0x8c
 6568 0568 02       		.uleb128 0x2
 6569 0569 91       		.byte	0x91
 6570 056a 77       		.sleb128 -9
 6571 056b 00       		.byte	0
 6572 056c 14       		.uleb128 0x14
 6573 056d DB000000 		.4byte	.LASF55
 6574 0571 01       		.byte	0x1
 6575 0572 0C03     		.2byte	0x30c
 6576 0574 00000000 		.4byte	.LFB90
 6577 0578 48000000 		.4byte	.LFE90-.LFB90
 6578 057c 01       		.uleb128 0x1
 6579 057d 9C       		.byte	0x9c
 6580 057e A1050000 		.4byte	0x5a1
 6581 0582 0D       		.uleb128 0xd
 6582 0583 D0020000 		.4byte	.LASF39
 6583 0587 01       		.byte	0x1
 6584 0588 0C03     		.2byte	0x30c
 6585 058a 7E000000 		.4byte	0x7e
 6586 058e 02       		.uleb128 0x2
 6587 058f 91       		.byte	0x91
 6588 0590 6C       		.sleb128 -20
 6589 0591 0F       		.uleb128 0xf
 6590 0592 62697400 		.ascii	"bit\000"
 6591 0596 01       		.byte	0x1
 6592 0597 0D03     		.2byte	0x30d
 6593 0599 8C000000 		.4byte	0x8c
 6594 059d 02       		.uleb128 0x2
 6595 059e 91       		.byte	0x91
 6596 059f 77       		.sleb128 -9
 6597 05a0 00       		.byte	0
 6598 05a1 14       		.uleb128 0x14
 6599 05a2 29040000 		.4byte	.LASF56
 6600 05a6 01       		.byte	0x1
 6601 05a7 1303     		.2byte	0x313
 6602 05a9 00000000 		.4byte	.LFB91
 6603 05ad 48000000 		.4byte	.LFE91-.LFB91
 6604 05b1 01       		.uleb128 0x1
 6605 05b2 9C       		.byte	0x9c
 6606 05b3 D6050000 		.4byte	0x5d6
 6607 05b7 0D       		.uleb128 0xd
 6608 05b8 D0020000 		.4byte	.LASF39
 6609 05bc 01       		.byte	0x1
 6610 05bd 1303     		.2byte	0x313
 6611 05bf 7E000000 		.4byte	0x7e
 6612 05c3 02       		.uleb128 0x2
 6613 05c4 91       		.byte	0x91
 6614 05c5 6C       		.sleb128 -20
 6615 05c6 0F       		.uleb128 0xf
 6616 05c7 62697400 		.ascii	"bit\000"
 6617 05cb 01       		.byte	0x1
 6618 05cc 1403     		.2byte	0x314
 6619 05ce 8C000000 		.4byte	0x8c
 6620 05d2 02       		.uleb128 0x2
ARM GAS  D:\Windows\AppData\Local\Temp\ccYfDzHQ.s 			page 136


 6621 05d3 91       		.byte	0x91
 6622 05d4 77       		.sleb128 -9
 6623 05d5 00       		.byte	0
 6624 05d6 14       		.uleb128 0x14
 6625 05d7 A3020000 		.4byte	.LASF57
 6626 05db 01       		.byte	0x1
 6627 05dc 1A03     		.2byte	0x31a
 6628 05de 00000000 		.4byte	.LFB92
 6629 05e2 48000000 		.4byte	.LFE92-.LFB92
 6630 05e6 01       		.uleb128 0x1
 6631 05e7 9C       		.byte	0x9c
 6632 05e8 0B060000 		.4byte	0x60b
 6633 05ec 0D       		.uleb128 0xd
 6634 05ed D0020000 		.4byte	.LASF39
 6635 05f1 01       		.byte	0x1
 6636 05f2 1A03     		.2byte	0x31a
 6637 05f4 7E000000 		.4byte	0x7e
 6638 05f8 02       		.uleb128 0x2
 6639 05f9 91       		.byte	0x91
 6640 05fa 6C       		.sleb128 -20
 6641 05fb 0F       		.uleb128 0xf
 6642 05fc 62697400 		.ascii	"bit\000"
 6643 0600 01       		.byte	0x1
 6644 0601 1B03     		.2byte	0x31b
 6645 0603 8C000000 		.4byte	0x8c
 6646 0607 02       		.uleb128 0x2
 6647 0608 91       		.byte	0x91
 6648 0609 77       		.sleb128 -9
 6649 060a 00       		.byte	0
 6650 060b 14       		.uleb128 0x14
 6651 060c A2000000 		.4byte	.LASF58
 6652 0610 01       		.byte	0x1
 6653 0611 2103     		.2byte	0x321
 6654 0613 00000000 		.4byte	.LFB93
 6655 0617 48000000 		.4byte	.LFE93-.LFB93
 6656 061b 01       		.uleb128 0x1
 6657 061c 9C       		.byte	0x9c
 6658 061d 40060000 		.4byte	0x640
 6659 0621 0D       		.uleb128 0xd
 6660 0622 D0020000 		.4byte	.LASF39
 6661 0626 01       		.byte	0x1
 6662 0627 2103     		.2byte	0x321
 6663 0629 7E000000 		.4byte	0x7e
 6664 062d 02       		.uleb128 0x2
 6665 062e 91       		.byte	0x91
 6666 062f 6C       		.sleb128 -20
 6667 0630 0F       		.uleb128 0xf
 6668 0631 62697400 		.ascii	"bit\000"
 6669 0635 01       		.byte	0x1
 6670 0636 2203     		.2byte	0x322
 6671 0638 8C000000 		.4byte	0x8c
 6672 063c 02       		.uleb128 0x2
 6673 063d 91       		.byte	0x91
 6674 063e 77       		.sleb128 -9
 6675 063f 00       		.byte	0
 6676 0640 14       		.uleb128 0x14
 6677 0641 A0030000 		.4byte	.LASF59
ARM GAS  D:\Windows\AppData\Local\Temp\ccYfDzHQ.s 			page 137


 6678 0645 01       		.byte	0x1
 6679 0646 2803     		.2byte	0x328
 6680 0648 00000000 		.4byte	.LFB94
 6681 064c 48000000 		.4byte	.LFE94-.LFB94
 6682 0650 01       		.uleb128 0x1
 6683 0651 9C       		.byte	0x9c
 6684 0652 75060000 		.4byte	0x675
 6685 0656 0D       		.uleb128 0xd
 6686 0657 D0020000 		.4byte	.LASF39
 6687 065b 01       		.byte	0x1
 6688 065c 2803     		.2byte	0x328
 6689 065e 7E000000 		.4byte	0x7e
 6690 0662 02       		.uleb128 0x2
 6691 0663 91       		.byte	0x91
 6692 0664 6C       		.sleb128 -20
 6693 0665 0F       		.uleb128 0xf
 6694 0666 62697400 		.ascii	"bit\000"
 6695 066a 01       		.byte	0x1
 6696 066b 2903     		.2byte	0x329
 6697 066d 8C000000 		.4byte	0x8c
 6698 0671 02       		.uleb128 0x2
 6699 0672 91       		.byte	0x91
 6700 0673 77       		.sleb128 -9
 6701 0674 00       		.byte	0
 6702 0675 14       		.uleb128 0x14
 6703 0676 FC000000 		.4byte	.LASF60
 6704 067a 01       		.byte	0x1
 6705 067b 2F03     		.2byte	0x32f
 6706 067d 00000000 		.4byte	.LFB95
 6707 0681 48000000 		.4byte	.LFE95-.LFB95
 6708 0685 01       		.uleb128 0x1
 6709 0686 9C       		.byte	0x9c
 6710 0687 AA060000 		.4byte	0x6aa
 6711 068b 0D       		.uleb128 0xd
 6712 068c D0020000 		.4byte	.LASF39
 6713 0690 01       		.byte	0x1
 6714 0691 2F03     		.2byte	0x32f
 6715 0693 7E000000 		.4byte	0x7e
 6716 0697 02       		.uleb128 0x2
 6717 0698 91       		.byte	0x91
 6718 0699 6C       		.sleb128 -20
 6719 069a 0F       		.uleb128 0xf
 6720 069b 62697400 		.ascii	"bit\000"
 6721 069f 01       		.byte	0x1
 6722 06a0 3003     		.2byte	0x330
 6723 06a2 8C000000 		.4byte	0x8c
 6724 06a6 02       		.uleb128 0x2
 6725 06a7 91       		.byte	0x91
 6726 06a8 77       		.sleb128 -9
 6727 06a9 00       		.byte	0
 6728 06aa 14       		.uleb128 0x14
 6729 06ab 6D040000 		.4byte	.LASF61
 6730 06af 01       		.byte	0x1
 6731 06b0 3603     		.2byte	0x336
 6732 06b2 00000000 		.4byte	.LFB96
 6733 06b6 48000000 		.4byte	.LFE96-.LFB96
 6734 06ba 01       		.uleb128 0x1
ARM GAS  D:\Windows\AppData\Local\Temp\ccYfDzHQ.s 			page 138


 6735 06bb 9C       		.byte	0x9c
 6736 06bc DF060000 		.4byte	0x6df
 6737 06c0 0D       		.uleb128 0xd
 6738 06c1 D0020000 		.4byte	.LASF39
 6739 06c5 01       		.byte	0x1
 6740 06c6 3603     		.2byte	0x336
 6741 06c8 7E000000 		.4byte	0x7e
 6742 06cc 02       		.uleb128 0x2
 6743 06cd 91       		.byte	0x91
 6744 06ce 6C       		.sleb128 -20
 6745 06cf 0F       		.uleb128 0xf
 6746 06d0 62697400 		.ascii	"bit\000"
 6747 06d4 01       		.byte	0x1
 6748 06d5 3703     		.2byte	0x337
 6749 06d7 8C000000 		.4byte	0x8c
 6750 06db 02       		.uleb128 0x2
 6751 06dc 91       		.byte	0x91
 6752 06dd 77       		.sleb128 -9
 6753 06de 00       		.byte	0
 6754 06df 14       		.uleb128 0x14
 6755 06e0 0C010000 		.4byte	.LASF62
 6756 06e4 01       		.byte	0x1
 6757 06e5 3D03     		.2byte	0x33d
 6758 06e7 00000000 		.4byte	.LFB97
 6759 06eb 48000000 		.4byte	.LFE97-.LFB97
 6760 06ef 01       		.uleb128 0x1
 6761 06f0 9C       		.byte	0x9c
 6762 06f1 14070000 		.4byte	0x714
 6763 06f5 0D       		.uleb128 0xd
 6764 06f6 D0020000 		.4byte	.LASF39
 6765 06fa 01       		.byte	0x1
 6766 06fb 3D03     		.2byte	0x33d
 6767 06fd 7E000000 		.4byte	0x7e
 6768 0701 02       		.uleb128 0x2
 6769 0702 91       		.byte	0x91
 6770 0703 6C       		.sleb128 -20
 6771 0704 0F       		.uleb128 0xf
 6772 0705 62697400 		.ascii	"bit\000"
 6773 0709 01       		.byte	0x1
 6774 070a 3E03     		.2byte	0x33e
 6775 070c 8C000000 		.4byte	0x8c
 6776 0710 02       		.uleb128 0x2
 6777 0711 91       		.byte	0x91
 6778 0712 77       		.sleb128 -9
 6779 0713 00       		.byte	0
 6780 0714 14       		.uleb128 0x14
 6781 0715 92040000 		.4byte	.LASF63
 6782 0719 01       		.byte	0x1
 6783 071a 4403     		.2byte	0x344
 6784 071c 00000000 		.4byte	.LFB98
 6785 0720 48000000 		.4byte	.LFE98-.LFB98
 6786 0724 01       		.uleb128 0x1
 6787 0725 9C       		.byte	0x9c
 6788 0726 49070000 		.4byte	0x749
 6789 072a 0D       		.uleb128 0xd
 6790 072b D0020000 		.4byte	.LASF39
 6791 072f 01       		.byte	0x1
ARM GAS  D:\Windows\AppData\Local\Temp\ccYfDzHQ.s 			page 139


 6792 0730 4403     		.2byte	0x344
 6793 0732 7E000000 		.4byte	0x7e
 6794 0736 02       		.uleb128 0x2
 6795 0737 91       		.byte	0x91
 6796 0738 6C       		.sleb128 -20
 6797 0739 0F       		.uleb128 0xf
 6798 073a 62697400 		.ascii	"bit\000"
 6799 073e 01       		.byte	0x1
 6800 073f 4503     		.2byte	0x345
 6801 0741 8C000000 		.4byte	0x8c
 6802 0745 02       		.uleb128 0x2
 6803 0746 91       		.byte	0x91
 6804 0747 77       		.sleb128 -9
 6805 0748 00       		.byte	0
 6806 0749 14       		.uleb128 0x14
 6807 074a C0010000 		.4byte	.LASF64
 6808 074e 01       		.byte	0x1
 6809 074f 4B03     		.2byte	0x34b
 6810 0751 00000000 		.4byte	.LFB99
 6811 0755 48000000 		.4byte	.LFE99-.LFB99
 6812 0759 01       		.uleb128 0x1
 6813 075a 9C       		.byte	0x9c
 6814 075b 7E070000 		.4byte	0x77e
 6815 075f 0D       		.uleb128 0xd
 6816 0760 D0020000 		.4byte	.LASF39
 6817 0764 01       		.byte	0x1
 6818 0765 4B03     		.2byte	0x34b
 6819 0767 7E000000 		.4byte	0x7e
 6820 076b 02       		.uleb128 0x2
 6821 076c 91       		.byte	0x91
 6822 076d 6C       		.sleb128 -20
 6823 076e 0F       		.uleb128 0xf
 6824 076f 62697400 		.ascii	"bit\000"
 6825 0773 01       		.byte	0x1
 6826 0774 4C03     		.2byte	0x34c
 6827 0776 8C000000 		.4byte	0x8c
 6828 077a 02       		.uleb128 0x2
 6829 077b 91       		.byte	0x91
 6830 077c 77       		.sleb128 -9
 6831 077d 00       		.byte	0
 6832 077e 14       		.uleb128 0x14
 6833 077f 74050000 		.4byte	.LASF65
 6834 0783 01       		.byte	0x1
 6835 0784 5203     		.2byte	0x352
 6836 0786 00000000 		.4byte	.LFB100
 6837 078a 48000000 		.4byte	.LFE100-.LFB100
 6838 078e 01       		.uleb128 0x1
 6839 078f 9C       		.byte	0x9c
 6840 0790 B3070000 		.4byte	0x7b3
 6841 0794 0D       		.uleb128 0xd
 6842 0795 D0020000 		.4byte	.LASF39
 6843 0799 01       		.byte	0x1
 6844 079a 5203     		.2byte	0x352
 6845 079c 7E000000 		.4byte	0x7e
 6846 07a0 02       		.uleb128 0x2
 6847 07a1 91       		.byte	0x91
 6848 07a2 6C       		.sleb128 -20
ARM GAS  D:\Windows\AppData\Local\Temp\ccYfDzHQ.s 			page 140


 6849 07a3 0F       		.uleb128 0xf
 6850 07a4 62697400 		.ascii	"bit\000"
 6851 07a8 01       		.byte	0x1
 6852 07a9 5303     		.2byte	0x353
 6853 07ab 8C000000 		.4byte	0x8c
 6854 07af 02       		.uleb128 0x2
 6855 07b0 91       		.byte	0x91
 6856 07b1 77       		.sleb128 -9
 6857 07b2 00       		.byte	0
 6858 07b3 14       		.uleb128 0x14
 6859 07b4 65020000 		.4byte	.LASF66
 6860 07b8 01       		.byte	0x1
 6861 07b9 5903     		.2byte	0x359
 6862 07bb 00000000 		.4byte	.LFB101
 6863 07bf 48000000 		.4byte	.LFE101-.LFB101
 6864 07c3 01       		.uleb128 0x1
 6865 07c4 9C       		.byte	0x9c
 6866 07c5 E8070000 		.4byte	0x7e8
 6867 07c9 0D       		.uleb128 0xd
 6868 07ca D0020000 		.4byte	.LASF39
 6869 07ce 01       		.byte	0x1
 6870 07cf 5903     		.2byte	0x359
 6871 07d1 7E000000 		.4byte	0x7e
 6872 07d5 02       		.uleb128 0x2
 6873 07d6 91       		.byte	0x91
 6874 07d7 6C       		.sleb128 -20
 6875 07d8 0F       		.uleb128 0xf
 6876 07d9 62697400 		.ascii	"bit\000"
 6877 07dd 01       		.byte	0x1
 6878 07de 5A03     		.2byte	0x35a
 6879 07e0 8C000000 		.4byte	0x8c
 6880 07e4 02       		.uleb128 0x2
 6881 07e5 91       		.byte	0x91
 6882 07e6 77       		.sleb128 -9
 6883 07e7 00       		.byte	0
 6884 07e8 14       		.uleb128 0x14
 6885 07e9 30050000 		.4byte	.LASF67
 6886 07ed 01       		.byte	0x1
 6887 07ee 6003     		.2byte	0x360
 6888 07f0 00000000 		.4byte	.LFB102
 6889 07f4 48000000 		.4byte	.LFE102-.LFB102
 6890 07f8 01       		.uleb128 0x1
 6891 07f9 9C       		.byte	0x9c
 6892 07fa 1D080000 		.4byte	0x81d
 6893 07fe 0D       		.uleb128 0xd
 6894 07ff D0020000 		.4byte	.LASF39
 6895 0803 01       		.byte	0x1
 6896 0804 6003     		.2byte	0x360
 6897 0806 7E000000 		.4byte	0x7e
 6898 080a 02       		.uleb128 0x2
 6899 080b 91       		.byte	0x91
 6900 080c 6C       		.sleb128 -20
 6901 080d 0F       		.uleb128 0xf
 6902 080e 62697400 		.ascii	"bit\000"
 6903 0812 01       		.byte	0x1
 6904 0813 6103     		.2byte	0x361
 6905 0815 8C000000 		.4byte	0x8c
ARM GAS  D:\Windows\AppData\Local\Temp\ccYfDzHQ.s 			page 141


 6906 0819 02       		.uleb128 0x2
 6907 081a 91       		.byte	0x91
 6908 081b 77       		.sleb128 -9
 6909 081c 00       		.byte	0
 6910 081d 14       		.uleb128 0x14
 6911 081e 02020000 		.4byte	.LASF68
 6912 0822 01       		.byte	0x1
 6913 0823 6703     		.2byte	0x367
 6914 0825 00000000 		.4byte	.LFB103
 6915 0829 48000000 		.4byte	.LFE103-.LFB103
 6916 082d 01       		.uleb128 0x1
 6917 082e 9C       		.byte	0x9c
 6918 082f 52080000 		.4byte	0x852
 6919 0833 0D       		.uleb128 0xd
 6920 0834 D0020000 		.4byte	.LASF39
 6921 0838 01       		.byte	0x1
 6922 0839 6703     		.2byte	0x367
 6923 083b 7E000000 		.4byte	0x7e
 6924 083f 02       		.uleb128 0x2
 6925 0840 91       		.byte	0x91
 6926 0841 6C       		.sleb128 -20
 6927 0842 0F       		.uleb128 0xf
 6928 0843 62697400 		.ascii	"bit\000"
 6929 0847 01       		.byte	0x1
 6930 0848 6803     		.2byte	0x368
 6931 084a 8C000000 		.4byte	0x8c
 6932 084e 02       		.uleb128 0x2
 6933 084f 91       		.byte	0x91
 6934 0850 77       		.sleb128 -9
 6935 0851 00       		.byte	0
 6936 0852 14       		.uleb128 0x14
 6937 0853 00000000 		.4byte	.LASF69
 6938 0857 01       		.byte	0x1
 6939 0858 6E03     		.2byte	0x36e
 6940 085a 00000000 		.4byte	.LFB104
 6941 085e 48000000 		.4byte	.LFE104-.LFB104
 6942 0862 01       		.uleb128 0x1
 6943 0863 9C       		.byte	0x9c
 6944 0864 87080000 		.4byte	0x887
 6945 0868 0D       		.uleb128 0xd
 6946 0869 D0020000 		.4byte	.LASF39
 6947 086d 01       		.byte	0x1
 6948 086e 6E03     		.2byte	0x36e
 6949 0870 7E000000 		.4byte	0x7e
 6950 0874 02       		.uleb128 0x2
 6951 0875 91       		.byte	0x91
 6952 0876 6C       		.sleb128 -20
 6953 0877 0F       		.uleb128 0xf
 6954 0878 62697400 		.ascii	"bit\000"
 6955 087c 01       		.byte	0x1
 6956 087d 6F03     		.2byte	0x36f
 6957 087f 8C000000 		.4byte	0x8c
 6958 0883 02       		.uleb128 0x2
 6959 0884 91       		.byte	0x91
 6960 0885 77       		.sleb128 -9
 6961 0886 00       		.byte	0
 6962 0887 14       		.uleb128 0x14
ARM GAS  D:\Windows\AppData\Local\Temp\ccYfDzHQ.s 			page 142


 6963 0888 8B020000 		.4byte	.LASF70
 6964 088c 01       		.byte	0x1
 6965 088d 7803     		.2byte	0x378
 6966 088f 00000000 		.4byte	.LFB105
 6967 0893 48000000 		.4byte	.LFE105-.LFB105
 6968 0897 01       		.uleb128 0x1
 6969 0898 9C       		.byte	0x9c
 6970 0899 BC080000 		.4byte	0x8bc
 6971 089d 0D       		.uleb128 0xd
 6972 089e D0020000 		.4byte	.LASF39
 6973 08a2 01       		.byte	0x1
 6974 08a3 7803     		.2byte	0x378
 6975 08a5 7E000000 		.4byte	0x7e
 6976 08a9 02       		.uleb128 0x2
 6977 08aa 91       		.byte	0x91
 6978 08ab 6C       		.sleb128 -20
 6979 08ac 0F       		.uleb128 0xf
 6980 08ad 62697400 		.ascii	"bit\000"
 6981 08b1 01       		.byte	0x1
 6982 08b2 7903     		.2byte	0x379
 6983 08b4 8C000000 		.4byte	0x8c
 6984 08b8 02       		.uleb128 0x2
 6985 08b9 91       		.byte	0x91
 6986 08ba 77       		.sleb128 -9
 6987 08bb 00       		.byte	0
 6988 08bc 14       		.uleb128 0x14
 6989 08bd 98000000 		.4byte	.LASF71
 6990 08c1 01       		.byte	0x1
 6991 08c2 7F03     		.2byte	0x37f
 6992 08c4 00000000 		.4byte	.LFB106
 6993 08c8 48000000 		.4byte	.LFE106-.LFB106
 6994 08cc 01       		.uleb128 0x1
 6995 08cd 9C       		.byte	0x9c
 6996 08ce F1080000 		.4byte	0x8f1
 6997 08d2 0D       		.uleb128 0xd
 6998 08d3 D0020000 		.4byte	.LASF39
 6999 08d7 01       		.byte	0x1
 7000 08d8 7F03     		.2byte	0x37f
 7001 08da 7E000000 		.4byte	0x7e
 7002 08de 02       		.uleb128 0x2
 7003 08df 91       		.byte	0x91
 7004 08e0 6C       		.sleb128 -20
 7005 08e1 0F       		.uleb128 0xf
 7006 08e2 62697400 		.ascii	"bit\000"
 7007 08e6 01       		.byte	0x1
 7008 08e7 8003     		.2byte	0x380
 7009 08e9 8C000000 		.4byte	0x8c
 7010 08ed 02       		.uleb128 0x2
 7011 08ee 91       		.byte	0x91
 7012 08ef 77       		.sleb128 -9
 7013 08f0 00       		.byte	0
 7014 08f1 14       		.uleb128 0x14
 7015 08f2 96030000 		.4byte	.LASF72
 7016 08f6 01       		.byte	0x1
 7017 08f7 8603     		.2byte	0x386
 7018 08f9 00000000 		.4byte	.LFB107
 7019 08fd 48000000 		.4byte	.LFE107-.LFB107
ARM GAS  D:\Windows\AppData\Local\Temp\ccYfDzHQ.s 			page 143


 7020 0901 01       		.uleb128 0x1
 7021 0902 9C       		.byte	0x9c
 7022 0903 26090000 		.4byte	0x926
 7023 0907 0D       		.uleb128 0xd
 7024 0908 D0020000 		.4byte	.LASF39
 7025 090c 01       		.byte	0x1
 7026 090d 8603     		.2byte	0x386
 7027 090f 7E000000 		.4byte	0x7e
 7028 0913 02       		.uleb128 0x2
 7029 0914 91       		.byte	0x91
 7030 0915 6C       		.sleb128 -20
 7031 0916 0F       		.uleb128 0xf
 7032 0917 62697400 		.ascii	"bit\000"
 7033 091b 01       		.byte	0x1
 7034 091c 8703     		.2byte	0x387
 7035 091e 8C000000 		.4byte	0x8c
 7036 0922 02       		.uleb128 0x2
 7037 0923 91       		.byte	0x91
 7038 0924 77       		.sleb128 -9
 7039 0925 00       		.byte	0
 7040 0926 14       		.uleb128 0x14
 7041 0927 F2000000 		.4byte	.LASF73
 7042 092b 01       		.byte	0x1
 7043 092c 8D03     		.2byte	0x38d
 7044 092e 00000000 		.4byte	.LFB108
 7045 0932 48000000 		.4byte	.LFE108-.LFB108
 7046 0936 01       		.uleb128 0x1
 7047 0937 9C       		.byte	0x9c
 7048 0938 5B090000 		.4byte	0x95b
 7049 093c 0D       		.uleb128 0xd
 7050 093d D0020000 		.4byte	.LASF39
 7051 0941 01       		.byte	0x1
 7052 0942 8D03     		.2byte	0x38d
 7053 0944 7E000000 		.4byte	0x7e
 7054 0948 02       		.uleb128 0x2
 7055 0949 91       		.byte	0x91
 7056 094a 6C       		.sleb128 -20
 7057 094b 0F       		.uleb128 0xf
 7058 094c 62697400 		.ascii	"bit\000"
 7059 0950 01       		.byte	0x1
 7060 0951 8E03     		.2byte	0x38e
 7061 0953 8C000000 		.4byte	0x8c
 7062 0957 02       		.uleb128 0x2
 7063 0958 91       		.byte	0x91
 7064 0959 77       		.sleb128 -9
 7065 095a 00       		.byte	0
 7066 095b 14       		.uleb128 0x14
 7067 095c B3030000 		.4byte	.LASF74
 7068 0960 01       		.byte	0x1
 7069 0961 9403     		.2byte	0x394
 7070 0963 00000000 		.4byte	.LFB109
 7071 0967 48000000 		.4byte	.LFE109-.LFB109
 7072 096b 01       		.uleb128 0x1
 7073 096c 9C       		.byte	0x9c
 7074 096d 90090000 		.4byte	0x990
 7075 0971 0D       		.uleb128 0xd
 7076 0972 D0020000 		.4byte	.LASF39
ARM GAS  D:\Windows\AppData\Local\Temp\ccYfDzHQ.s 			page 144


 7077 0976 01       		.byte	0x1
 7078 0977 9403     		.2byte	0x394
 7079 0979 7E000000 		.4byte	0x7e
 7080 097d 02       		.uleb128 0x2
 7081 097e 91       		.byte	0x91
 7082 097f 6C       		.sleb128 -20
 7083 0980 0F       		.uleb128 0xf
 7084 0981 62697400 		.ascii	"bit\000"
 7085 0985 01       		.byte	0x1
 7086 0986 9503     		.2byte	0x395
 7087 0988 8C000000 		.4byte	0x8c
 7088 098c 02       		.uleb128 0x2
 7089 098d 91       		.byte	0x91
 7090 098e 77       		.sleb128 -9
 7091 098f 00       		.byte	0
 7092 0990 14       		.uleb128 0x14
 7093 0991 26050000 		.4byte	.LASF75
 7094 0995 01       		.byte	0x1
 7095 0996 9D03     		.2byte	0x39d
 7096 0998 00000000 		.4byte	.LFB110
 7097 099c 48000000 		.4byte	.LFE110-.LFB110
 7098 09a0 01       		.uleb128 0x1
 7099 09a1 9C       		.byte	0x9c
 7100 09a2 C5090000 		.4byte	0x9c5
 7101 09a6 0D       		.uleb128 0xd
 7102 09a7 D0020000 		.4byte	.LASF39
 7103 09ab 01       		.byte	0x1
 7104 09ac 9D03     		.2byte	0x39d
 7105 09ae 7E000000 		.4byte	0x7e
 7106 09b2 02       		.uleb128 0x2
 7107 09b3 91       		.byte	0x91
 7108 09b4 6C       		.sleb128 -20
 7109 09b5 0F       		.uleb128 0xf
 7110 09b6 62697400 		.ascii	"bit\000"
 7111 09ba 01       		.byte	0x1
 7112 09bb 9E03     		.2byte	0x39e
 7113 09bd 8C000000 		.4byte	0x8c
 7114 09c1 02       		.uleb128 0x2
 7115 09c2 91       		.byte	0x91
 7116 09c3 77       		.sleb128 -9
 7117 09c4 00       		.byte	0
 7118 09c5 14       		.uleb128 0x14
 7119 09c6 F1010000 		.4byte	.LASF76
 7120 09ca 01       		.byte	0x1
 7121 09cb A403     		.2byte	0x3a4
 7122 09cd 00000000 		.4byte	.LFB111
 7123 09d1 48000000 		.4byte	.LFE111-.LFB111
 7124 09d5 01       		.uleb128 0x1
 7125 09d6 9C       		.byte	0x9c
 7126 09d7 FA090000 		.4byte	0x9fa
 7127 09db 0D       		.uleb128 0xd
 7128 09dc D0020000 		.4byte	.LASF39
 7129 09e0 01       		.byte	0x1
 7130 09e1 A403     		.2byte	0x3a4
 7131 09e3 7E000000 		.4byte	0x7e
 7132 09e7 02       		.uleb128 0x2
 7133 09e8 91       		.byte	0x91
ARM GAS  D:\Windows\AppData\Local\Temp\ccYfDzHQ.s 			page 145


 7134 09e9 6C       		.sleb128 -20
 7135 09ea 0F       		.uleb128 0xf
 7136 09eb 62697400 		.ascii	"bit\000"
 7137 09ef 01       		.byte	0x1
 7138 09f0 A503     		.2byte	0x3a5
 7139 09f2 8C000000 		.4byte	0x8c
 7140 09f6 02       		.uleb128 0x2
 7141 09f7 91       		.byte	0x91
 7142 09f8 77       		.sleb128 -9
 7143 09f9 00       		.byte	0
 7144 09fa 14       		.uleb128 0x14
 7145 09fb 43050000 		.4byte	.LASF77
 7146 09ff 01       		.byte	0x1
 7147 0a00 AB03     		.2byte	0x3ab
 7148 0a02 00000000 		.4byte	.LFB112
 7149 0a06 48000000 		.4byte	.LFE112-.LFB112
 7150 0a0a 01       		.uleb128 0x1
 7151 0a0b 9C       		.byte	0x9c
 7152 0a0c 2F0A0000 		.4byte	0xa2f
 7153 0a10 0D       		.uleb128 0xd
 7154 0a11 D0020000 		.4byte	.LASF39
 7155 0a15 01       		.byte	0x1
 7156 0a16 AB03     		.2byte	0x3ab
 7157 0a18 7E000000 		.4byte	0x7e
 7158 0a1c 02       		.uleb128 0x2
 7159 0a1d 91       		.byte	0x91
 7160 0a1e 6C       		.sleb128 -20
 7161 0a1f 0F       		.uleb128 0xf
 7162 0a20 62697400 		.ascii	"bit\000"
 7163 0a24 01       		.byte	0x1
 7164 0a25 AC03     		.2byte	0x3ac
 7165 0a27 8C000000 		.4byte	0x8c
 7166 0a2b 02       		.uleb128 0x2
 7167 0a2c 91       		.byte	0x91
 7168 0a2d 77       		.sleb128 -9
 7169 0a2e 00       		.byte	0
 7170 0a2f 14       		.uleb128 0x14
 7171 0a30 2F020000 		.4byte	.LASF78
 7172 0a34 01       		.byte	0x1
 7173 0a35 B203     		.2byte	0x3b2
 7174 0a37 00000000 		.4byte	.LFB113
 7175 0a3b 48000000 		.4byte	.LFE113-.LFB113
 7176 0a3f 01       		.uleb128 0x1
 7177 0a40 9C       		.byte	0x9c
 7178 0a41 640A0000 		.4byte	0xa64
 7179 0a45 0D       		.uleb128 0xd
 7180 0a46 D0020000 		.4byte	.LASF39
 7181 0a4a 01       		.byte	0x1
 7182 0a4b B203     		.2byte	0x3b2
 7183 0a4d 7E000000 		.4byte	0x7e
 7184 0a51 02       		.uleb128 0x2
 7185 0a52 91       		.byte	0x91
 7186 0a53 6C       		.sleb128 -20
 7187 0a54 0F       		.uleb128 0xf
 7188 0a55 62697400 		.ascii	"bit\000"
 7189 0a59 01       		.byte	0x1
 7190 0a5a B303     		.2byte	0x3b3
ARM GAS  D:\Windows\AppData\Local\Temp\ccYfDzHQ.s 			page 146


 7191 0a5c 8C000000 		.4byte	0x8c
 7192 0a60 02       		.uleb128 0x2
 7193 0a61 91       		.byte	0x91
 7194 0a62 77       		.sleb128 -9
 7195 0a63 00       		.byte	0
 7196 0a64 14       		.uleb128 0x14
 7197 0a65 1A000000 		.4byte	.LASF79
 7198 0a69 01       		.byte	0x1
 7199 0a6a B903     		.2byte	0x3b9
 7200 0a6c 00000000 		.4byte	.LFB114
 7201 0a70 48000000 		.4byte	.LFE114-.LFB114
 7202 0a74 01       		.uleb128 0x1
 7203 0a75 9C       		.byte	0x9c
 7204 0a76 990A0000 		.4byte	0xa99
 7205 0a7a 0D       		.uleb128 0xd
 7206 0a7b D0020000 		.4byte	.LASF39
 7207 0a7f 01       		.byte	0x1
 7208 0a80 B903     		.2byte	0x3b9
 7209 0a82 7E000000 		.4byte	0x7e
 7210 0a86 02       		.uleb128 0x2
 7211 0a87 91       		.byte	0x91
 7212 0a88 6C       		.sleb128 -20
 7213 0a89 0F       		.uleb128 0xf
 7214 0a8a 62697400 		.ascii	"bit\000"
 7215 0a8e 01       		.byte	0x1
 7216 0a8f BA03     		.2byte	0x3ba
 7217 0a91 8C000000 		.4byte	0x8c
 7218 0a95 02       		.uleb128 0x2
 7219 0a96 91       		.byte	0x91
 7220 0a97 77       		.sleb128 -9
 7221 0a98 00       		.byte	0
 7222 0a99 14       		.uleb128 0x14
 7223 0a9a DC050000 		.4byte	.LASF80
 7224 0a9e 01       		.byte	0x1
 7225 0a9f C203     		.2byte	0x3c2
 7226 0aa1 00000000 		.4byte	.LFB115
 7227 0aa5 48000000 		.4byte	.LFE115-.LFB115
 7228 0aa9 01       		.uleb128 0x1
 7229 0aaa 9C       		.byte	0x9c
 7230 0aab CE0A0000 		.4byte	0xace
 7231 0aaf 0D       		.uleb128 0xd
 7232 0ab0 D0020000 		.4byte	.LASF39
 7233 0ab4 01       		.byte	0x1
 7234 0ab5 C203     		.2byte	0x3c2
 7235 0ab7 7E000000 		.4byte	0x7e
 7236 0abb 02       		.uleb128 0x2
 7237 0abc 91       		.byte	0x91
 7238 0abd 6C       		.sleb128 -20
 7239 0abe 0F       		.uleb128 0xf
 7240 0abf 62697400 		.ascii	"bit\000"
 7241 0ac3 01       		.byte	0x1
 7242 0ac4 C303     		.2byte	0x3c3
 7243 0ac6 8C000000 		.4byte	0x8c
 7244 0aca 02       		.uleb128 0x2
 7245 0acb 91       		.byte	0x91
 7246 0acc 77       		.sleb128 -9
 7247 0acd 00       		.byte	0
ARM GAS  D:\Windows\AppData\Local\Temp\ccYfDzHQ.s 			page 147


 7248 0ace 14       		.uleb128 0x14
 7249 0acf 63040000 		.4byte	.LASF81
 7250 0ad3 01       		.byte	0x1
 7251 0ad4 C903     		.2byte	0x3c9
 7252 0ad6 00000000 		.4byte	.LFB116
 7253 0ada 48000000 		.4byte	.LFE116-.LFB116
 7254 0ade 01       		.uleb128 0x1
 7255 0adf 9C       		.byte	0x9c
 7256 0ae0 030B0000 		.4byte	0xb03
 7257 0ae4 0D       		.uleb128 0xd
 7258 0ae5 D0020000 		.4byte	.LASF39
 7259 0ae9 01       		.byte	0x1
 7260 0aea C903     		.2byte	0x3c9
 7261 0aec 7E000000 		.4byte	0x7e
 7262 0af0 02       		.uleb128 0x2
 7263 0af1 91       		.byte	0x91
 7264 0af2 6C       		.sleb128 -20
 7265 0af3 0F       		.uleb128 0xf
 7266 0af4 62697400 		.ascii	"bit\000"
 7267 0af8 01       		.byte	0x1
 7268 0af9 CA03     		.2byte	0x3ca
 7269 0afb 8C000000 		.4byte	0x8c
 7270 0aff 02       		.uleb128 0x2
 7271 0b00 91       		.byte	0x91
 7272 0b01 77       		.sleb128 -9
 7273 0b02 00       		.byte	0
 7274 0b03 14       		.uleb128 0x14
 7275 0b04 4F010000 		.4byte	.LASF82
 7276 0b08 01       		.byte	0x1
 7277 0b09 D003     		.2byte	0x3d0
 7278 0b0b 00000000 		.4byte	.LFB117
 7279 0b0f 48000000 		.4byte	.LFE117-.LFB117
 7280 0b13 01       		.uleb128 0x1
 7281 0b14 9C       		.byte	0x9c
 7282 0b15 380B0000 		.4byte	0xb38
 7283 0b19 0D       		.uleb128 0xd
 7284 0b1a D0020000 		.4byte	.LASF39
 7285 0b1e 01       		.byte	0x1
 7286 0b1f D003     		.2byte	0x3d0
 7287 0b21 7E000000 		.4byte	0x7e
 7288 0b25 02       		.uleb128 0x2
 7289 0b26 91       		.byte	0x91
 7290 0b27 6C       		.sleb128 -20
 7291 0b28 0F       		.uleb128 0xf
 7292 0b29 62697400 		.ascii	"bit\000"
 7293 0b2d 01       		.byte	0x1
 7294 0b2e D103     		.2byte	0x3d1
 7295 0b30 8C000000 		.4byte	0x8c
 7296 0b34 02       		.uleb128 0x2
 7297 0b35 91       		.byte	0x91
 7298 0b36 77       		.sleb128 -9
 7299 0b37 00       		.byte	0
 7300 0b38 14       		.uleb128 0x14
 7301 0b39 F3040000 		.4byte	.LASF83
 7302 0b3d 01       		.byte	0x1
 7303 0b3e D703     		.2byte	0x3d7
 7304 0b40 00000000 		.4byte	.LFB118
ARM GAS  D:\Windows\AppData\Local\Temp\ccYfDzHQ.s 			page 148


 7305 0b44 48000000 		.4byte	.LFE118-.LFB118
 7306 0b48 01       		.uleb128 0x1
 7307 0b49 9C       		.byte	0x9c
 7308 0b4a 6D0B0000 		.4byte	0xb6d
 7309 0b4e 0D       		.uleb128 0xd
 7310 0b4f D0020000 		.4byte	.LASF39
 7311 0b53 01       		.byte	0x1
 7312 0b54 D703     		.2byte	0x3d7
 7313 0b56 7E000000 		.4byte	0x7e
 7314 0b5a 02       		.uleb128 0x2
 7315 0b5b 91       		.byte	0x91
 7316 0b5c 6C       		.sleb128 -20
 7317 0b5d 0F       		.uleb128 0xf
 7318 0b5e 62697400 		.ascii	"bit\000"
 7319 0b62 01       		.byte	0x1
 7320 0b63 D803     		.2byte	0x3d8
 7321 0b65 8C000000 		.4byte	0x8c
 7322 0b69 02       		.uleb128 0x2
 7323 0b6a 91       		.byte	0x91
 7324 0b6b 77       		.sleb128 -9
 7325 0b6c 00       		.byte	0
 7326 0b6d 14       		.uleb128 0x14
 7327 0b6e E2010000 		.4byte	.LASF84
 7328 0b72 01       		.byte	0x1
 7329 0b73 DE03     		.2byte	0x3de
 7330 0b75 00000000 		.4byte	.LFB119
 7331 0b79 48000000 		.4byte	.LFE119-.LFB119
 7332 0b7d 01       		.uleb128 0x1
 7333 0b7e 9C       		.byte	0x9c
 7334 0b7f A20B0000 		.4byte	0xba2
 7335 0b83 0D       		.uleb128 0xd
 7336 0b84 D0020000 		.4byte	.LASF39
 7337 0b88 01       		.byte	0x1
 7338 0b89 DE03     		.2byte	0x3de
 7339 0b8b 7E000000 		.4byte	0x7e
 7340 0b8f 02       		.uleb128 0x2
 7341 0b90 91       		.byte	0x91
 7342 0b91 6C       		.sleb128 -20
 7343 0b92 0F       		.uleb128 0xf
 7344 0b93 62697400 		.ascii	"bit\000"
 7345 0b97 01       		.byte	0x1
 7346 0b98 DF03     		.2byte	0x3df
 7347 0b9a 8C000000 		.4byte	0x8c
 7348 0b9e 02       		.uleb128 0x2
 7349 0b9f 91       		.byte	0x91
 7350 0ba0 77       		.sleb128 -9
 7351 0ba1 00       		.byte	0
 7352 0ba2 14       		.uleb128 0x14
 7353 0ba3 AC000000 		.4byte	.LASF85
 7354 0ba7 01       		.byte	0x1
 7355 0ba8 E703     		.2byte	0x3e7
 7356 0baa 00000000 		.4byte	.LFB120
 7357 0bae 48000000 		.4byte	.LFE120-.LFB120
 7358 0bb2 01       		.uleb128 0x1
 7359 0bb3 9C       		.byte	0x9c
 7360 0bb4 D70B0000 		.4byte	0xbd7
 7361 0bb8 0D       		.uleb128 0xd
ARM GAS  D:\Windows\AppData\Local\Temp\ccYfDzHQ.s 			page 149


 7362 0bb9 D0020000 		.4byte	.LASF39
 7363 0bbd 01       		.byte	0x1
 7364 0bbe E703     		.2byte	0x3e7
 7365 0bc0 7E000000 		.4byte	0x7e
 7366 0bc4 02       		.uleb128 0x2
 7367 0bc5 91       		.byte	0x91
 7368 0bc6 6C       		.sleb128 -20
 7369 0bc7 0F       		.uleb128 0xf
 7370 0bc8 62697400 		.ascii	"bit\000"
 7371 0bcc 01       		.byte	0x1
 7372 0bcd E803     		.2byte	0x3e8
 7373 0bcf 8C000000 		.4byte	0x8c
 7374 0bd3 02       		.uleb128 0x2
 7375 0bd4 91       		.byte	0x91
 7376 0bd5 77       		.sleb128 -9
 7377 0bd6 00       		.byte	0
 7378 0bd7 14       		.uleb128 0x14
 7379 0bd8 8D030000 		.4byte	.LASF86
 7380 0bdc 01       		.byte	0x1
 7381 0bdd EE03     		.2byte	0x3ee
 7382 0bdf 00000000 		.4byte	.LFB121
 7383 0be3 48000000 		.4byte	.LFE121-.LFB121
 7384 0be7 01       		.uleb128 0x1
 7385 0be8 9C       		.byte	0x9c
 7386 0be9 0C0C0000 		.4byte	0xc0c
 7387 0bed 0D       		.uleb128 0xd
 7388 0bee D0020000 		.4byte	.LASF39
 7389 0bf2 01       		.byte	0x1
 7390 0bf3 EE03     		.2byte	0x3ee
 7391 0bf5 7E000000 		.4byte	0x7e
 7392 0bf9 02       		.uleb128 0x2
 7393 0bfa 91       		.byte	0x91
 7394 0bfb 6C       		.sleb128 -20
 7395 0bfc 0F       		.uleb128 0xf
 7396 0bfd 62697400 		.ascii	"bit\000"
 7397 0c01 01       		.byte	0x1
 7398 0c02 EF03     		.2byte	0x3ef
 7399 0c04 8C000000 		.4byte	0x8c
 7400 0c08 02       		.uleb128 0x2
 7401 0c09 91       		.byte	0x91
 7402 0c0a 77       		.sleb128 -9
 7403 0c0b 00       		.byte	0
 7404 0c0c 14       		.uleb128 0x14
 7405 0c0d 76000000 		.4byte	.LASF87
 7406 0c11 01       		.byte	0x1
 7407 0c12 F503     		.2byte	0x3f5
 7408 0c14 00000000 		.4byte	.LFB122
 7409 0c18 48000000 		.4byte	.LFE122-.LFB122
 7410 0c1c 01       		.uleb128 0x1
 7411 0c1d 9C       		.byte	0x9c
 7412 0c1e 410C0000 		.4byte	0xc41
 7413 0c22 0D       		.uleb128 0xd
 7414 0c23 D0020000 		.4byte	.LASF39
 7415 0c27 01       		.byte	0x1
 7416 0c28 F503     		.2byte	0x3f5
 7417 0c2a 7E000000 		.4byte	0x7e
 7418 0c2e 02       		.uleb128 0x2
ARM GAS  D:\Windows\AppData\Local\Temp\ccYfDzHQ.s 			page 150


 7419 0c2f 91       		.byte	0x91
 7420 0c30 6C       		.sleb128 -20
 7421 0c31 0F       		.uleb128 0xf
 7422 0c32 62697400 		.ascii	"bit\000"
 7423 0c36 01       		.byte	0x1
 7424 0c37 F603     		.2byte	0x3f6
 7425 0c39 8C000000 		.4byte	0x8c
 7426 0c3d 02       		.uleb128 0x2
 7427 0c3e 91       		.byte	0x91
 7428 0c3f 77       		.sleb128 -9
 7429 0c40 00       		.byte	0
 7430 0c41 14       		.uleb128 0x14
 7431 0c42 6F020000 		.4byte	.LASF88
 7432 0c46 01       		.byte	0x1
 7433 0c47 FD03     		.2byte	0x3fd
 7434 0c49 00000000 		.4byte	.LFB123
 7435 0c4d 48000000 		.4byte	.LFE123-.LFB123
 7436 0c51 01       		.uleb128 0x1
 7437 0c52 9C       		.byte	0x9c
 7438 0c53 760C0000 		.4byte	0xc76
 7439 0c57 0D       		.uleb128 0xd
 7440 0c58 D0020000 		.4byte	.LASF39
 7441 0c5c 01       		.byte	0x1
 7442 0c5d FD03     		.2byte	0x3fd
 7443 0c5f 7E000000 		.4byte	0x7e
 7444 0c63 02       		.uleb128 0x2
 7445 0c64 91       		.byte	0x91
 7446 0c65 6C       		.sleb128 -20
 7447 0c66 0F       		.uleb128 0xf
 7448 0c67 62697400 		.ascii	"bit\000"
 7449 0c6b 01       		.byte	0x1
 7450 0c6c FE03     		.2byte	0x3fe
 7451 0c6e 8C000000 		.4byte	0x8c
 7452 0c72 02       		.uleb128 0x2
 7453 0c73 91       		.byte	0x91
 7454 0c74 77       		.sleb128 -9
 7455 0c75 00       		.byte	0
 7456 0c76 14       		.uleb128 0x14
 7457 0c77 97050000 		.4byte	.LASF89
 7458 0c7b 01       		.byte	0x1
 7459 0c7c 0504     		.2byte	0x405
 7460 0c7e 00000000 		.4byte	.LFB124
 7461 0c82 48000000 		.4byte	.LFE124-.LFB124
 7462 0c86 01       		.uleb128 0x1
 7463 0c87 9C       		.byte	0x9c
 7464 0c88 AB0C0000 		.4byte	0xcab
 7465 0c8c 0D       		.uleb128 0xd
 7466 0c8d D0020000 		.4byte	.LASF39
 7467 0c91 01       		.byte	0x1
 7468 0c92 0504     		.2byte	0x405
 7469 0c94 7E000000 		.4byte	0x7e
 7470 0c98 02       		.uleb128 0x2
 7471 0c99 91       		.byte	0x91
 7472 0c9a 6C       		.sleb128 -20
 7473 0c9b 0F       		.uleb128 0xf
 7474 0c9c 62697400 		.ascii	"bit\000"
 7475 0ca0 01       		.byte	0x1
ARM GAS  D:\Windows\AppData\Local\Temp\ccYfDzHQ.s 			page 151


 7476 0ca1 0604     		.2byte	0x406
 7477 0ca3 8C000000 		.4byte	0x8c
 7478 0ca7 02       		.uleb128 0x2
 7479 0ca8 91       		.byte	0x91
 7480 0ca9 77       		.sleb128 -9
 7481 0caa 00       		.byte	0
 7482 0cab 15       		.uleb128 0x15
 7483 0cac 0E040000 		.4byte	.LASF90
 7484 0cb0 04       		.byte	0x4
 7485 0cb1 5506     		.2byte	0x655
 7486 0cb3 B70C0000 		.4byte	0xcb7
 7487 0cb7 16       		.uleb128 0x16
 7488 0cb8 A2000000 		.4byte	0xa2
 7489 0cbc 17       		.uleb128 0x17
 7490 0cbd 7E000000 		.4byte	0x7e
 7491 0cc1 CC0C0000 		.4byte	0xccc
 7492 0cc5 18       		.uleb128 0x18
 7493 0cc6 C2000000 		.4byte	0xc2
 7494 0cca 04       		.byte	0x4
 7495 0ccb 00       		.byte	0
 7496 0ccc 19       		.uleb128 0x19
 7497 0ccd 7F000000 		.4byte	.LASF91
 7498 0cd1 01       		.byte	0x1
 7499 0cd2 10       		.byte	0x10
 7500 0cd3 BC0C0000 		.4byte	0xcbc
 7501 0cd7 05       		.uleb128 0x5
 7502 0cd8 03       		.byte	0x3
 7503 0cd9 00000000 		.4byte	bms_temp_map
 7504 0cdd 19       		.uleb128 0x19
 7505 0cde 39020000 		.4byte	.LASF92
 7506 0ce2 01       		.byte	0x1
 7507 0ce3 11       		.byte	0x11
 7508 0ce4 BC0C0000 		.4byte	0xcbc
 7509 0ce8 05       		.uleb128 0x5
 7510 0ce9 03       		.byte	0x3
 7511 0cea 00000000 		.4byte	mtr_temp_map
 7512 0cee 19       		.uleb128 0x19
 7513 0cef 0B050000 		.4byte	.LASF93
 7514 0cf3 01       		.byte	0x1
 7515 0cf4 12       		.byte	0x12
 7516 0cf5 BC0C0000 		.4byte	0xcbc
 7517 0cf9 05       		.uleb128 0x5
 7518 0cfa 03       		.byte	0x3
 7519 0cfb 00000000 		.4byte	mtr_ctrl_temp_map
 7520 0cff 19       		.uleb128 0x19
 7521 0d00 BA050000 		.4byte	.LASF94
 7522 0d04 01       		.byte	0x1
 7523 0d05 13       		.byte	0x13
 7524 0d06 BC0C0000 		.4byte	0xcbc
 7525 0d0a 05       		.uleb128 0x5
 7526 0d0b 03       		.byte	0x3
 7527 0d0c 00000000 		.4byte	SoC_pct_map
 7528 0d10 19       		.uleb128 0x19
 7529 0d11 CB040000 		.4byte	.LASF95
 7530 0d15 01       		.byte	0x1
 7531 0d16 16       		.byte	0x16
 7532 0d17 8C000000 		.4byte	0x8c
ARM GAS  D:\Windows\AppData\Local\Temp\ccYfDzHQ.s 			page 152


 7533 0d1b 05       		.uleb128 0x5
 7534 0d1c 03       		.byte	0x3
 7535 0d1d 00000000 		.4byte	byte05
 7536 0d21 19       		.uleb128 0x19
 7537 0d22 D2040000 		.4byte	.LASF96
 7538 0d26 01       		.byte	0x1
 7539 0d27 17       		.byte	0x17
 7540 0d28 8C000000 		.4byte	0x8c
 7541 0d2c 05       		.uleb128 0x5
 7542 0d2d 03       		.byte	0x3
 7543 0d2e 00000000 		.4byte	byte06
 7544 0d32 19       		.uleb128 0x19
 7545 0d33 D9040000 		.4byte	.LASF97
 7546 0d37 01       		.byte	0x1
 7547 0d38 18       		.byte	0x18
 7548 0d39 8C000000 		.4byte	0x8c
 7549 0d3d 05       		.uleb128 0x5
 7550 0d3e 03       		.byte	0x3
 7551 0d3f 00000000 		.4byte	byte07
 7552 0d43 19       		.uleb128 0x19
 7553 0d44 E0040000 		.4byte	.LASF98
 7554 0d48 01       		.byte	0x1
 7555 0d49 19       		.byte	0x19
 7556 0d4a 8C000000 		.4byte	0x8c
 7557 0d4e 05       		.uleb128 0x5
 7558 0d4f 03       		.byte	0x3
 7559 0d50 00000000 		.4byte	byte08
 7560 0d54 19       		.uleb128 0x19
 7561 0d55 63030000 		.4byte	.LASF99
 7562 0d59 01       		.byte	0x1
 7563 0d5a 1B       		.byte	0x1b
 7564 0d5b 8C000000 		.4byte	0x8c
 7565 0d5f 05       		.uleb128 0x5
 7566 0d60 03       		.byte	0x3
 7567 0d61 00000000 		.4byte	byte05_2
 7568 0d65 19       		.uleb128 0x19
 7569 0d66 C6050000 		.4byte	.LASF100
 7570 0d6a 01       		.byte	0x1
 7571 0d6b 1C       		.byte	0x1c
 7572 0d6c 8C000000 		.4byte	0x8c
 7573 0d70 05       		.uleb128 0x5
 7574 0d71 03       		.byte	0x3
 7575 0d72 00000000 		.4byte	byte06_2
 7576 0d76 19       		.uleb128 0x19
 7577 0d77 CA010000 		.4byte	.LASF101
 7578 0d7b 01       		.byte	0x1
 7579 0d7c 1D       		.byte	0x1d
 7580 0d7d 8C000000 		.4byte	0x8c
 7581 0d81 05       		.uleb128 0x5
 7582 0d82 03       		.byte	0x3
 7583 0d83 00000000 		.4byte	byte07_2
 7584 0d87 19       		.uleb128 0x19
 7585 0d88 50040000 		.4byte	.LASF102
 7586 0d8c 01       		.byte	0x1
 7587 0d8d 1E       		.byte	0x1e
 7588 0d8e 8C000000 		.4byte	0x8c
 7589 0d92 05       		.uleb128 0x5
ARM GAS  D:\Windows\AppData\Local\Temp\ccYfDzHQ.s 			page 153


 7590 0d93 03       		.byte	0x3
 7591 0d94 00000000 		.4byte	byte08_2
 7592 0d98 17       		.uleb128 0x17
 7593 0d99 7E000000 		.4byte	0x7e
 7594 0d9d A80D0000 		.4byte	0xda8
 7595 0da1 18       		.uleb128 0x18
 7596 0da2 C2000000 		.4byte	0xc2
 7597 0da6 15       		.byte	0x15
 7598 0da7 00       		.byte	0
 7599 0da8 19       		.uleb128 0x19
 7600 0da9 6D000000 		.4byte	.LASF103
 7601 0dad 01       		.byte	0x1
 7602 0dae 21       		.byte	0x21
 7603 0daf 980D0000 		.4byte	0xd98
 7604 0db3 05       		.uleb128 0x5
 7605 0db4 03       		.byte	0x3
 7606 0db5 00000000 		.4byte	tach_arr
 7607 0db9 19       		.uleb128 0x19
 7608 0dba 40040000 		.4byte	.LASF104
 7609 0dbe 01       		.byte	0x1
 7610 0dbf 22       		.byte	0x22
 7611 0dc0 BC0C0000 		.4byte	0xcbc
 7612 0dc4 05       		.uleb128 0x5
 7613 0dc5 03       		.byte	0x3
 7614 0dc6 00000000 		.4byte	b1_arr
 7615 0dca 19       		.uleb128 0x19
 7616 0dcb D3010000 		.4byte	.LASF105
 7617 0dcf 01       		.byte	0x1
 7618 0dd0 23       		.byte	0x23
 7619 0dd1 BC0C0000 		.4byte	0xcbc
 7620 0dd5 05       		.uleb128 0x5
 7621 0dd6 03       		.byte	0x3
 7622 0dd7 00000000 		.4byte	b2_arr
 7623 0ddb 19       		.uleb128 0x19
 7624 0ddc 13000000 		.4byte	.LASF106
 7625 0de0 01       		.byte	0x1
 7626 0de1 24       		.byte	0x24
 7627 0de2 BC0C0000 		.4byte	0xcbc
 7628 0de6 05       		.uleb128 0x5
 7629 0de7 03       		.byte	0x3
 7630 0de8 00000000 		.4byte	b3_arr
 7631 0dec 19       		.uleb128 0x19
 7632 0ded 31010000 		.4byte	.LASF107
 7633 0df1 01       		.byte	0x1
 7634 0df2 25       		.byte	0x25
 7635 0df3 BC0C0000 		.4byte	0xcbc
 7636 0df7 05       		.uleb128 0x5
 7637 0df8 03       		.byte	0x3
 7638 0df9 00000000 		.4byte	c1_arr
 7639 0dfd 19       		.uleb128 0x19
 7640 0dfe 21020000 		.4byte	.LASF108
 7641 0e02 01       		.byte	0x1
 7642 0e03 27       		.byte	0x27
 7643 0e04 7E000000 		.4byte	0x7e
 7644 0e08 05       		.uleb128 0x5
 7645 0e09 03       		.byte	0x3
 7646 0e0a 00000000 		.4byte	tach_critical
ARM GAS  D:\Windows\AppData\Local\Temp\ccYfDzHQ.s 			page 154


 7647 0e0e 19       		.uleb128 0x19
 7648 0e0f 77040000 		.4byte	.LASF109
 7649 0e13 01       		.byte	0x1
 7650 0e14 28       		.byte	0x28
 7651 0e15 7E000000 		.4byte	0x7e
 7652 0e19 05       		.uleb128 0x5
 7653 0e1a 03       		.byte	0x3
 7654 0e1b 00000000 		.4byte	b1_critical
 7655 0e1f 19       		.uleb128 0x19
 7656 0e20 15020000 		.4byte	.LASF110
 7657 0e24 01       		.byte	0x1
 7658 0e25 29       		.byte	0x29
 7659 0e26 7E000000 		.4byte	0x7e
 7660 0e2a 05       		.uleb128 0x5
 7661 0e2b 03       		.byte	0x3
 7662 0e2c 00000000 		.4byte	b2_critical
 7663 0e30 19       		.uleb128 0x19
 7664 0e31 1C010000 		.4byte	.LASF111
 7665 0e35 01       		.byte	0x1
 7666 0e36 2A       		.byte	0x2a
 7667 0e37 7E000000 		.4byte	0x7e
 7668 0e3b 05       		.uleb128 0x5
 7669 0e3c 03       		.byte	0x3
 7670 0e3d 00000000 		.4byte	b3_critical
 7671 0e41 19       		.uleb128 0x19
 7672 0e42 C4020000 		.4byte	.LASF112
 7673 0e46 01       		.byte	0x1
 7674 0e47 2B       		.byte	0x2b
 7675 0e48 7E000000 		.4byte	0x7e
 7676 0e4c 05       		.uleb128 0x5
 7677 0e4d 03       		.byte	0x3
 7678 0e4e 00000000 		.4byte	c1_critical
 7679 0e52 19       		.uleb128 0x19
 7680 0e53 AD020000 		.4byte	.LASF113
 7681 0e57 01       		.byte	0x1
 7682 0e58 2D       		.byte	0x2d
 7683 0e59 7E000000 		.4byte	0x7e
 7684 0e5d 05       		.uleb128 0x5
 7685 0e5e 03       		.byte	0x3
 7686 0e5f 00000000 		.4byte	tach_crit_led
 7687 0e63 19       		.uleb128 0x19
 7688 0e64 E7040000 		.4byte	.LASF114
 7689 0e68 01       		.byte	0x1
 7690 0e69 2E       		.byte	0x2e
 7691 0e6a 7E000000 		.4byte	0x7e
 7692 0e6e 05       		.uleb128 0x5
 7693 0e6f 03       		.byte	0x3
 7694 0e70 00000000 		.4byte	b1_crit_led
 7695 0e74 19       		.uleb128 0x19
 7696 0e75 8C000000 		.4byte	.LASF115
 7697 0e79 01       		.byte	0x1
 7698 0e7a 2F       		.byte	0x2f
 7699 0e7b 7E000000 		.4byte	0x7e
 7700 0e7f 05       		.uleb128 0x5
 7701 0e80 03       		.byte	0x3
 7702 0e81 00000000 		.4byte	b2_crit_led
 7703 0e85 19       		.uleb128 0x19
ARM GAS  D:\Windows\AppData\Local\Temp\ccYfDzHQ.s 			page 155


 7704 0e86 64010000 		.4byte	.LASF116
 7705 0e8a 01       		.byte	0x1
 7706 0e8b 30       		.byte	0x30
 7707 0e8c 7E000000 		.4byte	0x7e
 7708 0e90 05       		.uleb128 0x5
 7709 0e91 03       		.byte	0x3
 7710 0e92 00000000 		.4byte	b3_crit_led
 7711 0e96 19       		.uleb128 0x19
 7712 0e97 81030000 		.4byte	.LASF117
 7713 0e9b 01       		.byte	0x1
 7714 0e9c 31       		.byte	0x31
 7715 0e9d 7E000000 		.4byte	0x7e
 7716 0ea1 05       		.uleb128 0x5
 7717 0ea2 03       		.byte	0x3
 7718 0ea3 00000000 		.4byte	c1_crit_led
 7719 0ea7 00       		.byte	0
 7720              		.section	.debug_abbrev,"",%progbits
 7721              	.Ldebug_abbrev0:
 7722 0000 01       		.uleb128 0x1
 7723 0001 11       		.uleb128 0x11
 7724 0002 01       		.byte	0x1
 7725 0003 25       		.uleb128 0x25
 7726 0004 0E       		.uleb128 0xe
 7727 0005 13       		.uleb128 0x13
 7728 0006 0B       		.uleb128 0xb
 7729 0007 03       		.uleb128 0x3
 7730 0008 0E       		.uleb128 0xe
 7731 0009 1B       		.uleb128 0x1b
 7732 000a 0E       		.uleb128 0xe
 7733 000b 55       		.uleb128 0x55
 7734 000c 17       		.uleb128 0x17
 7735 000d 11       		.uleb128 0x11
 7736 000e 01       		.uleb128 0x1
 7737 000f 10       		.uleb128 0x10
 7738 0010 17       		.uleb128 0x17
 7739 0011 00       		.byte	0
 7740 0012 00       		.byte	0
 7741 0013 02       		.uleb128 0x2
 7742 0014 24       		.uleb128 0x24
 7743 0015 00       		.byte	0
 7744 0016 0B       		.uleb128 0xb
 7745 0017 0B       		.uleb128 0xb
 7746 0018 3E       		.uleb128 0x3e
 7747 0019 0B       		.uleb128 0xb
 7748 001a 03       		.uleb128 0x3
 7749 001b 0E       		.uleb128 0xe
 7750 001c 00       		.byte	0
 7751 001d 00       		.byte	0
 7752 001e 03       		.uleb128 0x3
 7753 001f 16       		.uleb128 0x16
 7754 0020 00       		.byte	0
 7755 0021 03       		.uleb128 0x3
 7756 0022 0E       		.uleb128 0xe
 7757 0023 3A       		.uleb128 0x3a
 7758 0024 0B       		.uleb128 0xb
 7759 0025 3B       		.uleb128 0x3b
 7760 0026 0B       		.uleb128 0xb
ARM GAS  D:\Windows\AppData\Local\Temp\ccYfDzHQ.s 			page 156


 7761 0027 49       		.uleb128 0x49
 7762 0028 13       		.uleb128 0x13
 7763 0029 00       		.byte	0
 7764 002a 00       		.byte	0
 7765 002b 04       		.uleb128 0x4
 7766 002c 24       		.uleb128 0x24
 7767 002d 00       		.byte	0
 7768 002e 0B       		.uleb128 0xb
 7769 002f 0B       		.uleb128 0xb
 7770 0030 3E       		.uleb128 0x3e
 7771 0031 0B       		.uleb128 0xb
 7772 0032 03       		.uleb128 0x3
 7773 0033 08       		.uleb128 0x8
 7774 0034 00       		.byte	0
 7775 0035 00       		.byte	0
 7776 0036 05       		.uleb128 0x5
 7777 0037 2E       		.uleb128 0x2e
 7778 0038 00       		.byte	0
 7779 0039 3F       		.uleb128 0x3f
 7780 003a 19       		.uleb128 0x19
 7781 003b 03       		.uleb128 0x3
 7782 003c 0E       		.uleb128 0xe
 7783 003d 3A       		.uleb128 0x3a
 7784 003e 0B       		.uleb128 0xb
 7785 003f 3B       		.uleb128 0x3b
 7786 0040 0B       		.uleb128 0xb
 7787 0041 27       		.uleb128 0x27
 7788 0042 19       		.uleb128 0x19
 7789 0043 11       		.uleb128 0x11
 7790 0044 01       		.uleb128 0x1
 7791 0045 12       		.uleb128 0x12
 7792 0046 06       		.uleb128 0x6
 7793 0047 40       		.uleb128 0x40
 7794 0048 18       		.uleb128 0x18
 7795 0049 9642     		.uleb128 0x2116
 7796 004b 19       		.uleb128 0x19
 7797 004c 00       		.byte	0
 7798 004d 00       		.byte	0
 7799 004e 06       		.uleb128 0x6
 7800 004f 2E       		.uleb128 0x2e
 7801 0050 01       		.byte	0x1
 7802 0051 3F       		.uleb128 0x3f
 7803 0052 19       		.uleb128 0x19
 7804 0053 03       		.uleb128 0x3
 7805 0054 0E       		.uleb128 0xe
 7806 0055 3A       		.uleb128 0x3a
 7807 0056 0B       		.uleb128 0xb
 7808 0057 3B       		.uleb128 0x3b
 7809 0058 0B       		.uleb128 0xb
 7810 0059 11       		.uleb128 0x11
 7811 005a 01       		.uleb128 0x1
 7812 005b 12       		.uleb128 0x12
 7813 005c 06       		.uleb128 0x6
 7814 005d 40       		.uleb128 0x40
 7815 005e 18       		.uleb128 0x18
 7816 005f 9642     		.uleb128 0x2116
 7817 0061 19       		.uleb128 0x19
ARM GAS  D:\Windows\AppData\Local\Temp\ccYfDzHQ.s 			page 157


 7818 0062 01       		.uleb128 0x1
 7819 0063 13       		.uleb128 0x13
 7820 0064 00       		.byte	0
 7821 0065 00       		.byte	0
 7822 0066 07       		.uleb128 0x7
 7823 0067 34       		.uleb128 0x34
 7824 0068 00       		.byte	0
 7825 0069 03       		.uleb128 0x3
 7826 006a 0E       		.uleb128 0xe
 7827 006b 3A       		.uleb128 0x3a
 7828 006c 0B       		.uleb128 0xb
 7829 006d 3B       		.uleb128 0x3b
 7830 006e 0B       		.uleb128 0xb
 7831 006f 49       		.uleb128 0x49
 7832 0070 13       		.uleb128 0x13
 7833 0071 02       		.uleb128 0x2
 7834 0072 18       		.uleb128 0x18
 7835 0073 00       		.byte	0
 7836 0074 00       		.byte	0
 7837 0075 08       		.uleb128 0x8
 7838 0076 2E       		.uleb128 0x2e
 7839 0077 01       		.byte	0x1
 7840 0078 3F       		.uleb128 0x3f
 7841 0079 19       		.uleb128 0x19
 7842 007a 03       		.uleb128 0x3
 7843 007b 0E       		.uleb128 0xe
 7844 007c 3A       		.uleb128 0x3a
 7845 007d 0B       		.uleb128 0xb
 7846 007e 3B       		.uleb128 0x3b
 7847 007f 0B       		.uleb128 0xb
 7848 0080 27       		.uleb128 0x27
 7849 0081 19       		.uleb128 0x19
 7850 0082 11       		.uleb128 0x11
 7851 0083 01       		.uleb128 0x1
 7852 0084 12       		.uleb128 0x12
 7853 0085 06       		.uleb128 0x6
 7854 0086 40       		.uleb128 0x40
 7855 0087 18       		.uleb128 0x18
 7856 0088 9642     		.uleb128 0x2116
 7857 008a 19       		.uleb128 0x19
 7858 008b 01       		.uleb128 0x1
 7859 008c 13       		.uleb128 0x13
 7860 008d 00       		.byte	0
 7861 008e 00       		.byte	0
 7862 008f 09       		.uleb128 0x9
 7863 0090 05       		.uleb128 0x5
 7864 0091 00       		.byte	0
 7865 0092 03       		.uleb128 0x3
 7866 0093 0E       		.uleb128 0xe
 7867 0094 3A       		.uleb128 0x3a
 7868 0095 0B       		.uleb128 0xb
 7869 0096 3B       		.uleb128 0x3b
 7870 0097 0B       		.uleb128 0xb
 7871 0098 49       		.uleb128 0x49
 7872 0099 13       		.uleb128 0x13
 7873 009a 02       		.uleb128 0x2
 7874 009b 18       		.uleb128 0x18
ARM GAS  D:\Windows\AppData\Local\Temp\ccYfDzHQ.s 			page 158


 7875 009c 00       		.byte	0
 7876 009d 00       		.byte	0
 7877 009e 0A       		.uleb128 0xa
 7878 009f 0B       		.uleb128 0xb
 7879 00a0 01       		.byte	0x1
 7880 00a1 11       		.uleb128 0x11
 7881 00a2 01       		.uleb128 0x1
 7882 00a3 12       		.uleb128 0x12
 7883 00a4 06       		.uleb128 0x6
 7884 00a5 00       		.byte	0
 7885 00a6 00       		.byte	0
 7886 00a7 0B       		.uleb128 0xb
 7887 00a8 34       		.uleb128 0x34
 7888 00a9 00       		.byte	0
 7889 00aa 03       		.uleb128 0x3
 7890 00ab 08       		.uleb128 0x8
 7891 00ac 3A       		.uleb128 0x3a
 7892 00ad 0B       		.uleb128 0xb
 7893 00ae 3B       		.uleb128 0x3b
 7894 00af 0B       		.uleb128 0xb
 7895 00b0 49       		.uleb128 0x49
 7896 00b1 13       		.uleb128 0x13
 7897 00b2 02       		.uleb128 0x2
 7898 00b3 18       		.uleb128 0x18
 7899 00b4 00       		.byte	0
 7900 00b5 00       		.byte	0
 7901 00b6 0C       		.uleb128 0xc
 7902 00b7 2E       		.uleb128 0x2e
 7903 00b8 01       		.byte	0x1
 7904 00b9 3F       		.uleb128 0x3f
 7905 00ba 19       		.uleb128 0x19
 7906 00bb 03       		.uleb128 0x3
 7907 00bc 0E       		.uleb128 0xe
 7908 00bd 3A       		.uleb128 0x3a
 7909 00be 0B       		.uleb128 0xb
 7910 00bf 3B       		.uleb128 0x3b
 7911 00c0 05       		.uleb128 0x5
 7912 00c1 27       		.uleb128 0x27
 7913 00c2 19       		.uleb128 0x19
 7914 00c3 11       		.uleb128 0x11
 7915 00c4 01       		.uleb128 0x1
 7916 00c5 12       		.uleb128 0x12
 7917 00c6 06       		.uleb128 0x6
 7918 00c7 40       		.uleb128 0x40
 7919 00c8 18       		.uleb128 0x18
 7920 00c9 9642     		.uleb128 0x2116
 7921 00cb 19       		.uleb128 0x19
 7922 00cc 01       		.uleb128 0x1
 7923 00cd 13       		.uleb128 0x13
 7924 00ce 00       		.byte	0
 7925 00cf 00       		.byte	0
 7926 00d0 0D       		.uleb128 0xd
 7927 00d1 05       		.uleb128 0x5
 7928 00d2 00       		.byte	0
 7929 00d3 03       		.uleb128 0x3
 7930 00d4 0E       		.uleb128 0xe
 7931 00d5 3A       		.uleb128 0x3a
ARM GAS  D:\Windows\AppData\Local\Temp\ccYfDzHQ.s 			page 159


 7932 00d6 0B       		.uleb128 0xb
 7933 00d7 3B       		.uleb128 0x3b
 7934 00d8 05       		.uleb128 0x5
 7935 00d9 49       		.uleb128 0x49
 7936 00da 13       		.uleb128 0x13
 7937 00db 02       		.uleb128 0x2
 7938 00dc 18       		.uleb128 0x18
 7939 00dd 00       		.byte	0
 7940 00de 00       		.byte	0
 7941 00df 0E       		.uleb128 0xe
 7942 00e0 34       		.uleb128 0x34
 7943 00e1 00       		.byte	0
 7944 00e2 03       		.uleb128 0x3
 7945 00e3 0E       		.uleb128 0xe
 7946 00e4 3A       		.uleb128 0x3a
 7947 00e5 0B       		.uleb128 0xb
 7948 00e6 3B       		.uleb128 0x3b
 7949 00e7 05       		.uleb128 0x5
 7950 00e8 49       		.uleb128 0x49
 7951 00e9 13       		.uleb128 0x13
 7952 00ea 02       		.uleb128 0x2
 7953 00eb 18       		.uleb128 0x18
 7954 00ec 00       		.byte	0
 7955 00ed 00       		.byte	0
 7956 00ee 0F       		.uleb128 0xf
 7957 00ef 34       		.uleb128 0x34
 7958 00f0 00       		.byte	0
 7959 00f1 03       		.uleb128 0x3
 7960 00f2 08       		.uleb128 0x8
 7961 00f3 3A       		.uleb128 0x3a
 7962 00f4 0B       		.uleb128 0xb
 7963 00f5 3B       		.uleb128 0x3b
 7964 00f6 05       		.uleb128 0x5
 7965 00f7 49       		.uleb128 0x49
 7966 00f8 13       		.uleb128 0x13
 7967 00f9 02       		.uleb128 0x2
 7968 00fa 18       		.uleb128 0x18
 7969 00fb 00       		.byte	0
 7970 00fc 00       		.byte	0
 7971 00fd 10       		.uleb128 0x10
 7972 00fe 05       		.uleb128 0x5
 7973 00ff 00       		.byte	0
 7974 0100 03       		.uleb128 0x3
 7975 0101 08       		.uleb128 0x8
 7976 0102 3A       		.uleb128 0x3a
 7977 0103 0B       		.uleb128 0xb
 7978 0104 3B       		.uleb128 0x3b
 7979 0105 05       		.uleb128 0x5
 7980 0106 49       		.uleb128 0x49
 7981 0107 13       		.uleb128 0x13
 7982 0108 02       		.uleb128 0x2
 7983 0109 18       		.uleb128 0x18
 7984 010a 00       		.byte	0
 7985 010b 00       		.byte	0
 7986 010c 11       		.uleb128 0x11
 7987 010d 2E       		.uleb128 0x2e
 7988 010e 00       		.byte	0
ARM GAS  D:\Windows\AppData\Local\Temp\ccYfDzHQ.s 			page 160


 7989 010f 3F       		.uleb128 0x3f
 7990 0110 19       		.uleb128 0x19
 7991 0111 03       		.uleb128 0x3
 7992 0112 0E       		.uleb128 0xe
 7993 0113 3A       		.uleb128 0x3a
 7994 0114 0B       		.uleb128 0xb
 7995 0115 3B       		.uleb128 0x3b
 7996 0116 05       		.uleb128 0x5
 7997 0117 11       		.uleb128 0x11
 7998 0118 01       		.uleb128 0x1
 7999 0119 12       		.uleb128 0x12
 8000 011a 06       		.uleb128 0x6
 8001 011b 40       		.uleb128 0x40
 8002 011c 18       		.uleb128 0x18
 8003 011d 9642     		.uleb128 0x2116
 8004 011f 19       		.uleb128 0x19
 8005 0120 00       		.byte	0
 8006 0121 00       		.byte	0
 8007 0122 12       		.uleb128 0x12
 8008 0123 2E       		.uleb128 0x2e
 8009 0124 01       		.byte	0x1
 8010 0125 3F       		.uleb128 0x3f
 8011 0126 19       		.uleb128 0x19
 8012 0127 03       		.uleb128 0x3
 8013 0128 0E       		.uleb128 0xe
 8014 0129 3A       		.uleb128 0x3a
 8015 012a 0B       		.uleb128 0xb
 8016 012b 3B       		.uleb128 0x3b
 8017 012c 05       		.uleb128 0x5
 8018 012d 27       		.uleb128 0x27
 8019 012e 19       		.uleb128 0x19
 8020 012f 49       		.uleb128 0x49
 8021 0130 13       		.uleb128 0x13
 8022 0131 11       		.uleb128 0x11
 8023 0132 01       		.uleb128 0x1
 8024 0133 12       		.uleb128 0x12
 8025 0134 06       		.uleb128 0x6
 8026 0135 40       		.uleb128 0x40
 8027 0136 18       		.uleb128 0x18
 8028 0137 9642     		.uleb128 0x2116
 8029 0139 19       		.uleb128 0x19
 8030 013a 01       		.uleb128 0x1
 8031 013b 13       		.uleb128 0x13
 8032 013c 00       		.byte	0
 8033 013d 00       		.byte	0
 8034 013e 13       		.uleb128 0x13
 8035 013f 0F       		.uleb128 0xf
 8036 0140 00       		.byte	0
 8037 0141 0B       		.uleb128 0xb
 8038 0142 0B       		.uleb128 0xb
 8039 0143 49       		.uleb128 0x49
 8040 0144 13       		.uleb128 0x13
 8041 0145 00       		.byte	0
 8042 0146 00       		.byte	0
 8043 0147 14       		.uleb128 0x14
 8044 0148 2E       		.uleb128 0x2e
 8045 0149 01       		.byte	0x1
ARM GAS  D:\Windows\AppData\Local\Temp\ccYfDzHQ.s 			page 161


 8046 014a 3F       		.uleb128 0x3f
 8047 014b 19       		.uleb128 0x19
 8048 014c 03       		.uleb128 0x3
 8049 014d 0E       		.uleb128 0xe
 8050 014e 3A       		.uleb128 0x3a
 8051 014f 0B       		.uleb128 0xb
 8052 0150 3B       		.uleb128 0x3b
 8053 0151 05       		.uleb128 0x5
 8054 0152 27       		.uleb128 0x27
 8055 0153 19       		.uleb128 0x19
 8056 0154 11       		.uleb128 0x11
 8057 0155 01       		.uleb128 0x1
 8058 0156 12       		.uleb128 0x12
 8059 0157 06       		.uleb128 0x6
 8060 0158 40       		.uleb128 0x40
 8061 0159 18       		.uleb128 0x18
 8062 015a 9742     		.uleb128 0x2117
 8063 015c 19       		.uleb128 0x19
 8064 015d 01       		.uleb128 0x1
 8065 015e 13       		.uleb128 0x13
 8066 015f 00       		.byte	0
 8067 0160 00       		.byte	0
 8068 0161 15       		.uleb128 0x15
 8069 0162 34       		.uleb128 0x34
 8070 0163 00       		.byte	0
 8071 0164 03       		.uleb128 0x3
 8072 0165 0E       		.uleb128 0xe
 8073 0166 3A       		.uleb128 0x3a
 8074 0167 0B       		.uleb128 0xb
 8075 0168 3B       		.uleb128 0x3b
 8076 0169 05       		.uleb128 0x5
 8077 016a 49       		.uleb128 0x49
 8078 016b 13       		.uleb128 0x13
 8079 016c 3F       		.uleb128 0x3f
 8080 016d 19       		.uleb128 0x19
 8081 016e 3C       		.uleb128 0x3c
 8082 016f 19       		.uleb128 0x19
 8083 0170 00       		.byte	0
 8084 0171 00       		.byte	0
 8085 0172 16       		.uleb128 0x16
 8086 0173 35       		.uleb128 0x35
 8087 0174 00       		.byte	0
 8088 0175 49       		.uleb128 0x49
 8089 0176 13       		.uleb128 0x13
 8090 0177 00       		.byte	0
 8091 0178 00       		.byte	0
 8092 0179 17       		.uleb128 0x17
 8093 017a 01       		.uleb128 0x1
 8094 017b 01       		.byte	0x1
 8095 017c 49       		.uleb128 0x49
 8096 017d 13       		.uleb128 0x13
 8097 017e 01       		.uleb128 0x1
 8098 017f 13       		.uleb128 0x13
 8099 0180 00       		.byte	0
 8100 0181 00       		.byte	0
 8101 0182 18       		.uleb128 0x18
 8102 0183 21       		.uleb128 0x21
ARM GAS  D:\Windows\AppData\Local\Temp\ccYfDzHQ.s 			page 162


 8103 0184 00       		.byte	0
 8104 0185 49       		.uleb128 0x49
 8105 0186 13       		.uleb128 0x13
 8106 0187 2F       		.uleb128 0x2f
 8107 0188 0B       		.uleb128 0xb
 8108 0189 00       		.byte	0
 8109 018a 00       		.byte	0
 8110 018b 19       		.uleb128 0x19
 8111 018c 34       		.uleb128 0x34
 8112 018d 00       		.byte	0
 8113 018e 03       		.uleb128 0x3
 8114 018f 0E       		.uleb128 0xe
 8115 0190 3A       		.uleb128 0x3a
 8116 0191 0B       		.uleb128 0xb
 8117 0192 3B       		.uleb128 0x3b
 8118 0193 0B       		.uleb128 0xb
 8119 0194 49       		.uleb128 0x49
 8120 0195 13       		.uleb128 0x13
 8121 0196 3F       		.uleb128 0x3f
 8122 0197 19       		.uleb128 0x19
 8123 0198 02       		.uleb128 0x2
 8124 0199 18       		.uleb128 0x18
 8125 019a 00       		.byte	0
 8126 019b 00       		.byte	0
 8127 019c 00       		.byte	0
 8128              		.section	.debug_aranges,"",%progbits
 8129 0000 04020000 		.4byte	0x204
 8130 0004 0200     		.2byte	0x2
 8131 0006 00000000 		.4byte	.Ldebug_info0
 8132 000a 04       		.byte	0x4
 8133 000b 00       		.byte	0
 8134 000c 0000     		.2byte	0
 8135 000e 0000     		.2byte	0
 8136 0010 00000000 		.4byte	.LFB63
 8137 0014 00010000 		.4byte	.LFE63-.LFB63
 8138 0018 00000000 		.4byte	.LFB64
 8139 001c 54000000 		.4byte	.LFE64-.LFB64
 8140 0020 00000000 		.4byte	.LFB65
 8141 0024 54000000 		.4byte	.LFE65-.LFB65
 8142 0028 00000000 		.4byte	.LFB66
 8143 002c 54000000 		.4byte	.LFE66-.LFB66
 8144 0030 00000000 		.4byte	.LFB67
 8145 0034 54000000 		.4byte	.LFE67-.LFB67
 8146 0038 00000000 		.4byte	.LFB68
 8147 003c 98000000 		.4byte	.LFE68-.LFB68
 8148 0040 00000000 		.4byte	.LFB69
 8149 0044 08030000 		.4byte	.LFE69-.LFB69
 8150 0048 00000000 		.4byte	.LFB70
 8151 004c 50010000 		.4byte	.LFE70-.LFB70
 8152 0050 00000000 		.4byte	.LFB71
 8153 0054 60010000 		.4byte	.LFE71-.LFB71
 8154 0058 00000000 		.4byte	.LFB72
 8155 005c 60010000 		.4byte	.LFE72-.LFB72
 8156 0060 00000000 		.4byte	.LFB73
 8157 0064 4C010000 		.4byte	.LFE73-.LFB73
 8158 0068 00000000 		.4byte	.LFB74
 8159 006c 64000000 		.4byte	.LFE74-.LFB74
ARM GAS  D:\Windows\AppData\Local\Temp\ccYfDzHQ.s 			page 163


 8160 0070 00000000 		.4byte	.LFB75
 8161 0074 64000000 		.4byte	.LFE75-.LFB75
 8162 0078 00000000 		.4byte	.LFB76
 8163 007c 50000000 		.4byte	.LFE76-.LFB76
 8164 0080 00000000 		.4byte	.LFB77
 8165 0084 50000000 		.4byte	.LFE77-.LFB77
 8166 0088 00000000 		.4byte	.LFB78
 8167 008c 40020000 		.4byte	.LFE78-.LFB78
 8168 0090 00000000 		.4byte	.LFB79
 8169 0094 A0000000 		.4byte	.LFE79-.LFB79
 8170 0098 00000000 		.4byte	.LFB80
 8171 009c 1E000000 		.4byte	.LFE80-.LFB80
 8172 00a0 00000000 		.4byte	.LFB81
 8173 00a4 1E000000 		.4byte	.LFE81-.LFB81
 8174 00a8 00000000 		.4byte	.LFB82
 8175 00ac 60010000 		.4byte	.LFE82-.LFB82
 8176 00b0 00000000 		.4byte	.LFB83
 8177 00b4 48000000 		.4byte	.LFE83-.LFB83
 8178 00b8 00000000 		.4byte	.LFB84
 8179 00bc 48000000 		.4byte	.LFE84-.LFB84
 8180 00c0 00000000 		.4byte	.LFB85
 8181 00c4 48000000 		.4byte	.LFE85-.LFB85
 8182 00c8 00000000 		.4byte	.LFB86
 8183 00cc 48000000 		.4byte	.LFE86-.LFB86
 8184 00d0 00000000 		.4byte	.LFB87
 8185 00d4 48000000 		.4byte	.LFE87-.LFB87
 8186 00d8 00000000 		.4byte	.LFB88
 8187 00dc 48000000 		.4byte	.LFE88-.LFB88
 8188 00e0 00000000 		.4byte	.LFB89
 8189 00e4 48000000 		.4byte	.LFE89-.LFB89
 8190 00e8 00000000 		.4byte	.LFB90
 8191 00ec 48000000 		.4byte	.LFE90-.LFB90
 8192 00f0 00000000 		.4byte	.LFB91
 8193 00f4 48000000 		.4byte	.LFE91-.LFB91
 8194 00f8 00000000 		.4byte	.LFB92
 8195 00fc 48000000 		.4byte	.LFE92-.LFB92
 8196 0100 00000000 		.4byte	.LFB93
 8197 0104 48000000 		.4byte	.LFE93-.LFB93
 8198 0108 00000000 		.4byte	.LFB94
 8199 010c 48000000 		.4byte	.LFE94-.LFB94
 8200 0110 00000000 		.4byte	.LFB95
 8201 0114 48000000 		.4byte	.LFE95-.LFB95
 8202 0118 00000000 		.4byte	.LFB96
 8203 011c 48000000 		.4byte	.LFE96-.LFB96
 8204 0120 00000000 		.4byte	.LFB97
 8205 0124 48000000 		.4byte	.LFE97-.LFB97
 8206 0128 00000000 		.4byte	.LFB98
 8207 012c 48000000 		.4byte	.LFE98-.LFB98
 8208 0130 00000000 		.4byte	.LFB99
 8209 0134 48000000 		.4byte	.LFE99-.LFB99
 8210 0138 00000000 		.4byte	.LFB100
 8211 013c 48000000 		.4byte	.LFE100-.LFB100
 8212 0140 00000000 		.4byte	.LFB101
 8213 0144 48000000 		.4byte	.LFE101-.LFB101
 8214 0148 00000000 		.4byte	.LFB102
 8215 014c 48000000 		.4byte	.LFE102-.LFB102
 8216 0150 00000000 		.4byte	.LFB103
ARM GAS  D:\Windows\AppData\Local\Temp\ccYfDzHQ.s 			page 164


 8217 0154 48000000 		.4byte	.LFE103-.LFB103
 8218 0158 00000000 		.4byte	.LFB104
 8219 015c 48000000 		.4byte	.LFE104-.LFB104
 8220 0160 00000000 		.4byte	.LFB105
 8221 0164 48000000 		.4byte	.LFE105-.LFB105
 8222 0168 00000000 		.4byte	.LFB106
 8223 016c 48000000 		.4byte	.LFE106-.LFB106
 8224 0170 00000000 		.4byte	.LFB107
 8225 0174 48000000 		.4byte	.LFE107-.LFB107
 8226 0178 00000000 		.4byte	.LFB108
 8227 017c 48000000 		.4byte	.LFE108-.LFB108
 8228 0180 00000000 		.4byte	.LFB109
 8229 0184 48000000 		.4byte	.LFE109-.LFB109
 8230 0188 00000000 		.4byte	.LFB110
 8231 018c 48000000 		.4byte	.LFE110-.LFB110
 8232 0190 00000000 		.4byte	.LFB111
 8233 0194 48000000 		.4byte	.LFE111-.LFB111
 8234 0198 00000000 		.4byte	.LFB112
 8235 019c 48000000 		.4byte	.LFE112-.LFB112
 8236 01a0 00000000 		.4byte	.LFB113
 8237 01a4 48000000 		.4byte	.LFE113-.LFB113
 8238 01a8 00000000 		.4byte	.LFB114
 8239 01ac 48000000 		.4byte	.LFE114-.LFB114
 8240 01b0 00000000 		.4byte	.LFB115
 8241 01b4 48000000 		.4byte	.LFE115-.LFB115
 8242 01b8 00000000 		.4byte	.LFB116
 8243 01bc 48000000 		.4byte	.LFE116-.LFB116
 8244 01c0 00000000 		.4byte	.LFB117
 8245 01c4 48000000 		.4byte	.LFE117-.LFB117
 8246 01c8 00000000 		.4byte	.LFB118
 8247 01cc 48000000 		.4byte	.LFE118-.LFB118
 8248 01d0 00000000 		.4byte	.LFB119
 8249 01d4 48000000 		.4byte	.LFE119-.LFB119
 8250 01d8 00000000 		.4byte	.LFB120
 8251 01dc 48000000 		.4byte	.LFE120-.LFB120
 8252 01e0 00000000 		.4byte	.LFB121
 8253 01e4 48000000 		.4byte	.LFE121-.LFB121
 8254 01e8 00000000 		.4byte	.LFB122
 8255 01ec 48000000 		.4byte	.LFE122-.LFB122
 8256 01f0 00000000 		.4byte	.LFB123
 8257 01f4 48000000 		.4byte	.LFE123-.LFB123
 8258 01f8 00000000 		.4byte	.LFB124
 8259 01fc 48000000 		.4byte	.LFE124-.LFB124
 8260 0200 00000000 		.4byte	0
 8261 0204 00000000 		.4byte	0
 8262              		.section	.debug_ranges,"",%progbits
 8263              	.Ldebug_ranges0:
 8264 0000 00000000 		.4byte	.LFB63
 8265 0004 00010000 		.4byte	.LFE63
 8266 0008 00000000 		.4byte	.LFB64
 8267 000c 54000000 		.4byte	.LFE64
 8268 0010 00000000 		.4byte	.LFB65
 8269 0014 54000000 		.4byte	.LFE65
 8270 0018 00000000 		.4byte	.LFB66
 8271 001c 54000000 		.4byte	.LFE66
 8272 0020 00000000 		.4byte	.LFB67
 8273 0024 54000000 		.4byte	.LFE67
ARM GAS  D:\Windows\AppData\Local\Temp\ccYfDzHQ.s 			page 165


 8274 0028 00000000 		.4byte	.LFB68
 8275 002c 98000000 		.4byte	.LFE68
 8276 0030 00000000 		.4byte	.LFB69
 8277 0034 08030000 		.4byte	.LFE69
 8278 0038 00000000 		.4byte	.LFB70
 8279 003c 50010000 		.4byte	.LFE70
 8280 0040 00000000 		.4byte	.LFB71
 8281 0044 60010000 		.4byte	.LFE71
 8282 0048 00000000 		.4byte	.LFB72
 8283 004c 60010000 		.4byte	.LFE72
 8284 0050 00000000 		.4byte	.LFB73
 8285 0054 4C010000 		.4byte	.LFE73
 8286 0058 00000000 		.4byte	.LFB74
 8287 005c 64000000 		.4byte	.LFE74
 8288 0060 00000000 		.4byte	.LFB75
 8289 0064 64000000 		.4byte	.LFE75
 8290 0068 00000000 		.4byte	.LFB76
 8291 006c 50000000 		.4byte	.LFE76
 8292 0070 00000000 		.4byte	.LFB77
 8293 0074 50000000 		.4byte	.LFE77
 8294 0078 00000000 		.4byte	.LFB78
 8295 007c 40020000 		.4byte	.LFE78
 8296 0080 00000000 		.4byte	.LFB79
 8297 0084 A0000000 		.4byte	.LFE79
 8298 0088 00000000 		.4byte	.LFB80
 8299 008c 1E000000 		.4byte	.LFE80
 8300 0090 00000000 		.4byte	.LFB81
 8301 0094 1E000000 		.4byte	.LFE81
 8302 0098 00000000 		.4byte	.LFB82
 8303 009c 60010000 		.4byte	.LFE82
 8304 00a0 00000000 		.4byte	.LFB83
 8305 00a4 48000000 		.4byte	.LFE83
 8306 00a8 00000000 		.4byte	.LFB84
 8307 00ac 48000000 		.4byte	.LFE84
 8308 00b0 00000000 		.4byte	.LFB85
 8309 00b4 48000000 		.4byte	.LFE85
 8310 00b8 00000000 		.4byte	.LFB86
 8311 00bc 48000000 		.4byte	.LFE86
 8312 00c0 00000000 		.4byte	.LFB87
 8313 00c4 48000000 		.4byte	.LFE87
 8314 00c8 00000000 		.4byte	.LFB88
 8315 00cc 48000000 		.4byte	.LFE88
 8316 00d0 00000000 		.4byte	.LFB89
 8317 00d4 48000000 		.4byte	.LFE89
 8318 00d8 00000000 		.4byte	.LFB90
 8319 00dc 48000000 		.4byte	.LFE90
 8320 00e0 00000000 		.4byte	.LFB91
 8321 00e4 48000000 		.4byte	.LFE91
 8322 00e8 00000000 		.4byte	.LFB92
 8323 00ec 48000000 		.4byte	.LFE92
 8324 00f0 00000000 		.4byte	.LFB93
 8325 00f4 48000000 		.4byte	.LFE93
 8326 00f8 00000000 		.4byte	.LFB94
 8327 00fc 48000000 		.4byte	.LFE94
 8328 0100 00000000 		.4byte	.LFB95
 8329 0104 48000000 		.4byte	.LFE95
 8330 0108 00000000 		.4byte	.LFB96
ARM GAS  D:\Windows\AppData\Local\Temp\ccYfDzHQ.s 			page 166


 8331 010c 48000000 		.4byte	.LFE96
 8332 0110 00000000 		.4byte	.LFB97
 8333 0114 48000000 		.4byte	.LFE97
 8334 0118 00000000 		.4byte	.LFB98
 8335 011c 48000000 		.4byte	.LFE98
 8336 0120 00000000 		.4byte	.LFB99
 8337 0124 48000000 		.4byte	.LFE99
 8338 0128 00000000 		.4byte	.LFB100
 8339 012c 48000000 		.4byte	.LFE100
 8340 0130 00000000 		.4byte	.LFB101
 8341 0134 48000000 		.4byte	.LFE101
 8342 0138 00000000 		.4byte	.LFB102
 8343 013c 48000000 		.4byte	.LFE102
 8344 0140 00000000 		.4byte	.LFB103
 8345 0144 48000000 		.4byte	.LFE103
 8346 0148 00000000 		.4byte	.LFB104
 8347 014c 48000000 		.4byte	.LFE104
 8348 0150 00000000 		.4byte	.LFB105
 8349 0154 48000000 		.4byte	.LFE105
 8350 0158 00000000 		.4byte	.LFB106
 8351 015c 48000000 		.4byte	.LFE106
 8352 0160 00000000 		.4byte	.LFB107
 8353 0164 48000000 		.4byte	.LFE107
 8354 0168 00000000 		.4byte	.LFB108
 8355 016c 48000000 		.4byte	.LFE108
 8356 0170 00000000 		.4byte	.LFB109
 8357 0174 48000000 		.4byte	.LFE109
 8358 0178 00000000 		.4byte	.LFB110
 8359 017c 48000000 		.4byte	.LFE110
 8360 0180 00000000 		.4byte	.LFB111
 8361 0184 48000000 		.4byte	.LFE111
 8362 0188 00000000 		.4byte	.LFB112
 8363 018c 48000000 		.4byte	.LFE112
 8364 0190 00000000 		.4byte	.LFB113
 8365 0194 48000000 		.4byte	.LFE113
 8366 0198 00000000 		.4byte	.LFB114
 8367 019c 48000000 		.4byte	.LFE114
 8368 01a0 00000000 		.4byte	.LFB115
 8369 01a4 48000000 		.4byte	.LFE115
 8370 01a8 00000000 		.4byte	.LFB116
 8371 01ac 48000000 		.4byte	.LFE116
 8372 01b0 00000000 		.4byte	.LFB117
 8373 01b4 48000000 		.4byte	.LFE117
 8374 01b8 00000000 		.4byte	.LFB118
 8375 01bc 48000000 		.4byte	.LFE118
 8376 01c0 00000000 		.4byte	.LFB119
 8377 01c4 48000000 		.4byte	.LFE119
 8378 01c8 00000000 		.4byte	.LFB120
 8379 01cc 48000000 		.4byte	.LFE120
 8380 01d0 00000000 		.4byte	.LFB121
 8381 01d4 48000000 		.4byte	.LFE121
 8382 01d8 00000000 		.4byte	.LFB122
 8383 01dc 48000000 		.4byte	.LFE122
 8384 01e0 00000000 		.4byte	.LFB123
 8385 01e4 48000000 		.4byte	.LFE123
 8386 01e8 00000000 		.4byte	.LFB124
 8387 01ec 48000000 		.4byte	.LFE124
ARM GAS  D:\Windows\AppData\Local\Temp\ccYfDzHQ.s 			page 167


 8388 01f0 00000000 		.4byte	0
 8389 01f4 00000000 		.4byte	0
 8390              		.section	.debug_line,"",%progbits
 8391              	.Ldebug_line0:
 8392 0000 4C090000 		.section	.debug_str,"MS",%progbits,1
 8392      02003101 
 8392      00000201 
 8392      FB0E0D00 
 8392      01010101 
 8393              	.LASF69:
 8394 0000 6432325F 		.ascii	"d22_write\000"
 8394      77726974 
 8394      6500
 8395              	.LASF53:
 8396 000a 64365F77 		.ascii	"d6_write\000"
 8396      72697465 
 8396      00
 8397              	.LASF106:
 8398 0013 62335F61 		.ascii	"b3_arr\000"
 8398      727200
 8399              	.LASF79:
 8400 001a 6232355F 		.ascii	"b25_write\000"
 8400      77726974 
 8400      6500
 8401              	.LASF22:
 8402 0024 62335F63 		.ascii	"b3_crit_isr\000"
 8402      7269745F 
 8402      69737200 
 8403              	.LASF120:
 8404 0030 443A5C44 		.ascii	"D:\\Downloads\\FRUCD\\Node-Jaguar\\Node-Jaguar\\Nod"
 8404      6F776E6C 
 8404      6F616473 
 8404      5C465255 
 8404      43445C4E 
 8405 005e 652D4A61 		.ascii	"e-Jaguar.cydsn\000"
 8405      67756172 
 8405      2E637964 
 8405      736E00
 8406              	.LASF103:
 8407 006d 74616368 		.ascii	"tach_arr\000"
 8407      5F617272 
 8407      00
 8408              	.LASF87:
 8409 0076 63335F77 		.ascii	"c3_write\000"
 8409      72697465 
 8409      00
 8410              	.LASF91:
 8411 007f 626D735F 		.ascii	"bms_temp_map\000"
 8411      74656D70 
 8411      5F6D6170 
 8411      00
 8412              	.LASF115:
 8413 008c 62325F63 		.ascii	"b2_crit_led\000"
 8413      7269745F 
 8413      6C656400 
 8414              	.LASF71:
 8415 0098 6231325F 		.ascii	"b12_write\000"
ARM GAS  D:\Windows\AppData\Local\Temp\ccYfDzHQ.s 			page 168


 8415      77726974 
 8415      6500
 8416              	.LASF58:
 8417 00a2 6431315F 		.ascii	"d11_write\000"
 8417      77726974 
 8417      6500
 8418              	.LASF85:
 8419 00ac 63355F77 		.ascii	"c5_write\000"
 8419      72697465 
 8419      00
 8420              	.LASF11:
 8421 00b5 756E7369 		.ascii	"unsigned int\000"
 8421      676E6564 
 8421      20696E74 
 8421      00
 8422              	.LASF6:
 8423 00c2 5F5F696E 		.ascii	"__int32_t\000"
 8423      7433325F 
 8423      7400
 8424              	.LASF41:
 8425 00cc 77726974 		.ascii	"write_all_stat\000"
 8425      655F616C 
 8425      6C5F7374 
 8425      617400
 8426              	.LASF55:
 8427 00db 64385F77 		.ascii	"d8_write\000"
 8427      72697465 
 8427      00
 8428              	.LASF122:
 8429 00e4 6C65645F 		.ascii	"led_writetest\000"
 8429      77726974 
 8429      65746573 
 8429      7400
 8430              	.LASF73:
 8431 00f2 6231345F 		.ascii	"b14_write\000"
 8431      77726974 
 8431      6500
 8432              	.LASF60:
 8433 00fc 6431335F 		.ascii	"d13_write\000"
 8433      77726974 
 8433      6500
 8434              	.LASF26:
 8435 0106 73746570 		.ascii	"steps\000"
 8435      7300
 8436              	.LASF62:
 8437 010c 6431355F 		.ascii	"d15_write\000"
 8437      77726974 
 8437      6500
 8438              	.LASF15:
 8439 0116 666C6F61 		.ascii	"float\000"
 8439      7400
 8440              	.LASF111:
 8441 011c 62335F63 		.ascii	"b3_critical\000"
 8441      72697469 
 8441      63616C00 
 8442              	.LASF25:
 8443 0128 74616368 		.ascii	"tach_pct\000"
ARM GAS  D:\Windows\AppData\Local\Temp\ccYfDzHQ.s 			page 169


 8443      5F706374 
 8443      00
 8444              	.LASF107:
 8445 0131 63315F61 		.ascii	"c1_arr\000"
 8445      727200
 8446              	.LASF10:
 8447 0138 6C6F6E67 		.ascii	"long long unsigned int\000"
 8447      206C6F6E 
 8447      6720756E 
 8447      7369676E 
 8447      65642069 
 8448              	.LASF82:
 8449 014f 6233335F 		.ascii	"b33_write\000"
 8449      77726974 
 8449      6500
 8450              	.LASF4:
 8451 0159 5F5F7569 		.ascii	"__uint16_t\000"
 8451      6E743136 
 8451      5F7400
 8452              	.LASF116:
 8453 0164 62335F63 		.ascii	"b3_crit_led\000"
 8453      7269745F 
 8453      6C656400 
 8454              	.LASF38:
 8455 0170 77726974 		.ascii	"write_all_tach\000"
 8455      655F616C 
 8455      6C5F7461 
 8455      636800
 8456              	.LASF48:
 8457 017f 64315F77 		.ascii	"d1_write\000"
 8457      72697465 
 8457      00
 8458              	.LASF43:
 8459 0188 6C65645F 		.ascii	"led_update_stat\000"
 8459      75706461 
 8459      74655F73 
 8459      74617400 
 8460              	.LASF50:
 8461 0198 64335F77 		.ascii	"d3_write\000"
 8461      72697465 
 8461      00
 8462              	.LASF23:
 8463 01a1 63315F63 		.ascii	"c1_crit_isr\000"
 8463      7269745F 
 8463      69737200 
 8464              	.LASF45:
 8465 01ad 77726974 		.ascii	"write_startup_stat\000"
 8465      655F7374 
 8465      61727475 
 8465      705F7374 
 8465      617400
 8466              	.LASF64:
 8467 01c0 6431375F 		.ascii	"d17_write\000"
 8467      77726974 
 8467      6500
 8468              	.LASF101:
 8469 01ca 62797465 		.ascii	"byte07_2\000"
ARM GAS  D:\Windows\AppData\Local\Temp\ccYfDzHQ.s 			page 170


 8469      30375F32 
 8469      00
 8470              	.LASF105:
 8471 01d3 62325F61 		.ascii	"b2_arr\000"
 8471      727200
 8472              	.LASF29:
 8473 01da 4D54525F 		.ascii	"MTR_RPM\000"
 8473      52504D00 
 8474              	.LASF84:
 8475 01e2 6233355F 		.ascii	"b35_write\000"
 8475      77726974 
 8475      6500
 8476              	.LASF17:
 8477 01ec 63686172 		.ascii	"char\000"
 8477      00
 8478              	.LASF76:
 8479 01f1 6232325F 		.ascii	"b22_write\000"
 8479      77726974 
 8479      6500
 8480              	.LASF46:
 8481 01fb 6C65645F 		.ascii	"led_on\000"
 8481      6F6E00
 8482              	.LASF68:
 8483 0202 6432315F 		.ascii	"d21_write\000"
 8483      77726974 
 8483      6500
 8484              	.LASF52:
 8485 020c 64355F77 		.ascii	"d5_write\000"
 8485      72697465 
 8485      00
 8486              	.LASF110:
 8487 0215 62325F63 		.ascii	"b2_critical\000"
 8487      72697469 
 8487      63616C00 
 8488              	.LASF108:
 8489 0221 74616368 		.ascii	"tach_critical\000"
 8489      5F637269 
 8489      74696361 
 8489      6C00
 8490              	.LASF78:
 8491 022f 6232345F 		.ascii	"b24_write\000"
 8491      77726974 
 8491      6500
 8492              	.LASF92:
 8493 0239 6D74725F 		.ascii	"mtr_temp_map\000"
 8493      74656D70 
 8493      5F6D6170 
 8493      00
 8494              	.LASF12:
 8495 0246 75696E74 		.ascii	"uint8_t\000"
 8495      385F7400 
 8496              	.LASF24:
 8497 024e 73746174 		.ascii	"status\000"
 8497      757300
 8498              	.LASF42:
 8499 0255 6C65645F 		.ascii	"led_update_tach\000"
 8499      75706461 
ARM GAS  D:\Windows\AppData\Local\Temp\ccYfDzHQ.s 			page 171


 8499      74655F74 
 8499      61636800 
 8500              	.LASF66:
 8501 0265 6431395F 		.ascii	"d19_write\000"
 8501      77726974 
 8501      6500
 8502              	.LASF88:
 8503 026f 63325F77 		.ascii	"c2_write\000"
 8503      72697465 
 8503      00
 8504              	.LASF44:
 8505 0278 77726974 		.ascii	"write_startup_tach\000"
 8505      655F7374 
 8505      61727475 
 8505      705F7461 
 8505      636800
 8506              	.LASF70:
 8507 028b 6231315F 		.ascii	"b11_write\000"
 8507      77726974 
 8507      6500
 8508              	.LASF9:
 8509 0295 6C6F6E67 		.ascii	"long long int\000"
 8509      206C6F6E 
 8509      6720696E 
 8509      7400
 8510              	.LASF57:
 8511 02a3 6431305F 		.ascii	"d10_write\000"
 8511      77726974 
 8511      6500
 8512              	.LASF113:
 8513 02ad 74616368 		.ascii	"tach_crit_led\000"
 8513      5F637269 
 8513      745F6C65 
 8513      6400
 8514              	.LASF30:
 8515 02bb 424D535F 		.ascii	"BMS_TEMP\000"
 8515      54454D50 
 8515      00
 8516              	.LASF112:
 8517 02c4 63315F63 		.ascii	"c1_critical\000"
 8517      72697469 
 8517      63616C00 
 8518              	.LASF39:
 8519 02d0 626F6F6C 		.ascii	"bool\000"
 8519      00
 8520              	.LASF118:
 8521 02d5 474E5520 		.ascii	"GNU C 4.9.3 20150303 (release) [ARM/embedded-4_9-br"
 8521      4320342E 
 8521      392E3320 
 8521      32303135 
 8521      30333033 
 8522 0308 616E6368 		.ascii	"anch revision 221220] -mcpu=cortex-m3 -mthumb -g -O"
 8522      20726576 
 8522      6973696F 
 8522      6E203232 
 8522      31323230 
 8523 033b 30202D66 		.ascii	"0 -ffunction-sections -ffat-lto-objects\000"
ARM GAS  D:\Windows\AppData\Local\Temp\ccYfDzHQ.s 			page 172


 8523      66756E63 
 8523      74696F6E 
 8523      2D736563 
 8523      74696F6E 
 8524              	.LASF99:
 8525 0363 62797465 		.ascii	"byte05_2\000"
 8525      30355F32 
 8525      00
 8526              	.LASF20:
 8527 036c 62315F63 		.ascii	"b1_crit_isr\000"
 8527      7269745F 
 8527      69737200 
 8528              	.LASF54:
 8529 0378 64375F77 		.ascii	"d7_write\000"
 8529      72697465 
 8529      00
 8530              	.LASF117:
 8531 0381 63315F63 		.ascii	"c1_crit_led\000"
 8531      7269745F 
 8531      6C656400 
 8532              	.LASF86:
 8533 038d 63345F77 		.ascii	"c4_write\000"
 8533      72697465 
 8533      00
 8534              	.LASF72:
 8535 0396 6231335F 		.ascii	"b13_write\000"
 8535      77726974 
 8535      6500
 8536              	.LASF59:
 8537 03a0 6431325F 		.ascii	"d12_write\000"
 8537      77726974 
 8537      6500
 8538              	.LASF13:
 8539 03aa 75696E74 		.ascii	"uint16_t\000"
 8539      31365F74 
 8539      00
 8540              	.LASF74:
 8541 03b3 6231355F 		.ascii	"b15_write\000"
 8541      77726974 
 8541      6500
 8542              	.LASF36:
 8543 03bd 4D54525F 		.ascii	"MTR_CTRL_TEMP\000"
 8543      4354524C 
 8543      5F54454D 
 8543      5000
 8544              	.LASF35:
 8545 03cb 4D54525F 		.ascii	"MTR_CTRL_TEMP_hex\000"
 8545      4354524C 
 8545      5F54454D 
 8545      505F6865 
 8545      7800
 8546              	.LASF47:
 8547 03dd 6C65645F 		.ascii	"led_off\000"
 8547      6F666600 
 8548              	.LASF2:
 8549 03e5 73686F72 		.ascii	"short int\000"
 8549      7420696E 
ARM GAS  D:\Windows\AppData\Local\Temp\ccYfDzHQ.s 			page 173


 8549      7400
 8550              	.LASF40:
 8551 03ef 616C6C6F 		.ascii	"allon\000"
 8551      6E00
 8552              	.LASF7:
 8553 03f5 6C6F6E67 		.ascii	"long int\000"
 8553      20696E74 
 8553      00
 8554              	.LASF121:
 8555 03fe 6C65645F 		.ascii	"led_driver_init\000"
 8555      64726976 
 8555      65725F69 
 8555      6E697400 
 8556              	.LASF90:
 8557 040e 49544D5F 		.ascii	"ITM_RxBuffer\000"
 8557      52784275 
 8557      66666572 
 8557      00
 8558              	.LASF119:
 8559 041b 6C65645F 		.ascii	"led_manager.c\000"
 8559      6D616E61 
 8559      6765722E 
 8559      6300
 8560              	.LASF56:
 8561 0429 64395F77 		.ascii	"d9_write\000"
 8561      72697465 
 8561      00
 8562              	.LASF19:
 8563 0432 74616368 		.ascii	"tach_crit_isr\000"
 8563      5F637269 
 8563      745F6973 
 8563      7200
 8564              	.LASF104:
 8565 0440 62315F61 		.ascii	"b1_arr\000"
 8565      727200
 8566              	.LASF33:
 8567 0447 4D54525F 		.ascii	"MTR_TEMP\000"
 8567      54454D50 
 8567      00
 8568              	.LASF102:
 8569 0450 62797465 		.ascii	"byte08_2\000"
 8569      30385F32 
 8569      00
 8570              	.LASF3:
 8571 0459 5F5F7569 		.ascii	"__uint8_t\000"
 8571      6E74385F 
 8571      7400
 8572              	.LASF81:
 8573 0463 6233325F 		.ascii	"b32_write\000"
 8573      77726974 
 8573      6500
 8574              	.LASF61:
 8575 046d 6431345F 		.ascii	"d14_write\000"
 8575      77726974 
 8575      6500
 8576              	.LASF109:
 8577 0477 62315F63 		.ascii	"b1_critical\000"
ARM GAS  D:\Windows\AppData\Local\Temp\ccYfDzHQ.s 			page 174


 8577      72697469 
 8577      63616C00 
 8578              	.LASF27:
 8579 0483 6C65645F 		.ascii	"led_write_tach\000"
 8579      77726974 
 8579      655F7461 
 8579      636800
 8580              	.LASF63:
 8581 0492 6431365F 		.ascii	"d16_write\000"
 8581      77726974 
 8581      6500
 8582              	.LASF18:
 8583 049c 73697A65 		.ascii	"sizetype\000"
 8583      74797065 
 8583      00
 8584              	.LASF8:
 8585 04a5 6C6F6E67 		.ascii	"long unsigned int\000"
 8585      20756E73 
 8585      69676E65 
 8585      6420696E 
 8585      7400
 8586              	.LASF21:
 8587 04b7 62325F63 		.ascii	"b2_crit_isr\000"
 8587      7269745F 
 8587      69737200 
 8588              	.LASF14:
 8589 04c3 696E7433 		.ascii	"int32_t\000"
 8589      325F7400 
 8590              	.LASF95:
 8591 04cb 62797465 		.ascii	"byte05\000"
 8591      303500
 8592              	.LASF96:
 8593 04d2 62797465 		.ascii	"byte06\000"
 8593      303600
 8594              	.LASF97:
 8595 04d9 62797465 		.ascii	"byte07\000"
 8595      303700
 8596              	.LASF98:
 8597 04e0 62797465 		.ascii	"byte08\000"
 8597      303800
 8598              	.LASF114:
 8599 04e7 62315F63 		.ascii	"b1_crit_led\000"
 8599      7269745F 
 8599      6C656400 
 8600              	.LASF83:
 8601 04f3 6233345F 		.ascii	"b34_write\000"
 8601      77726974 
 8601      6500
 8602              	.LASF1:
 8603 04fd 756E7369 		.ascii	"unsigned char\000"
 8603      676E6564 
 8603      20636861 
 8603      7200
 8604              	.LASF93:
 8605 050b 6D74725F 		.ascii	"mtr_ctrl_temp_map\000"
 8605      6374726C 
 8605      5F74656D 
ARM GAS  D:\Windows\AppData\Local\Temp\ccYfDzHQ.s 			page 175


 8605      705F6D61 
 8605      7000
 8606              	.LASF49:
 8607 051d 64325F77 		.ascii	"d2_write\000"
 8607      72697465 
 8607      00
 8608              	.LASF75:
 8609 0526 6232315F 		.ascii	"b21_write\000"
 8609      77726974 
 8609      6500
 8610              	.LASF67:
 8611 0530 6432305F 		.ascii	"d20_write\000"
 8611      77726974 
 8611      6500
 8612              	.LASF51:
 8613 053a 64345F77 		.ascii	"d4_write\000"
 8613      72697465 
 8613      00
 8614              	.LASF77:
 8615 0543 6232335F 		.ascii	"b23_write\000"
 8615      77726974 
 8615      6500
 8616              	.LASF28:
 8617 054d 6C65645F 		.ascii	"led_write_b1\000"
 8617      77726974 
 8617      655F6231 
 8617      00
 8618              	.LASF31:
 8619 055a 6C65645F 		.ascii	"led_write_b2\000"
 8619      77726974 
 8619      655F6232 
 8619      00
 8620              	.LASF34:
 8621 0567 6C65645F 		.ascii	"led_write_b3\000"
 8621      77726974 
 8621      655F6233 
 8621      00
 8622              	.LASF65:
 8623 0574 6431385F 		.ascii	"d18_write\000"
 8623      77726974 
 8623      6500
 8624              	.LASF0:
 8625 057e 7369676E 		.ascii	"signed char\000"
 8625      65642063 
 8625      68617200 
 8626              	.LASF32:
 8627 058a 4D54525F 		.ascii	"MTR_TEMP_hex\000"
 8627      54454D50 
 8627      5F686578 
 8627      00
 8628              	.LASF89:
 8629 0597 63315F77 		.ascii	"c1_write\000"
 8629      72697465 
 8629      00
 8630              	.LASF5:
 8631 05a0 73686F72 		.ascii	"short unsigned int\000"
 8631      7420756E 
ARM GAS  D:\Windows\AppData\Local\Temp\ccYfDzHQ.s 			page 176


 8631      7369676E 
 8631      65642069 
 8631      6E7400
 8632              	.LASF16:
 8633 05b3 646F7562 		.ascii	"double\000"
 8633      6C6500
 8634              	.LASF94:
 8635 05ba 536F435F 		.ascii	"SoC_pct_map\000"
 8635      7063745F 
 8635      6D617000 
 8636              	.LASF100:
 8637 05c6 62797465 		.ascii	"byte06_2\000"
 8637      30365F32 
 8637      00
 8638              	.LASF37:
 8639 05cf 6C65645F 		.ascii	"led_write_c1\000"
 8639      77726974 
 8639      655F6331 
 8639      00
 8640              	.LASF80:
 8641 05dc 6233315F 		.ascii	"b31_write\000"
 8641      77726974 
 8641      6500
 8642              		.ident	"GCC: (GNU Tools for ARM Embedded Processors) 4.9.3 20150303 (release) [ARM/embedded-4_9-br
