ARM GAS  D:\Windows\AppData\Local\Temp\cc9YXq6z.s 			page 1


   1              		.syntax unified
   2              		.cpu cortex-m3
   3              		.fpu softvfp
   4              		.eabi_attribute 20, 1
   5              		.eabi_attribute 21, 1
   6              		.eabi_attribute 23, 3
   7              		.eabi_attribute 24, 1
   8              		.eabi_attribute 25, 1
   9              		.eabi_attribute 26, 1
  10              		.eabi_attribute 30, 1
  11              		.eabi_attribute 34, 1
  12              		.eabi_attribute 18, 4
  13              		.thumb
  14              		.file	"led_manager.c"
  15              		.text
  16              	.Ltext0:
  17              		.cfi_sections	.debug_frame
  18              		.section	.text.write_all_tach,"ax",%progbits
  19              		.align	2
  20              		.global	write_all_tach
  21              		.thumb
  22              		.thumb_func
  23              		.type	write_all_tach, %function
  24              	write_all_tach:
  25              	.LFB75:
  26              		.file 1 "led_manager.c"
   1:led_manager.c **** /*	Recieves CAN information for motor RPM, BMS temp, motor temp, motor controller temp 
   2:led_manager.c **** 	and SoC and displatys on LED's.
   3:led_manager.c **** 
   4:led_manager.c **** 	tach = RPM
   5:led_manager.c **** 	b1 = BMS temp
   6:led_manager.c **** 	b2 = motor temp
   7:led_manager.c **** 	b3 = motor controller temp
   8:led_manager.c **** 	c1 = SoC
   9:led_manager.c **** */
  10:led_manager.c **** 
  11:led_manager.c **** 
  12:led_manager.c **** #include "led_manager.h"
  13:led_manager.c **** 
  14:led_manager.c **** //byte of LED address which holds which led's are on/off
  15:led_manager.c **** uint8_t byte05 = 0x00;
  16:led_manager.c **** uint8_t byte06 = 0x00;
  17:led_manager.c **** uint8_t byte07 = 0x00;
  18:led_manager.c **** uint8_t byte08 = 0x00;
  19:led_manager.c **** 
  20:led_manager.c **** uint8_t byte05_2 = 0x00;
  21:led_manager.c **** uint8_t byte06_2 = 0x00;
  22:led_manager.c **** uint8_t byte07_2 = 0x00;
  23:led_manager.c **** uint8_t byte08_2 = 0x00;
  24:led_manager.c **** 
  25:led_manager.c **** int tach_arr[22] = {0,0,0,0,0,0,0,0,0,0,0,0,0,0,0,0,0,0,0,0,0,0};
  26:led_manager.c **** int b1_arr[5] = {0,0,0,0,0};
  27:led_manager.c **** int b2_arr[5] = {0,0,0,0,0};
  28:led_manager.c **** int b3_arr[5] = {0,0,0,0,0};
  29:led_manager.c **** int c1_arr[5] = {0,0,0,0,0};
  30:led_manager.c **** 
  31:led_manager.c **** int b1_critical = 0;
ARM GAS  D:\Windows\AppData\Local\Temp\cc9YXq6z.s 			page 2


  32:led_manager.c **** int b2_critical = 0;
  33:led_manager.c **** int b3_critical = 0;
  34:led_manager.c **** int c1_critical = 0;
  35:led_manager.c **** 
  36:led_manager.c **** int b1_crit_led = 0;	//led status to toggle them on/off when monitor reaches critical
  37:led_manager.c **** int b2_crit_led = 0;
  38:led_manager.c **** int b3_crit_led = 0;
  39:led_manager.c **** int c1_crit_led = 0;
  40:led_manager.c **** 
  41:led_manager.c **** CY_ISR(b1_crit_isr) {
  42:led_manager.c **** 	b1_crit_led = b1_crit_led == 0 ? 1:0;
  43:led_manager.c **** 	b11_write(b1_crit_led);
  44:led_manager.c **** 	b12_write(b1_crit_led);
  45:led_manager.c **** 	b13_write(b1_crit_led);
  46:led_manager.c **** 	b14_write(b1_crit_led);
  47:led_manager.c **** 	b15_write(b1_crit_led);
  48:led_manager.c **** 
  49:led_manager.c **** }
  50:led_manager.c **** CY_ISR(b2_crit_isr) {
  51:led_manager.c **** 	b2_crit_led = b2_crit_led == 0 ? 1:0;
  52:led_manager.c **** 	b21_write(b2_crit_led);
  53:led_manager.c **** 	b22_write(b2_crit_led);
  54:led_manager.c **** 	b23_write(b2_crit_led);
  55:led_manager.c **** 	b24_write(b2_crit_led);
  56:led_manager.c **** 	b25_write(b2_crit_led);
  57:led_manager.c **** 
  58:led_manager.c **** }
  59:led_manager.c **** CY_ISR(b3_crit_isr) {
  60:led_manager.c **** 	b3_crit_led = b3_crit_led == 0 ? 1:0;
  61:led_manager.c **** 	b31_write(b3_crit_led);
  62:led_manager.c **** 	b32_write(b3_crit_led);
  63:led_manager.c **** 	b33_write(b3_crit_led);
  64:led_manager.c **** 	b34_write(b3_crit_led);
  65:led_manager.c **** 	b35_write(b3_crit_led);
  66:led_manager.c **** 
  67:led_manager.c **** }
  68:led_manager.c **** CY_ISR(c1_crit_isr) {
  69:led_manager.c **** 	c1_crit_led = c1_crit_led == 0 ? 1:0;
  70:led_manager.c **** 	c1_write(c1_crit_led);
  71:led_manager.c **** 	c2_write(c1_crit_led);
  72:led_manager.c **** 	c3_write(c1_crit_led);
  73:led_manager.c **** 	c4_write(c1_crit_led);
  74:led_manager.c **** 	c5_write(c1_crit_led);
  75:led_manager.c **** }
  76:led_manager.c **** 
  77:led_manager.c **** 
  78:led_manager.c **** void led_driver_init() {
  79:led_manager.c **** 	LED_Driver1_Start();
  80:led_manager.c **** 	LED_Driver2_Start();
  81:led_manager.c **** 
  82:led_manager.c **** 	//tach settings
  83:led_manager.c **** 	LED_Driver1_MasterSendStart(LED_ADDR, 0);
  84:led_manager.c **** 	LED_Driver1_MasterWriteByte(0x00);				//move to 0x00 addr
  85:led_manager.c **** 	LED_Driver1_MasterWriteByte(serial_setting);	//0x00 addr
  86:led_manager.c **** 	LED_Driver1_MasterWriteByte(fade_setting);		//x01
  87:led_manager.c **** 	LED_Driver1_MasterWriteByte(RLED_curr);			//x02
  88:led_manager.c **** 	LED_Driver1_MasterWriteByte(GLED_curr);			//x03
ARM GAS  D:\Windows\AppData\Local\Temp\cc9YXq6z.s 			page 3


  89:led_manager.c **** 	LED_Driver1_MasterWriteByte(BLED_curr);			//x04
  90:led_manager.c **** 	LED_Driver1_MasterSendStop();
  91:led_manager.c **** 	LED_Driver1_MasterSendStart(LED_ADDR, 0);
  92:led_manager.c **** 	LED_Driver1_MasterWriteByte(0x09);
  93:led_manager.c **** 	LED_Driver1_MasterWriteByte(output_setting);	//x09 addr
  94:led_manager.c **** 	LED_Driver1_MasterWriteByte(output_setting);	//x0A
  95:led_manager.c **** 	LED_Driver1_MasterWriteByte(output_setting);	//x0B
  96:led_manager.c **** 	LED_Driver1_MasterWriteByte(output_setting);	//x0C
  97:led_manager.c **** 	LED_Driver1_MasterWriteByte(output_setting);	//x0D
  98:led_manager.c **** 	LED_Driver1_MasterWriteByte(output_setting);	//x0E
  99:led_manager.c **** 	LED_Driver1_MasterWriteByte(fade_fn);			//x0F	LEDR
 100:led_manager.c **** 	LED_Driver1_MasterWriteByte(fade_fn);			//x10	LEDG
 101:led_manager.c **** 	LED_Driver1_MasterWriteByte(fade_fn);			//x11	LEDB
 102:led_manager.c **** 	LED_Driver1_MasterSendStop();
 103:led_manager.c **** 	
 104:led_manager.c **** 	//monitor settings
 105:led_manager.c **** 	LED_Driver2_MasterSendStart(LED_ADDR, 0);		//set mode
 106:led_manager.c **** 	LED_Driver2_MasterWriteByte(0x00);				//move to 0x00 addr
 107:led_manager.c **** 	LED_Driver2_MasterWriteByte(serial_setting);	//0x00 addr
 108:led_manager.c **** 	LED_Driver2_MasterWriteByte(fade_setting);		//x01
 109:led_manager.c **** 	LED_Driver2_MasterWriteByte(RLED_curr);			//x02
 110:led_manager.c **** 	LED_Driver2_MasterWriteByte(GLED_curr);			//x03
 111:led_manager.c **** 	LED_Driver2_MasterWriteByte(BLED_curr);			//x04
 112:led_manager.c **** 	LED_Driver2_MasterSendStop();
 113:led_manager.c **** 	LED_Driver2_MasterSendStart(LED_ADDR, 0);		//set output setting PWM
 114:led_manager.c **** 	LED_Driver2_MasterWriteByte(0x09);
 115:led_manager.c **** 	LED_Driver2_MasterWriteByte(output_setting);	//x09 addr
 116:led_manager.c **** 	LED_Driver2_MasterWriteByte(output_setting);	//x0A
 117:led_manager.c **** 	LED_Driver2_MasterWriteByte(output_setting);	//x0B
 118:led_manager.c **** 	LED_Driver2_MasterWriteByte(output_setting);	//x0C
 119:led_manager.c **** 	LED_Driver2_MasterWriteByte(output_setting);	//x0D
 120:led_manager.c **** 	LED_Driver2_MasterWriteByte(output_setting);	//x0E
 121:led_manager.c **** 	LED_Driver2_MasterWriteByte(fade_fn);			//x0F	LEDR
 122:led_manager.c **** 	LED_Driver2_MasterWriteByte(fade_fn);			//x10	LEDG
 123:led_manager.c **** 	LED_Driver2_MasterWriteByte(fade_fn);			//x11	LEDB
 124:led_manager.c **** 	LED_Driver2_MasterSendStop();
 125:led_manager.c **** 	
 126:led_manager.c **** 	write_all_tach(0);
 127:led_manager.c **** 	write_all_stat(0);
 128:led_manager.c **** } //led_driver_init()
 129:led_manager.c **** 
 130:led_manager.c **** 
 131:led_manager.c **** //calculates and writes RPM to tach led bar based on the maxed RPM
 132:led_manager.c **** void led_write_tach(uint16_t MTR_RPM) {
 133:led_manager.c **** 	int tach_pct = MTR_RPM / MAX_RPM;	//tach percent
 134:led_manager.c **** 	int steps = 0;
 135:led_manager.c **** 	
 136:led_manager.c **** 	//using TACH_MAX_STEPS = 20 leds, 5% per step
 137:led_manager.c **** 	if(tach_pct <= 5)
 138:led_manager.c **** 		steps = 2;	//first step lights up first 2 led's
 139:led_manager.c **** 	else if(tach_pct > 5 && tach_pct <= 10)
 140:led_manager.c **** 		steps = 3;
 141:led_manager.c **** 	else if(tach_pct > 10 && tach_pct <= 15)
 142:led_manager.c **** 		steps = 4;
 143:led_manager.c **** 	else if(tach_pct > 15 && tach_pct <= 20)
 144:led_manager.c **** 		steps = 5;
 145:led_manager.c **** 	else if(tach_pct > 20 && tach_pct <= 25)
ARM GAS  D:\Windows\AppData\Local\Temp\cc9YXq6z.s 			page 4


 146:led_manager.c **** 		steps = 6;
 147:led_manager.c **** 	else if(tach_pct > 25 && tach_pct <= 30)
 148:led_manager.c **** 		steps = 7;
 149:led_manager.c **** 	else if(tach_pct > 30 && tach_pct <= 35)
 150:led_manager.c **** 		steps = 8;
 151:led_manager.c **** 	else if(tach_pct > 35 && tach_pct <= 40)
 152:led_manager.c **** 		steps = 9;
 153:led_manager.c **** 	else if(tach_pct > 40 && tach_pct <= 45)
 154:led_manager.c **** 		steps = 10;
 155:led_manager.c **** 	else if(tach_pct > 45 && tach_pct <= 50)
 156:led_manager.c **** 		steps = 11;
 157:led_manager.c **** 	else if(tach_pct > 50 && tach_pct <= 55)
 158:led_manager.c **** 		steps = 12;
 159:led_manager.c **** 	else if(tach_pct > 55 && tach_pct <= 60)
 160:led_manager.c **** 		steps = 13;
 161:led_manager.c **** 	else if(tach_pct > 60 && tach_pct <= 65)
 162:led_manager.c **** 		steps = 14;
 163:led_manager.c **** 	else if(tach_pct > 65 && tach_pct <= 70)
 164:led_manager.c **** 		steps = 15;
 165:led_manager.c **** 	else if(tach_pct > 70 && tach_pct <= 75)
 166:led_manager.c **** 		steps = 16;
 167:led_manager.c **** 	else if(tach_pct > 75 && tach_pct <= 80)
 168:led_manager.c **** 		steps = 17;
 169:led_manager.c **** 	else if(tach_pct > 80 && tach_pct <= 85)
 170:led_manager.c **** 		steps = 18;
 171:led_manager.c **** 	else if(tach_pct > 85 && tach_pct <= 90)
 172:led_manager.c **** 		steps = 19;
 173:led_manager.c **** 	else if(tach_pct > 90 && tach_pct <= 95)
 174:led_manager.c **** 		steps = 20;
 175:led_manager.c **** 	else //(tach_pct > 95 && tach_pct <= 100)
 176:led_manager.c **** 		steps = 21;
 177:led_manager.c **** 	
 178:led_manager.c **** 	int i;
 179:led_manager.c **** 	for(i=0; i<steps; i++)
 180:led_manager.c **** 		tach_arr[i] = 1;	//on leds
 181:led_manager.c **** 	for(i=steps; i<TACH_MAX_STEPS+2; i++)	//+2 to get d22
 182:led_manager.c **** 		tach_arr[i] = 0;	//off leds
 183:led_manager.c **** 	
 184:led_manager.c **** 	d1_write(tach_arr[0]);
 185:led_manager.c **** 	d2_write(tach_arr[1]);
 186:led_manager.c **** 	d3_write(tach_arr[2]);
 187:led_manager.c **** 	d4_write(tach_arr[3]);
 188:led_manager.c **** 	d5_write(tach_arr[4]);
 189:led_manager.c **** 	d6_write(tach_arr[5]);
 190:led_manager.c **** 	d7_write(tach_arr[6]);
 191:led_manager.c **** 	d8_write(tach_arr[7]);
 192:led_manager.c **** 	d9_write(tach_arr[8]);
 193:led_manager.c **** 	d10_write(tach_arr[9]);
 194:led_manager.c **** 	d11_write(tach_arr[10]);
 195:led_manager.c **** 	d12_write(tach_arr[11]);
 196:led_manager.c **** 	d13_write(tach_arr[12]);
 197:led_manager.c **** 	d14_write(tach_arr[13]);
 198:led_manager.c **** 	d15_write(tach_arr[14]);
 199:led_manager.c **** 	d16_write(tach_arr[15]);
 200:led_manager.c **** 	d17_write(tach_arr[16]);
 201:led_manager.c **** 	d18_write(tach_arr[17]);
 202:led_manager.c **** 	d19_write(tach_arr[18]);
ARM GAS  D:\Windows\AppData\Local\Temp\cc9YXq6z.s 			page 5


 203:led_manager.c **** 	d20_write(tach_arr[19]);
 204:led_manager.c **** 	d21_write(tach_arr[20]);
 205:led_manager.c **** 	d22_write(tach_arr[21]);
 206:led_manager.c **** } //led_write_tach
 207:led_manager.c **** 
 208:led_manager.c **** void led_write_b1(uint8_t BMS_TEMP) {	//left vertical bar, 5 leds
 209:led_manager.c **** 	int steps = 0;
 210:led_manager.c **** 	if (BMS_TEMP <= 0x40)
 211:led_manager.c **** 		steps = 1;
 212:led_manager.c **** 	else if (BMS_TEMP > 0x40 && BMS_TEMP <= 0x45)
 213:led_manager.c **** 		steps = 2;
 214:led_manager.c **** 	else if (BMS_TEMP > 0x45 && BMS_TEMP <= 0x50)
 215:led_manager.c **** 		steps = 3;
 216:led_manager.c **** 	else if (BMS_TEMP > 0x50 && BMS_TEMP <= 0x55)
 217:led_manager.c **** 		steps = 4;
 218:led_manager.c **** 	else if (BMS_TEMP > 0x55 && BMS_TEMP < 0x60)
 219:led_manager.c **** 		steps = 5;
 220:led_manager.c **** 	else {	//(BMS_TEMP >= 60)
 221:led_manager.c **** 		if(!b1_critical) {	//start blinking
 222:led_manager.c **** 			b1_critical_timer_Start();
 223:led_manager.c **** 			b1_crit_int_StartEx(b1_crit_isr);
 224:led_manager.c **** 			b1_critical = 1;
 225:led_manager.c **** 		} //if
 226:led_manager.c **** 	} //else
 227:led_manager.c **** 	
 228:led_manager.c **** 	if(!b1_critical) {
 229:led_manager.c **** 		int i;
 230:led_manager.c **** 		for(i=0; i<steps; i++)
 231:led_manager.c **** 			b1_arr[i] = 1;	//on leds
 232:led_manager.c **** 		for(i=steps; i<5; i++)
 233:led_manager.c **** 			b1_arr[i] = 0;	//off leds
 234:led_manager.c **** 		
 235:led_manager.c **** 		b11_write(b1_arr[0]);
 236:led_manager.c **** 		b12_write(b1_arr[1]);
 237:led_manager.c **** 		b13_write(b1_arr[2]);
 238:led_manager.c **** 		b14_write(b1_arr[3]);
 239:led_manager.c **** 		b15_write(b1_arr[4]);
 240:led_manager.c **** 	} //if
 241:led_manager.c **** }	//led_write_b1()
 242:led_manager.c **** 
 243:led_manager.c **** void led_write_b2(uint8_t MTR_TEMP) {	//center vertical bar, 5 leds
 244:led_manager.c **** 	int steps = 0;
 245:led_manager.c **** 	if (MTR_TEMP <= 40)
 246:led_manager.c **** 		steps = 1;
 247:led_manager.c **** 	else if (MTR_TEMP > 40 && MTR_TEMP <= 45)
 248:led_manager.c **** 		steps = 2;
 249:led_manager.c **** 	else if (MTR_TEMP > 45 && MTR_TEMP <= 50)
 250:led_manager.c **** 		steps = 3;
 251:led_manager.c **** 	else if (MTR_TEMP > 50 && MTR_TEMP <= 55)
 252:led_manager.c **** 		steps = 4;
 253:led_manager.c **** 	else if (MTR_TEMP > 55 && MTR_TEMP <= 60)
 254:led_manager.c **** 		steps = 5;
 255:led_manager.c **** 	else {	//(MTR_TEMP >= 60)
 256:led_manager.c **** 		if(!b2_critical) {	//start blinking
 257:led_manager.c **** 			b2_critical_timer_Start();
 258:led_manager.c **** 			b2_crit_int_StartEx(b2_crit_isr);
 259:led_manager.c **** 			b2_critical = 1;
ARM GAS  D:\Windows\AppData\Local\Temp\cc9YXq6z.s 			page 6


 260:led_manager.c **** 		} //if
 261:led_manager.c **** 	} //else
 262:led_manager.c **** 	
 263:led_manager.c **** 	if (!b2_critical) {
 264:led_manager.c **** 		int i;
 265:led_manager.c **** 		for(i=0; i<steps; i++)
 266:led_manager.c **** 			b2_arr[i] = 1;	//on leds
 267:led_manager.c **** 		for(i=steps; i<5; i++)
 268:led_manager.c **** 			b2_arr[i] = 0;	//off leds
 269:led_manager.c **** 		
 270:led_manager.c **** 		b21_write(b2_arr[0]);
 271:led_manager.c **** 		b22_write(b2_arr[1]);
 272:led_manager.c **** 		b23_write(b2_arr[2]);
 273:led_manager.c **** 		b24_write(b2_arr[3]);
 274:led_manager.c **** 		b25_write(b2_arr[4]);	
 275:led_manager.c **** 	} //if
 276:led_manager.c **** } //led_write_b2()
 277:led_manager.c **** 
 278:led_manager.c **** void led_write_b3(uint8_t MTR_CTRL_TEMP) {	//right vertical bar, 5 leds
 279:led_manager.c **** 	int steps = 0;
 280:led_manager.c **** 	if (MTR_CTRL_TEMP <= 40)
 281:led_manager.c **** 		steps = 1;
 282:led_manager.c **** 	else if (MTR_CTRL_TEMP > 40 && MTR_CTRL_TEMP <= 45)
 283:led_manager.c **** 		steps = 2;
 284:led_manager.c **** 	else if (MTR_CTRL_TEMP > 45 && MTR_CTRL_TEMP <= 50)
 285:led_manager.c **** 		steps = 3;
 286:led_manager.c **** 	else if (MTR_CTRL_TEMP > 50 && MTR_CTRL_TEMP <= 55)
 287:led_manager.c **** 		steps = 4;
 288:led_manager.c **** 	else if (MTR_CTRL_TEMP > 55 && MTR_CTRL_TEMP <= 59)
 289:led_manager.c **** 		steps = 5;
 290:led_manager.c **** 	else {	//(MTR_CTRL_TEMP >= 59)
 291:led_manager.c **** 		if(!b3_critical) {	//start blinking
 292:led_manager.c **** 			b3_critical_timer_Start();
 293:led_manager.c **** 			b3_crit_int_StartEx(b3_crit_isr);
 294:led_manager.c **** 			b3_critical = 1;
 295:led_manager.c **** 		} //if
 296:led_manager.c **** 	} 	//else
 297:led_manager.c **** 	
 298:led_manager.c **** 	if(!b3_critical) {
 299:led_manager.c **** 		int i;
 300:led_manager.c **** 		for(i=0; i<steps; i++)
 301:led_manager.c **** 			b3_arr[i] = 1;	//on leds
 302:led_manager.c **** 		for(i=steps; i<5; i++)
 303:led_manager.c **** 			b3_arr[i] = 0;	//off leds
 304:led_manager.c **** 		
 305:led_manager.c **** 		b31_write(b3_arr[0]);
 306:led_manager.c **** 		b32_write(b3_arr[1]);
 307:led_manager.c **** 		b33_write(b3_arr[2]);
 308:led_manager.c **** 		b34_write(b3_arr[3]);
 309:led_manager.c **** 		b35_write(b3_arr[4]);
 310:led_manager.c **** 	} //if
 311:led_manager.c **** } //led_write_b3()
 312:led_manager.c **** 
 313:led_manager.c **** void led_write_c1(uint8_t SoC) {	//horizontal bar, 5 leds
 314:led_manager.c **** 	int steps = 0;
 315:led_manager.c **** 	if (SoC > 80 && SoC < 100)
 316:led_manager.c **** 		steps = 5;
ARM GAS  D:\Windows\AppData\Local\Temp\cc9YXq6z.s 			page 7


 317:led_manager.c **** 	else if (SoC > 60  && SoC < 80)
 318:led_manager.c **** 		steps = 4;
 319:led_manager.c **** 	else if (SoC > 40 && SoC < 60)
 320:led_manager.c **** 		steps = 3;
 321:led_manager.c **** 	else if (SoC > 20 && SoC < 40)
 322:led_manager.c **** 		steps = 2;
 323:led_manager.c **** 	else if (SoC > 10 && SoC < 20)
 324:led_manager.c **** 		steps = 1;
 325:led_manager.c **** 	else {	//(SoC <= 10)
 326:led_manager.c **** 		if(!c1_critical) {	//start blinking
 327:led_manager.c **** 			c1_critical_timer_Start();
 328:led_manager.c **** 			c1_crit_int_StartEx(c1_crit_isr);
 329:led_manager.c **** 			c1_critical = 1;
 330:led_manager.c **** 		} //if
 331:led_manager.c **** 	} //else
 332:led_manager.c **** 	
 333:led_manager.c **** 	if(!c1_critical) {
 334:led_manager.c **** 		int i;
 335:led_manager.c **** 		for(i=0; i<steps; i++)
 336:led_manager.c **** 			c1_arr[i] = 1;	//on leds
 337:led_manager.c **** 		for(i=steps; i<5; i++)
 338:led_manager.c **** 			c1_arr[i] = 0;	//off leds
 339:led_manager.c **** 		
 340:led_manager.c **** 		c1_write(c1_arr[0]);
 341:led_manager.c **** 		c2_write(c1_arr[1]);
 342:led_manager.c **** 		c3_write(c1_arr[2]);
 343:led_manager.c **** 		c4_write(c1_arr[3]);
 344:led_manager.c **** 		c5_write(c1_arr[4]);
 345:led_manager.c **** 	} //if
 346:led_manager.c **** } //led_write_c3()
 347:led_manager.c **** 
 348:led_manager.c **** 
 349:led_manager.c **** //test stuff
 350:led_manager.c **** void led_on() {
 351:led_manager.c **** 	d1_write(1);
 352:led_manager.c **** 	//d2_write(1);
 353:led_manager.c **** 	//d3_write(1);
 354:led_manager.c **** 	//d4_write(1);
 355:led_manager.c **** 	//d5_write(1);
 356:led_manager.c **** 	//d6_write(1);
 357:led_manager.c **** 	//d7_write(1);
 358:led_manager.c **** 	//d8_write(1);
 359:led_manager.c **** 	//d9_write(1);
 360:led_manager.c **** 	//d10_write(1);
 361:led_manager.c **** 	//d11_write(1);
 362:led_manager.c **** 	//d12_write(1);
 363:led_manager.c **** 	//d13_write(1);
 364:led_manager.c **** 	d14_write(1);
 365:led_manager.c **** 	d15_write(1);
 366:led_manager.c **** 	//d16_write(1);
 367:led_manager.c **** 	//d17_write(1);
 368:led_manager.c **** 	//d18_write(1);
 369:led_manager.c **** 	d19_write(1);
 370:led_manager.c **** 	//d20_write(1);
 371:led_manager.c **** 	//d21_write(1);
 372:led_manager.c **** 	//d22_write(1);
 373:led_manager.c **** 	
ARM GAS  D:\Windows\AppData\Local\Temp\cc9YXq6z.s 			page 8


 374:led_manager.c **** 	/*
 375:led_manager.c **** 	b11_write(1);
 376:led_manager.c **** 	b12_write(1);
 377:led_manager.c **** 	b13_write(1);
 378:led_manager.c **** 	b14_write(1);
 379:led_manager.c **** 	b15_write(1);
 380:led_manager.c **** 	
 381:led_manager.c **** 	b21_write(1);
 382:led_manager.c **** 	b22_write(1);
 383:led_manager.c **** 	b23_write(1);
 384:led_manager.c **** 	b24_write(1);
 385:led_manager.c **** 	b25_write(1);
 386:led_manager.c **** 	
 387:led_manager.c **** 	b31_write(1);
 388:led_manager.c **** 	b32_write(1);
 389:led_manager.c **** 	b33_write(1);
 390:led_manager.c **** 	b34_write(1);
 391:led_manager.c **** 	b35_write(1);
 392:led_manager.c **** 	*/
 393:led_manager.c **** 	/*
 394:led_manager.c **** 	c1_write(1);
 395:led_manager.c **** 	c2_write(1);
 396:led_manager.c **** 	c3_write(1);
 397:led_manager.c **** 	c4_write(1);
 398:led_manager.c **** 	c5_write(1);
 399:led_manager.c **** 	*/
 400:led_manager.c **** }
 401:led_manager.c **** void led_off() {
 402:led_manager.c **** 	d1_write(0);
 403:led_manager.c **** 	//d2_write(0);
 404:led_manager.c **** 	//d3_write(0);
 405:led_manager.c **** 	//d4_write(0);
 406:led_manager.c **** 	//d5_write(0);
 407:led_manager.c **** 	//d6_write(0);
 408:led_manager.c **** 	//d7_write(0);
 409:led_manager.c **** 	//d8_write(0);
 410:led_manager.c **** 	//d9_write(0);
 411:led_manager.c **** 	//d10_write(0);
 412:led_manager.c **** 	//d11_write(0);
 413:led_manager.c **** 	//d12_write(0);
 414:led_manager.c **** 	//d13_write(0);
 415:led_manager.c **** 	d14_write(0);
 416:led_manager.c **** 	d15_write(0);
 417:led_manager.c **** 	//d16_write(0);
 418:led_manager.c **** 	//d17_write(0);
 419:led_manager.c **** 	//d18_write(0);
 420:led_manager.c **** 	d19_write(0);
 421:led_manager.c **** 	//d20_write(0);
 422:led_manager.c **** 	//d21_write(0);
 423:led_manager.c **** 	//d22_write(0);
 424:led_manager.c **** 	/*
 425:led_manager.c **** 	b11_write(0);
 426:led_manager.c **** 	b12_write(0);
 427:led_manager.c **** 	b13_write(0);
 428:led_manager.c **** 	b14_write(0);
 429:led_manager.c **** 	b15_write(0);
 430:led_manager.c **** 	
ARM GAS  D:\Windows\AppData\Local\Temp\cc9YXq6z.s 			page 9


 431:led_manager.c **** 	b21_write(0);
 432:led_manager.c **** 	b22_write(0);
 433:led_manager.c **** 	b23_write(0);
 434:led_manager.c **** 	b24_write(0);
 435:led_manager.c **** 	b25_write(0);
 436:led_manager.c **** 	
 437:led_manager.c **** 	b31_write(0);
 438:led_manager.c **** 	b32_write(0);
 439:led_manager.c **** 	b33_write(0);
 440:led_manager.c **** 	b34_write(0);
 441:led_manager.c **** 	b35_write(0);
 442:led_manager.c **** 	*/
 443:led_manager.c **** 	/*
 444:led_manager.c **** 	c1_write(0);
 445:led_manager.c **** 	c2_write(0);
 446:led_manager.c **** 	c3_write(0);
 447:led_manager.c **** 	c4_write(0);
 448:led_manager.c **** 	c5_write(0);
 449:led_manager.c **** 	*/
 450:led_manager.c **** }
 451:led_manager.c **** void write_all_tach(int bool) {
  27              		.loc 1 451 0
  28              		.cfi_startproc
  29              		@ args = 0, pretend = 0, frame = 0
  30              		@ frame_needed = 0, uses_anonymous_args = 0
  31              	.LVL0:
  32 0000 10B5     		push	{r4, lr}
  33              		.cfi_def_cfa_offset 8
  34              		.cfi_offset 4, -8
  35              		.cfi_offset 14, -4
  36 0002 0446     		mov	r4, r0
  37              	.LVL1:
 452:led_manager.c **** 	uint8_t allon = 0x77;
 453:led_manager.c **** 	
 454:led_manager.c **** 	LED_Driver1_MasterSendStart(LED_ADDR, 0);
  38              		.loc 1 454 0
  39 0004 4020     		movs	r0, #64
  40              	.LVL2:
  41 0006 0021     		movs	r1, #0
  42 0008 FFF7FEFF 		bl	LED_Driver1_MasterSendStart
  43              	.LVL3:
 455:led_manager.c **** 	LED_Driver1_MasterWriteByte(LED05);
  44              		.loc 1 455 0
  45 000c 0520     		movs	r0, #5
  46 000e FFF7FEFF 		bl	LED_Driver1_MasterWriteByte
  47              	.LVL4:
 456:led_manager.c **** 	if(bool == 1) {
  48              		.loc 1 456 0
  49 0012 012C     		cmp	r4, #1
  50 0014 0CD1     		bne	.L2
 457:led_manager.c **** 		LED_Driver1_MasterWriteByte(allon);			//0x05 addr
  51              		.loc 1 457 0
  52 0016 7720     		movs	r0, #119
  53 0018 FFF7FEFF 		bl	LED_Driver1_MasterWriteByte
  54              	.LVL5:
 458:led_manager.c **** 		LED_Driver1_MasterWriteByte(allon);			//0x06 addr
  55              		.loc 1 458 0
ARM GAS  D:\Windows\AppData\Local\Temp\cc9YXq6z.s 			page 10


  56 001c 7720     		movs	r0, #119
  57 001e FFF7FEFF 		bl	LED_Driver1_MasterWriteByte
  58              	.LVL6:
 459:led_manager.c **** 		LED_Driver1_MasterWriteByte(allon);			//0x07 addr
  59              		.loc 1 459 0
  60 0022 7720     		movs	r0, #119
  61 0024 FFF7FEFF 		bl	LED_Driver1_MasterWriteByte
  62              	.LVL7:
 460:led_manager.c **** 		LED_Driver1_MasterWriteByte(allon);			//0x08 addr
  63              		.loc 1 460 0
  64 0028 7720     		movs	r0, #119
  65 002a FFF7FEFF 		bl	LED_Driver1_MasterWriteByte
  66              	.LVL8:
  67 002e 0BE0     		b	.L3
  68              	.L2:
 461:led_manager.c **** 	}
 462:led_manager.c **** 	else {
 463:led_manager.c **** 		LED_Driver1_MasterWriteByte(0x00);
  69              		.loc 1 463 0
  70 0030 0020     		movs	r0, #0
  71 0032 FFF7FEFF 		bl	LED_Driver1_MasterWriteByte
  72              	.LVL9:
 464:led_manager.c **** 		LED_Driver1_MasterWriteByte(0x00);
  73              		.loc 1 464 0
  74 0036 0020     		movs	r0, #0
  75 0038 FFF7FEFF 		bl	LED_Driver1_MasterWriteByte
  76              	.LVL10:
 465:led_manager.c **** 		LED_Driver1_MasterWriteByte(0x00);
  77              		.loc 1 465 0
  78 003c 0020     		movs	r0, #0
  79 003e FFF7FEFF 		bl	LED_Driver1_MasterWriteByte
  80              	.LVL11:
 466:led_manager.c **** 		LED_Driver1_MasterWriteByte(0x00);
  81              		.loc 1 466 0
  82 0042 0020     		movs	r0, #0
  83 0044 FFF7FEFF 		bl	LED_Driver1_MasterWriteByte
  84              	.LVL12:
  85              	.L3:
 467:led_manager.c **** 	}
 468:led_manager.c **** 	LED_Driver1_MasterSendStop();
  86              		.loc 1 468 0
  87 0048 FFF7FEFF 		bl	LED_Driver1_MasterSendStop
  88              	.LVL13:
  89 004c 10BD     		pop	{r4, pc}
  90              		.cfi_endproc
  91              	.LFE75:
  92              		.size	write_all_tach, .-write_all_tach
  93 004e 00BF     		.section	.text.write_all_stat,"ax",%progbits
  94              		.align	2
  95              		.global	write_all_stat
  96              		.thumb
  97              		.thumb_func
  98              		.type	write_all_stat, %function
  99              	write_all_stat:
 100              	.LFB76:
 469:led_manager.c **** }
 470:led_manager.c **** void write_all_stat(int bool) {
ARM GAS  D:\Windows\AppData\Local\Temp\cc9YXq6z.s 			page 11


 101              		.loc 1 470 0
 102              		.cfi_startproc
 103              		@ args = 0, pretend = 0, frame = 0
 104              		@ frame_needed = 0, uses_anonymous_args = 0
 105              	.LVL14:
 106 0000 10B5     		push	{r4, lr}
 107              		.cfi_def_cfa_offset 8
 108              		.cfi_offset 4, -8
 109              		.cfi_offset 14, -4
 110 0002 0446     		mov	r4, r0
 111              	.LVL15:
 471:led_manager.c **** 	uint8_t allon = 0x77;
 472:led_manager.c **** 	
 473:led_manager.c **** 	LED_Driver2_MasterSendStart(LED_ADDR, 0);
 112              		.loc 1 473 0
 113 0004 4020     		movs	r0, #64
 114              	.LVL16:
 115 0006 0021     		movs	r1, #0
 116 0008 FFF7FEFF 		bl	LED_Driver2_MasterSendStart
 117              	.LVL17:
 474:led_manager.c **** 	LED_Driver2_MasterWriteByte(LED05);	
 118              		.loc 1 474 0
 119 000c 0520     		movs	r0, #5
 120 000e FFF7FEFF 		bl	LED_Driver2_MasterWriteByte
 121              	.LVL18:
 475:led_manager.c **** 	if(bool == 1) {
 122              		.loc 1 475 0
 123 0012 012C     		cmp	r4, #1
 124 0014 0CD1     		bne	.L6
 476:led_manager.c **** 		LED_Driver2_MasterWriteByte(allon);			//0x05 addr
 125              		.loc 1 476 0
 126 0016 7720     		movs	r0, #119
 127 0018 FFF7FEFF 		bl	LED_Driver2_MasterWriteByte
 128              	.LVL19:
 477:led_manager.c **** 		LED_Driver2_MasterWriteByte(allon);			//0x06 addr
 129              		.loc 1 477 0
 130 001c 7720     		movs	r0, #119
 131 001e FFF7FEFF 		bl	LED_Driver2_MasterWriteByte
 132              	.LVL20:
 478:led_manager.c **** 		LED_Driver2_MasterWriteByte(allon);			//0x07 addr
 133              		.loc 1 478 0
 134 0022 7720     		movs	r0, #119
 135 0024 FFF7FEFF 		bl	LED_Driver2_MasterWriteByte
 136              	.LVL21:
 479:led_manager.c **** 		LED_Driver2_MasterWriteByte(allon);			//0x08 addr
 137              		.loc 1 479 0
 138 0028 7720     		movs	r0, #119
 139 002a FFF7FEFF 		bl	LED_Driver2_MasterWriteByte
 140              	.LVL22:
 141 002e 0BE0     		b	.L7
 142              	.L6:
 480:led_manager.c **** 	}
 481:led_manager.c **** 	else {
 482:led_manager.c **** 		LED_Driver2_MasterWriteByte(0x00);
 143              		.loc 1 482 0
 144 0030 0020     		movs	r0, #0
 145 0032 FFF7FEFF 		bl	LED_Driver2_MasterWriteByte
ARM GAS  D:\Windows\AppData\Local\Temp\cc9YXq6z.s 			page 12


 146              	.LVL23:
 483:led_manager.c **** 		LED_Driver2_MasterWriteByte(0x00);
 147              		.loc 1 483 0
 148 0036 0020     		movs	r0, #0
 149 0038 FFF7FEFF 		bl	LED_Driver2_MasterWriteByte
 150              	.LVL24:
 484:led_manager.c **** 		LED_Driver2_MasterWriteByte(0x00);
 151              		.loc 1 484 0
 152 003c 0020     		movs	r0, #0
 153 003e FFF7FEFF 		bl	LED_Driver2_MasterWriteByte
 154              	.LVL25:
 485:led_manager.c **** 		LED_Driver2_MasterWriteByte(0x00);
 155              		.loc 1 485 0
 156 0042 0020     		movs	r0, #0
 157 0044 FFF7FEFF 		bl	LED_Driver2_MasterWriteByte
 158              	.LVL26:
 159              	.L7:
 486:led_manager.c **** 	}
 487:led_manager.c **** 	LED_Driver2_MasterSendStop();
 160              		.loc 1 487 0
 161 0048 FFF7FEFF 		bl	LED_Driver2_MasterSendStop
 162              	.LVL27:
 163 004c 10BD     		pop	{r4, pc}
 164              		.cfi_endproc
 165              	.LFE76:
 166              		.size	write_all_stat, .-write_all_stat
 167 004e 00BF     		.section	.text.led_driver_init,"ax",%progbits
 168              		.align	2
 169              		.global	led_driver_init
 170              		.thumb
 171              		.thumb_func
 172              		.type	led_driver_init, %function
 173              	led_driver_init:
 174              	.LFB67:
  78:led_manager.c **** 	LED_Driver1_Start();
 175              		.loc 1 78 0
 176              		.cfi_startproc
 177              		@ args = 0, pretend = 0, frame = 0
 178              		@ frame_needed = 0, uses_anonymous_args = 0
 179 0000 08B5     		push	{r3, lr}
 180              		.cfi_def_cfa_offset 8
 181              		.cfi_offset 3, -8
 182              		.cfi_offset 14, -4
  79:led_manager.c **** 	LED_Driver2_Start();
 183              		.loc 1 79 0
 184 0002 FFF7FEFF 		bl	LED_Driver1_Start
 185              	.LVL28:
  80:led_manager.c **** 
 186              		.loc 1 80 0
 187 0006 FFF7FEFF 		bl	LED_Driver2_Start
 188              	.LVL29:
  83:led_manager.c **** 	LED_Driver1_MasterWriteByte(0x00);				//move to 0x00 addr
 189              		.loc 1 83 0
 190 000a 4020     		movs	r0, #64
 191 000c 0021     		movs	r1, #0
 192 000e FFF7FEFF 		bl	LED_Driver1_MasterSendStart
 193              	.LVL30:
ARM GAS  D:\Windows\AppData\Local\Temp\cc9YXq6z.s 			page 13


  84:led_manager.c **** 	LED_Driver1_MasterWriteByte(serial_setting);	//0x00 addr
 194              		.loc 1 84 0
 195 0012 0020     		movs	r0, #0
 196 0014 FFF7FEFF 		bl	LED_Driver1_MasterWriteByte
 197              	.LVL31:
  85:led_manager.c **** 	LED_Driver1_MasterWriteByte(fade_setting);		//x01
 198              		.loc 1 85 0
 199 0018 0020     		movs	r0, #0
 200 001a FFF7FEFF 		bl	LED_Driver1_MasterWriteByte
 201              	.LVL32:
  86:led_manager.c **** 	LED_Driver1_MasterWriteByte(RLED_curr);			//x02
 202              		.loc 1 86 0
 203 001e 0020     		movs	r0, #0
 204 0020 FFF7FEFF 		bl	LED_Driver1_MasterWriteByte
 205              	.LVL33:
  87:led_manager.c **** 	LED_Driver1_MasterWriteByte(GLED_curr);			//x03
 206              		.loc 1 87 0
 207 0024 1F20     		movs	r0, #31
 208 0026 FFF7FEFF 		bl	LED_Driver1_MasterWriteByte
 209              	.LVL34:
  88:led_manager.c **** 	LED_Driver1_MasterWriteByte(BLED_curr);			//x04
 210              		.loc 1 88 0
 211 002a 1F20     		movs	r0, #31
 212 002c FFF7FEFF 		bl	LED_Driver1_MasterWriteByte
 213              	.LVL35:
  89:led_manager.c **** 	LED_Driver1_MasterSendStop();
 214              		.loc 1 89 0
 215 0030 1F20     		movs	r0, #31
 216 0032 FFF7FEFF 		bl	LED_Driver1_MasterWriteByte
 217              	.LVL36:
  90:led_manager.c **** 	LED_Driver1_MasterSendStart(LED_ADDR, 0);
 218              		.loc 1 90 0
 219 0036 FFF7FEFF 		bl	LED_Driver1_MasterSendStop
 220              	.LVL37:
  91:led_manager.c **** 	LED_Driver1_MasterWriteByte(0x09);
 221              		.loc 1 91 0
 222 003a 4020     		movs	r0, #64
 223 003c 0021     		movs	r1, #0
 224 003e FFF7FEFF 		bl	LED_Driver1_MasterSendStart
 225              	.LVL38:
  92:led_manager.c **** 	LED_Driver1_MasterWriteByte(output_setting);	//x09 addr
 226              		.loc 1 92 0
 227 0042 0920     		movs	r0, #9
 228 0044 FFF7FEFF 		bl	LED_Driver1_MasterWriteByte
 229              	.LVL39:
  93:led_manager.c **** 	LED_Driver1_MasterWriteByte(output_setting);	//x0A
 230              		.loc 1 93 0
 231 0048 5520     		movs	r0, #85
 232 004a FFF7FEFF 		bl	LED_Driver1_MasterWriteByte
 233              	.LVL40:
  94:led_manager.c **** 	LED_Driver1_MasterWriteByte(output_setting);	//x0B
 234              		.loc 1 94 0
 235 004e 5520     		movs	r0, #85
 236 0050 FFF7FEFF 		bl	LED_Driver1_MasterWriteByte
 237              	.LVL41:
  95:led_manager.c **** 	LED_Driver1_MasterWriteByte(output_setting);	//x0C
 238              		.loc 1 95 0
ARM GAS  D:\Windows\AppData\Local\Temp\cc9YXq6z.s 			page 14


 239 0054 5520     		movs	r0, #85
 240 0056 FFF7FEFF 		bl	LED_Driver1_MasterWriteByte
 241              	.LVL42:
  96:led_manager.c **** 	LED_Driver1_MasterWriteByte(output_setting);	//x0D
 242              		.loc 1 96 0
 243 005a 5520     		movs	r0, #85
 244 005c FFF7FEFF 		bl	LED_Driver1_MasterWriteByte
 245              	.LVL43:
  97:led_manager.c **** 	LED_Driver1_MasterWriteByte(output_setting);	//x0E
 246              		.loc 1 97 0
 247 0060 5520     		movs	r0, #85
 248 0062 FFF7FEFF 		bl	LED_Driver1_MasterWriteByte
 249              	.LVL44:
  98:led_manager.c **** 	LED_Driver1_MasterWriteByte(fade_fn);			//x0F	LEDR
 250              		.loc 1 98 0
 251 0066 5520     		movs	r0, #85
 252 0068 FFF7FEFF 		bl	LED_Driver1_MasterWriteByte
 253              	.LVL45:
  99:led_manager.c **** 	LED_Driver1_MasterWriteByte(fade_fn);			//x10	LEDG
 254              		.loc 1 99 0
 255 006c FF20     		movs	r0, #255
 256 006e FFF7FEFF 		bl	LED_Driver1_MasterWriteByte
 257              	.LVL46:
 100:led_manager.c **** 	LED_Driver1_MasterWriteByte(fade_fn);			//x11	LEDB
 258              		.loc 1 100 0
 259 0072 FF20     		movs	r0, #255
 260 0074 FFF7FEFF 		bl	LED_Driver1_MasterWriteByte
 261              	.LVL47:
 101:led_manager.c **** 	LED_Driver1_MasterSendStop();
 262              		.loc 1 101 0
 263 0078 FF20     		movs	r0, #255
 264 007a FFF7FEFF 		bl	LED_Driver1_MasterWriteByte
 265              	.LVL48:
 102:led_manager.c **** 	
 266              		.loc 1 102 0
 267 007e FFF7FEFF 		bl	LED_Driver1_MasterSendStop
 268              	.LVL49:
 105:led_manager.c **** 	LED_Driver2_MasterWriteByte(0x00);				//move to 0x00 addr
 269              		.loc 1 105 0
 270 0082 4020     		movs	r0, #64
 271 0084 0021     		movs	r1, #0
 272 0086 FFF7FEFF 		bl	LED_Driver2_MasterSendStart
 273              	.LVL50:
 106:led_manager.c **** 	LED_Driver2_MasterWriteByte(serial_setting);	//0x00 addr
 274              		.loc 1 106 0
 275 008a 0020     		movs	r0, #0
 276 008c FFF7FEFF 		bl	LED_Driver2_MasterWriteByte
 277              	.LVL51:
 107:led_manager.c **** 	LED_Driver2_MasterWriteByte(fade_setting);		//x01
 278              		.loc 1 107 0
 279 0090 0020     		movs	r0, #0
 280 0092 FFF7FEFF 		bl	LED_Driver2_MasterWriteByte
 281              	.LVL52:
 108:led_manager.c **** 	LED_Driver2_MasterWriteByte(RLED_curr);			//x02
 282              		.loc 1 108 0
 283 0096 0020     		movs	r0, #0
 284 0098 FFF7FEFF 		bl	LED_Driver2_MasterWriteByte
ARM GAS  D:\Windows\AppData\Local\Temp\cc9YXq6z.s 			page 15


 285              	.LVL53:
 109:led_manager.c **** 	LED_Driver2_MasterWriteByte(GLED_curr);			//x03
 286              		.loc 1 109 0
 287 009c 1F20     		movs	r0, #31
 288 009e FFF7FEFF 		bl	LED_Driver2_MasterWriteByte
 289              	.LVL54:
 110:led_manager.c **** 	LED_Driver2_MasterWriteByte(BLED_curr);			//x04
 290              		.loc 1 110 0
 291 00a2 1F20     		movs	r0, #31
 292 00a4 FFF7FEFF 		bl	LED_Driver2_MasterWriteByte
 293              	.LVL55:
 111:led_manager.c **** 	LED_Driver2_MasterSendStop();
 294              		.loc 1 111 0
 295 00a8 1F20     		movs	r0, #31
 296 00aa FFF7FEFF 		bl	LED_Driver2_MasterWriteByte
 297              	.LVL56:
 112:led_manager.c **** 	LED_Driver2_MasterSendStart(LED_ADDR, 0);		//set output setting PWM
 298              		.loc 1 112 0
 299 00ae FFF7FEFF 		bl	LED_Driver2_MasterSendStop
 300              	.LVL57:
 113:led_manager.c **** 	LED_Driver2_MasterWriteByte(0x09);
 301              		.loc 1 113 0
 302 00b2 4020     		movs	r0, #64
 303 00b4 0021     		movs	r1, #0
 304 00b6 FFF7FEFF 		bl	LED_Driver2_MasterSendStart
 305              	.LVL58:
 114:led_manager.c **** 	LED_Driver2_MasterWriteByte(output_setting);	//x09 addr
 306              		.loc 1 114 0
 307 00ba 0920     		movs	r0, #9
 308 00bc FFF7FEFF 		bl	LED_Driver2_MasterWriteByte
 309              	.LVL59:
 115:led_manager.c **** 	LED_Driver2_MasterWriteByte(output_setting);	//x0A
 310              		.loc 1 115 0
 311 00c0 5520     		movs	r0, #85
 312 00c2 FFF7FEFF 		bl	LED_Driver2_MasterWriteByte
 313              	.LVL60:
 116:led_manager.c **** 	LED_Driver2_MasterWriteByte(output_setting);	//x0B
 314              		.loc 1 116 0
 315 00c6 5520     		movs	r0, #85
 316 00c8 FFF7FEFF 		bl	LED_Driver2_MasterWriteByte
 317              	.LVL61:
 117:led_manager.c **** 	LED_Driver2_MasterWriteByte(output_setting);	//x0C
 318              		.loc 1 117 0
 319 00cc 5520     		movs	r0, #85
 320 00ce FFF7FEFF 		bl	LED_Driver2_MasterWriteByte
 321              	.LVL62:
 118:led_manager.c **** 	LED_Driver2_MasterWriteByte(output_setting);	//x0D
 322              		.loc 1 118 0
 323 00d2 5520     		movs	r0, #85
 324 00d4 FFF7FEFF 		bl	LED_Driver2_MasterWriteByte
 325              	.LVL63:
 119:led_manager.c **** 	LED_Driver2_MasterWriteByte(output_setting);	//x0E
 326              		.loc 1 119 0
 327 00d8 5520     		movs	r0, #85
 328 00da FFF7FEFF 		bl	LED_Driver2_MasterWriteByte
 329              	.LVL64:
 120:led_manager.c **** 	LED_Driver2_MasterWriteByte(fade_fn);			//x0F	LEDR
ARM GAS  D:\Windows\AppData\Local\Temp\cc9YXq6z.s 			page 16


 330              		.loc 1 120 0
 331 00de 5520     		movs	r0, #85
 332 00e0 FFF7FEFF 		bl	LED_Driver2_MasterWriteByte
 333              	.LVL65:
 121:led_manager.c **** 	LED_Driver2_MasterWriteByte(fade_fn);			//x10	LEDG
 334              		.loc 1 121 0
 335 00e4 FF20     		movs	r0, #255
 336 00e6 FFF7FEFF 		bl	LED_Driver2_MasterWriteByte
 337              	.LVL66:
 122:led_manager.c **** 	LED_Driver2_MasterWriteByte(fade_fn);			//x11	LEDB
 338              		.loc 1 122 0
 339 00ea FF20     		movs	r0, #255
 340 00ec FFF7FEFF 		bl	LED_Driver2_MasterWriteByte
 341              	.LVL67:
 123:led_manager.c **** 	LED_Driver2_MasterSendStop();
 342              		.loc 1 123 0
 343 00f0 FF20     		movs	r0, #255
 344 00f2 FFF7FEFF 		bl	LED_Driver2_MasterWriteByte
 345              	.LVL68:
 124:led_manager.c **** 	
 346              		.loc 1 124 0
 347 00f6 FFF7FEFF 		bl	LED_Driver2_MasterSendStop
 348              	.LVL69:
 126:led_manager.c **** 	write_all_stat(0);
 349              		.loc 1 126 0
 350 00fa 0020     		movs	r0, #0
 351 00fc FFF7FEFF 		bl	write_all_tach
 352              	.LVL70:
 127:led_manager.c **** } //led_driver_init()
 353              		.loc 1 127 0
 354 0100 0020     		movs	r0, #0
 355 0102 FFF7FEFF 		bl	write_all_stat
 356              	.LVL71:
 357 0106 08BD     		pop	{r3, pc}
 358              		.cfi_endproc
 359              	.LFE67:
 360              		.size	led_driver_init, .-led_driver_init
 361              		.section	.text.d1_write,"ax",%progbits
 362              		.align	2
 363              		.global	d1_write
 364              		.thumb
 365              		.thumb_func
 366              		.type	d1_write, %function
 367              	d1_write:
 368              	.LFB78:
 488:led_manager.c **** }
 489:led_manager.c **** int led_writetest(int i, int* arr) {
 490:led_manager.c **** 	d1_write(arr[0]);
 491:led_manager.c **** 	d2_write(arr[1]);
 492:led_manager.c **** 	d3_write(arr[2]);
 493:led_manager.c **** 	d4_write(arr[3]);
 494:led_manager.c **** 	d5_write(arr[4]);
 495:led_manager.c **** 	d6_write(arr[5]);
 496:led_manager.c **** 	d7_write(arr[6]);
 497:led_manager.c **** 	d8_write(arr[7]);
 498:led_manager.c **** 	d9_write(arr[8]);
 499:led_manager.c **** 	d10_write(arr[9]);
ARM GAS  D:\Windows\AppData\Local\Temp\cc9YXq6z.s 			page 17


 500:led_manager.c **** 	d11_write(arr[10]);
 501:led_manager.c **** 	d12_write(arr[11]);
 502:led_manager.c **** 	d13_write(arr[12]);
 503:led_manager.c **** 	d14_write(arr[13]);
 504:led_manager.c **** 	d15_write(arr[14]);
 505:led_manager.c **** 	d16_write(arr[15]);
 506:led_manager.c **** 	d17_write(arr[16]);
 507:led_manager.c **** 	d18_write(arr[17]);
 508:led_manager.c **** 	d19_write(arr[18]);
 509:led_manager.c **** 	d20_write(arr[19]);
 510:led_manager.c **** 	d21_write(arr[20]);
 511:led_manager.c **** 	d22_write(arr[21]);
 512:led_manager.c **** 	
 513:led_manager.c **** 	arr[i] = 0;
 514:led_manager.c **** 	arr[(i+5) % 22] = 1;
 515:led_manager.c **** 	i++;
 516:led_manager.c **** 	if(i > 21)
 517:led_manager.c **** 		i=0;
 518:led_manager.c **** 	return i;
 519:led_manager.c **** }
 520:led_manager.c **** 
 521:led_manager.c **** //tach
 522:led_manager.c **** void d1_write(int bool) {
 369              		.loc 1 522 0
 370              		.cfi_startproc
 371              		@ args = 0, pretend = 0, frame = 0
 372              		@ frame_needed = 0, uses_anonymous_args = 0
 373              	.LVL72:
 374 0000 08B5     		push	{r3, lr}
 375              		.cfi_def_cfa_offset 8
 376              		.cfi_offset 3, -8
 377              		.cfi_offset 14, -4
 378              	.LVL73:
 523:led_manager.c **** 	uint8_t bit = 0x01;
 524:led_manager.c **** 	if(bool == 1) 	//led on
 379              		.loc 1 524 0
 380 0002 0128     		cmp	r0, #1
 381 0004 05D1     		bne	.L12
 525:led_manager.c **** 		byte05 = byte05 | bit;
 382              		.loc 1 525 0
 383 0006 0C4A     		ldr	r2, .L15
 384 0008 1378     		ldrb	r3, [r2]	@ zero_extendqisi2
 385 000a 43F00103 		orr	r3, r3, #1
 386 000e 1370     		strb	r3, [r2]
 387 0010 04E0     		b	.L13
 388              	.L12:
 526:led_manager.c **** 	else			//led off
 527:led_manager.c **** 		byte05 = byte05 & ~bit;
 389              		.loc 1 527 0
 390 0012 094A     		ldr	r2, .L15
 391 0014 1378     		ldrb	r3, [r2]	@ zero_extendqisi2
 392 0016 23F00103 		bic	r3, r3, #1
 393 001a 1370     		strb	r3, [r2]
 394              	.L13:
 528:led_manager.c **** 	
 529:led_manager.c **** 	LED_Driver1_MasterSendStart(LED_ADDR, 0);	// 0 = send write command, 1 = send read command
 395              		.loc 1 529 0
ARM GAS  D:\Windows\AppData\Local\Temp\cc9YXq6z.s 			page 18


 396 001c 4020     		movs	r0, #64
 397              	.LVL74:
 398 001e 0021     		movs	r1, #0
 399 0020 FFF7FEFF 		bl	LED_Driver1_MasterSendStart
 400              	.LVL75:
 530:led_manager.c **** 	LED_Driver1_MasterWriteByte(LED05);		//move to LED addr
 401              		.loc 1 530 0
 402 0024 0520     		movs	r0, #5
 403 0026 FFF7FEFF 		bl	LED_Driver1_MasterWriteByte
 404              	.LVL76:
 531:led_manager.c **** 	LED_Driver1_MasterWriteByte(byte05);	//write byte to addr
 405              		.loc 1 531 0
 406 002a 034B     		ldr	r3, .L15
 407 002c 1878     		ldrb	r0, [r3]	@ zero_extendqisi2
 408 002e FFF7FEFF 		bl	LED_Driver1_MasterWriteByte
 409              	.LVL77:
 532:led_manager.c **** 	LED_Driver1_MasterSendStop();
 410              		.loc 1 532 0
 411 0032 FFF7FEFF 		bl	LED_Driver1_MasterSendStop
 412              	.LVL78:
 413 0036 08BD     		pop	{r3, pc}
 414              	.L16:
 415              		.align	2
 416              	.L15:
 417 0038 00000000 		.word	.LANCHOR0
 418              		.cfi_endproc
 419              	.LFE78:
 420              		.size	d1_write, .-d1_write
 421              		.section	.text.d2_write,"ax",%progbits
 422              		.align	2
 423              		.global	d2_write
 424              		.thumb
 425              		.thumb_func
 426              		.type	d2_write, %function
 427              	d2_write:
 428              	.LFB79:
 533:led_manager.c **** }
 534:led_manager.c **** void d2_write(int bool) {
 429              		.loc 1 534 0
 430              		.cfi_startproc
 431              		@ args = 0, pretend = 0, frame = 0
 432              		@ frame_needed = 0, uses_anonymous_args = 0
 433              	.LVL79:
 434 0000 08B5     		push	{r3, lr}
 435              		.cfi_def_cfa_offset 8
 436              		.cfi_offset 3, -8
 437              		.cfi_offset 14, -4
 438              	.LVL80:
 535:led_manager.c **** 	uint8_t bit = 0x10;
 536:led_manager.c **** 	if(bool == 1) 	//led on
 439              		.loc 1 536 0
 440 0002 0128     		cmp	r0, #1
 441 0004 05D1     		bne	.L18
 537:led_manager.c **** 		byte05 = byte05 | bit;
 442              		.loc 1 537 0
 443 0006 0C4A     		ldr	r2, .L21
 444 0008 1378     		ldrb	r3, [r2]	@ zero_extendqisi2
ARM GAS  D:\Windows\AppData\Local\Temp\cc9YXq6z.s 			page 19


 445 000a 43F01003 		orr	r3, r3, #16
 446 000e 1370     		strb	r3, [r2]
 447 0010 04E0     		b	.L19
 448              	.L18:
 538:led_manager.c **** 	else			//led off
 539:led_manager.c **** 		byte05 = byte05 & ~bit;
 449              		.loc 1 539 0
 450 0012 094A     		ldr	r2, .L21
 451 0014 1378     		ldrb	r3, [r2]	@ zero_extendqisi2
 452 0016 23F01003 		bic	r3, r3, #16
 453 001a 1370     		strb	r3, [r2]
 454              	.L19:
 540:led_manager.c **** 	
 541:led_manager.c **** 	LED_Driver1_MasterSendStart(LED_ADDR, 0);	
 455              		.loc 1 541 0
 456 001c 4020     		movs	r0, #64
 457              	.LVL81:
 458 001e 0021     		movs	r1, #0
 459 0020 FFF7FEFF 		bl	LED_Driver1_MasterSendStart
 460              	.LVL82:
 542:led_manager.c **** 	LED_Driver1_MasterWriteByte(LED05);		//move to LED addr
 461              		.loc 1 542 0
 462 0024 0520     		movs	r0, #5
 463 0026 FFF7FEFF 		bl	LED_Driver1_MasterWriteByte
 464              	.LVL83:
 543:led_manager.c **** 	LED_Driver1_MasterWriteByte(byte05);	//write byte to addr
 465              		.loc 1 543 0
 466 002a 034B     		ldr	r3, .L21
 467 002c 1878     		ldrb	r0, [r3]	@ zero_extendqisi2
 468 002e FFF7FEFF 		bl	LED_Driver1_MasterWriteByte
 469              	.LVL84:
 544:led_manager.c **** 	LED_Driver1_MasterSendStop();
 470              		.loc 1 544 0
 471 0032 FFF7FEFF 		bl	LED_Driver1_MasterSendStop
 472              	.LVL85:
 473 0036 08BD     		pop	{r3, pc}
 474              	.L22:
 475              		.align	2
 476              	.L21:
 477 0038 00000000 		.word	.LANCHOR0
 478              		.cfi_endproc
 479              	.LFE79:
 480              		.size	d2_write, .-d2_write
 481              		.section	.text.d3_write,"ax",%progbits
 482              		.align	2
 483              		.global	d3_write
 484              		.thumb
 485              		.thumb_func
 486              		.type	d3_write, %function
 487              	d3_write:
 488              	.LFB80:
 545:led_manager.c **** }
 546:led_manager.c **** void d3_write(int bool) {
 489              		.loc 1 546 0
 490              		.cfi_startproc
 491              		@ args = 0, pretend = 0, frame = 0
 492              		@ frame_needed = 0, uses_anonymous_args = 0
ARM GAS  D:\Windows\AppData\Local\Temp\cc9YXq6z.s 			page 20


 493              	.LVL86:
 494 0000 08B5     		push	{r3, lr}
 495              		.cfi_def_cfa_offset 8
 496              		.cfi_offset 3, -8
 497              		.cfi_offset 14, -4
 498              	.LVL87:
 547:led_manager.c **** 	uint8_t bit = 0x01;
 548:led_manager.c **** 	if(bool == 1) 	//led on
 499              		.loc 1 548 0
 500 0002 0128     		cmp	r0, #1
 501 0004 05D1     		bne	.L24
 549:led_manager.c **** 		byte06 = byte06 | bit;
 502              		.loc 1 549 0
 503 0006 0C4A     		ldr	r2, .L27
 504 0008 5378     		ldrb	r3, [r2, #1]	@ zero_extendqisi2
 505 000a 43F00103 		orr	r3, r3, #1
 506 000e 5370     		strb	r3, [r2, #1]
 507 0010 04E0     		b	.L25
 508              	.L24:
 550:led_manager.c **** 	else			//led off
 551:led_manager.c **** 		byte06 = byte06 & ~bit;
 509              		.loc 1 551 0
 510 0012 094A     		ldr	r2, .L27
 511 0014 5378     		ldrb	r3, [r2, #1]	@ zero_extendqisi2
 512 0016 23F00103 		bic	r3, r3, #1
 513 001a 5370     		strb	r3, [r2, #1]
 514              	.L25:
 552:led_manager.c **** 	
 553:led_manager.c **** 	LED_Driver1_MasterSendStart(LED_ADDR, 0);
 515              		.loc 1 553 0
 516 001c 4020     		movs	r0, #64
 517              	.LVL88:
 518 001e 0021     		movs	r1, #0
 519 0020 FFF7FEFF 		bl	LED_Driver1_MasterSendStart
 520              	.LVL89:
 554:led_manager.c **** 	LED_Driver1_MasterWriteByte(LED06);		//move to LED addr
 521              		.loc 1 554 0
 522 0024 0620     		movs	r0, #6
 523 0026 FFF7FEFF 		bl	LED_Driver1_MasterWriteByte
 524              	.LVL90:
 555:led_manager.c **** 	LED_Driver1_MasterWriteByte(byte06);	//write byte to addr
 525              		.loc 1 555 0
 526 002a 034B     		ldr	r3, .L27
 527 002c 5878     		ldrb	r0, [r3, #1]	@ zero_extendqisi2
 528 002e FFF7FEFF 		bl	LED_Driver1_MasterWriteByte
 529              	.LVL91:
 556:led_manager.c **** 	LED_Driver1_MasterSendStop();
 530              		.loc 1 556 0
 531 0032 FFF7FEFF 		bl	LED_Driver1_MasterSendStop
 532              	.LVL92:
 533 0036 08BD     		pop	{r3, pc}
 534              	.L28:
 535              		.align	2
 536              	.L27:
 537 0038 00000000 		.word	.LANCHOR0
 538              		.cfi_endproc
 539              	.LFE80:
ARM GAS  D:\Windows\AppData\Local\Temp\cc9YXq6z.s 			page 21


 540              		.size	d3_write, .-d3_write
 541              		.section	.text.d4_write,"ax",%progbits
 542              		.align	2
 543              		.global	d4_write
 544              		.thumb
 545              		.thumb_func
 546              		.type	d4_write, %function
 547              	d4_write:
 548              	.LFB81:
 557:led_manager.c **** }
 558:led_manager.c **** void d4_write(int bool) {
 549              		.loc 1 558 0
 550              		.cfi_startproc
 551              		@ args = 0, pretend = 0, frame = 0
 552              		@ frame_needed = 0, uses_anonymous_args = 0
 553              	.LVL93:
 554 0000 08B5     		push	{r3, lr}
 555              		.cfi_def_cfa_offset 8
 556              		.cfi_offset 3, -8
 557              		.cfi_offset 14, -4
 558              	.LVL94:
 559:led_manager.c **** 	uint8_t bit = 0x10;
 560:led_manager.c **** 	if(bool == 1) 	//led on
 559              		.loc 1 560 0
 560 0002 0128     		cmp	r0, #1
 561 0004 05D1     		bne	.L30
 561:led_manager.c **** 		byte06 = byte06 | bit;
 562              		.loc 1 561 0
 563 0006 0C4A     		ldr	r2, .L33
 564 0008 5378     		ldrb	r3, [r2, #1]	@ zero_extendqisi2
 565 000a 43F01003 		orr	r3, r3, #16
 566 000e 5370     		strb	r3, [r2, #1]
 567 0010 04E0     		b	.L31
 568              	.L30:
 562:led_manager.c **** 	else			//led off
 563:led_manager.c **** 		byte06 = byte06 & ~bit;
 569              		.loc 1 563 0
 570 0012 094A     		ldr	r2, .L33
 571 0014 5378     		ldrb	r3, [r2, #1]	@ zero_extendqisi2
 572 0016 23F01003 		bic	r3, r3, #16
 573 001a 5370     		strb	r3, [r2, #1]
 574              	.L31:
 564:led_manager.c **** 	
 565:led_manager.c **** 	LED_Driver1_MasterSendStart(LED_ADDR, 0);
 575              		.loc 1 565 0
 576 001c 4020     		movs	r0, #64
 577              	.LVL95:
 578 001e 0021     		movs	r1, #0
 579 0020 FFF7FEFF 		bl	LED_Driver1_MasterSendStart
 580              	.LVL96:
 566:led_manager.c **** 	LED_Driver1_MasterWriteByte(LED06);		//move to LED addr
 581              		.loc 1 566 0
 582 0024 0620     		movs	r0, #6
 583 0026 FFF7FEFF 		bl	LED_Driver1_MasterWriteByte
 584              	.LVL97:
 567:led_manager.c **** 	LED_Driver1_MasterWriteByte(byte06);	//write byte to addr
 585              		.loc 1 567 0
ARM GAS  D:\Windows\AppData\Local\Temp\cc9YXq6z.s 			page 22


 586 002a 034B     		ldr	r3, .L33
 587 002c 5878     		ldrb	r0, [r3, #1]	@ zero_extendqisi2
 588 002e FFF7FEFF 		bl	LED_Driver1_MasterWriteByte
 589              	.LVL98:
 568:led_manager.c **** 	LED_Driver1_MasterSendStop();
 590              		.loc 1 568 0
 591 0032 FFF7FEFF 		bl	LED_Driver1_MasterSendStop
 592              	.LVL99:
 593 0036 08BD     		pop	{r3, pc}
 594              	.L34:
 595              		.align	2
 596              	.L33:
 597 0038 00000000 		.word	.LANCHOR0
 598              		.cfi_endproc
 599              	.LFE81:
 600              		.size	d4_write, .-d4_write
 601              		.section	.text.d5_write,"ax",%progbits
 602              		.align	2
 603              		.global	d5_write
 604              		.thumb
 605              		.thumb_func
 606              		.type	d5_write, %function
 607              	d5_write:
 608              	.LFB82:
 569:led_manager.c **** }
 570:led_manager.c **** void d5_write(int bool) {
 609              		.loc 1 570 0
 610              		.cfi_startproc
 611              		@ args = 0, pretend = 0, frame = 0
 612              		@ frame_needed = 0, uses_anonymous_args = 0
 613              	.LVL100:
 614 0000 08B5     		push	{r3, lr}
 615              		.cfi_def_cfa_offset 8
 616              		.cfi_offset 3, -8
 617              		.cfi_offset 14, -4
 618              	.LVL101:
 571:led_manager.c **** 	uint8_t bit = 0x01;
 572:led_manager.c **** 	if(bool == 1) 	//led on
 619              		.loc 1 572 0
 620 0002 0128     		cmp	r0, #1
 621 0004 05D1     		bne	.L36
 573:led_manager.c **** 		byte07 = byte07 | bit;
 622              		.loc 1 573 0
 623 0006 0C4A     		ldr	r2, .L39
 624 0008 9378     		ldrb	r3, [r2, #2]	@ zero_extendqisi2
 625 000a 43F00103 		orr	r3, r3, #1
 626 000e 9370     		strb	r3, [r2, #2]
 627 0010 04E0     		b	.L37
 628              	.L36:
 574:led_manager.c **** 	else			//led off
 575:led_manager.c **** 		byte07 = byte07 & ~bit;
 629              		.loc 1 575 0
 630 0012 094A     		ldr	r2, .L39
 631 0014 9378     		ldrb	r3, [r2, #2]	@ zero_extendqisi2
 632 0016 23F00103 		bic	r3, r3, #1
 633 001a 9370     		strb	r3, [r2, #2]
 634              	.L37:
ARM GAS  D:\Windows\AppData\Local\Temp\cc9YXq6z.s 			page 23


 576:led_manager.c **** 	
 577:led_manager.c **** 	LED_Driver1_MasterSendStart(LED_ADDR, 0);
 635              		.loc 1 577 0
 636 001c 4020     		movs	r0, #64
 637              	.LVL102:
 638 001e 0021     		movs	r1, #0
 639 0020 FFF7FEFF 		bl	LED_Driver1_MasterSendStart
 640              	.LVL103:
 578:led_manager.c **** 	LED_Driver1_MasterWriteByte(LED07);		//move to LED addr
 641              		.loc 1 578 0
 642 0024 0720     		movs	r0, #7
 643 0026 FFF7FEFF 		bl	LED_Driver1_MasterWriteByte
 644              	.LVL104:
 579:led_manager.c **** 	LED_Driver1_MasterWriteByte(byte07);	//write byte to addr
 645              		.loc 1 579 0
 646 002a 034B     		ldr	r3, .L39
 647 002c 9878     		ldrb	r0, [r3, #2]	@ zero_extendqisi2
 648 002e FFF7FEFF 		bl	LED_Driver1_MasterWriteByte
 649              	.LVL105:
 580:led_manager.c **** 	LED_Driver1_MasterSendStop();
 650              		.loc 1 580 0
 651 0032 FFF7FEFF 		bl	LED_Driver1_MasterSendStop
 652              	.LVL106:
 653 0036 08BD     		pop	{r3, pc}
 654              	.L40:
 655              		.align	2
 656              	.L39:
 657 0038 00000000 		.word	.LANCHOR0
 658              		.cfi_endproc
 659              	.LFE82:
 660              		.size	d5_write, .-d5_write
 661              		.section	.text.d6_write,"ax",%progbits
 662              		.align	2
 663              		.global	d6_write
 664              		.thumb
 665              		.thumb_func
 666              		.type	d6_write, %function
 667              	d6_write:
 668              	.LFB83:
 581:led_manager.c **** }
 582:led_manager.c **** void d6_write(int bool) {
 669              		.loc 1 582 0
 670              		.cfi_startproc
 671              		@ args = 0, pretend = 0, frame = 0
 672              		@ frame_needed = 0, uses_anonymous_args = 0
 673              	.LVL107:
 674 0000 08B5     		push	{r3, lr}
 675              		.cfi_def_cfa_offset 8
 676              		.cfi_offset 3, -8
 677              		.cfi_offset 14, -4
 678              	.LVL108:
 583:led_manager.c **** 	uint8_t bit = 0x10;
 584:led_manager.c **** 	if(bool == 1) 	//led on
 679              		.loc 1 584 0
 680 0002 0128     		cmp	r0, #1
 681 0004 05D1     		bne	.L42
 585:led_manager.c **** 		byte07 = byte07 | bit;
ARM GAS  D:\Windows\AppData\Local\Temp\cc9YXq6z.s 			page 24


 682              		.loc 1 585 0
 683 0006 0C4A     		ldr	r2, .L45
 684 0008 9378     		ldrb	r3, [r2, #2]	@ zero_extendqisi2
 685 000a 43F01003 		orr	r3, r3, #16
 686 000e 9370     		strb	r3, [r2, #2]
 687 0010 04E0     		b	.L43
 688              	.L42:
 586:led_manager.c **** 	else			//led off
 587:led_manager.c **** 		byte07 = byte07 & ~bit;
 689              		.loc 1 587 0
 690 0012 094A     		ldr	r2, .L45
 691 0014 9378     		ldrb	r3, [r2, #2]	@ zero_extendqisi2
 692 0016 23F01003 		bic	r3, r3, #16
 693 001a 9370     		strb	r3, [r2, #2]
 694              	.L43:
 588:led_manager.c **** 	
 589:led_manager.c **** 	LED_Driver1_MasterSendStart(LED_ADDR, 0);
 695              		.loc 1 589 0
 696 001c 4020     		movs	r0, #64
 697              	.LVL109:
 698 001e 0021     		movs	r1, #0
 699 0020 FFF7FEFF 		bl	LED_Driver1_MasterSendStart
 700              	.LVL110:
 590:led_manager.c **** 	LED_Driver1_MasterWriteByte(LED07);		//move to LED addr
 701              		.loc 1 590 0
 702 0024 0720     		movs	r0, #7
 703 0026 FFF7FEFF 		bl	LED_Driver1_MasterWriteByte
 704              	.LVL111:
 591:led_manager.c **** 	LED_Driver1_MasterWriteByte(byte07);	//write byte to addr
 705              		.loc 1 591 0
 706 002a 034B     		ldr	r3, .L45
 707 002c 9878     		ldrb	r0, [r3, #2]	@ zero_extendqisi2
 708 002e FFF7FEFF 		bl	LED_Driver1_MasterWriteByte
 709              	.LVL112:
 592:led_manager.c **** 	LED_Driver1_MasterSendStop();
 710              		.loc 1 592 0
 711 0032 FFF7FEFF 		bl	LED_Driver1_MasterSendStop
 712              	.LVL113:
 713 0036 08BD     		pop	{r3, pc}
 714              	.L46:
 715              		.align	2
 716              	.L45:
 717 0038 00000000 		.word	.LANCHOR0
 718              		.cfi_endproc
 719              	.LFE83:
 720              		.size	d6_write, .-d6_write
 721              		.section	.text.d7_write,"ax",%progbits
 722              		.align	2
 723              		.global	d7_write
 724              		.thumb
 725              		.thumb_func
 726              		.type	d7_write, %function
 727              	d7_write:
 728              	.LFB84:
 593:led_manager.c **** }
 594:led_manager.c **** void d7_write(int bool) {
 729              		.loc 1 594 0
ARM GAS  D:\Windows\AppData\Local\Temp\cc9YXq6z.s 			page 25


 730              		.cfi_startproc
 731              		@ args = 0, pretend = 0, frame = 0
 732              		@ frame_needed = 0, uses_anonymous_args = 0
 733              	.LVL114:
 734 0000 08B5     		push	{r3, lr}
 735              		.cfi_def_cfa_offset 8
 736              		.cfi_offset 3, -8
 737              		.cfi_offset 14, -4
 738              	.LVL115:
 595:led_manager.c **** 	uint8_t bit = 0x01;
 596:led_manager.c **** 	if(bool == 1) 	//led on
 739              		.loc 1 596 0
 740 0002 0128     		cmp	r0, #1
 741 0004 05D1     		bne	.L48
 597:led_manager.c **** 		byte08 = byte08 | bit;
 742              		.loc 1 597 0
 743 0006 0C4A     		ldr	r2, .L51
 744 0008 D378     		ldrb	r3, [r2, #3]	@ zero_extendqisi2
 745 000a 43F00103 		orr	r3, r3, #1
 746 000e D370     		strb	r3, [r2, #3]
 747 0010 04E0     		b	.L49
 748              	.L48:
 598:led_manager.c **** 	else			//led off
 599:led_manager.c **** 		byte08 = byte08 & ~bit;
 749              		.loc 1 599 0
 750 0012 094A     		ldr	r2, .L51
 751 0014 D378     		ldrb	r3, [r2, #3]	@ zero_extendqisi2
 752 0016 23F00103 		bic	r3, r3, #1
 753 001a D370     		strb	r3, [r2, #3]
 754              	.L49:
 600:led_manager.c **** 	
 601:led_manager.c **** 	LED_Driver1_MasterSendStart(LED_ADDR, 0);
 755              		.loc 1 601 0
 756 001c 4020     		movs	r0, #64
 757              	.LVL116:
 758 001e 0021     		movs	r1, #0
 759 0020 FFF7FEFF 		bl	LED_Driver1_MasterSendStart
 760              	.LVL117:
 602:led_manager.c **** 	LED_Driver1_MasterWriteByte(LED08);		//move to LED addr
 761              		.loc 1 602 0
 762 0024 0820     		movs	r0, #8
 763 0026 FFF7FEFF 		bl	LED_Driver1_MasterWriteByte
 764              	.LVL118:
 603:led_manager.c **** 	LED_Driver1_MasterWriteByte(byte08);	//write byte to addr
 765              		.loc 1 603 0
 766 002a 034B     		ldr	r3, .L51
 767 002c D878     		ldrb	r0, [r3, #3]	@ zero_extendqisi2
 768 002e FFF7FEFF 		bl	LED_Driver1_MasterWriteByte
 769              	.LVL119:
 604:led_manager.c **** 	LED_Driver1_MasterSendStop();
 770              		.loc 1 604 0
 771 0032 FFF7FEFF 		bl	LED_Driver1_MasterSendStop
 772              	.LVL120:
 773 0036 08BD     		pop	{r3, pc}
 774              	.L52:
 775              		.align	2
 776              	.L51:
ARM GAS  D:\Windows\AppData\Local\Temp\cc9YXq6z.s 			page 26


 777 0038 00000000 		.word	.LANCHOR0
 778              		.cfi_endproc
 779              	.LFE84:
 780              		.size	d7_write, .-d7_write
 781              		.section	.text.d8_write,"ax",%progbits
 782              		.align	2
 783              		.global	d8_write
 784              		.thumb
 785              		.thumb_func
 786              		.type	d8_write, %function
 787              	d8_write:
 788              	.LFB85:
 605:led_manager.c **** }
 606:led_manager.c **** void d8_write(int bool) {
 789              		.loc 1 606 0
 790              		.cfi_startproc
 791              		@ args = 0, pretend = 0, frame = 0
 792              		@ frame_needed = 0, uses_anonymous_args = 0
 793              	.LVL121:
 794 0000 08B5     		push	{r3, lr}
 795              		.cfi_def_cfa_offset 8
 796              		.cfi_offset 3, -8
 797              		.cfi_offset 14, -4
 798              	.LVL122:
 607:led_manager.c **** 	uint8_t bit = 0x10;
 608:led_manager.c **** 	if(bool == 1) 	//led on
 799              		.loc 1 608 0
 800 0002 0128     		cmp	r0, #1
 801 0004 05D1     		bne	.L54
 609:led_manager.c **** 		byte08 = byte08 | bit;
 802              		.loc 1 609 0
 803 0006 0C4A     		ldr	r2, .L57
 804 0008 D378     		ldrb	r3, [r2, #3]	@ zero_extendqisi2
 805 000a 43F01003 		orr	r3, r3, #16
 806 000e D370     		strb	r3, [r2, #3]
 807 0010 04E0     		b	.L55
 808              	.L54:
 610:led_manager.c **** 	else			//led off
 611:led_manager.c **** 		byte08 = byte08 & ~bit;
 809              		.loc 1 611 0
 810 0012 094A     		ldr	r2, .L57
 811 0014 D378     		ldrb	r3, [r2, #3]	@ zero_extendqisi2
 812 0016 23F01003 		bic	r3, r3, #16
 813 001a D370     		strb	r3, [r2, #3]
 814              	.L55:
 612:led_manager.c **** 	
 613:led_manager.c **** 	LED_Driver1_MasterSendStart(LED_ADDR, 0);
 815              		.loc 1 613 0
 816 001c 4020     		movs	r0, #64
 817              	.LVL123:
 818 001e 0021     		movs	r1, #0
 819 0020 FFF7FEFF 		bl	LED_Driver1_MasterSendStart
 820              	.LVL124:
 614:led_manager.c **** 	LED_Driver1_MasterWriteByte(LED08);		//move to LED addr
 821              		.loc 1 614 0
 822 0024 0820     		movs	r0, #8
 823 0026 FFF7FEFF 		bl	LED_Driver1_MasterWriteByte
ARM GAS  D:\Windows\AppData\Local\Temp\cc9YXq6z.s 			page 27


 824              	.LVL125:
 615:led_manager.c **** 	LED_Driver1_MasterWriteByte(byte08);	//write byte to addr
 825              		.loc 1 615 0
 826 002a 034B     		ldr	r3, .L57
 827 002c D878     		ldrb	r0, [r3, #3]	@ zero_extendqisi2
 828 002e FFF7FEFF 		bl	LED_Driver1_MasterWriteByte
 829              	.LVL126:
 616:led_manager.c **** 	LED_Driver1_MasterSendStop();
 830              		.loc 1 616 0
 831 0032 FFF7FEFF 		bl	LED_Driver1_MasterSendStop
 832              	.LVL127:
 833 0036 08BD     		pop	{r3, pc}
 834              	.L58:
 835              		.align	2
 836              	.L57:
 837 0038 00000000 		.word	.LANCHOR0
 838              		.cfi_endproc
 839              	.LFE85:
 840              		.size	d8_write, .-d8_write
 841              		.section	.text.d9_write,"ax",%progbits
 842              		.align	2
 843              		.global	d9_write
 844              		.thumb
 845              		.thumb_func
 846              		.type	d9_write, %function
 847              	d9_write:
 848              	.LFB86:
 617:led_manager.c **** }
 618:led_manager.c **** void d9_write(int bool) {
 849              		.loc 1 618 0
 850              		.cfi_startproc
 851              		@ args = 0, pretend = 0, frame = 0
 852              		@ frame_needed = 0, uses_anonymous_args = 0
 853              	.LVL128:
 854 0000 08B5     		push	{r3, lr}
 855              		.cfi_def_cfa_offset 8
 856              		.cfi_offset 3, -8
 857              		.cfi_offset 14, -4
 858              	.LVL129:
 619:led_manager.c **** 	uint8_t bit = 0x02;
 620:led_manager.c **** 	if(bool == 1) 	//led on
 859              		.loc 1 620 0
 860 0002 0128     		cmp	r0, #1
 861 0004 05D1     		bne	.L60
 621:led_manager.c **** 		byte05 = byte05 | bit;
 862              		.loc 1 621 0
 863 0006 0C4A     		ldr	r2, .L63
 864 0008 1378     		ldrb	r3, [r2]	@ zero_extendqisi2
 865 000a 43F00203 		orr	r3, r3, #2
 866 000e 1370     		strb	r3, [r2]
 867 0010 04E0     		b	.L61
 868              	.L60:
 622:led_manager.c **** 	else			//led off
 623:led_manager.c **** 		byte05 = byte05 & ~bit;
 869              		.loc 1 623 0
 870 0012 094A     		ldr	r2, .L63
 871 0014 1378     		ldrb	r3, [r2]	@ zero_extendqisi2
ARM GAS  D:\Windows\AppData\Local\Temp\cc9YXq6z.s 			page 28


 872 0016 23F00203 		bic	r3, r3, #2
 873 001a 1370     		strb	r3, [r2]
 874              	.L61:
 624:led_manager.c **** 	
 625:led_manager.c **** 	LED_Driver1_MasterSendStart(LED_ADDR, 0);
 875              		.loc 1 625 0
 876 001c 4020     		movs	r0, #64
 877              	.LVL130:
 878 001e 0021     		movs	r1, #0
 879 0020 FFF7FEFF 		bl	LED_Driver1_MasterSendStart
 880              	.LVL131:
 626:led_manager.c **** 	LED_Driver1_MasterWriteByte(LED05);		//move to LED addr
 881              		.loc 1 626 0
 882 0024 0520     		movs	r0, #5
 883 0026 FFF7FEFF 		bl	LED_Driver1_MasterWriteByte
 884              	.LVL132:
 627:led_manager.c **** 	LED_Driver1_MasterWriteByte(byte05);	//write byte to addr
 885              		.loc 1 627 0
 886 002a 034B     		ldr	r3, .L63
 887 002c 1878     		ldrb	r0, [r3]	@ zero_extendqisi2
 888 002e FFF7FEFF 		bl	LED_Driver1_MasterWriteByte
 889              	.LVL133:
 628:led_manager.c **** 	LED_Driver1_MasterSendStop();
 890              		.loc 1 628 0
 891 0032 FFF7FEFF 		bl	LED_Driver1_MasterSendStop
 892              	.LVL134:
 893 0036 08BD     		pop	{r3, pc}
 894              	.L64:
 895              		.align	2
 896              	.L63:
 897 0038 00000000 		.word	.LANCHOR0
 898              		.cfi_endproc
 899              	.LFE86:
 900              		.size	d9_write, .-d9_write
 901              		.section	.text.d10_write,"ax",%progbits
 902              		.align	2
 903              		.global	d10_write
 904              		.thumb
 905              		.thumb_func
 906              		.type	d10_write, %function
 907              	d10_write:
 908              	.LFB87:
 629:led_manager.c **** }
 630:led_manager.c **** void d10_write(int bool) {
 909              		.loc 1 630 0
 910              		.cfi_startproc
 911              		@ args = 0, pretend = 0, frame = 0
 912              		@ frame_needed = 0, uses_anonymous_args = 0
 913              	.LVL135:
 914 0000 08B5     		push	{r3, lr}
 915              		.cfi_def_cfa_offset 8
 916              		.cfi_offset 3, -8
 917              		.cfi_offset 14, -4
 918              	.LVL136:
 631:led_manager.c **** 	uint8_t bit = 0x20;
 632:led_manager.c **** 	if(bool == 1) 	//led on
 919              		.loc 1 632 0
ARM GAS  D:\Windows\AppData\Local\Temp\cc9YXq6z.s 			page 29


 920 0002 0128     		cmp	r0, #1
 921 0004 05D1     		bne	.L66
 633:led_manager.c **** 		byte05 = byte05 | bit;
 922              		.loc 1 633 0
 923 0006 0C4A     		ldr	r2, .L69
 924 0008 1378     		ldrb	r3, [r2]	@ zero_extendqisi2
 925 000a 43F02003 		orr	r3, r3, #32
 926 000e 1370     		strb	r3, [r2]
 927 0010 04E0     		b	.L67
 928              	.L66:
 634:led_manager.c **** 	else			//led off
 635:led_manager.c **** 		byte05 = byte05 & ~bit;
 929              		.loc 1 635 0
 930 0012 094A     		ldr	r2, .L69
 931 0014 1378     		ldrb	r3, [r2]	@ zero_extendqisi2
 932 0016 23F02003 		bic	r3, r3, #32
 933 001a 1370     		strb	r3, [r2]
 934              	.L67:
 636:led_manager.c **** 	
 637:led_manager.c **** 	LED_Driver1_MasterSendStart(LED_ADDR, 0);
 935              		.loc 1 637 0
 936 001c 4020     		movs	r0, #64
 937              	.LVL137:
 938 001e 0021     		movs	r1, #0
 939 0020 FFF7FEFF 		bl	LED_Driver1_MasterSendStart
 940              	.LVL138:
 638:led_manager.c **** 	LED_Driver1_MasterWriteByte(LED05);		//move to LED addr
 941              		.loc 1 638 0
 942 0024 0520     		movs	r0, #5
 943 0026 FFF7FEFF 		bl	LED_Driver1_MasterWriteByte
 944              	.LVL139:
 639:led_manager.c **** 	LED_Driver1_MasterWriteByte(byte05);	//write byte to addr
 945              		.loc 1 639 0
 946 002a 034B     		ldr	r3, .L69
 947 002c 1878     		ldrb	r0, [r3]	@ zero_extendqisi2
 948 002e FFF7FEFF 		bl	LED_Driver1_MasterWriteByte
 949              	.LVL140:
 640:led_manager.c **** 	LED_Driver1_MasterSendStop();
 950              		.loc 1 640 0
 951 0032 FFF7FEFF 		bl	LED_Driver1_MasterSendStop
 952              	.LVL141:
 953 0036 08BD     		pop	{r3, pc}
 954              	.L70:
 955              		.align	2
 956              	.L69:
 957 0038 00000000 		.word	.LANCHOR0
 958              		.cfi_endproc
 959              	.LFE87:
 960              		.size	d10_write, .-d10_write
 961              		.section	.text.d11_write,"ax",%progbits
 962              		.align	2
 963              		.global	d11_write
 964              		.thumb
 965              		.thumb_func
 966              		.type	d11_write, %function
 967              	d11_write:
 968              	.LFB88:
ARM GAS  D:\Windows\AppData\Local\Temp\cc9YXq6z.s 			page 30


 641:led_manager.c **** }
 642:led_manager.c **** void d11_write(int bool) {
 969              		.loc 1 642 0
 970              		.cfi_startproc
 971              		@ args = 0, pretend = 0, frame = 0
 972              		@ frame_needed = 0, uses_anonymous_args = 0
 973              	.LVL142:
 974 0000 08B5     		push	{r3, lr}
 975              		.cfi_def_cfa_offset 8
 976              		.cfi_offset 3, -8
 977              		.cfi_offset 14, -4
 978              	.LVL143:
 643:led_manager.c **** 	uint8_t bit = 0x02;
 644:led_manager.c **** 	if(bool == 1) 	//led on
 979              		.loc 1 644 0
 980 0002 0128     		cmp	r0, #1
 981 0004 05D1     		bne	.L72
 645:led_manager.c **** 		byte06 = byte06 | bit;
 982              		.loc 1 645 0
 983 0006 0C4A     		ldr	r2, .L75
 984 0008 5378     		ldrb	r3, [r2, #1]	@ zero_extendqisi2
 985 000a 43F00203 		orr	r3, r3, #2
 986 000e 5370     		strb	r3, [r2, #1]
 987 0010 04E0     		b	.L73
 988              	.L72:
 646:led_manager.c **** 	else			//led off
 647:led_manager.c **** 		byte06 = byte06 & ~bit;
 989              		.loc 1 647 0
 990 0012 094A     		ldr	r2, .L75
 991 0014 5378     		ldrb	r3, [r2, #1]	@ zero_extendqisi2
 992 0016 23F00203 		bic	r3, r3, #2
 993 001a 5370     		strb	r3, [r2, #1]
 994              	.L73:
 648:led_manager.c **** 	
 649:led_manager.c **** 	LED_Driver1_MasterSendStart(LED_ADDR, 0);
 995              		.loc 1 649 0
 996 001c 4020     		movs	r0, #64
 997              	.LVL144:
 998 001e 0021     		movs	r1, #0
 999 0020 FFF7FEFF 		bl	LED_Driver1_MasterSendStart
 1000              	.LVL145:
 650:led_manager.c **** 	LED_Driver1_MasterWriteByte(LED06);		//move to LED addr
 1001              		.loc 1 650 0
 1002 0024 0620     		movs	r0, #6
 1003 0026 FFF7FEFF 		bl	LED_Driver1_MasterWriteByte
 1004              	.LVL146:
 651:led_manager.c **** 	LED_Driver1_MasterWriteByte(byte06);	//write byte to addr
 1005              		.loc 1 651 0
 1006 002a 034B     		ldr	r3, .L75
 1007 002c 5878     		ldrb	r0, [r3, #1]	@ zero_extendqisi2
 1008 002e FFF7FEFF 		bl	LED_Driver1_MasterWriteByte
 1009              	.LVL147:
 652:led_manager.c **** 	LED_Driver1_MasterSendStop();
 1010              		.loc 1 652 0
 1011 0032 FFF7FEFF 		bl	LED_Driver1_MasterSendStop
 1012              	.LVL148:
 1013 0036 08BD     		pop	{r3, pc}
ARM GAS  D:\Windows\AppData\Local\Temp\cc9YXq6z.s 			page 31


 1014              	.L76:
 1015              		.align	2
 1016              	.L75:
 1017 0038 00000000 		.word	.LANCHOR0
 1018              		.cfi_endproc
 1019              	.LFE88:
 1020              		.size	d11_write, .-d11_write
 1021              		.section	.text.d12_write,"ax",%progbits
 1022              		.align	2
 1023              		.global	d12_write
 1024              		.thumb
 1025              		.thumb_func
 1026              		.type	d12_write, %function
 1027              	d12_write:
 1028              	.LFB89:
 653:led_manager.c **** }
 654:led_manager.c **** void d12_write(int bool) {
 1029              		.loc 1 654 0
 1030              		.cfi_startproc
 1031              		@ args = 0, pretend = 0, frame = 0
 1032              		@ frame_needed = 0, uses_anonymous_args = 0
 1033              	.LVL149:
 1034 0000 08B5     		push	{r3, lr}
 1035              		.cfi_def_cfa_offset 8
 1036              		.cfi_offset 3, -8
 1037              		.cfi_offset 14, -4
 1038              	.LVL150:
 655:led_manager.c **** 	uint8_t bit = 0x20;
 656:led_manager.c **** 	if(bool == 1) 	//led on
 1039              		.loc 1 656 0
 1040 0002 0128     		cmp	r0, #1
 1041 0004 05D1     		bne	.L78
 657:led_manager.c **** 		byte06 = byte06 | bit;
 1042              		.loc 1 657 0
 1043 0006 0C4A     		ldr	r2, .L81
 1044 0008 5378     		ldrb	r3, [r2, #1]	@ zero_extendqisi2
 1045 000a 43F02003 		orr	r3, r3, #32
 1046 000e 5370     		strb	r3, [r2, #1]
 1047 0010 04E0     		b	.L79
 1048              	.L78:
 658:led_manager.c **** 	else			//led off
 659:led_manager.c **** 		byte06 = byte06 & ~bit;
 1049              		.loc 1 659 0
 1050 0012 094A     		ldr	r2, .L81
 1051 0014 5378     		ldrb	r3, [r2, #1]	@ zero_extendqisi2
 1052 0016 23F02003 		bic	r3, r3, #32
 1053 001a 5370     		strb	r3, [r2, #1]
 1054              	.L79:
 660:led_manager.c **** 	
 661:led_manager.c **** 	LED_Driver1_MasterSendStart(LED_ADDR, 0);
 1055              		.loc 1 661 0
 1056 001c 4020     		movs	r0, #64
 1057              	.LVL151:
 1058 001e 0021     		movs	r1, #0
 1059 0020 FFF7FEFF 		bl	LED_Driver1_MasterSendStart
 1060              	.LVL152:
 662:led_manager.c **** 	LED_Driver1_MasterWriteByte(LED06);		//move to LED addr
ARM GAS  D:\Windows\AppData\Local\Temp\cc9YXq6z.s 			page 32


 1061              		.loc 1 662 0
 1062 0024 0620     		movs	r0, #6
 1063 0026 FFF7FEFF 		bl	LED_Driver1_MasterWriteByte
 1064              	.LVL153:
 663:led_manager.c **** 	LED_Driver1_MasterWriteByte(byte06);	//write byte to addr
 1065              		.loc 1 663 0
 1066 002a 034B     		ldr	r3, .L81
 1067 002c 5878     		ldrb	r0, [r3, #1]	@ zero_extendqisi2
 1068 002e FFF7FEFF 		bl	LED_Driver1_MasterWriteByte
 1069              	.LVL154:
 664:led_manager.c **** 	LED_Driver1_MasterSendStop();
 1070              		.loc 1 664 0
 1071 0032 FFF7FEFF 		bl	LED_Driver1_MasterSendStop
 1072              	.LVL155:
 1073 0036 08BD     		pop	{r3, pc}
 1074              	.L82:
 1075              		.align	2
 1076              	.L81:
 1077 0038 00000000 		.word	.LANCHOR0
 1078              		.cfi_endproc
 1079              	.LFE89:
 1080              		.size	d12_write, .-d12_write
 1081              		.section	.text.d13_write,"ax",%progbits
 1082              		.align	2
 1083              		.global	d13_write
 1084              		.thumb
 1085              		.thumb_func
 1086              		.type	d13_write, %function
 1087              	d13_write:
 1088              	.LFB90:
 665:led_manager.c **** }
 666:led_manager.c **** void d13_write(int bool) {
 1089              		.loc 1 666 0
 1090              		.cfi_startproc
 1091              		@ args = 0, pretend = 0, frame = 0
 1092              		@ frame_needed = 0, uses_anonymous_args = 0
 1093              	.LVL156:
 1094 0000 08B5     		push	{r3, lr}
 1095              		.cfi_def_cfa_offset 8
 1096              		.cfi_offset 3, -8
 1097              		.cfi_offset 14, -4
 1098              	.LVL157:
 667:led_manager.c **** 	uint8_t bit = 0x02;
 668:led_manager.c **** 	if(bool == 1) 	//led on
 1099              		.loc 1 668 0
 1100 0002 0128     		cmp	r0, #1
 1101 0004 05D1     		bne	.L84
 669:led_manager.c **** 		byte07 = byte07 | bit;
 1102              		.loc 1 669 0
 1103 0006 0C4A     		ldr	r2, .L87
 1104 0008 9378     		ldrb	r3, [r2, #2]	@ zero_extendqisi2
 1105 000a 43F00203 		orr	r3, r3, #2
 1106 000e 9370     		strb	r3, [r2, #2]
 1107 0010 04E0     		b	.L85
 1108              	.L84:
 670:led_manager.c **** 	else			//led off
 671:led_manager.c **** 		byte07 = byte07 & ~bit;
ARM GAS  D:\Windows\AppData\Local\Temp\cc9YXq6z.s 			page 33


 1109              		.loc 1 671 0
 1110 0012 094A     		ldr	r2, .L87
 1111 0014 9378     		ldrb	r3, [r2, #2]	@ zero_extendqisi2
 1112 0016 23F00203 		bic	r3, r3, #2
 1113 001a 9370     		strb	r3, [r2, #2]
 1114              	.L85:
 672:led_manager.c **** 	
 673:led_manager.c **** 	LED_Driver1_MasterSendStart(LED_ADDR, 0);
 1115              		.loc 1 673 0
 1116 001c 4020     		movs	r0, #64
 1117              	.LVL158:
 1118 001e 0021     		movs	r1, #0
 1119 0020 FFF7FEFF 		bl	LED_Driver1_MasterSendStart
 1120              	.LVL159:
 674:led_manager.c **** 	LED_Driver1_MasterWriteByte(LED07);		//move to LED addr
 1121              		.loc 1 674 0
 1122 0024 0720     		movs	r0, #7
 1123 0026 FFF7FEFF 		bl	LED_Driver1_MasterWriteByte
 1124              	.LVL160:
 675:led_manager.c **** 	LED_Driver1_MasterWriteByte(byte07);	//write byte to addr
 1125              		.loc 1 675 0
 1126 002a 034B     		ldr	r3, .L87
 1127 002c 9878     		ldrb	r0, [r3, #2]	@ zero_extendqisi2
 1128 002e FFF7FEFF 		bl	LED_Driver1_MasterWriteByte
 1129              	.LVL161:
 676:led_manager.c **** 	LED_Driver1_MasterSendStop();
 1130              		.loc 1 676 0
 1131 0032 FFF7FEFF 		bl	LED_Driver1_MasterSendStop
 1132              	.LVL162:
 1133 0036 08BD     		pop	{r3, pc}
 1134              	.L88:
 1135              		.align	2
 1136              	.L87:
 1137 0038 00000000 		.word	.LANCHOR0
 1138              		.cfi_endproc
 1139              	.LFE90:
 1140              		.size	d13_write, .-d13_write
 1141              		.section	.text.d14_write,"ax",%progbits
 1142              		.align	2
 1143              		.global	d14_write
 1144              		.thumb
 1145              		.thumb_func
 1146              		.type	d14_write, %function
 1147              	d14_write:
 1148              	.LFB91:
 677:led_manager.c **** }
 678:led_manager.c **** void d14_write(int bool) {
 1149              		.loc 1 678 0
 1150              		.cfi_startproc
 1151              		@ args = 0, pretend = 0, frame = 0
 1152              		@ frame_needed = 0, uses_anonymous_args = 0
 1153              	.LVL163:
 1154 0000 08B5     		push	{r3, lr}
 1155              		.cfi_def_cfa_offset 8
 1156              		.cfi_offset 3, -8
 1157              		.cfi_offset 14, -4
 1158              	.LVL164:
ARM GAS  D:\Windows\AppData\Local\Temp\cc9YXq6z.s 			page 34


 679:led_manager.c **** 	uint8_t bit = 0x20;
 680:led_manager.c **** 	if(bool == 1) 	//led on
 1159              		.loc 1 680 0
 1160 0002 0128     		cmp	r0, #1
 1161 0004 05D1     		bne	.L90
 681:led_manager.c **** 		byte07 = byte07 | bit;
 1162              		.loc 1 681 0
 1163 0006 0C4A     		ldr	r2, .L93
 1164 0008 9378     		ldrb	r3, [r2, #2]	@ zero_extendqisi2
 1165 000a 43F02003 		orr	r3, r3, #32
 1166 000e 9370     		strb	r3, [r2, #2]
 1167 0010 04E0     		b	.L91
 1168              	.L90:
 682:led_manager.c **** 	else			//led off
 683:led_manager.c **** 		byte07 = byte07 & ~bit;
 1169              		.loc 1 683 0
 1170 0012 094A     		ldr	r2, .L93
 1171 0014 9378     		ldrb	r3, [r2, #2]	@ zero_extendqisi2
 1172 0016 23F02003 		bic	r3, r3, #32
 1173 001a 9370     		strb	r3, [r2, #2]
 1174              	.L91:
 684:led_manager.c **** 	
 685:led_manager.c **** 	LED_Driver1_MasterSendStart(LED_ADDR, 0);
 1175              		.loc 1 685 0
 1176 001c 4020     		movs	r0, #64
 1177              	.LVL165:
 1178 001e 0021     		movs	r1, #0
 1179 0020 FFF7FEFF 		bl	LED_Driver1_MasterSendStart
 1180              	.LVL166:
 686:led_manager.c **** 	LED_Driver1_MasterWriteByte(LED07);		//move to LED addr
 1181              		.loc 1 686 0
 1182 0024 0720     		movs	r0, #7
 1183 0026 FFF7FEFF 		bl	LED_Driver1_MasterWriteByte
 1184              	.LVL167:
 687:led_manager.c **** 	LED_Driver1_MasterWriteByte(byte07);	//write byte to addr
 1185              		.loc 1 687 0
 1186 002a 034B     		ldr	r3, .L93
 1187 002c 9878     		ldrb	r0, [r3, #2]	@ zero_extendqisi2
 1188 002e FFF7FEFF 		bl	LED_Driver1_MasterWriteByte
 1189              	.LVL168:
 688:led_manager.c **** 	LED_Driver1_MasterSendStop();
 1190              		.loc 1 688 0
 1191 0032 FFF7FEFF 		bl	LED_Driver1_MasterSendStop
 1192              	.LVL169:
 1193 0036 08BD     		pop	{r3, pc}
 1194              	.L94:
 1195              		.align	2
 1196              	.L93:
 1197 0038 00000000 		.word	.LANCHOR0
 1198              		.cfi_endproc
 1199              	.LFE91:
 1200              		.size	d14_write, .-d14_write
 1201              		.section	.text.d15_write,"ax",%progbits
 1202              		.align	2
 1203              		.global	d15_write
 1204              		.thumb
 1205              		.thumb_func
ARM GAS  D:\Windows\AppData\Local\Temp\cc9YXq6z.s 			page 35


 1206              		.type	d15_write, %function
 1207              	d15_write:
 1208              	.LFB92:
 689:led_manager.c **** }
 690:led_manager.c **** void d15_write(int bool) {
 1209              		.loc 1 690 0
 1210              		.cfi_startproc
 1211              		@ args = 0, pretend = 0, frame = 0
 1212              		@ frame_needed = 0, uses_anonymous_args = 0
 1213              	.LVL170:
 1214 0000 08B5     		push	{r3, lr}
 1215              		.cfi_def_cfa_offset 8
 1216              		.cfi_offset 3, -8
 1217              		.cfi_offset 14, -4
 1218              	.LVL171:
 691:led_manager.c **** 	uint8_t bit = 0x02;
 692:led_manager.c **** 	if(bool == 1) 	//led on
 1219              		.loc 1 692 0
 1220 0002 0128     		cmp	r0, #1
 1221 0004 05D1     		bne	.L96
 693:led_manager.c **** 		byte08 = byte08 | bit;
 1222              		.loc 1 693 0
 1223 0006 0C4A     		ldr	r2, .L99
 1224 0008 D378     		ldrb	r3, [r2, #3]	@ zero_extendqisi2
 1225 000a 43F00203 		orr	r3, r3, #2
 1226 000e D370     		strb	r3, [r2, #3]
 1227 0010 04E0     		b	.L97
 1228              	.L96:
 694:led_manager.c **** 	else			//led off
 695:led_manager.c **** 		byte08 = byte08 & ~bit;
 1229              		.loc 1 695 0
 1230 0012 094A     		ldr	r2, .L99
 1231 0014 D378     		ldrb	r3, [r2, #3]	@ zero_extendqisi2
 1232 0016 23F00203 		bic	r3, r3, #2
 1233 001a D370     		strb	r3, [r2, #3]
 1234              	.L97:
 696:led_manager.c **** 	
 697:led_manager.c **** 	LED_Driver1_MasterSendStart(LED_ADDR, 0);
 1235              		.loc 1 697 0
 1236 001c 4020     		movs	r0, #64
 1237              	.LVL172:
 1238 001e 0021     		movs	r1, #0
 1239 0020 FFF7FEFF 		bl	LED_Driver1_MasterSendStart
 1240              	.LVL173:
 698:led_manager.c **** 	LED_Driver1_MasterWriteByte(LED08);		//move to LED addr
 1241              		.loc 1 698 0
 1242 0024 0820     		movs	r0, #8
 1243 0026 FFF7FEFF 		bl	LED_Driver1_MasterWriteByte
 1244              	.LVL174:
 699:led_manager.c **** 	LED_Driver1_MasterWriteByte(byte08);	//write byte to addr
 1245              		.loc 1 699 0
 1246 002a 034B     		ldr	r3, .L99
 1247 002c D878     		ldrb	r0, [r3, #3]	@ zero_extendqisi2
 1248 002e FFF7FEFF 		bl	LED_Driver1_MasterWriteByte
 1249              	.LVL175:
 700:led_manager.c **** 	LED_Driver1_MasterSendStop();
 1250              		.loc 1 700 0
ARM GAS  D:\Windows\AppData\Local\Temp\cc9YXq6z.s 			page 36


 1251 0032 FFF7FEFF 		bl	LED_Driver1_MasterSendStop
 1252              	.LVL176:
 1253 0036 08BD     		pop	{r3, pc}
 1254              	.L100:
 1255              		.align	2
 1256              	.L99:
 1257 0038 00000000 		.word	.LANCHOR0
 1258              		.cfi_endproc
 1259              	.LFE92:
 1260              		.size	d15_write, .-d15_write
 1261              		.section	.text.d16_write,"ax",%progbits
 1262              		.align	2
 1263              		.global	d16_write
 1264              		.thumb
 1265              		.thumb_func
 1266              		.type	d16_write, %function
 1267              	d16_write:
 1268              	.LFB93:
 701:led_manager.c **** }
 702:led_manager.c **** void d16_write(int bool) {
 1269              		.loc 1 702 0
 1270              		.cfi_startproc
 1271              		@ args = 0, pretend = 0, frame = 0
 1272              		@ frame_needed = 0, uses_anonymous_args = 0
 1273              	.LVL177:
 1274 0000 08B5     		push	{r3, lr}
 1275              		.cfi_def_cfa_offset 8
 1276              		.cfi_offset 3, -8
 1277              		.cfi_offset 14, -4
 1278              	.LVL178:
 703:led_manager.c **** 	uint8_t bit = 0x20;
 704:led_manager.c **** 	if(bool == 1) 	//led on
 1279              		.loc 1 704 0
 1280 0002 0128     		cmp	r0, #1
 1281 0004 05D1     		bne	.L102
 705:led_manager.c **** 		byte08 = byte08 | bit;
 1282              		.loc 1 705 0
 1283 0006 0C4A     		ldr	r2, .L105
 1284 0008 D378     		ldrb	r3, [r2, #3]	@ zero_extendqisi2
 1285 000a 43F02003 		orr	r3, r3, #32
 1286 000e D370     		strb	r3, [r2, #3]
 1287 0010 04E0     		b	.L103
 1288              	.L102:
 706:led_manager.c **** 	else			//led off
 707:led_manager.c **** 		byte08 = byte08 & ~bit;
 1289              		.loc 1 707 0
 1290 0012 094A     		ldr	r2, .L105
 1291 0014 D378     		ldrb	r3, [r2, #3]	@ zero_extendqisi2
 1292 0016 23F02003 		bic	r3, r3, #32
 1293 001a D370     		strb	r3, [r2, #3]
 1294              	.L103:
 708:led_manager.c **** 	
 709:led_manager.c **** 	LED_Driver1_MasterSendStart(LED_ADDR, 0);
 1295              		.loc 1 709 0
 1296 001c 4020     		movs	r0, #64
 1297              	.LVL179:
 1298 001e 0021     		movs	r1, #0
ARM GAS  D:\Windows\AppData\Local\Temp\cc9YXq6z.s 			page 37


 1299 0020 FFF7FEFF 		bl	LED_Driver1_MasterSendStart
 1300              	.LVL180:
 710:led_manager.c **** 	LED_Driver1_MasterWriteByte(LED08);		//move to LED addr
 1301              		.loc 1 710 0
 1302 0024 0820     		movs	r0, #8
 1303 0026 FFF7FEFF 		bl	LED_Driver1_MasterWriteByte
 1304              	.LVL181:
 711:led_manager.c **** 	LED_Driver1_MasterWriteByte(byte08);	//write byte to addr
 1305              		.loc 1 711 0
 1306 002a 034B     		ldr	r3, .L105
 1307 002c D878     		ldrb	r0, [r3, #3]	@ zero_extendqisi2
 1308 002e FFF7FEFF 		bl	LED_Driver1_MasterWriteByte
 1309              	.LVL182:
 712:led_manager.c **** 	LED_Driver1_MasterSendStop();
 1310              		.loc 1 712 0
 1311 0032 FFF7FEFF 		bl	LED_Driver1_MasterSendStop
 1312              	.LVL183:
 1313 0036 08BD     		pop	{r3, pc}
 1314              	.L106:
 1315              		.align	2
 1316              	.L105:
 1317 0038 00000000 		.word	.LANCHOR0
 1318              		.cfi_endproc
 1319              	.LFE93:
 1320              		.size	d16_write, .-d16_write
 1321              		.section	.text.d17_write,"ax",%progbits
 1322              		.align	2
 1323              		.global	d17_write
 1324              		.thumb
 1325              		.thumb_func
 1326              		.type	d17_write, %function
 1327              	d17_write:
 1328              	.LFB94:
 713:led_manager.c **** }
 714:led_manager.c **** void d17_write(int bool) {
 1329              		.loc 1 714 0
 1330              		.cfi_startproc
 1331              		@ args = 0, pretend = 0, frame = 0
 1332              		@ frame_needed = 0, uses_anonymous_args = 0
 1333              	.LVL184:
 1334 0000 08B5     		push	{r3, lr}
 1335              		.cfi_def_cfa_offset 8
 1336              		.cfi_offset 3, -8
 1337              		.cfi_offset 14, -4
 1338              	.LVL185:
 715:led_manager.c **** 	uint8_t bit = 0x04;
 716:led_manager.c **** 	if(bool == 1) 	//led on
 1339              		.loc 1 716 0
 1340 0002 0128     		cmp	r0, #1
 1341 0004 05D1     		bne	.L108
 717:led_manager.c **** 		byte05 = byte05 | bit;
 1342              		.loc 1 717 0
 1343 0006 0C4A     		ldr	r2, .L111
 1344 0008 1378     		ldrb	r3, [r2]	@ zero_extendqisi2
 1345 000a 43F00403 		orr	r3, r3, #4
 1346 000e 1370     		strb	r3, [r2]
 1347 0010 04E0     		b	.L109
ARM GAS  D:\Windows\AppData\Local\Temp\cc9YXq6z.s 			page 38


 1348              	.L108:
 718:led_manager.c **** 	else			//led off
 719:led_manager.c **** 		byte05 = byte05 & ~bit;
 1349              		.loc 1 719 0
 1350 0012 094A     		ldr	r2, .L111
 1351 0014 1378     		ldrb	r3, [r2]	@ zero_extendqisi2
 1352 0016 23F00403 		bic	r3, r3, #4
 1353 001a 1370     		strb	r3, [r2]
 1354              	.L109:
 720:led_manager.c **** 	
 721:led_manager.c **** 	LED_Driver1_MasterSendStart(LED_ADDR, 0);
 1355              		.loc 1 721 0
 1356 001c 4020     		movs	r0, #64
 1357              	.LVL186:
 1358 001e 0021     		movs	r1, #0
 1359 0020 FFF7FEFF 		bl	LED_Driver1_MasterSendStart
 1360              	.LVL187:
 722:led_manager.c **** 	LED_Driver1_MasterWriteByte(LED05);		//move to LED addr
 1361              		.loc 1 722 0
 1362 0024 0520     		movs	r0, #5
 1363 0026 FFF7FEFF 		bl	LED_Driver1_MasterWriteByte
 1364              	.LVL188:
 723:led_manager.c **** 	LED_Driver1_MasterWriteByte(byte05);	//write byte to addr
 1365              		.loc 1 723 0
 1366 002a 034B     		ldr	r3, .L111
 1367 002c 1878     		ldrb	r0, [r3]	@ zero_extendqisi2
 1368 002e FFF7FEFF 		bl	LED_Driver1_MasterWriteByte
 1369              	.LVL189:
 724:led_manager.c **** 	LED_Driver1_MasterSendStop();
 1370              		.loc 1 724 0
 1371 0032 FFF7FEFF 		bl	LED_Driver1_MasterSendStop
 1372              	.LVL190:
 1373 0036 08BD     		pop	{r3, pc}
 1374              	.L112:
 1375              		.align	2
 1376              	.L111:
 1377 0038 00000000 		.word	.LANCHOR0
 1378              		.cfi_endproc
 1379              	.LFE94:
 1380              		.size	d17_write, .-d17_write
 1381              		.section	.text.d18_write,"ax",%progbits
 1382              		.align	2
 1383              		.global	d18_write
 1384              		.thumb
 1385              		.thumb_func
 1386              		.type	d18_write, %function
 1387              	d18_write:
 1388              	.LFB95:
 725:led_manager.c **** }
 726:led_manager.c **** void d18_write(int bool) {
 1389              		.loc 1 726 0
 1390              		.cfi_startproc
 1391              		@ args = 0, pretend = 0, frame = 0
 1392              		@ frame_needed = 0, uses_anonymous_args = 0
 1393              	.LVL191:
 1394 0000 08B5     		push	{r3, lr}
 1395              		.cfi_def_cfa_offset 8
ARM GAS  D:\Windows\AppData\Local\Temp\cc9YXq6z.s 			page 39


 1396              		.cfi_offset 3, -8
 1397              		.cfi_offset 14, -4
 1398              	.LVL192:
 727:led_manager.c **** 	uint8_t bit = 0x40;
 728:led_manager.c **** 	if(bool == 1) 	//led on
 1399              		.loc 1 728 0
 1400 0002 0128     		cmp	r0, #1
 1401 0004 05D1     		bne	.L114
 729:led_manager.c **** 		byte05 = byte05 | bit;
 1402              		.loc 1 729 0
 1403 0006 0C4A     		ldr	r2, .L117
 1404 0008 1378     		ldrb	r3, [r2]	@ zero_extendqisi2
 1405 000a 43F04003 		orr	r3, r3, #64
 1406 000e 1370     		strb	r3, [r2]
 1407 0010 04E0     		b	.L115
 1408              	.L114:
 730:led_manager.c **** 	else			//led off
 731:led_manager.c **** 		byte05 = byte05 & ~bit;
 1409              		.loc 1 731 0
 1410 0012 094A     		ldr	r2, .L117
 1411 0014 1378     		ldrb	r3, [r2]	@ zero_extendqisi2
 1412 0016 23F04003 		bic	r3, r3, #64
 1413 001a 1370     		strb	r3, [r2]
 1414              	.L115:
 732:led_manager.c **** 	
 733:led_manager.c **** 	LED_Driver1_MasterSendStart(LED_ADDR, 0);
 1415              		.loc 1 733 0
 1416 001c 4020     		movs	r0, #64
 1417              	.LVL193:
 1418 001e 0021     		movs	r1, #0
 1419 0020 FFF7FEFF 		bl	LED_Driver1_MasterSendStart
 1420              	.LVL194:
 734:led_manager.c **** 	LED_Driver1_MasterWriteByte(LED05);		//move to LED addr
 1421              		.loc 1 734 0
 1422 0024 0520     		movs	r0, #5
 1423 0026 FFF7FEFF 		bl	LED_Driver1_MasterWriteByte
 1424              	.LVL195:
 735:led_manager.c **** 	LED_Driver1_MasterWriteByte(byte05);	//write byte to addr
 1425              		.loc 1 735 0
 1426 002a 034B     		ldr	r3, .L117
 1427 002c 1878     		ldrb	r0, [r3]	@ zero_extendqisi2
 1428 002e FFF7FEFF 		bl	LED_Driver1_MasterWriteByte
 1429              	.LVL196:
 736:led_manager.c **** 	LED_Driver1_MasterSendStop();
 1430              		.loc 1 736 0
 1431 0032 FFF7FEFF 		bl	LED_Driver1_MasterSendStop
 1432              	.LVL197:
 1433 0036 08BD     		pop	{r3, pc}
 1434              	.L118:
 1435              		.align	2
 1436              	.L117:
 1437 0038 00000000 		.word	.LANCHOR0
 1438              		.cfi_endproc
 1439              	.LFE95:
 1440              		.size	d18_write, .-d18_write
 1441              		.section	.text.d19_write,"ax",%progbits
 1442              		.align	2
ARM GAS  D:\Windows\AppData\Local\Temp\cc9YXq6z.s 			page 40


 1443              		.global	d19_write
 1444              		.thumb
 1445              		.thumb_func
 1446              		.type	d19_write, %function
 1447              	d19_write:
 1448              	.LFB96:
 737:led_manager.c **** }
 738:led_manager.c **** void d19_write(int bool) {
 1449              		.loc 1 738 0
 1450              		.cfi_startproc
 1451              		@ args = 0, pretend = 0, frame = 0
 1452              		@ frame_needed = 0, uses_anonymous_args = 0
 1453              	.LVL198:
 1454 0000 08B5     		push	{r3, lr}
 1455              		.cfi_def_cfa_offset 8
 1456              		.cfi_offset 3, -8
 1457              		.cfi_offset 14, -4
 1458              	.LVL199:
 739:led_manager.c **** 	uint8_t bit = 0x04;
 740:led_manager.c **** 	if(bool == 1) 	//led on
 1459              		.loc 1 740 0
 1460 0002 0128     		cmp	r0, #1
 1461 0004 05D1     		bne	.L120
 741:led_manager.c **** 		byte06 = byte06 | bit;
 1462              		.loc 1 741 0
 1463 0006 0C4A     		ldr	r2, .L123
 1464 0008 5378     		ldrb	r3, [r2, #1]	@ zero_extendqisi2
 1465 000a 43F00403 		orr	r3, r3, #4
 1466 000e 5370     		strb	r3, [r2, #1]
 1467 0010 04E0     		b	.L121
 1468              	.L120:
 742:led_manager.c **** 	else			//led off
 743:led_manager.c **** 		byte06 = byte06 & ~bit;
 1469              		.loc 1 743 0
 1470 0012 094A     		ldr	r2, .L123
 1471 0014 5378     		ldrb	r3, [r2, #1]	@ zero_extendqisi2
 1472 0016 23F00403 		bic	r3, r3, #4
 1473 001a 5370     		strb	r3, [r2, #1]
 1474              	.L121:
 744:led_manager.c **** 	
 745:led_manager.c **** 	LED_Driver1_MasterSendStart(LED_ADDR, 0);
 1475              		.loc 1 745 0
 1476 001c 4020     		movs	r0, #64
 1477              	.LVL200:
 1478 001e 0021     		movs	r1, #0
 1479 0020 FFF7FEFF 		bl	LED_Driver1_MasterSendStart
 1480              	.LVL201:
 746:led_manager.c **** 	LED_Driver1_MasterWriteByte(LED06);		//move to LED addr
 1481              		.loc 1 746 0
 1482 0024 0620     		movs	r0, #6
 1483 0026 FFF7FEFF 		bl	LED_Driver1_MasterWriteByte
 1484              	.LVL202:
 747:led_manager.c **** 	LED_Driver1_MasterWriteByte(byte06);	//write byte to addr
 1485              		.loc 1 747 0
 1486 002a 034B     		ldr	r3, .L123
 1487 002c 5878     		ldrb	r0, [r3, #1]	@ zero_extendqisi2
 1488 002e FFF7FEFF 		bl	LED_Driver1_MasterWriteByte
ARM GAS  D:\Windows\AppData\Local\Temp\cc9YXq6z.s 			page 41


 1489              	.LVL203:
 748:led_manager.c **** 	LED_Driver1_MasterSendStop();
 1490              		.loc 1 748 0
 1491 0032 FFF7FEFF 		bl	LED_Driver1_MasterSendStop
 1492              	.LVL204:
 1493 0036 08BD     		pop	{r3, pc}
 1494              	.L124:
 1495              		.align	2
 1496              	.L123:
 1497 0038 00000000 		.word	.LANCHOR0
 1498              		.cfi_endproc
 1499              	.LFE96:
 1500              		.size	d19_write, .-d19_write
 1501              		.section	.text.led_on,"ax",%progbits
 1502              		.align	2
 1503              		.global	led_on
 1504              		.thumb
 1505              		.thumb_func
 1506              		.type	led_on, %function
 1507              	led_on:
 1508              	.LFB73:
 350:led_manager.c **** 	d1_write(1);
 1509              		.loc 1 350 0
 1510              		.cfi_startproc
 1511              		@ args = 0, pretend = 0, frame = 0
 1512              		@ frame_needed = 0, uses_anonymous_args = 0
 1513 0000 08B5     		push	{r3, lr}
 1514              		.cfi_def_cfa_offset 8
 1515              		.cfi_offset 3, -8
 1516              		.cfi_offset 14, -4
 351:led_manager.c **** 	//d2_write(1);
 1517              		.loc 1 351 0
 1518 0002 0120     		movs	r0, #1
 1519 0004 FFF7FEFF 		bl	d1_write
 1520              	.LVL205:
 364:led_manager.c **** 	d15_write(1);
 1521              		.loc 1 364 0
 1522 0008 0120     		movs	r0, #1
 1523 000a FFF7FEFF 		bl	d14_write
 1524              	.LVL206:
 365:led_manager.c **** 	//d16_write(1);
 1525              		.loc 1 365 0
 1526 000e 0120     		movs	r0, #1
 1527 0010 FFF7FEFF 		bl	d15_write
 1528              	.LVL207:
 369:led_manager.c **** 	//d20_write(1);
 1529              		.loc 1 369 0
 1530 0014 0120     		movs	r0, #1
 1531 0016 FFF7FEFF 		bl	d19_write
 1532              	.LVL208:
 1533 001a 08BD     		pop	{r3, pc}
 1534              		.cfi_endproc
 1535              	.LFE73:
 1536              		.size	led_on, .-led_on
 1537              		.section	.text.led_off,"ax",%progbits
 1538              		.align	2
 1539              		.global	led_off
ARM GAS  D:\Windows\AppData\Local\Temp\cc9YXq6z.s 			page 42


 1540              		.thumb
 1541              		.thumb_func
 1542              		.type	led_off, %function
 1543              	led_off:
 1544              	.LFB74:
 401:led_manager.c **** 	d1_write(0);
 1545              		.loc 1 401 0
 1546              		.cfi_startproc
 1547              		@ args = 0, pretend = 0, frame = 0
 1548              		@ frame_needed = 0, uses_anonymous_args = 0
 1549 0000 08B5     		push	{r3, lr}
 1550              		.cfi_def_cfa_offset 8
 1551              		.cfi_offset 3, -8
 1552              		.cfi_offset 14, -4
 402:led_manager.c **** 	//d2_write(0);
 1553              		.loc 1 402 0
 1554 0002 0020     		movs	r0, #0
 1555 0004 FFF7FEFF 		bl	d1_write
 1556              	.LVL209:
 415:led_manager.c **** 	d15_write(0);
 1557              		.loc 1 415 0
 1558 0008 0020     		movs	r0, #0
 1559 000a FFF7FEFF 		bl	d14_write
 1560              	.LVL210:
 416:led_manager.c **** 	//d16_write(0);
 1561              		.loc 1 416 0
 1562 000e 0020     		movs	r0, #0
 1563 0010 FFF7FEFF 		bl	d15_write
 1564              	.LVL211:
 420:led_manager.c **** 	//d20_write(0);
 1565              		.loc 1 420 0
 1566 0014 0020     		movs	r0, #0
 1567 0016 FFF7FEFF 		bl	d19_write
 1568              	.LVL212:
 1569 001a 08BD     		pop	{r3, pc}
 1570              		.cfi_endproc
 1571              	.LFE74:
 1572              		.size	led_off, .-led_off
 1573              		.section	.text.d20_write,"ax",%progbits
 1574              		.align	2
 1575              		.global	d20_write
 1576              		.thumb
 1577              		.thumb_func
 1578              		.type	d20_write, %function
 1579              	d20_write:
 1580              	.LFB97:
 749:led_manager.c **** }
 750:led_manager.c **** void d20_write(int bool) {
 1581              		.loc 1 750 0
 1582              		.cfi_startproc
 1583              		@ args = 0, pretend = 0, frame = 0
 1584              		@ frame_needed = 0, uses_anonymous_args = 0
 1585              	.LVL213:
 1586 0000 08B5     		push	{r3, lr}
 1587              		.cfi_def_cfa_offset 8
 1588              		.cfi_offset 3, -8
 1589              		.cfi_offset 14, -4
ARM GAS  D:\Windows\AppData\Local\Temp\cc9YXq6z.s 			page 43


 1590              	.LVL214:
 751:led_manager.c **** 	uint8_t bit = 0x40;
 752:led_manager.c **** 	if(bool == 1) 	//led on
 1591              		.loc 1 752 0
 1592 0002 0128     		cmp	r0, #1
 1593 0004 05D1     		bne	.L130
 753:led_manager.c **** 		byte06 = byte06 | bit;
 1594              		.loc 1 753 0
 1595 0006 0C4A     		ldr	r2, .L133
 1596 0008 5378     		ldrb	r3, [r2, #1]	@ zero_extendqisi2
 1597 000a 43F04003 		orr	r3, r3, #64
 1598 000e 5370     		strb	r3, [r2, #1]
 1599 0010 04E0     		b	.L131
 1600              	.L130:
 754:led_manager.c **** 	else			//led off
 755:led_manager.c **** 		byte06 = byte06 & ~bit;
 1601              		.loc 1 755 0
 1602 0012 094A     		ldr	r2, .L133
 1603 0014 5378     		ldrb	r3, [r2, #1]	@ zero_extendqisi2
 1604 0016 23F04003 		bic	r3, r3, #64
 1605 001a 5370     		strb	r3, [r2, #1]
 1606              	.L131:
 756:led_manager.c **** 	
 757:led_manager.c **** 	LED_Driver1_MasterSendStart(LED_ADDR, 0);
 1607              		.loc 1 757 0
 1608 001c 4020     		movs	r0, #64
 1609              	.LVL215:
 1610 001e 0021     		movs	r1, #0
 1611 0020 FFF7FEFF 		bl	LED_Driver1_MasterSendStart
 1612              	.LVL216:
 758:led_manager.c **** 	LED_Driver1_MasterWriteByte(LED06);		//move to LED addr
 1613              		.loc 1 758 0
 1614 0024 0620     		movs	r0, #6
 1615 0026 FFF7FEFF 		bl	LED_Driver1_MasterWriteByte
 1616              	.LVL217:
 759:led_manager.c **** 	LED_Driver1_MasterWriteByte(byte06);	//write byte to addr
 1617              		.loc 1 759 0
 1618 002a 034B     		ldr	r3, .L133
 1619 002c 5878     		ldrb	r0, [r3, #1]	@ zero_extendqisi2
 1620 002e FFF7FEFF 		bl	LED_Driver1_MasterWriteByte
 1621              	.LVL218:
 760:led_manager.c **** 	LED_Driver1_MasterSendStop();
 1622              		.loc 1 760 0
 1623 0032 FFF7FEFF 		bl	LED_Driver1_MasterSendStop
 1624              	.LVL219:
 1625 0036 08BD     		pop	{r3, pc}
 1626              	.L134:
 1627              		.align	2
 1628              	.L133:
 1629 0038 00000000 		.word	.LANCHOR0
 1630              		.cfi_endproc
 1631              	.LFE97:
 1632              		.size	d20_write, .-d20_write
 1633              		.section	.text.d21_write,"ax",%progbits
 1634              		.align	2
 1635              		.global	d21_write
 1636              		.thumb
ARM GAS  D:\Windows\AppData\Local\Temp\cc9YXq6z.s 			page 44


 1637              		.thumb_func
 1638              		.type	d21_write, %function
 1639              	d21_write:
 1640              	.LFB98:
 761:led_manager.c **** }
 762:led_manager.c **** void d21_write(int bool) {
 1641              		.loc 1 762 0
 1642              		.cfi_startproc
 1643              		@ args = 0, pretend = 0, frame = 0
 1644              		@ frame_needed = 0, uses_anonymous_args = 0
 1645              	.LVL220:
 1646 0000 08B5     		push	{r3, lr}
 1647              		.cfi_def_cfa_offset 8
 1648              		.cfi_offset 3, -8
 1649              		.cfi_offset 14, -4
 1650              	.LVL221:
 763:led_manager.c **** 	uint8_t bit = 0x04;
 764:led_manager.c **** 	if(bool == 1) 	//led on
 1651              		.loc 1 764 0
 1652 0002 0128     		cmp	r0, #1
 1653 0004 05D1     		bne	.L136
 765:led_manager.c **** 		byte07 = byte07 | bit;
 1654              		.loc 1 765 0
 1655 0006 0C4A     		ldr	r2, .L139
 1656 0008 9378     		ldrb	r3, [r2, #2]	@ zero_extendqisi2
 1657 000a 43F00403 		orr	r3, r3, #4
 1658 000e 9370     		strb	r3, [r2, #2]
 1659 0010 04E0     		b	.L137
 1660              	.L136:
 766:led_manager.c **** 	else			//led off
 767:led_manager.c **** 		byte07 = byte07 & ~bit;
 1661              		.loc 1 767 0
 1662 0012 094A     		ldr	r2, .L139
 1663 0014 9378     		ldrb	r3, [r2, #2]	@ zero_extendqisi2
 1664 0016 23F00403 		bic	r3, r3, #4
 1665 001a 9370     		strb	r3, [r2, #2]
 1666              	.L137:
 768:led_manager.c **** 	
 769:led_manager.c **** 	LED_Driver1_MasterSendStart(LED_ADDR, 0);
 1667              		.loc 1 769 0
 1668 001c 4020     		movs	r0, #64
 1669              	.LVL222:
 1670 001e 0021     		movs	r1, #0
 1671 0020 FFF7FEFF 		bl	LED_Driver1_MasterSendStart
 1672              	.LVL223:
 770:led_manager.c **** 	LED_Driver1_MasterWriteByte(LED07);		//move to LED addr
 1673              		.loc 1 770 0
 1674 0024 0720     		movs	r0, #7
 1675 0026 FFF7FEFF 		bl	LED_Driver1_MasterWriteByte
 1676              	.LVL224:
 771:led_manager.c **** 	LED_Driver1_MasterWriteByte(byte07);	//write byte to addr
 1677              		.loc 1 771 0
 1678 002a 034B     		ldr	r3, .L139
 1679 002c 9878     		ldrb	r0, [r3, #2]	@ zero_extendqisi2
 1680 002e FFF7FEFF 		bl	LED_Driver1_MasterWriteByte
 1681              	.LVL225:
 772:led_manager.c **** 	LED_Driver1_MasterSendStop();
ARM GAS  D:\Windows\AppData\Local\Temp\cc9YXq6z.s 			page 45


 1682              		.loc 1 772 0
 1683 0032 FFF7FEFF 		bl	LED_Driver1_MasterSendStop
 1684              	.LVL226:
 1685 0036 08BD     		pop	{r3, pc}
 1686              	.L140:
 1687              		.align	2
 1688              	.L139:
 1689 0038 00000000 		.word	.LANCHOR0
 1690              		.cfi_endproc
 1691              	.LFE98:
 1692              		.size	d21_write, .-d21_write
 1693              		.section	.text.d22_write,"ax",%progbits
 1694              		.align	2
 1695              		.global	d22_write
 1696              		.thumb
 1697              		.thumb_func
 1698              		.type	d22_write, %function
 1699              	d22_write:
 1700              	.LFB99:
 773:led_manager.c **** }
 774:led_manager.c **** void d22_write(int bool) {
 1701              		.loc 1 774 0
 1702              		.cfi_startproc
 1703              		@ args = 0, pretend = 0, frame = 0
 1704              		@ frame_needed = 0, uses_anonymous_args = 0
 1705              	.LVL227:
 1706 0000 08B5     		push	{r3, lr}
 1707              		.cfi_def_cfa_offset 8
 1708              		.cfi_offset 3, -8
 1709              		.cfi_offset 14, -4
 1710              	.LVL228:
 775:led_manager.c **** 	uint8_t bit = 0x40;
 776:led_manager.c **** 	if(bool == 1) 	//led on
 1711              		.loc 1 776 0
 1712 0002 0128     		cmp	r0, #1
 1713 0004 05D1     		bne	.L142
 777:led_manager.c **** 		byte07 = byte07 | bit;
 1714              		.loc 1 777 0
 1715 0006 0C4A     		ldr	r2, .L145
 1716 0008 9378     		ldrb	r3, [r2, #2]	@ zero_extendqisi2
 1717 000a 43F04003 		orr	r3, r3, #64
 1718 000e 9370     		strb	r3, [r2, #2]
 1719 0010 04E0     		b	.L143
 1720              	.L142:
 778:led_manager.c **** 	else			//led off
 779:led_manager.c **** 		byte07 = byte07 & ~bit;
 1721              		.loc 1 779 0
 1722 0012 094A     		ldr	r2, .L145
 1723 0014 9378     		ldrb	r3, [r2, #2]	@ zero_extendqisi2
 1724 0016 23F04003 		bic	r3, r3, #64
 1725 001a 9370     		strb	r3, [r2, #2]
 1726              	.L143:
 780:led_manager.c **** 	
 781:led_manager.c **** 	LED_Driver1_MasterSendStart(LED_ADDR, 0);
 1727              		.loc 1 781 0
 1728 001c 4020     		movs	r0, #64
 1729              	.LVL229:
ARM GAS  D:\Windows\AppData\Local\Temp\cc9YXq6z.s 			page 46


 1730 001e 0021     		movs	r1, #0
 1731 0020 FFF7FEFF 		bl	LED_Driver1_MasterSendStart
 1732              	.LVL230:
 782:led_manager.c **** 	LED_Driver1_MasterWriteByte(LED07);		//move to LED addr
 1733              		.loc 1 782 0
 1734 0024 0720     		movs	r0, #7
 1735 0026 FFF7FEFF 		bl	LED_Driver1_MasterWriteByte
 1736              	.LVL231:
 783:led_manager.c **** 	LED_Driver1_MasterWriteByte(byte07);	//write byte to addr
 1737              		.loc 1 783 0
 1738 002a 034B     		ldr	r3, .L145
 1739 002c 9878     		ldrb	r0, [r3, #2]	@ zero_extendqisi2
 1740 002e FFF7FEFF 		bl	LED_Driver1_MasterWriteByte
 1741              	.LVL232:
 784:led_manager.c **** 	LED_Driver1_MasterSendStop();
 1742              		.loc 1 784 0
 1743 0032 FFF7FEFF 		bl	LED_Driver1_MasterSendStop
 1744              	.LVL233:
 1745 0036 08BD     		pop	{r3, pc}
 1746              	.L146:
 1747              		.align	2
 1748              	.L145:
 1749 0038 00000000 		.word	.LANCHOR0
 1750              		.cfi_endproc
 1751              	.LFE99:
 1752              		.size	d22_write, .-d22_write
 1753              		.section	.text.led_write_tach,"ax",%progbits
 1754              		.align	2
 1755              		.global	led_write_tach
 1756              		.thumb
 1757              		.thumb_func
 1758              		.type	led_write_tach, %function
 1759              	led_write_tach:
 1760              	.LFB68:
 132:led_manager.c **** 	int tach_pct = MTR_RPM / MAX_RPM;	//tach percent
 1761              		.loc 1 132 0
 1762              		.cfi_startproc
 1763              		@ args = 0, pretend = 0, frame = 0
 1764              		@ frame_needed = 0, uses_anonymous_args = 0
 1765              	.LVL234:
 133:led_manager.c **** 	int steps = 0;
 1766              		.loc 1 133 0
 1767 0000 654B     		ldr	r3, .L173
 1768 0002 A3FB0023 		umull	r2, r3, r3, r0
 1769 0006 DB09     		lsrs	r3, r3, #7
 1770              	.LVL235:
 137:led_manager.c **** 		steps = 2;	//first step lights up first 2 led's
 1771              		.loc 1 137 0
 1772 0008 052B     		cmp	r3, #5
 1773 000a 47DD     		ble	.L153
 139:led_manager.c **** 		steps = 3;
 1774              		.loc 1 139 0
 1775 000c 9A1F     		subs	r2, r3, #6
 1776 000e 042A     		cmp	r2, #4
 1777 0010 46D9     		bls	.L154
 141:led_manager.c **** 		steps = 4;
 1778              		.loc 1 141 0
ARM GAS  D:\Windows\AppData\Local\Temp\cc9YXq6z.s 			page 47


 1779 0012 A3F10B02 		sub	r2, r3, #11
 1780 0016 042A     		cmp	r2, #4
 1781 0018 44D9     		bls	.L155
 143:led_manager.c **** 		steps = 5;
 1782              		.loc 1 143 0
 1783 001a A3F11002 		sub	r2, r3, #16
 1784 001e 042A     		cmp	r2, #4
 1785 0020 42D9     		bls	.L156
 145:led_manager.c **** 		steps = 6;
 1786              		.loc 1 145 0
 1787 0022 A3F11502 		sub	r2, r3, #21
 1788 0026 042A     		cmp	r2, #4
 1789 0028 40D9     		bls	.L157
 147:led_manager.c **** 		steps = 7;
 1790              		.loc 1 147 0
 1791 002a A3F11A02 		sub	r2, r3, #26
 1792 002e 042A     		cmp	r2, #4
 1793 0030 3ED9     		bls	.L158
 149:led_manager.c **** 		steps = 8;
 1794              		.loc 1 149 0
 1795 0032 A3F11F02 		sub	r2, r3, #31
 1796 0036 042A     		cmp	r2, #4
 1797 0038 3CD9     		bls	.L159
 151:led_manager.c **** 		steps = 9;
 1798              		.loc 1 151 0
 1799 003a A3F12402 		sub	r2, r3, #36
 1800 003e 042A     		cmp	r2, #4
 1801 0040 3AD9     		bls	.L160
 153:led_manager.c **** 		steps = 10;
 1802              		.loc 1 153 0
 1803 0042 A3F12902 		sub	r2, r3, #41
 1804 0046 042A     		cmp	r2, #4
 1805 0048 38D9     		bls	.L161
 155:led_manager.c **** 		steps = 11;
 1806              		.loc 1 155 0
 1807 004a A3F12E02 		sub	r2, r3, #46
 1808 004e 042A     		cmp	r2, #4
 1809 0050 36D9     		bls	.L162
 157:led_manager.c **** 		steps = 12;
 1810              		.loc 1 157 0
 1811 0052 A3F13302 		sub	r2, r3, #51
 1812 0056 042A     		cmp	r2, #4
 1813 0058 34D9     		bls	.L163
 159:led_manager.c **** 		steps = 13;
 1814              		.loc 1 159 0
 1815 005a A3F13802 		sub	r2, r3, #56
 1816 005e 042A     		cmp	r2, #4
 1817 0060 32D9     		bls	.L164
 161:led_manager.c **** 		steps = 14;
 1818              		.loc 1 161 0
 1819 0062 A3F13D02 		sub	r2, r3, #61
 1820 0066 042A     		cmp	r2, #4
 1821 0068 30D9     		bls	.L165
 163:led_manager.c **** 		steps = 15;
 1822              		.loc 1 163 0
 1823 006a A3F14202 		sub	r2, r3, #66
 1824 006e 042A     		cmp	r2, #4
ARM GAS  D:\Windows\AppData\Local\Temp\cc9YXq6z.s 			page 48


 1825 0070 2ED9     		bls	.L166
 165:led_manager.c **** 		steps = 16;
 1826              		.loc 1 165 0
 1827 0072 A3F14702 		sub	r2, r3, #71
 1828 0076 042A     		cmp	r2, #4
 1829 0078 2CD9     		bls	.L167
 167:led_manager.c **** 		steps = 17;
 1830              		.loc 1 167 0
 1831 007a A3F14C02 		sub	r2, r3, #76
 1832 007e 042A     		cmp	r2, #4
 1833 0080 2AD9     		bls	.L168
 169:led_manager.c **** 		steps = 18;
 1834              		.loc 1 169 0
 1835 0082 A3F15102 		sub	r2, r3, #81
 1836 0086 042A     		cmp	r2, #4
 1837 0088 28D9     		bls	.L169
 171:led_manager.c **** 		steps = 19;
 1838              		.loc 1 171 0
 1839 008a A3F15602 		sub	r2, r3, #86
 1840 008e 042A     		cmp	r2, #4
 1841 0090 26D9     		bls	.L170
 173:led_manager.c **** 		steps = 20;
 1842              		.loc 1 173 0
 1843 0092 5B3B     		subs	r3, r3, #91
 1844              	.LVL236:
 1845 0094 042B     		cmp	r3, #4
 1846 0096 25D8     		bhi	.L171
 174:led_manager.c **** 	else //(tach_pct > 95 && tach_pct <= 100)
 1847              		.loc 1 174 0
 1848 0098 1423     		movs	r3, #20
 1849              	.LVL237:
 1850 009a 24E0     		b	.L148
 1851              	.LVL238:
 1852              	.L153:
 138:led_manager.c **** 	else if(tach_pct > 5 && tach_pct <= 10)
 1853              		.loc 1 138 0
 1854 009c 0223     		movs	r3, #2
 1855              	.LVL239:
 1856 009e 22E0     		b	.L148
 1857              	.LVL240:
 1858              	.L154:
 140:led_manager.c **** 	else if(tach_pct > 10 && tach_pct <= 15)
 1859              		.loc 1 140 0
 1860 00a0 0323     		movs	r3, #3
 1861              	.LVL241:
 1862 00a2 20E0     		b	.L148
 1863              	.LVL242:
 1864              	.L155:
 142:led_manager.c **** 	else if(tach_pct > 15 && tach_pct <= 20)
 1865              		.loc 1 142 0
 1866 00a4 0423     		movs	r3, #4
 1867              	.LVL243:
 1868 00a6 1EE0     		b	.L148
 1869              	.LVL244:
 1870              	.L156:
 144:led_manager.c **** 	else if(tach_pct > 20 && tach_pct <= 25)
 1871              		.loc 1 144 0
ARM GAS  D:\Windows\AppData\Local\Temp\cc9YXq6z.s 			page 49


 1872 00a8 0523     		movs	r3, #5
 1873              	.LVL245:
 1874 00aa 1CE0     		b	.L148
 1875              	.LVL246:
 1876              	.L157:
 146:led_manager.c **** 	else if(tach_pct > 25 && tach_pct <= 30)
 1877              		.loc 1 146 0
 1878 00ac 0623     		movs	r3, #6
 1879              	.LVL247:
 1880 00ae 1AE0     		b	.L148
 1881              	.LVL248:
 1882              	.L158:
 148:led_manager.c **** 	else if(tach_pct > 30 && tach_pct <= 35)
 1883              		.loc 1 148 0
 1884 00b0 0723     		movs	r3, #7
 1885              	.LVL249:
 1886 00b2 18E0     		b	.L148
 1887              	.LVL250:
 1888              	.L159:
 150:led_manager.c **** 	else if(tach_pct > 35 && tach_pct <= 40)
 1889              		.loc 1 150 0
 1890 00b4 0823     		movs	r3, #8
 1891              	.LVL251:
 1892 00b6 16E0     		b	.L148
 1893              	.LVL252:
 1894              	.L160:
 152:led_manager.c **** 	else if(tach_pct > 40 && tach_pct <= 45)
 1895              		.loc 1 152 0
 1896 00b8 0923     		movs	r3, #9
 1897              	.LVL253:
 1898 00ba 14E0     		b	.L148
 1899              	.LVL254:
 1900              	.L161:
 154:led_manager.c **** 	else if(tach_pct > 45 && tach_pct <= 50)
 1901              		.loc 1 154 0
 1902 00bc 0A23     		movs	r3, #10
 1903              	.LVL255:
 1904 00be 12E0     		b	.L148
 1905              	.LVL256:
 1906              	.L162:
 156:led_manager.c **** 	else if(tach_pct > 50 && tach_pct <= 55)
 1907              		.loc 1 156 0
 1908 00c0 0B23     		movs	r3, #11
 1909              	.LVL257:
 1910 00c2 10E0     		b	.L148
 1911              	.LVL258:
 1912              	.L163:
 158:led_manager.c **** 	else if(tach_pct > 55 && tach_pct <= 60)
 1913              		.loc 1 158 0
 1914 00c4 0C23     		movs	r3, #12
 1915              	.LVL259:
 1916 00c6 0EE0     		b	.L148
 1917              	.LVL260:
 1918              	.L164:
 160:led_manager.c **** 	else if(tach_pct > 60 && tach_pct <= 65)
 1919              		.loc 1 160 0
 1920 00c8 0D23     		movs	r3, #13
ARM GAS  D:\Windows\AppData\Local\Temp\cc9YXq6z.s 			page 50


 1921              	.LVL261:
 1922 00ca 0CE0     		b	.L148
 1923              	.LVL262:
 1924              	.L165:
 162:led_manager.c **** 	else if(tach_pct > 65 && tach_pct <= 70)
 1925              		.loc 1 162 0
 1926 00cc 0E23     		movs	r3, #14
 1927              	.LVL263:
 1928 00ce 0AE0     		b	.L148
 1929              	.LVL264:
 1930              	.L166:
 164:led_manager.c **** 	else if(tach_pct > 70 && tach_pct <= 75)
 1931              		.loc 1 164 0
 1932 00d0 0F23     		movs	r3, #15
 1933              	.LVL265:
 1934 00d2 08E0     		b	.L148
 1935              	.LVL266:
 1936              	.L167:
 166:led_manager.c **** 	else if(tach_pct > 75 && tach_pct <= 80)
 1937              		.loc 1 166 0
 1938 00d4 1023     		movs	r3, #16
 1939              	.LVL267:
 1940 00d6 06E0     		b	.L148
 1941              	.LVL268:
 1942              	.L168:
 168:led_manager.c **** 	else if(tach_pct > 80 && tach_pct <= 85)
 1943              		.loc 1 168 0
 1944 00d8 1123     		movs	r3, #17
 1945              	.LVL269:
 1946 00da 04E0     		b	.L148
 1947              	.LVL270:
 1948              	.L169:
 170:led_manager.c **** 	else if(tach_pct > 85 && tach_pct <= 90)
 1949              		.loc 1 170 0
 1950 00dc 1223     		movs	r3, #18
 1951              	.LVL271:
 1952 00de 02E0     		b	.L148
 1953              	.LVL272:
 1954              	.L170:
 172:led_manager.c **** 	else if(tach_pct > 90 && tach_pct <= 95)
 1955              		.loc 1 172 0
 1956 00e0 1323     		movs	r3, #19
 1957              	.LVL273:
 1958 00e2 00E0     		b	.L148
 1959              	.L171:
 176:led_manager.c **** 	
 1960              		.loc 1 176 0
 1961 00e4 1523     		movs	r3, #21
 1962              	.LVL274:
 1963              	.L148:
 179:led_manager.c **** 		tach_arr[i] = 1;	//on leds
 1964              		.loc 1 179 0
 1965 00e6 0022     		movs	r2, #0
 1966 00e8 05E0     		b	.L149
 1967              	.LVL275:
 1968              	.L150:
 180:led_manager.c **** 	for(i=steps; i<TACH_MAX_STEPS+2; i++)	//+2 to get d22
ARM GAS  D:\Windows\AppData\Local\Temp\cc9YXq6z.s 			page 51


 1969              		.loc 1 180 0 discriminator 3
 1970 00ea 2C49     		ldr	r1, .L173+4
 1971 00ec 01EB8201 		add	r1, r1, r2, lsl #2
 1972 00f0 0120     		movs	r0, #1
 1973 00f2 4860     		str	r0, [r1, #4]
 179:led_manager.c **** 		tach_arr[i] = 1;	//on leds
 1974              		.loc 1 179 0 discriminator 3
 1975 00f4 0244     		add	r2, r2, r0
 1976              	.LVL276:
 1977              	.L149:
 179:led_manager.c **** 		tach_arr[i] = 1;	//on leds
 1978              		.loc 1 179 0 is_stmt 0 discriminator 1
 1979 00f6 9A42     		cmp	r2, r3
 1980 00f8 F7DB     		blt	.L150
 1981 00fa 05E0     		b	.L151
 1982              	.LVL277:
 1983              	.L152:
 182:led_manager.c **** 	
 1984              		.loc 1 182 0 is_stmt 1 discriminator 3
 1985 00fc 274A     		ldr	r2, .L173+4
 1986 00fe 02EB8302 		add	r2, r2, r3, lsl #2
 1987 0102 0021     		movs	r1, #0
 1988 0104 5160     		str	r1, [r2, #4]
 181:led_manager.c **** 		tach_arr[i] = 0;	//off leds
 1989              		.loc 1 181 0 discriminator 3
 1990 0106 0133     		adds	r3, r3, #1
 1991              	.LVL278:
 1992              	.L151:
 181:led_manager.c **** 		tach_arr[i] = 0;	//off leds
 1993              		.loc 1 181 0 is_stmt 0 discriminator 1
 1994 0108 152B     		cmp	r3, #21
 1995 010a F7DD     		ble	.L152
 132:led_manager.c **** 	int tach_pct = MTR_RPM / MAX_RPM;	//tach percent
 1996              		.loc 1 132 0 is_stmt 1
 1997 010c 10B5     		push	{r4, lr}
 1998              		.cfi_def_cfa_offset 8
 1999              		.cfi_offset 4, -8
 2000              		.cfi_offset 14, -4
 184:led_manager.c **** 	d2_write(tach_arr[1]);
 2001              		.loc 1 184 0
 2002 010e 234C     		ldr	r4, .L173+4
 2003 0110 6068     		ldr	r0, [r4, #4]
 2004 0112 FFF7FEFF 		bl	d1_write
 2005              	.LVL279:
 185:led_manager.c **** 	d3_write(tach_arr[2]);
 2006              		.loc 1 185 0
 2007 0116 A068     		ldr	r0, [r4, #8]
 2008 0118 FFF7FEFF 		bl	d2_write
 2009              	.LVL280:
 186:led_manager.c **** 	d4_write(tach_arr[3]);
 2010              		.loc 1 186 0
 2011 011c E068     		ldr	r0, [r4, #12]
 2012 011e FFF7FEFF 		bl	d3_write
 2013              	.LVL281:
 187:led_manager.c **** 	d5_write(tach_arr[4]);
 2014              		.loc 1 187 0
 2015 0122 2069     		ldr	r0, [r4, #16]
ARM GAS  D:\Windows\AppData\Local\Temp\cc9YXq6z.s 			page 52


 2016 0124 FFF7FEFF 		bl	d4_write
 2017              	.LVL282:
 188:led_manager.c **** 	d6_write(tach_arr[5]);
 2018              		.loc 1 188 0
 2019 0128 6069     		ldr	r0, [r4, #20]
 2020 012a FFF7FEFF 		bl	d5_write
 2021              	.LVL283:
 189:led_manager.c **** 	d7_write(tach_arr[6]);
 2022              		.loc 1 189 0
 2023 012e A069     		ldr	r0, [r4, #24]
 2024 0130 FFF7FEFF 		bl	d6_write
 2025              	.LVL284:
 190:led_manager.c **** 	d8_write(tach_arr[7]);
 2026              		.loc 1 190 0
 2027 0134 E069     		ldr	r0, [r4, #28]
 2028 0136 FFF7FEFF 		bl	d7_write
 2029              	.LVL285:
 191:led_manager.c **** 	d9_write(tach_arr[8]);
 2030              		.loc 1 191 0
 2031 013a 206A     		ldr	r0, [r4, #32]
 2032 013c FFF7FEFF 		bl	d8_write
 2033              	.LVL286:
 192:led_manager.c **** 	d10_write(tach_arr[9]);
 2034              		.loc 1 192 0
 2035 0140 606A     		ldr	r0, [r4, #36]
 2036 0142 FFF7FEFF 		bl	d9_write
 2037              	.LVL287:
 193:led_manager.c **** 	d11_write(tach_arr[10]);
 2038              		.loc 1 193 0
 2039 0146 A06A     		ldr	r0, [r4, #40]
 2040 0148 FFF7FEFF 		bl	d10_write
 2041              	.LVL288:
 194:led_manager.c **** 	d12_write(tach_arr[11]);
 2042              		.loc 1 194 0
 2043 014c E06A     		ldr	r0, [r4, #44]
 2044 014e FFF7FEFF 		bl	d11_write
 2045              	.LVL289:
 195:led_manager.c **** 	d13_write(tach_arr[12]);
 2046              		.loc 1 195 0
 2047 0152 206B     		ldr	r0, [r4, #48]
 2048 0154 FFF7FEFF 		bl	d12_write
 2049              	.LVL290:
 196:led_manager.c **** 	d14_write(tach_arr[13]);
 2050              		.loc 1 196 0
 2051 0158 606B     		ldr	r0, [r4, #52]
 2052 015a FFF7FEFF 		bl	d13_write
 2053              	.LVL291:
 197:led_manager.c **** 	d15_write(tach_arr[14]);
 2054              		.loc 1 197 0
 2055 015e A06B     		ldr	r0, [r4, #56]
 2056 0160 FFF7FEFF 		bl	d14_write
 2057              	.LVL292:
 198:led_manager.c **** 	d16_write(tach_arr[15]);
 2058              		.loc 1 198 0
 2059 0164 E06B     		ldr	r0, [r4, #60]
 2060 0166 FFF7FEFF 		bl	d15_write
 2061              	.LVL293:
ARM GAS  D:\Windows\AppData\Local\Temp\cc9YXq6z.s 			page 53


 199:led_manager.c **** 	d17_write(tach_arr[16]);
 2062              		.loc 1 199 0
 2063 016a 206C     		ldr	r0, [r4, #64]
 2064 016c FFF7FEFF 		bl	d16_write
 2065              	.LVL294:
 200:led_manager.c **** 	d18_write(tach_arr[17]);
 2066              		.loc 1 200 0
 2067 0170 606C     		ldr	r0, [r4, #68]
 2068 0172 FFF7FEFF 		bl	d17_write
 2069              	.LVL295:
 201:led_manager.c **** 	d19_write(tach_arr[18]);
 2070              		.loc 1 201 0
 2071 0176 A06C     		ldr	r0, [r4, #72]
 2072 0178 FFF7FEFF 		bl	d18_write
 2073              	.LVL296:
 202:led_manager.c **** 	d20_write(tach_arr[19]);
 2074              		.loc 1 202 0
 2075 017c E06C     		ldr	r0, [r4, #76]
 2076 017e FFF7FEFF 		bl	d19_write
 2077              	.LVL297:
 203:led_manager.c **** 	d21_write(tach_arr[20]);
 2078              		.loc 1 203 0
 2079 0182 206D     		ldr	r0, [r4, #80]
 2080 0184 FFF7FEFF 		bl	d20_write
 2081              	.LVL298:
 204:led_manager.c **** 	d22_write(tach_arr[21]);
 2082              		.loc 1 204 0
 2083 0188 606D     		ldr	r0, [r4, #84]
 2084 018a FFF7FEFF 		bl	d21_write
 2085              	.LVL299:
 205:led_manager.c **** } //led_write_tach
 2086              		.loc 1 205 0
 2087 018e A06D     		ldr	r0, [r4, #88]
 2088 0190 FFF7FEFF 		bl	d22_write
 2089              	.LVL300:
 2090 0194 10BD     		pop	{r4, pc}
 2091              	.L174:
 2092 0196 00BF     		.align	2
 2093              	.L173:
 2094 0198 F1197605 		.word	91625969
 2095 019c 00000000 		.word	.LANCHOR0
 2096              		.cfi_endproc
 2097              	.LFE68:
 2098              		.size	led_write_tach, .-led_write_tach
 2099              		.section	.text.led_writetest,"ax",%progbits
 2100              		.align	2
 2101              		.global	led_writetest
 2102              		.thumb
 2103              		.thumb_func
 2104              		.type	led_writetest, %function
 2105              	led_writetest:
 2106              	.LFB77:
 489:led_manager.c **** 	d1_write(arr[0]);
 2107              		.loc 1 489 0
 2108              		.cfi_startproc
 2109              		@ args = 0, pretend = 0, frame = 0
 2110              		@ frame_needed = 0, uses_anonymous_args = 0
ARM GAS  D:\Windows\AppData\Local\Temp\cc9YXq6z.s 			page 54


 2111              	.LVL301:
 2112 0000 38B5     		push	{r3, r4, r5, lr}
 2113              		.cfi_def_cfa_offset 16
 2114              		.cfi_offset 3, -16
 2115              		.cfi_offset 4, -12
 2116              		.cfi_offset 5, -8
 2117              		.cfi_offset 14, -4
 2118 0002 0546     		mov	r5, r0
 2119 0004 0C46     		mov	r4, r1
 490:led_manager.c **** 	d2_write(arr[1]);
 2120              		.loc 1 490 0
 2121 0006 0868     		ldr	r0, [r1]
 2122              	.LVL302:
 2123 0008 FFF7FEFF 		bl	d1_write
 2124              	.LVL303:
 491:led_manager.c **** 	d3_write(arr[2]);
 2125              		.loc 1 491 0
 2126 000c 6068     		ldr	r0, [r4, #4]
 2127 000e FFF7FEFF 		bl	d2_write
 2128              	.LVL304:
 492:led_manager.c **** 	d4_write(arr[3]);
 2129              		.loc 1 492 0
 2130 0012 A068     		ldr	r0, [r4, #8]
 2131 0014 FFF7FEFF 		bl	d3_write
 2132              	.LVL305:
 493:led_manager.c **** 	d5_write(arr[4]);
 2133              		.loc 1 493 0
 2134 0018 E068     		ldr	r0, [r4, #12]
 2135 001a FFF7FEFF 		bl	d4_write
 2136              	.LVL306:
 494:led_manager.c **** 	d6_write(arr[5]);
 2137              		.loc 1 494 0
 2138 001e 2069     		ldr	r0, [r4, #16]
 2139 0020 FFF7FEFF 		bl	d5_write
 2140              	.LVL307:
 495:led_manager.c **** 	d7_write(arr[6]);
 2141              		.loc 1 495 0
 2142 0024 6069     		ldr	r0, [r4, #20]
 2143 0026 FFF7FEFF 		bl	d6_write
 2144              	.LVL308:
 496:led_manager.c **** 	d8_write(arr[7]);
 2145              		.loc 1 496 0
 2146 002a A069     		ldr	r0, [r4, #24]
 2147 002c FFF7FEFF 		bl	d7_write
 2148              	.LVL309:
 497:led_manager.c **** 	d9_write(arr[8]);
 2149              		.loc 1 497 0
 2150 0030 E069     		ldr	r0, [r4, #28]
 2151 0032 FFF7FEFF 		bl	d8_write
 2152              	.LVL310:
 498:led_manager.c **** 	d10_write(arr[9]);
 2153              		.loc 1 498 0
 2154 0036 206A     		ldr	r0, [r4, #32]
 2155 0038 FFF7FEFF 		bl	d9_write
 2156              	.LVL311:
 499:led_manager.c **** 	d11_write(arr[10]);
 2157              		.loc 1 499 0
ARM GAS  D:\Windows\AppData\Local\Temp\cc9YXq6z.s 			page 55


 2158 003c 606A     		ldr	r0, [r4, #36]
 2159 003e FFF7FEFF 		bl	d10_write
 2160              	.LVL312:
 500:led_manager.c **** 	d12_write(arr[11]);
 2161              		.loc 1 500 0
 2162 0042 A06A     		ldr	r0, [r4, #40]
 2163 0044 FFF7FEFF 		bl	d11_write
 2164              	.LVL313:
 501:led_manager.c **** 	d13_write(arr[12]);
 2165              		.loc 1 501 0
 2166 0048 E06A     		ldr	r0, [r4, #44]
 2167 004a FFF7FEFF 		bl	d12_write
 2168              	.LVL314:
 502:led_manager.c **** 	d14_write(arr[13]);
 2169              		.loc 1 502 0
 2170 004e 206B     		ldr	r0, [r4, #48]
 2171 0050 FFF7FEFF 		bl	d13_write
 2172              	.LVL315:
 503:led_manager.c **** 	d15_write(arr[14]);
 2173              		.loc 1 503 0
 2174 0054 606B     		ldr	r0, [r4, #52]
 2175 0056 FFF7FEFF 		bl	d14_write
 2176              	.LVL316:
 504:led_manager.c **** 	d16_write(arr[15]);
 2177              		.loc 1 504 0
 2178 005a A06B     		ldr	r0, [r4, #56]
 2179 005c FFF7FEFF 		bl	d15_write
 2180              	.LVL317:
 505:led_manager.c **** 	d17_write(arr[16]);
 2181              		.loc 1 505 0
 2182 0060 E06B     		ldr	r0, [r4, #60]
 2183 0062 FFF7FEFF 		bl	d16_write
 2184              	.LVL318:
 506:led_manager.c **** 	d18_write(arr[17]);
 2185              		.loc 1 506 0
 2186 0066 206C     		ldr	r0, [r4, #64]
 2187 0068 FFF7FEFF 		bl	d17_write
 2188              	.LVL319:
 507:led_manager.c **** 	d19_write(arr[18]);
 2189              		.loc 1 507 0
 2190 006c 606C     		ldr	r0, [r4, #68]
 2191 006e FFF7FEFF 		bl	d18_write
 2192              	.LVL320:
 508:led_manager.c **** 	d20_write(arr[19]);
 2193              		.loc 1 508 0
 2194 0072 A06C     		ldr	r0, [r4, #72]
 2195 0074 FFF7FEFF 		bl	d19_write
 2196              	.LVL321:
 509:led_manager.c **** 	d21_write(arr[20]);
 2197              		.loc 1 509 0
 2198 0078 E06C     		ldr	r0, [r4, #76]
 2199 007a FFF7FEFF 		bl	d20_write
 2200              	.LVL322:
 510:led_manager.c **** 	d22_write(arr[21]);
 2201              		.loc 1 510 0
 2202 007e 206D     		ldr	r0, [r4, #80]
 2203 0080 FFF7FEFF 		bl	d21_write
ARM GAS  D:\Windows\AppData\Local\Temp\cc9YXq6z.s 			page 56


 2204              	.LVL323:
 511:led_manager.c **** 	
 2205              		.loc 1 511 0
 2206 0084 606D     		ldr	r0, [r4, #84]
 2207 0086 FFF7FEFF 		bl	d22_write
 2208              	.LVL324:
 513:led_manager.c **** 	arr[(i+5) % 22] = 1;
 2209              		.loc 1 513 0
 2210 008a 0023     		movs	r3, #0
 2211 008c 44F82530 		str	r3, [r4, r5, lsl #2]
 514:led_manager.c **** 	i++;
 2212              		.loc 1 514 0
 2213 0090 6A1D     		adds	r2, r5, #5
 2214 0092 084B     		ldr	r3, .L179
 2215 0094 83FB0231 		smull	r3, r1, r3, r2
 2216 0098 D317     		asrs	r3, r2, #31
 2217 009a C3EBA103 		rsb	r3, r3, r1, asr #2
 2218 009e 1621     		movs	r1, #22
 2219 00a0 01FB1323 		mls	r3, r1, r3, r2
 2220 00a4 0122     		movs	r2, #1
 2221 00a6 44F82320 		str	r2, [r4, r3, lsl #2]
 515:led_manager.c **** 	if(i > 21)
 2222              		.loc 1 515 0
 2223 00aa A818     		adds	r0, r5, r2
 2224              	.LVL325:
 516:led_manager.c **** 		i=0;
 2225              		.loc 1 516 0
 2226 00ac 1528     		cmp	r0, #21
 2227 00ae 00DD     		ble	.L176
 517:led_manager.c **** 	return i;
 2228              		.loc 1 517 0
 2229 00b0 0020     		movs	r0, #0
 2230              	.LVL326:
 2231              	.L176:
 519:led_manager.c **** 
 2232              		.loc 1 519 0
 2233 00b2 38BD     		pop	{r3, r4, r5, pc}
 2234              	.LVL327:
 2235              	.L180:
 2236              		.align	2
 2237              	.L179:
 2238 00b4 E9A28B2E 		.word	780903145
 2239              		.cfi_endproc
 2240              	.LFE77:
 2241              		.size	led_writetest, .-led_writetest
 2242              		.section	.text.b11_write,"ax",%progbits
 2243              		.align	2
 2244              		.global	b11_write
 2245              		.thumb
 2246              		.thumb_func
 2247              		.type	b11_write, %function
 2248              	b11_write:
 2249              	.LFB100:
 785:led_manager.c **** }
 786:led_manager.c **** 
 787:led_manager.c **** //side bars
 788:led_manager.c **** //left vertical bar
ARM GAS  D:\Windows\AppData\Local\Temp\cc9YXq6z.s 			page 57


 789:led_manager.c **** void b11_write(int bool) {
 2250              		.loc 1 789 0
 2251              		.cfi_startproc
 2252              		@ args = 0, pretend = 0, frame = 0
 2253              		@ frame_needed = 0, uses_anonymous_args = 0
 2254              	.LVL328:
 2255 0000 08B5     		push	{r3, lr}
 2256              		.cfi_def_cfa_offset 8
 2257              		.cfi_offset 3, -8
 2258              		.cfi_offset 14, -4
 2259              	.LVL329:
 790:led_manager.c **** 	uint8_t bit = 0x01;
 791:led_manager.c **** 	if(bool == 1) 	//led on
 2260              		.loc 1 791 0
 2261 0002 0128     		cmp	r0, #1
 2262 0004 07D1     		bne	.L182
 792:led_manager.c **** 		byte05_2 = byte05_2 | bit;
 2263              		.loc 1 792 0
 2264 0006 0F4A     		ldr	r2, .L185
 2265 0008 92F85C30 		ldrb	r3, [r2, #92]	@ zero_extendqisi2
 2266 000c 43F00103 		orr	r3, r3, #1
 2267 0010 82F85C30 		strb	r3, [r2, #92]
 2268 0014 06E0     		b	.L183
 2269              	.L182:
 793:led_manager.c **** 	else			//led off
 794:led_manager.c **** 		byte05_2 = byte05_2 & ~bit;
 2270              		.loc 1 794 0
 2271 0016 0B4A     		ldr	r2, .L185
 2272 0018 92F85C30 		ldrb	r3, [r2, #92]	@ zero_extendqisi2
 2273 001c 23F00103 		bic	r3, r3, #1
 2274 0020 82F85C30 		strb	r3, [r2, #92]
 2275              	.L183:
 795:led_manager.c **** 	
 796:led_manager.c **** 	LED_Driver2_MasterSendStart(LED_ADDR, 0);	// 0 = send write command, 1 = send read command
 2276              		.loc 1 796 0
 2277 0024 4020     		movs	r0, #64
 2278              	.LVL330:
 2279 0026 0021     		movs	r1, #0
 2280 0028 FFF7FEFF 		bl	LED_Driver2_MasterSendStart
 2281              	.LVL331:
 797:led_manager.c **** 	LED_Driver2_MasterWriteByte(LED05);		//move to LED addr
 2282              		.loc 1 797 0
 2283 002c 0520     		movs	r0, #5
 2284 002e FFF7FEFF 		bl	LED_Driver2_MasterWriteByte
 2285              	.LVL332:
 798:led_manager.c **** 	LED_Driver2_MasterWriteByte(byte05_2);	//write byte to addr
 2286              		.loc 1 798 0
 2287 0032 044B     		ldr	r3, .L185
 2288 0034 93F85C00 		ldrb	r0, [r3, #92]	@ zero_extendqisi2
 2289 0038 FFF7FEFF 		bl	LED_Driver2_MasterWriteByte
 2290              	.LVL333:
 799:led_manager.c **** 	LED_Driver2_MasterSendStop();
 2291              		.loc 1 799 0
 2292 003c FFF7FEFF 		bl	LED_Driver2_MasterSendStop
 2293              	.LVL334:
 2294 0040 08BD     		pop	{r3, pc}
 2295              	.L186:
ARM GAS  D:\Windows\AppData\Local\Temp\cc9YXq6z.s 			page 58


 2296 0042 00BF     		.align	2
 2297              	.L185:
 2298 0044 00000000 		.word	.LANCHOR0
 2299              		.cfi_endproc
 2300              	.LFE100:
 2301              		.size	b11_write, .-b11_write
 2302              		.section	.text.b12_write,"ax",%progbits
 2303              		.align	2
 2304              		.global	b12_write
 2305              		.thumb
 2306              		.thumb_func
 2307              		.type	b12_write, %function
 2308              	b12_write:
 2309              	.LFB101:
 800:led_manager.c **** }
 801:led_manager.c **** void b12_write(int bool) {
 2310              		.loc 1 801 0
 2311              		.cfi_startproc
 2312              		@ args = 0, pretend = 0, frame = 0
 2313              		@ frame_needed = 0, uses_anonymous_args = 0
 2314              	.LVL335:
 2315 0000 08B5     		push	{r3, lr}
 2316              		.cfi_def_cfa_offset 8
 2317              		.cfi_offset 3, -8
 2318              		.cfi_offset 14, -4
 2319              	.LVL336:
 802:led_manager.c **** 	uint8_t bit = 0x10;
 803:led_manager.c **** 	if(bool == 1) 	//led on
 2320              		.loc 1 803 0
 2321 0002 0128     		cmp	r0, #1
 2322 0004 07D1     		bne	.L188
 804:led_manager.c **** 		byte05_2 = byte05_2 | bit;
 2323              		.loc 1 804 0
 2324 0006 0F4A     		ldr	r2, .L191
 2325 0008 92F85C30 		ldrb	r3, [r2, #92]	@ zero_extendqisi2
 2326 000c 43F01003 		orr	r3, r3, #16
 2327 0010 82F85C30 		strb	r3, [r2, #92]
 2328 0014 06E0     		b	.L189
 2329              	.L188:
 805:led_manager.c **** 	else			//led off
 806:led_manager.c **** 		byte05_2 = byte05_2 & ~bit;
 2330              		.loc 1 806 0
 2331 0016 0B4A     		ldr	r2, .L191
 2332 0018 92F85C30 		ldrb	r3, [r2, #92]	@ zero_extendqisi2
 2333 001c 23F01003 		bic	r3, r3, #16
 2334 0020 82F85C30 		strb	r3, [r2, #92]
 2335              	.L189:
 807:led_manager.c **** 	
 808:led_manager.c **** 	LED_Driver2_MasterSendStart(LED_ADDR, 0);	
 2336              		.loc 1 808 0
 2337 0024 4020     		movs	r0, #64
 2338              	.LVL337:
 2339 0026 0021     		movs	r1, #0
 2340 0028 FFF7FEFF 		bl	LED_Driver2_MasterSendStart
 2341              	.LVL338:
 809:led_manager.c **** 	LED_Driver2_MasterWriteByte(LED05);		//move to LED addr
 2342              		.loc 1 809 0
ARM GAS  D:\Windows\AppData\Local\Temp\cc9YXq6z.s 			page 59


 2343 002c 0520     		movs	r0, #5
 2344 002e FFF7FEFF 		bl	LED_Driver2_MasterWriteByte
 2345              	.LVL339:
 810:led_manager.c **** 	LED_Driver2_MasterWriteByte(byte05_2);	//write byte to addr
 2346              		.loc 1 810 0
 2347 0032 044B     		ldr	r3, .L191
 2348 0034 93F85C00 		ldrb	r0, [r3, #92]	@ zero_extendqisi2
 2349 0038 FFF7FEFF 		bl	LED_Driver2_MasterWriteByte
 2350              	.LVL340:
 811:led_manager.c **** 	LED_Driver2_MasterSendStop();
 2351              		.loc 1 811 0
 2352 003c FFF7FEFF 		bl	LED_Driver2_MasterSendStop
 2353              	.LVL341:
 2354 0040 08BD     		pop	{r3, pc}
 2355              	.L192:
 2356 0042 00BF     		.align	2
 2357              	.L191:
 2358 0044 00000000 		.word	.LANCHOR0
 2359              		.cfi_endproc
 2360              	.LFE101:
 2361              		.size	b12_write, .-b12_write
 2362              		.section	.text.b13_write,"ax",%progbits
 2363              		.align	2
 2364              		.global	b13_write
 2365              		.thumb
 2366              		.thumb_func
 2367              		.type	b13_write, %function
 2368              	b13_write:
 2369              	.LFB102:
 812:led_manager.c **** }
 813:led_manager.c **** void b13_write(int bool) {
 2370              		.loc 1 813 0
 2371              		.cfi_startproc
 2372              		@ args = 0, pretend = 0, frame = 0
 2373              		@ frame_needed = 0, uses_anonymous_args = 0
 2374              	.LVL342:
 2375 0000 08B5     		push	{r3, lr}
 2376              		.cfi_def_cfa_offset 8
 2377              		.cfi_offset 3, -8
 2378              		.cfi_offset 14, -4
 2379              	.LVL343:
 814:led_manager.c **** 	uint8_t bit = 0x01;
 815:led_manager.c **** 	if(bool == 1) 	//led on
 2380              		.loc 1 815 0
 2381 0002 0128     		cmp	r0, #1
 2382 0004 07D1     		bne	.L194
 816:led_manager.c **** 		byte06_2 = byte06_2 | bit;
 2383              		.loc 1 816 0
 2384 0006 0F4A     		ldr	r2, .L197
 2385 0008 92F85D30 		ldrb	r3, [r2, #93]	@ zero_extendqisi2
 2386 000c 43F00103 		orr	r3, r3, #1
 2387 0010 82F85D30 		strb	r3, [r2, #93]
 2388 0014 06E0     		b	.L195
 2389              	.L194:
 817:led_manager.c **** 	else			//led off
 818:led_manager.c **** 		byte06_2 = byte06_2 & ~bit;
 2390              		.loc 1 818 0
ARM GAS  D:\Windows\AppData\Local\Temp\cc9YXq6z.s 			page 60


 2391 0016 0B4A     		ldr	r2, .L197
 2392 0018 92F85D30 		ldrb	r3, [r2, #93]	@ zero_extendqisi2
 2393 001c 23F00103 		bic	r3, r3, #1
 2394 0020 82F85D30 		strb	r3, [r2, #93]
 2395              	.L195:
 819:led_manager.c **** 	
 820:led_manager.c **** 	LED_Driver2_MasterSendStart(LED_ADDR, 0);
 2396              		.loc 1 820 0
 2397 0024 4020     		movs	r0, #64
 2398              	.LVL344:
 2399 0026 0021     		movs	r1, #0
 2400 0028 FFF7FEFF 		bl	LED_Driver2_MasterSendStart
 2401              	.LVL345:
 821:led_manager.c **** 	LED_Driver2_MasterWriteByte(LED06);		//move to LED addr
 2402              		.loc 1 821 0
 2403 002c 0620     		movs	r0, #6
 2404 002e FFF7FEFF 		bl	LED_Driver2_MasterWriteByte
 2405              	.LVL346:
 822:led_manager.c **** 	LED_Driver2_MasterWriteByte(byte06_2);	//write byte to addr
 2406              		.loc 1 822 0
 2407 0032 044B     		ldr	r3, .L197
 2408 0034 93F85D00 		ldrb	r0, [r3, #93]	@ zero_extendqisi2
 2409 0038 FFF7FEFF 		bl	LED_Driver2_MasterWriteByte
 2410              	.LVL347:
 823:led_manager.c **** 	LED_Driver2_MasterSendStop();
 2411              		.loc 1 823 0
 2412 003c FFF7FEFF 		bl	LED_Driver2_MasterSendStop
 2413              	.LVL348:
 2414 0040 08BD     		pop	{r3, pc}
 2415              	.L198:
 2416 0042 00BF     		.align	2
 2417              	.L197:
 2418 0044 00000000 		.word	.LANCHOR0
 2419              		.cfi_endproc
 2420              	.LFE102:
 2421              		.size	b13_write, .-b13_write
 2422              		.section	.text.b14_write,"ax",%progbits
 2423              		.align	2
 2424              		.global	b14_write
 2425              		.thumb
 2426              		.thumb_func
 2427              		.type	b14_write, %function
 2428              	b14_write:
 2429              	.LFB103:
 824:led_manager.c **** }
 825:led_manager.c **** void b14_write(int bool) {
 2430              		.loc 1 825 0
 2431              		.cfi_startproc
 2432              		@ args = 0, pretend = 0, frame = 0
 2433              		@ frame_needed = 0, uses_anonymous_args = 0
 2434              	.LVL349:
 2435 0000 08B5     		push	{r3, lr}
 2436              		.cfi_def_cfa_offset 8
 2437              		.cfi_offset 3, -8
 2438              		.cfi_offset 14, -4
 2439              	.LVL350:
 826:led_manager.c **** 	uint8_t bit = 0x10;
ARM GAS  D:\Windows\AppData\Local\Temp\cc9YXq6z.s 			page 61


 827:led_manager.c **** 	if(bool == 1) 	//led on
 2440              		.loc 1 827 0
 2441 0002 0128     		cmp	r0, #1
 2442 0004 07D1     		bne	.L200
 828:led_manager.c **** 		byte06_2 = byte06_2 | bit;
 2443              		.loc 1 828 0
 2444 0006 0F4A     		ldr	r2, .L203
 2445 0008 92F85D30 		ldrb	r3, [r2, #93]	@ zero_extendqisi2
 2446 000c 43F01003 		orr	r3, r3, #16
 2447 0010 82F85D30 		strb	r3, [r2, #93]
 2448 0014 06E0     		b	.L201
 2449              	.L200:
 829:led_manager.c **** 	else			//led off
 830:led_manager.c **** 		byte06_2 = byte06_2 & ~bit;
 2450              		.loc 1 830 0
 2451 0016 0B4A     		ldr	r2, .L203
 2452 0018 92F85D30 		ldrb	r3, [r2, #93]	@ zero_extendqisi2
 2453 001c 23F01003 		bic	r3, r3, #16
 2454 0020 82F85D30 		strb	r3, [r2, #93]
 2455              	.L201:
 831:led_manager.c **** 	
 832:led_manager.c **** 	LED_Driver2_MasterSendStart(LED_ADDR, 0);
 2456              		.loc 1 832 0
 2457 0024 4020     		movs	r0, #64
 2458              	.LVL351:
 2459 0026 0021     		movs	r1, #0
 2460 0028 FFF7FEFF 		bl	LED_Driver2_MasterSendStart
 2461              	.LVL352:
 833:led_manager.c **** 	LED_Driver2_MasterWriteByte(LED06);		//move to LED addr
 2462              		.loc 1 833 0
 2463 002c 0620     		movs	r0, #6
 2464 002e FFF7FEFF 		bl	LED_Driver2_MasterWriteByte
 2465              	.LVL353:
 834:led_manager.c **** 	LED_Driver2_MasterWriteByte(byte06_2);	//write byte to addr
 2466              		.loc 1 834 0
 2467 0032 044B     		ldr	r3, .L203
 2468 0034 93F85D00 		ldrb	r0, [r3, #93]	@ zero_extendqisi2
 2469 0038 FFF7FEFF 		bl	LED_Driver2_MasterWriteByte
 2470              	.LVL354:
 835:led_manager.c **** 	LED_Driver2_MasterSendStop();
 2471              		.loc 1 835 0
 2472 003c FFF7FEFF 		bl	LED_Driver2_MasterSendStop
 2473              	.LVL355:
 2474 0040 08BD     		pop	{r3, pc}
 2475              	.L204:
 2476 0042 00BF     		.align	2
 2477              	.L203:
 2478 0044 00000000 		.word	.LANCHOR0
 2479              		.cfi_endproc
 2480              	.LFE103:
 2481              		.size	b14_write, .-b14_write
 2482              		.section	.text.b15_write,"ax",%progbits
 2483              		.align	2
 2484              		.global	b15_write
 2485              		.thumb
 2486              		.thumb_func
 2487              		.type	b15_write, %function
ARM GAS  D:\Windows\AppData\Local\Temp\cc9YXq6z.s 			page 62


 2488              	b15_write:
 2489              	.LFB104:
 836:led_manager.c **** }
 837:led_manager.c **** void b15_write(int bool) {
 2490              		.loc 1 837 0
 2491              		.cfi_startproc
 2492              		@ args = 0, pretend = 0, frame = 0
 2493              		@ frame_needed = 0, uses_anonymous_args = 0
 2494              	.LVL356:
 2495 0000 08B5     		push	{r3, lr}
 2496              		.cfi_def_cfa_offset 8
 2497              		.cfi_offset 3, -8
 2498              		.cfi_offset 14, -4
 2499              	.LVL357:
 838:led_manager.c **** 	uint8_t bit = 0x01;
 839:led_manager.c **** 	if(bool == 1) 	//led on
 2500              		.loc 1 839 0
 2501 0002 0128     		cmp	r0, #1
 2502 0004 07D1     		bne	.L206
 840:led_manager.c **** 		byte07_2 = byte07_2 | bit;
 2503              		.loc 1 840 0
 2504 0006 0F4A     		ldr	r2, .L209
 2505 0008 92F85E30 		ldrb	r3, [r2, #94]	@ zero_extendqisi2
 2506 000c 43F00103 		orr	r3, r3, #1
 2507 0010 82F85E30 		strb	r3, [r2, #94]
 2508 0014 06E0     		b	.L207
 2509              	.L206:
 841:led_manager.c **** 	else			//led off
 842:led_manager.c **** 		byte07_2 = byte07_2 & ~bit;
 2510              		.loc 1 842 0
 2511 0016 0B4A     		ldr	r2, .L209
 2512 0018 92F85E30 		ldrb	r3, [r2, #94]	@ zero_extendqisi2
 2513 001c 23F00103 		bic	r3, r3, #1
 2514 0020 82F85E30 		strb	r3, [r2, #94]
 2515              	.L207:
 843:led_manager.c **** 	
 844:led_manager.c **** 	LED_Driver2_MasterSendStart(LED_ADDR, 0);
 2516              		.loc 1 844 0
 2517 0024 4020     		movs	r0, #64
 2518              	.LVL358:
 2519 0026 0021     		movs	r1, #0
 2520 0028 FFF7FEFF 		bl	LED_Driver2_MasterSendStart
 2521              	.LVL359:
 845:led_manager.c **** 	LED_Driver2_MasterWriteByte(LED07);		//move to LED addr
 2522              		.loc 1 845 0
 2523 002c 0720     		movs	r0, #7
 2524 002e FFF7FEFF 		bl	LED_Driver2_MasterWriteByte
 2525              	.LVL360:
 846:led_manager.c **** 	LED_Driver2_MasterWriteByte(byte07_2);	//write byte to addr
 2526              		.loc 1 846 0
 2527 0032 044B     		ldr	r3, .L209
 2528 0034 93F85E00 		ldrb	r0, [r3, #94]	@ zero_extendqisi2
 2529 0038 FFF7FEFF 		bl	LED_Driver2_MasterWriteByte
 2530              	.LVL361:
 847:led_manager.c **** 	LED_Driver2_MasterSendStop();
 2531              		.loc 1 847 0
 2532 003c FFF7FEFF 		bl	LED_Driver2_MasterSendStop
ARM GAS  D:\Windows\AppData\Local\Temp\cc9YXq6z.s 			page 63


 2533              	.LVL362:
 2534 0040 08BD     		pop	{r3, pc}
 2535              	.L210:
 2536 0042 00BF     		.align	2
 2537              	.L209:
 2538 0044 00000000 		.word	.LANCHOR0
 2539              		.cfi_endproc
 2540              	.LFE104:
 2541              		.size	b15_write, .-b15_write
 2542              		.section	.text.b1_crit_isr,"ax",%progbits
 2543              		.align	2
 2544              		.global	b1_crit_isr
 2545              		.thumb
 2546              		.thumb_func
 2547              		.type	b1_crit_isr, %function
 2548              	b1_crit_isr:
 2549              	.LFB63:
  41:led_manager.c **** 	b1_crit_led = b1_crit_led == 0 ? 1:0;
 2550              		.loc 1 41 0
 2551              		.cfi_startproc
 2552              		@ args = 0, pretend = 0, frame = 0
 2553              		@ frame_needed = 0, uses_anonymous_args = 0
 2554 0000 10B5     		push	{r4, lr}
 2555              		.cfi_def_cfa_offset 8
 2556              		.cfi_offset 4, -8
 2557              		.cfi_offset 14, -4
  42:led_manager.c **** 	b11_write(b1_crit_led);
 2558              		.loc 1 42 0
 2559 0002 0A4C     		ldr	r4, .L213
 2560 0004 206E     		ldr	r0, [r4, #96]
 2561 0006 B0FA80F0 		clz	r0, r0
 2562 000a 4009     		lsrs	r0, r0, #5
 2563 000c 2066     		str	r0, [r4, #96]
  43:led_manager.c **** 	b12_write(b1_crit_led);
 2564              		.loc 1 43 0
 2565 000e FFF7FEFF 		bl	b11_write
 2566              	.LVL363:
  44:led_manager.c **** 	b13_write(b1_crit_led);
 2567              		.loc 1 44 0
 2568 0012 206E     		ldr	r0, [r4, #96]
 2569 0014 FFF7FEFF 		bl	b12_write
 2570              	.LVL364:
  45:led_manager.c **** 	b14_write(b1_crit_led);
 2571              		.loc 1 45 0
 2572 0018 206E     		ldr	r0, [r4, #96]
 2573 001a FFF7FEFF 		bl	b13_write
 2574              	.LVL365:
  46:led_manager.c **** 	b15_write(b1_crit_led);
 2575              		.loc 1 46 0
 2576 001e 206E     		ldr	r0, [r4, #96]
 2577 0020 FFF7FEFF 		bl	b14_write
 2578              	.LVL366:
  47:led_manager.c **** 
 2579              		.loc 1 47 0
 2580 0024 206E     		ldr	r0, [r4, #96]
 2581 0026 FFF7FEFF 		bl	b15_write
 2582              	.LVL367:
ARM GAS  D:\Windows\AppData\Local\Temp\cc9YXq6z.s 			page 64


 2583 002a 10BD     		pop	{r4, pc}
 2584              	.L214:
 2585              		.align	2
 2586              	.L213:
 2587 002c 00000000 		.word	.LANCHOR0
 2588              		.cfi_endproc
 2589              	.LFE63:
 2590              		.size	b1_crit_isr, .-b1_crit_isr
 2591              		.section	.text.led_write_b1,"ax",%progbits
 2592              		.align	2
 2593              		.global	led_write_b1
 2594              		.thumb
 2595              		.thumb_func
 2596              		.type	led_write_b1, %function
 2597              	led_write_b1:
 2598              	.LFB69:
 208:led_manager.c **** 	int steps = 0;
 2599              		.loc 1 208 0
 2600              		.cfi_startproc
 2601              		@ args = 0, pretend = 0, frame = 0
 2602              		@ frame_needed = 0, uses_anonymous_args = 0
 2603              	.LVL368:
 2604 0000 10B5     		push	{r4, lr}
 2605              		.cfi_def_cfa_offset 8
 2606              		.cfi_offset 4, -8
 2607              		.cfi_offset 14, -4
 2608              	.LVL369:
 210:led_manager.c **** 		steps = 1;
 2609              		.loc 1 210 0
 2610 0002 4028     		cmp	r0, #64
 2611 0004 1FD9     		bls	.L222
 212:led_manager.c **** 		steps = 2;
 2612              		.loc 1 212 0
 2613 0006 A0F14103 		sub	r3, r0, #65
 2614 000a DBB2     		uxtb	r3, r3
 2615 000c 042B     		cmp	r3, #4
 2616 000e 1CD9     		bls	.L223
 214:led_manager.c **** 		steps = 3;
 2617              		.loc 1 214 0
 2618 0010 A0F14603 		sub	r3, r0, #70
 2619 0014 DBB2     		uxtb	r3, r3
 2620 0016 0A2B     		cmp	r3, #10
 2621 0018 19D9     		bls	.L224
 216:led_manager.c **** 		steps = 4;
 2622              		.loc 1 216 0
 2623 001a A0F15103 		sub	r3, r0, #81
 2624 001e DBB2     		uxtb	r3, r3
 2625 0020 042B     		cmp	r3, #4
 2626 0022 16D9     		bls	.L225
 218:led_manager.c **** 		steps = 5;
 2627              		.loc 1 218 0
 2628 0024 5638     		subs	r0, r0, #86
 2629              	.LVL370:
 2630 0026 C0B2     		uxtb	r0, r0
 2631 0028 0928     		cmp	r0, #9
 2632 002a 14D9     		bls	.L226
 221:led_manager.c **** 			b1_critical_timer_Start();
ARM GAS  D:\Windows\AppData\Local\Temp\cc9YXq6z.s 			page 65


 2633              		.loc 1 221 0
 2634 002c 1F4B     		ldr	r3, .L230
 2635 002e 5B6E     		ldr	r3, [r3, #100]
 2636 0030 9BB9     		cbnz	r3, .L227
 222:led_manager.c **** 			b1_crit_int_StartEx(b1_crit_isr);
 2637              		.loc 1 222 0
 2638 0032 FFF7FEFF 		bl	b1_critical_timer_Start
 2639              	.LVL371:
 223:led_manager.c **** 			b1_critical = 1;
 2640              		.loc 1 223 0
 2641 0036 1E48     		ldr	r0, .L230+4
 2642 0038 FFF7FEFF 		bl	b1_crit_int_StartEx
 2643              	.LVL372:
 224:led_manager.c **** 		} //if
 2644              		.loc 1 224 0
 2645 003c 0122     		movs	r2, #1
 2646 003e 1B4B     		ldr	r3, .L230
 2647 0040 5A66     		str	r2, [r3, #100]
 209:led_manager.c **** 	if (BMS_TEMP <= 0x40)
 2648              		.loc 1 209 0
 2649 0042 0023     		movs	r3, #0
 2650 0044 0AE0     		b	.L216
 2651              	.LVL373:
 2652              	.L222:
 211:led_manager.c **** 	else if (BMS_TEMP > 0x40 && BMS_TEMP <= 0x45)
 2653              		.loc 1 211 0
 2654 0046 0123     		movs	r3, #1
 2655 0048 08E0     		b	.L216
 2656              	.L223:
 213:led_manager.c **** 	else if (BMS_TEMP > 0x45 && BMS_TEMP <= 0x50)
 2657              		.loc 1 213 0
 2658 004a 0223     		movs	r3, #2
 2659 004c 06E0     		b	.L216
 2660              	.L224:
 215:led_manager.c **** 	else if (BMS_TEMP > 0x50 && BMS_TEMP <= 0x55)
 2661              		.loc 1 215 0
 2662 004e 0323     		movs	r3, #3
 2663 0050 04E0     		b	.L216
 2664              	.L225:
 217:led_manager.c **** 	else if (BMS_TEMP > 0x55 && BMS_TEMP < 0x60)
 2665              		.loc 1 217 0
 2666 0052 0423     		movs	r3, #4
 2667 0054 02E0     		b	.L216
 2668              	.LVL374:
 2669              	.L226:
 219:led_manager.c **** 	else {	//(BMS_TEMP >= 60)
 2670              		.loc 1 219 0
 2671 0056 0523     		movs	r3, #5
 2672 0058 00E0     		b	.L216
 2673              	.L227:
 209:led_manager.c **** 	if (BMS_TEMP <= 0x40)
 2674              		.loc 1 209 0
 2675 005a 0023     		movs	r3, #0
 2676              	.L216:
 2677              	.LVL375:
 228:led_manager.c **** 		int i;
 2678              		.loc 1 228 0
ARM GAS  D:\Windows\AppData\Local\Temp\cc9YXq6z.s 			page 66


 2679 005c 134A     		ldr	r2, .L230
 2680 005e 526E     		ldr	r2, [r2, #100]
 2681 0060 3AB1     		cbz	r2, .L228
 2682 0062 10BD     		pop	{r4, pc}
 2683              	.LVL376:
 2684              	.L219:
 2685              	.LBB2:
 231:led_manager.c **** 		for(i=steps; i<5; i++)
 2686              		.loc 1 231 0 discriminator 3
 2687 0064 1149     		ldr	r1, .L230
 2688 0066 01EB8201 		add	r1, r1, r2, lsl #2
 2689 006a 0120     		movs	r0, #1
 2690 006c 8866     		str	r0, [r1, #104]
 230:led_manager.c **** 			b1_arr[i] = 1;	//on leds
 2691              		.loc 1 230 0 discriminator 3
 2692 006e 0244     		add	r2, r2, r0
 2693              	.LVL377:
 2694 0070 00E0     		b	.L217
 2695              	.LVL378:
 2696              	.L228:
 2697              	.LBE2:
 2698 0072 0022     		movs	r2, #0
 2699              	.L217:
 2700              	.LVL379:
 2701              	.LBB3:
 230:led_manager.c **** 			b1_arr[i] = 1;	//on leds
 2702              		.loc 1 230 0 is_stmt 0 discriminator 1
 2703 0074 9A42     		cmp	r2, r3
 2704 0076 F5DB     		blt	.L219
 2705 0078 05E0     		b	.L220
 2706              	.LVL380:
 2707              	.L221:
 233:led_manager.c **** 		
 2708              		.loc 1 233 0 is_stmt 1 discriminator 3
 2709 007a 0C4A     		ldr	r2, .L230
 2710 007c 02EB8302 		add	r2, r2, r3, lsl #2
 2711 0080 0021     		movs	r1, #0
 2712 0082 9166     		str	r1, [r2, #104]
 232:led_manager.c **** 			b1_arr[i] = 0;	//off leds
 2713              		.loc 1 232 0 discriminator 3
 2714 0084 0133     		adds	r3, r3, #1
 2715              	.LVL381:
 2716              	.L220:
 232:led_manager.c **** 			b1_arr[i] = 0;	//off leds
 2717              		.loc 1 232 0 is_stmt 0 discriminator 1
 2718 0086 042B     		cmp	r3, #4
 2719 0088 F7DD     		ble	.L221
 235:led_manager.c **** 		b12_write(b1_arr[1]);
 2720              		.loc 1 235 0 is_stmt 1
 2721 008a 084C     		ldr	r4, .L230
 2722 008c A06E     		ldr	r0, [r4, #104]
 2723 008e FFF7FEFF 		bl	b11_write
 2724              	.LVL382:
 236:led_manager.c **** 		b13_write(b1_arr[2]);
 2725              		.loc 1 236 0
 2726 0092 E06E     		ldr	r0, [r4, #108]
 2727 0094 FFF7FEFF 		bl	b12_write
ARM GAS  D:\Windows\AppData\Local\Temp\cc9YXq6z.s 			page 67


 2728              	.LVL383:
 237:led_manager.c **** 		b14_write(b1_arr[3]);
 2729              		.loc 1 237 0
 2730 0098 206F     		ldr	r0, [r4, #112]
 2731 009a FFF7FEFF 		bl	b13_write
 2732              	.LVL384:
 238:led_manager.c **** 		b15_write(b1_arr[4]);
 2733              		.loc 1 238 0
 2734 009e 606F     		ldr	r0, [r4, #116]
 2735 00a0 FFF7FEFF 		bl	b14_write
 2736              	.LVL385:
 239:led_manager.c **** 	} //if
 2737              		.loc 1 239 0
 2738 00a4 A06F     		ldr	r0, [r4, #120]
 2739 00a6 FFF7FEFF 		bl	b15_write
 2740              	.LVL386:
 2741 00aa 10BD     		pop	{r4, pc}
 2742              	.L231:
 2743              		.align	2
 2744              	.L230:
 2745 00ac 00000000 		.word	.LANCHOR0
 2746 00b0 00000000 		.word	b1_crit_isr
 2747              	.LBE3:
 2748              		.cfi_endproc
 2749              	.LFE69:
 2750              		.size	led_write_b1, .-led_write_b1
 2751              		.section	.text.b21_write,"ax",%progbits
 2752              		.align	2
 2753              		.global	b21_write
 2754              		.thumb
 2755              		.thumb_func
 2756              		.type	b21_write, %function
 2757              	b21_write:
 2758              	.LFB105:
 848:led_manager.c **** }
 849:led_manager.c **** 
 850:led_manager.c **** //center vertical bar
 851:led_manager.c **** void b21_write(int bool) {
 2759              		.loc 1 851 0
 2760              		.cfi_startproc
 2761              		@ args = 0, pretend = 0, frame = 0
 2762              		@ frame_needed = 0, uses_anonymous_args = 0
 2763              	.LVL387:
 2764 0000 08B5     		push	{r3, lr}
 2765              		.cfi_def_cfa_offset 8
 2766              		.cfi_offset 3, -8
 2767              		.cfi_offset 14, -4
 2768              	.LVL388:
 852:led_manager.c **** 	uint8_t bit = 0x10;
 853:led_manager.c **** 	if(bool == 1) 	//led on
 2769              		.loc 1 853 0
 2770 0002 0128     		cmp	r0, #1
 2771 0004 07D1     		bne	.L233
 854:led_manager.c **** 		byte07_2 = byte07_2 | bit;
 2772              		.loc 1 854 0
 2773 0006 0F4A     		ldr	r2, .L236
 2774 0008 92F85E30 		ldrb	r3, [r2, #94]	@ zero_extendqisi2
ARM GAS  D:\Windows\AppData\Local\Temp\cc9YXq6z.s 			page 68


 2775 000c 43F01003 		orr	r3, r3, #16
 2776 0010 82F85E30 		strb	r3, [r2, #94]
 2777 0014 06E0     		b	.L234
 2778              	.L233:
 855:led_manager.c **** 	else			//led off
 856:led_manager.c **** 		byte07_2 = byte07_2 & ~bit;
 2779              		.loc 1 856 0
 2780 0016 0B4A     		ldr	r2, .L236
 2781 0018 92F85E30 		ldrb	r3, [r2, #94]	@ zero_extendqisi2
 2782 001c 23F01003 		bic	r3, r3, #16
 2783 0020 82F85E30 		strb	r3, [r2, #94]
 2784              	.L234:
 857:led_manager.c **** 	
 858:led_manager.c **** 	LED_Driver2_MasterSendStart(LED_ADDR, 0);
 2785              		.loc 1 858 0
 2786 0024 4020     		movs	r0, #64
 2787              	.LVL389:
 2788 0026 0021     		movs	r1, #0
 2789 0028 FFF7FEFF 		bl	LED_Driver2_MasterSendStart
 2790              	.LVL390:
 859:led_manager.c **** 	LED_Driver2_MasterWriteByte(LED07);		//move to LED addr
 2791              		.loc 1 859 0
 2792 002c 0720     		movs	r0, #7
 2793 002e FFF7FEFF 		bl	LED_Driver2_MasterWriteByte
 2794              	.LVL391:
 860:led_manager.c **** 	LED_Driver2_MasterWriteByte(byte07_2);	//write byte to addr
 2795              		.loc 1 860 0
 2796 0032 044B     		ldr	r3, .L236
 2797 0034 93F85E00 		ldrb	r0, [r3, #94]	@ zero_extendqisi2
 2798 0038 FFF7FEFF 		bl	LED_Driver2_MasterWriteByte
 2799              	.LVL392:
 861:led_manager.c **** 	LED_Driver2_MasterSendStop();
 2800              		.loc 1 861 0
 2801 003c FFF7FEFF 		bl	LED_Driver2_MasterSendStop
 2802              	.LVL393:
 2803 0040 08BD     		pop	{r3, pc}
 2804              	.L237:
 2805 0042 00BF     		.align	2
 2806              	.L236:
 2807 0044 00000000 		.word	.LANCHOR0
 2808              		.cfi_endproc
 2809              	.LFE105:
 2810              		.size	b21_write, .-b21_write
 2811              		.section	.text.b22_write,"ax",%progbits
 2812              		.align	2
 2813              		.global	b22_write
 2814              		.thumb
 2815              		.thumb_func
 2816              		.type	b22_write, %function
 2817              	b22_write:
 2818              	.LFB106:
 862:led_manager.c **** }
 863:led_manager.c **** void b22_write(int bool) {
 2819              		.loc 1 863 0
 2820              		.cfi_startproc
 2821              		@ args = 0, pretend = 0, frame = 0
 2822              		@ frame_needed = 0, uses_anonymous_args = 0
ARM GAS  D:\Windows\AppData\Local\Temp\cc9YXq6z.s 			page 69


 2823              	.LVL394:
 2824 0000 08B5     		push	{r3, lr}
 2825              		.cfi_def_cfa_offset 8
 2826              		.cfi_offset 3, -8
 2827              		.cfi_offset 14, -4
 2828              	.LVL395:
 864:led_manager.c **** 	uint8_t bit = 0x01;
 865:led_manager.c **** 	if(bool == 1) 	//led on
 2829              		.loc 1 865 0
 2830 0002 0128     		cmp	r0, #1
 2831 0004 07D1     		bne	.L239
 866:led_manager.c **** 		byte08_2 = byte08_2 | bit;
 2832              		.loc 1 866 0
 2833 0006 0F4A     		ldr	r2, .L242
 2834 0008 92F87C30 		ldrb	r3, [r2, #124]	@ zero_extendqisi2
 2835 000c 43F00103 		orr	r3, r3, #1
 2836 0010 82F87C30 		strb	r3, [r2, #124]
 2837 0014 06E0     		b	.L240
 2838              	.L239:
 867:led_manager.c **** 	else			//led off
 868:led_manager.c **** 		byte08_2 = byte08_2 & ~bit;
 2839              		.loc 1 868 0
 2840 0016 0B4A     		ldr	r2, .L242
 2841 0018 92F87C30 		ldrb	r3, [r2, #124]	@ zero_extendqisi2
 2842 001c 23F00103 		bic	r3, r3, #1
 2843 0020 82F87C30 		strb	r3, [r2, #124]
 2844              	.L240:
 869:led_manager.c **** 	
 870:led_manager.c **** 	LED_Driver2_MasterSendStart(LED_ADDR, 0);
 2845              		.loc 1 870 0
 2846 0024 4020     		movs	r0, #64
 2847              	.LVL396:
 2848 0026 0021     		movs	r1, #0
 2849 0028 FFF7FEFF 		bl	LED_Driver2_MasterSendStart
 2850              	.LVL397:
 871:led_manager.c **** 	LED_Driver2_MasterWriteByte(LED08);		//move to LED addr
 2851              		.loc 1 871 0
 2852 002c 0820     		movs	r0, #8
 2853 002e FFF7FEFF 		bl	LED_Driver2_MasterWriteByte
 2854              	.LVL398:
 872:led_manager.c **** 	LED_Driver2_MasterWriteByte(byte08_2);	//write byte to addr
 2855              		.loc 1 872 0
 2856 0032 044B     		ldr	r3, .L242
 2857 0034 93F87C00 		ldrb	r0, [r3, #124]	@ zero_extendqisi2
 2858 0038 FFF7FEFF 		bl	LED_Driver2_MasterWriteByte
 2859              	.LVL399:
 873:led_manager.c **** 	LED_Driver2_MasterSendStop();
 2860              		.loc 1 873 0
 2861 003c FFF7FEFF 		bl	LED_Driver2_MasterSendStop
 2862              	.LVL400:
 2863 0040 08BD     		pop	{r3, pc}
 2864              	.L243:
 2865 0042 00BF     		.align	2
 2866              	.L242:
 2867 0044 00000000 		.word	.LANCHOR0
 2868              		.cfi_endproc
 2869              	.LFE106:
ARM GAS  D:\Windows\AppData\Local\Temp\cc9YXq6z.s 			page 70


 2870              		.size	b22_write, .-b22_write
 2871              		.section	.text.b23_write,"ax",%progbits
 2872              		.align	2
 2873              		.global	b23_write
 2874              		.thumb
 2875              		.thumb_func
 2876              		.type	b23_write, %function
 2877              	b23_write:
 2878              	.LFB107:
 874:led_manager.c **** }
 875:led_manager.c **** void b23_write(int bool) {
 2879              		.loc 1 875 0
 2880              		.cfi_startproc
 2881              		@ args = 0, pretend = 0, frame = 0
 2882              		@ frame_needed = 0, uses_anonymous_args = 0
 2883              	.LVL401:
 2884 0000 08B5     		push	{r3, lr}
 2885              		.cfi_def_cfa_offset 8
 2886              		.cfi_offset 3, -8
 2887              		.cfi_offset 14, -4
 2888              	.LVL402:
 876:led_manager.c **** 	uint8_t bit = 0x10;
 877:led_manager.c **** 	if(bool == 1) 	//led on
 2889              		.loc 1 877 0
 2890 0002 0128     		cmp	r0, #1
 2891 0004 07D1     		bne	.L245
 878:led_manager.c **** 		byte08_2 = byte08_2 | bit;
 2892              		.loc 1 878 0
 2893 0006 0F4A     		ldr	r2, .L248
 2894 0008 92F87C30 		ldrb	r3, [r2, #124]	@ zero_extendqisi2
 2895 000c 43F01003 		orr	r3, r3, #16
 2896 0010 82F87C30 		strb	r3, [r2, #124]
 2897 0014 06E0     		b	.L246
 2898              	.L245:
 879:led_manager.c **** 	else			//led off
 880:led_manager.c **** 		byte08_2 = byte08_2 & ~bit;
 2899              		.loc 1 880 0
 2900 0016 0B4A     		ldr	r2, .L248
 2901 0018 92F87C30 		ldrb	r3, [r2, #124]	@ zero_extendqisi2
 2902 001c 23F01003 		bic	r3, r3, #16
 2903 0020 82F87C30 		strb	r3, [r2, #124]
 2904              	.L246:
 881:led_manager.c **** 	
 882:led_manager.c **** 	LED_Driver2_MasterSendStart(LED_ADDR, 0);
 2905              		.loc 1 882 0
 2906 0024 4020     		movs	r0, #64
 2907              	.LVL403:
 2908 0026 0021     		movs	r1, #0
 2909 0028 FFF7FEFF 		bl	LED_Driver2_MasterSendStart
 2910              	.LVL404:
 883:led_manager.c **** 	LED_Driver2_MasterWriteByte(LED08);		//move to LED addr
 2911              		.loc 1 883 0
 2912 002c 0820     		movs	r0, #8
 2913 002e FFF7FEFF 		bl	LED_Driver2_MasterWriteByte
 2914              	.LVL405:
 884:led_manager.c **** 	LED_Driver2_MasterWriteByte(byte08_2);	//write byte to addr
 2915              		.loc 1 884 0
ARM GAS  D:\Windows\AppData\Local\Temp\cc9YXq6z.s 			page 71


 2916 0032 044B     		ldr	r3, .L248
 2917 0034 93F87C00 		ldrb	r0, [r3, #124]	@ zero_extendqisi2
 2918 0038 FFF7FEFF 		bl	LED_Driver2_MasterWriteByte
 2919              	.LVL406:
 885:led_manager.c **** 	LED_Driver2_MasterSendStop();
 2920              		.loc 1 885 0
 2921 003c FFF7FEFF 		bl	LED_Driver2_MasterSendStop
 2922              	.LVL407:
 2923 0040 08BD     		pop	{r3, pc}
 2924              	.L249:
 2925 0042 00BF     		.align	2
 2926              	.L248:
 2927 0044 00000000 		.word	.LANCHOR0
 2928              		.cfi_endproc
 2929              	.LFE107:
 2930              		.size	b23_write, .-b23_write
 2931              		.section	.text.b24_write,"ax",%progbits
 2932              		.align	2
 2933              		.global	b24_write
 2934              		.thumb
 2935              		.thumb_func
 2936              		.type	b24_write, %function
 2937              	b24_write:
 2938              	.LFB108:
 886:led_manager.c **** }
 887:led_manager.c **** void b24_write(int bool) {
 2939              		.loc 1 887 0
 2940              		.cfi_startproc
 2941              		@ args = 0, pretend = 0, frame = 0
 2942              		@ frame_needed = 0, uses_anonymous_args = 0
 2943              	.LVL408:
 2944 0000 08B5     		push	{r3, lr}
 2945              		.cfi_def_cfa_offset 8
 2946              		.cfi_offset 3, -8
 2947              		.cfi_offset 14, -4
 2948              	.LVL409:
 888:led_manager.c **** 	uint8_t bit = 0x02;
 889:led_manager.c **** 	if(bool == 1) 	//led on
 2949              		.loc 1 889 0
 2950 0002 0128     		cmp	r0, #1
 2951 0004 07D1     		bne	.L251
 890:led_manager.c **** 		byte05_2 = byte05_2 | bit;
 2952              		.loc 1 890 0
 2953 0006 0F4A     		ldr	r2, .L254
 2954 0008 92F85C30 		ldrb	r3, [r2, #92]	@ zero_extendqisi2
 2955 000c 43F00203 		orr	r3, r3, #2
 2956 0010 82F85C30 		strb	r3, [r2, #92]
 2957 0014 06E0     		b	.L252
 2958              	.L251:
 891:led_manager.c **** 	else			//led off
 892:led_manager.c **** 		byte05_2 = byte05_2 & ~bit;
 2959              		.loc 1 892 0
 2960 0016 0B4A     		ldr	r2, .L254
 2961 0018 92F85C30 		ldrb	r3, [r2, #92]	@ zero_extendqisi2
 2962 001c 23F00203 		bic	r3, r3, #2
 2963 0020 82F85C30 		strb	r3, [r2, #92]
 2964              	.L252:
ARM GAS  D:\Windows\AppData\Local\Temp\cc9YXq6z.s 			page 72


 893:led_manager.c **** 	
 894:led_manager.c **** 	LED_Driver2_MasterSendStart(LED_ADDR, 0);	// 0 = send write command, 1 = send read command
 2965              		.loc 1 894 0
 2966 0024 4020     		movs	r0, #64
 2967              	.LVL410:
 2968 0026 0021     		movs	r1, #0
 2969 0028 FFF7FEFF 		bl	LED_Driver2_MasterSendStart
 2970              	.LVL411:
 895:led_manager.c **** 	LED_Driver2_MasterWriteByte(LED05);		//move to LED addr
 2971              		.loc 1 895 0
 2972 002c 0520     		movs	r0, #5
 2973 002e FFF7FEFF 		bl	LED_Driver2_MasterWriteByte
 2974              	.LVL412:
 896:led_manager.c **** 	LED_Driver2_MasterWriteByte(byte05_2);	//write byte to addr
 2975              		.loc 1 896 0
 2976 0032 044B     		ldr	r3, .L254
 2977 0034 93F85C00 		ldrb	r0, [r3, #92]	@ zero_extendqisi2
 2978 0038 FFF7FEFF 		bl	LED_Driver2_MasterWriteByte
 2979              	.LVL413:
 897:led_manager.c **** 	LED_Driver2_MasterSendStop();
 2980              		.loc 1 897 0
 2981 003c FFF7FEFF 		bl	LED_Driver2_MasterSendStop
 2982              	.LVL414:
 2983 0040 08BD     		pop	{r3, pc}
 2984              	.L255:
 2985 0042 00BF     		.align	2
 2986              	.L254:
 2987 0044 00000000 		.word	.LANCHOR0
 2988              		.cfi_endproc
 2989              	.LFE108:
 2990              		.size	b24_write, .-b24_write
 2991              		.section	.text.b25_write,"ax",%progbits
 2992              		.align	2
 2993              		.global	b25_write
 2994              		.thumb
 2995              		.thumb_func
 2996              		.type	b25_write, %function
 2997              	b25_write:
 2998              	.LFB109:
 898:led_manager.c **** }
 899:led_manager.c **** void b25_write(int bool) {
 2999              		.loc 1 899 0
 3000              		.cfi_startproc
 3001              		@ args = 0, pretend = 0, frame = 0
 3002              		@ frame_needed = 0, uses_anonymous_args = 0
 3003              	.LVL415:
 3004 0000 08B5     		push	{r3, lr}
 3005              		.cfi_def_cfa_offset 8
 3006              		.cfi_offset 3, -8
 3007              		.cfi_offset 14, -4
 3008              	.LVL416:
 900:led_manager.c **** 	uint8_t bit = 0x20;
 901:led_manager.c **** 	if(bool == 1) 	//led on
 3009              		.loc 1 901 0
 3010 0002 0128     		cmp	r0, #1
 3011 0004 07D1     		bne	.L257
 902:led_manager.c **** 		byte05_2 = byte05_2 | bit;
ARM GAS  D:\Windows\AppData\Local\Temp\cc9YXq6z.s 			page 73


 3012              		.loc 1 902 0
 3013 0006 0F4A     		ldr	r2, .L260
 3014 0008 92F85C30 		ldrb	r3, [r2, #92]	@ zero_extendqisi2
 3015 000c 43F02003 		orr	r3, r3, #32
 3016 0010 82F85C30 		strb	r3, [r2, #92]
 3017 0014 06E0     		b	.L258
 3018              	.L257:
 903:led_manager.c **** 	else			//led off
 904:led_manager.c **** 		byte05_2 = byte05_2 & ~bit;
 3019              		.loc 1 904 0
 3020 0016 0B4A     		ldr	r2, .L260
 3021 0018 92F85C30 		ldrb	r3, [r2, #92]	@ zero_extendqisi2
 3022 001c 23F02003 		bic	r3, r3, #32
 3023 0020 82F85C30 		strb	r3, [r2, #92]
 3024              	.L258:
 905:led_manager.c **** 	
 906:led_manager.c **** 	LED_Driver2_MasterSendStart(LED_ADDR, 0);	// 0 = send write command, 1 = send read command
 3025              		.loc 1 906 0
 3026 0024 4020     		movs	r0, #64
 3027              	.LVL417:
 3028 0026 0021     		movs	r1, #0
 3029 0028 FFF7FEFF 		bl	LED_Driver2_MasterSendStart
 3030              	.LVL418:
 907:led_manager.c **** 	LED_Driver2_MasterWriteByte(LED05);		//move to LED addr
 3031              		.loc 1 907 0
 3032 002c 0520     		movs	r0, #5
 3033 002e FFF7FEFF 		bl	LED_Driver2_MasterWriteByte
 3034              	.LVL419:
 908:led_manager.c **** 	LED_Driver2_MasterWriteByte(byte05_2);	//write byte to addr
 3035              		.loc 1 908 0
 3036 0032 044B     		ldr	r3, .L260
 3037 0034 93F85C00 		ldrb	r0, [r3, #92]	@ zero_extendqisi2
 3038 0038 FFF7FEFF 		bl	LED_Driver2_MasterWriteByte
 3039              	.LVL420:
 909:led_manager.c **** 	LED_Driver2_MasterSendStop();
 3040              		.loc 1 909 0
 3041 003c FFF7FEFF 		bl	LED_Driver2_MasterSendStop
 3042              	.LVL421:
 3043 0040 08BD     		pop	{r3, pc}
 3044              	.L261:
 3045 0042 00BF     		.align	2
 3046              	.L260:
 3047 0044 00000000 		.word	.LANCHOR0
 3048              		.cfi_endproc
 3049              	.LFE109:
 3050              		.size	b25_write, .-b25_write
 3051              		.section	.text.b2_crit_isr,"ax",%progbits
 3052              		.align	2
 3053              		.global	b2_crit_isr
 3054              		.thumb
 3055              		.thumb_func
 3056              		.type	b2_crit_isr, %function
 3057              	b2_crit_isr:
 3058              	.LFB64:
  50:led_manager.c **** 	b2_crit_led = b2_crit_led == 0 ? 1:0;
 3059              		.loc 1 50 0
 3060              		.cfi_startproc
ARM GAS  D:\Windows\AppData\Local\Temp\cc9YXq6z.s 			page 74


 3061              		@ args = 0, pretend = 0, frame = 0
 3062              		@ frame_needed = 0, uses_anonymous_args = 0
 3063 0000 10B5     		push	{r4, lr}
 3064              		.cfi_def_cfa_offset 8
 3065              		.cfi_offset 4, -8
 3066              		.cfi_offset 14, -4
  51:led_manager.c **** 	b21_write(b2_crit_led);
 3067              		.loc 1 51 0
 3068 0002 0D4C     		ldr	r4, .L264
 3069 0004 D4F88000 		ldr	r0, [r4, #128]
 3070 0008 B0FA80F0 		clz	r0, r0
 3071 000c 4009     		lsrs	r0, r0, #5
 3072 000e C4F88000 		str	r0, [r4, #128]
  52:led_manager.c **** 	b22_write(b2_crit_led);
 3073              		.loc 1 52 0
 3074 0012 FFF7FEFF 		bl	b21_write
 3075              	.LVL422:
  53:led_manager.c **** 	b23_write(b2_crit_led);
 3076              		.loc 1 53 0
 3077 0016 D4F88000 		ldr	r0, [r4, #128]
 3078 001a FFF7FEFF 		bl	b22_write
 3079              	.LVL423:
  54:led_manager.c **** 	b24_write(b2_crit_led);
 3080              		.loc 1 54 0
 3081 001e D4F88000 		ldr	r0, [r4, #128]
 3082 0022 FFF7FEFF 		bl	b23_write
 3083              	.LVL424:
  55:led_manager.c **** 	b25_write(b2_crit_led);
 3084              		.loc 1 55 0
 3085 0026 D4F88000 		ldr	r0, [r4, #128]
 3086 002a FFF7FEFF 		bl	b24_write
 3087              	.LVL425:
  56:led_manager.c **** 
 3088              		.loc 1 56 0
 3089 002e D4F88000 		ldr	r0, [r4, #128]
 3090 0032 FFF7FEFF 		bl	b25_write
 3091              	.LVL426:
 3092 0036 10BD     		pop	{r4, pc}
 3093              	.L265:
 3094              		.align	2
 3095              	.L264:
 3096 0038 00000000 		.word	.LANCHOR0
 3097              		.cfi_endproc
 3098              	.LFE64:
 3099              		.size	b2_crit_isr, .-b2_crit_isr
 3100              		.section	.text.led_write_b2,"ax",%progbits
 3101              		.align	2
 3102              		.global	led_write_b2
 3103              		.thumb
 3104              		.thumb_func
 3105              		.type	led_write_b2, %function
 3106              	led_write_b2:
 3107              	.LFB70:
 243:led_manager.c **** 	int steps = 0;
 3108              		.loc 1 243 0
 3109              		.cfi_startproc
 3110              		@ args = 0, pretend = 0, frame = 0
ARM GAS  D:\Windows\AppData\Local\Temp\cc9YXq6z.s 			page 75


 3111              		@ frame_needed = 0, uses_anonymous_args = 0
 3112              	.LVL427:
 3113 0000 10B5     		push	{r4, lr}
 3114              		.cfi_def_cfa_offset 8
 3115              		.cfi_offset 4, -8
 3116              		.cfi_offset 14, -4
 3117              	.LVL428:
 245:led_manager.c **** 		steps = 1;
 3118              		.loc 1 245 0
 3119 0002 2828     		cmp	r0, #40
 3120 0004 21D9     		bls	.L273
 247:led_manager.c **** 		steps = 2;
 3121              		.loc 1 247 0
 3122 0006 A0F12903 		sub	r3, r0, #41
 3123 000a DBB2     		uxtb	r3, r3
 3124 000c 042B     		cmp	r3, #4
 3125 000e 1ED9     		bls	.L274
 249:led_manager.c **** 		steps = 3;
 3126              		.loc 1 249 0
 3127 0010 A0F12E03 		sub	r3, r0, #46
 3128 0014 DBB2     		uxtb	r3, r3
 3129 0016 042B     		cmp	r3, #4
 3130 0018 1BD9     		bls	.L275
 251:led_manager.c **** 		steps = 4;
 3131              		.loc 1 251 0
 3132 001a A0F13303 		sub	r3, r0, #51
 3133 001e DBB2     		uxtb	r3, r3
 3134 0020 042B     		cmp	r3, #4
 3135 0022 18D9     		bls	.L276
 253:led_manager.c **** 		steps = 5;
 3136              		.loc 1 253 0
 3137 0024 3838     		subs	r0, r0, #56
 3138              	.LVL429:
 3139 0026 C0B2     		uxtb	r0, r0
 3140 0028 0428     		cmp	r0, #4
 3141 002a 16D9     		bls	.L277
 256:led_manager.c **** 			b2_critical_timer_Start();
 3142              		.loc 1 256 0
 3143 002c 244B     		ldr	r3, .L281
 3144 002e D3F88430 		ldr	r3, [r3, #132]
 3145 0032 A3B9     		cbnz	r3, .L278
 257:led_manager.c **** 			b2_crit_int_StartEx(b2_crit_isr);
 3146              		.loc 1 257 0
 3147 0034 FFF7FEFF 		bl	b2_critical_timer_Start
 3148              	.LVL430:
 258:led_manager.c **** 			b2_critical = 1;
 3149              		.loc 1 258 0
 3150 0038 2248     		ldr	r0, .L281+4
 3151 003a FFF7FEFF 		bl	b2_crit_int_StartEx
 3152              	.LVL431:
 259:led_manager.c **** 		} //if
 3153              		.loc 1 259 0
 3154 003e 0122     		movs	r2, #1
 3155 0040 1F4B     		ldr	r3, .L281
 3156 0042 C3F88420 		str	r2, [r3, #132]
 244:led_manager.c **** 	if (MTR_TEMP <= 40)
 3157              		.loc 1 244 0
ARM GAS  D:\Windows\AppData\Local\Temp\cc9YXq6z.s 			page 76


 3158 0046 0023     		movs	r3, #0
 3159 0048 0AE0     		b	.L267
 3160              	.LVL432:
 3161              	.L273:
 246:led_manager.c **** 	else if (MTR_TEMP > 40 && MTR_TEMP <= 45)
 3162              		.loc 1 246 0
 3163 004a 0123     		movs	r3, #1
 3164 004c 08E0     		b	.L267
 3165              	.L274:
 248:led_manager.c **** 	else if (MTR_TEMP > 45 && MTR_TEMP <= 50)
 3166              		.loc 1 248 0
 3167 004e 0223     		movs	r3, #2
 3168 0050 06E0     		b	.L267
 3169              	.L275:
 250:led_manager.c **** 	else if (MTR_TEMP > 50 && MTR_TEMP <= 55)
 3170              		.loc 1 250 0
 3171 0052 0323     		movs	r3, #3
 3172 0054 04E0     		b	.L267
 3173              	.L276:
 252:led_manager.c **** 	else if (MTR_TEMP > 55 && MTR_TEMP <= 60)
 3174              		.loc 1 252 0
 3175 0056 0423     		movs	r3, #4
 3176 0058 02E0     		b	.L267
 3177              	.LVL433:
 3178              	.L277:
 254:led_manager.c **** 	else {	//(MTR_TEMP >= 60)
 3179              		.loc 1 254 0
 3180 005a 0523     		movs	r3, #5
 3181 005c 00E0     		b	.L267
 3182              	.L278:
 244:led_manager.c **** 	if (MTR_TEMP <= 40)
 3183              		.loc 1 244 0
 3184 005e 0023     		movs	r3, #0
 3185              	.L267:
 3186              	.LVL434:
 263:led_manager.c **** 		int i;
 3187              		.loc 1 263 0
 3188 0060 174A     		ldr	r2, .L281
 3189 0062 D2F88420 		ldr	r2, [r2, #132]
 3190 0066 42B1     		cbz	r2, .L279
 3191 0068 10BD     		pop	{r4, pc}
 3192              	.LVL435:
 3193              	.L270:
 3194              	.LBB4:
 266:led_manager.c **** 		for(i=steps; i<5; i++)
 3195              		.loc 1 266 0 discriminator 3
 3196 006a 1549     		ldr	r1, .L281
 3197 006c 01EB8201 		add	r1, r1, r2, lsl #2
 3198 0070 0120     		movs	r0, #1
 3199 0072 C1F88800 		str	r0, [r1, #136]
 265:led_manager.c **** 			b2_arr[i] = 1;	//on leds
 3200              		.loc 1 265 0 discriminator 3
 3201 0076 0244     		add	r2, r2, r0
 3202              	.LVL436:
 3203 0078 00E0     		b	.L268
 3204              	.LVL437:
 3205              	.L279:
ARM GAS  D:\Windows\AppData\Local\Temp\cc9YXq6z.s 			page 77


 3206              	.LBE4:
 3207 007a 0022     		movs	r2, #0
 3208              	.L268:
 3209              	.LVL438:
 3210              	.LBB5:
 265:led_manager.c **** 			b2_arr[i] = 1;	//on leds
 3211              		.loc 1 265 0 is_stmt 0 discriminator 1
 3212 007c 9A42     		cmp	r2, r3
 3213 007e F4DB     		blt	.L270
 3214 0080 06E0     		b	.L271
 3215              	.LVL439:
 3216              	.L272:
 268:led_manager.c **** 		
 3217              		.loc 1 268 0 is_stmt 1 discriminator 3
 3218 0082 0F4A     		ldr	r2, .L281
 3219 0084 02EB8302 		add	r2, r2, r3, lsl #2
 3220 0088 0021     		movs	r1, #0
 3221 008a C2F88810 		str	r1, [r2, #136]
 267:led_manager.c **** 			b2_arr[i] = 0;	//off leds
 3222              		.loc 1 267 0 discriminator 3
 3223 008e 0133     		adds	r3, r3, #1
 3224              	.LVL440:
 3225              	.L271:
 267:led_manager.c **** 			b2_arr[i] = 0;	//off leds
 3226              		.loc 1 267 0 is_stmt 0 discriminator 1
 3227 0090 042B     		cmp	r3, #4
 3228 0092 F6DD     		ble	.L272
 270:led_manager.c **** 		b22_write(b2_arr[1]);
 3229              		.loc 1 270 0 is_stmt 1
 3230 0094 0A4C     		ldr	r4, .L281
 3231 0096 D4F88800 		ldr	r0, [r4, #136]
 3232 009a FFF7FEFF 		bl	b21_write
 3233              	.LVL441:
 271:led_manager.c **** 		b23_write(b2_arr[2]);
 3234              		.loc 1 271 0
 3235 009e D4F88C00 		ldr	r0, [r4, #140]
 3236 00a2 FFF7FEFF 		bl	b22_write
 3237              	.LVL442:
 272:led_manager.c **** 		b24_write(b2_arr[3]);
 3238              		.loc 1 272 0
 3239 00a6 D4F89000 		ldr	r0, [r4, #144]
 3240 00aa FFF7FEFF 		bl	b23_write
 3241              	.LVL443:
 273:led_manager.c **** 		b25_write(b2_arr[4]);	
 3242              		.loc 1 273 0
 3243 00ae D4F89400 		ldr	r0, [r4, #148]
 3244 00b2 FFF7FEFF 		bl	b24_write
 3245              	.LVL444:
 274:led_manager.c **** 	} //if
 3246              		.loc 1 274 0
 3247 00b6 D4F89800 		ldr	r0, [r4, #152]
 3248 00ba FFF7FEFF 		bl	b25_write
 3249              	.LVL445:
 3250 00be 10BD     		pop	{r4, pc}
 3251              	.L282:
 3252              		.align	2
 3253              	.L281:
ARM GAS  D:\Windows\AppData\Local\Temp\cc9YXq6z.s 			page 78


 3254 00c0 00000000 		.word	.LANCHOR0
 3255 00c4 00000000 		.word	b2_crit_isr
 3256              	.LBE5:
 3257              		.cfi_endproc
 3258              	.LFE70:
 3259              		.size	led_write_b2, .-led_write_b2
 3260              		.section	.text.b31_write,"ax",%progbits
 3261              		.align	2
 3262              		.global	b31_write
 3263              		.thumb
 3264              		.thumb_func
 3265              		.type	b31_write, %function
 3266              	b31_write:
 3267              	.LFB110:
 910:led_manager.c **** }
 911:led_manager.c **** 
 912:led_manager.c **** //right bar
 913:led_manager.c **** void b31_write(int bool) {
 3268              		.loc 1 913 0
 3269              		.cfi_startproc
 3270              		@ args = 0, pretend = 0, frame = 0
 3271              		@ frame_needed = 0, uses_anonymous_args = 0
 3272              	.LVL446:
 3273 0000 08B5     		push	{r3, lr}
 3274              		.cfi_def_cfa_offset 8
 3275              		.cfi_offset 3, -8
 3276              		.cfi_offset 14, -4
 3277              	.LVL447:
 914:led_manager.c **** 	uint8_t bit = 0x02;
 915:led_manager.c **** 	if(bool == 1) 	//led on
 3278              		.loc 1 915 0
 3279 0002 0128     		cmp	r0, #1
 3280 0004 07D1     		bne	.L284
 916:led_manager.c **** 		byte06_2 = byte06_2 | bit;
 3281              		.loc 1 916 0
 3282 0006 0F4A     		ldr	r2, .L287
 3283 0008 92F85D30 		ldrb	r3, [r2, #93]	@ zero_extendqisi2
 3284 000c 43F00203 		orr	r3, r3, #2
 3285 0010 82F85D30 		strb	r3, [r2, #93]
 3286 0014 06E0     		b	.L285
 3287              	.L284:
 917:led_manager.c **** 	else			//led off
 918:led_manager.c **** 		byte06_2 = byte06_2 & ~bit;
 3288              		.loc 1 918 0
 3289 0016 0B4A     		ldr	r2, .L287
 3290 0018 92F85D30 		ldrb	r3, [r2, #93]	@ zero_extendqisi2
 3291 001c 23F00203 		bic	r3, r3, #2
 3292 0020 82F85D30 		strb	r3, [r2, #93]
 3293              	.L285:
 919:led_manager.c **** 	
 920:led_manager.c **** 	LED_Driver2_MasterSendStart(LED_ADDR, 0);
 3294              		.loc 1 920 0
 3295 0024 4020     		movs	r0, #64
 3296              	.LVL448:
 3297 0026 0021     		movs	r1, #0
 3298 0028 FFF7FEFF 		bl	LED_Driver2_MasterSendStart
 3299              	.LVL449:
ARM GAS  D:\Windows\AppData\Local\Temp\cc9YXq6z.s 			page 79


 921:led_manager.c **** 	LED_Driver2_MasterWriteByte(LED06);		//move to LED addr
 3300              		.loc 1 921 0
 3301 002c 0620     		movs	r0, #6
 3302 002e FFF7FEFF 		bl	LED_Driver2_MasterWriteByte
 3303              	.LVL450:
 922:led_manager.c **** 	LED_Driver2_MasterWriteByte(byte06_2);	//write byte to addr
 3304              		.loc 1 922 0
 3305 0032 044B     		ldr	r3, .L287
 3306 0034 93F85D00 		ldrb	r0, [r3, #93]	@ zero_extendqisi2
 3307 0038 FFF7FEFF 		bl	LED_Driver2_MasterWriteByte
 3308              	.LVL451:
 923:led_manager.c **** 	LED_Driver2_MasterSendStop();
 3309              		.loc 1 923 0
 3310 003c FFF7FEFF 		bl	LED_Driver2_MasterSendStop
 3311              	.LVL452:
 3312 0040 08BD     		pop	{r3, pc}
 3313              	.L288:
 3314 0042 00BF     		.align	2
 3315              	.L287:
 3316 0044 00000000 		.word	.LANCHOR0
 3317              		.cfi_endproc
 3318              	.LFE110:
 3319              		.size	b31_write, .-b31_write
 3320              		.section	.text.b32_write,"ax",%progbits
 3321              		.align	2
 3322              		.global	b32_write
 3323              		.thumb
 3324              		.thumb_func
 3325              		.type	b32_write, %function
 3326              	b32_write:
 3327              	.LFB111:
 924:led_manager.c **** }
 925:led_manager.c **** void b32_write(int bool) {
 3328              		.loc 1 925 0
 3329              		.cfi_startproc
 3330              		@ args = 0, pretend = 0, frame = 0
 3331              		@ frame_needed = 0, uses_anonymous_args = 0
 3332              	.LVL453:
 3333 0000 08B5     		push	{r3, lr}
 3334              		.cfi_def_cfa_offset 8
 3335              		.cfi_offset 3, -8
 3336              		.cfi_offset 14, -4
 3337              	.LVL454:
 926:led_manager.c **** 	uint8_t bit = 0x20;
 927:led_manager.c **** 	if(bool == 1) 	//led on
 3338              		.loc 1 927 0
 3339 0002 0128     		cmp	r0, #1
 3340 0004 07D1     		bne	.L290
 928:led_manager.c **** 		byte06_2 = byte06_2 | bit;
 3341              		.loc 1 928 0
 3342 0006 0F4A     		ldr	r2, .L293
 3343 0008 92F85D30 		ldrb	r3, [r2, #93]	@ zero_extendqisi2
 3344 000c 43F02003 		orr	r3, r3, #32
 3345 0010 82F85D30 		strb	r3, [r2, #93]
 3346 0014 06E0     		b	.L291
 3347              	.L290:
 929:led_manager.c **** 	else			//led off
ARM GAS  D:\Windows\AppData\Local\Temp\cc9YXq6z.s 			page 80


 930:led_manager.c **** 		byte06_2 = byte06_2 & ~bit;
 3348              		.loc 1 930 0
 3349 0016 0B4A     		ldr	r2, .L293
 3350 0018 92F85D30 		ldrb	r3, [r2, #93]	@ zero_extendqisi2
 3351 001c 23F02003 		bic	r3, r3, #32
 3352 0020 82F85D30 		strb	r3, [r2, #93]
 3353              	.L291:
 931:led_manager.c **** 	
 932:led_manager.c **** 	LED_Driver2_MasterSendStart(LED_ADDR, 0);
 3354              		.loc 1 932 0
 3355 0024 4020     		movs	r0, #64
 3356              	.LVL455:
 3357 0026 0021     		movs	r1, #0
 3358 0028 FFF7FEFF 		bl	LED_Driver2_MasterSendStart
 3359              	.LVL456:
 933:led_manager.c **** 	LED_Driver2_MasterWriteByte(LED06);		//move to LED addr
 3360              		.loc 1 933 0
 3361 002c 0620     		movs	r0, #6
 3362 002e FFF7FEFF 		bl	LED_Driver2_MasterWriteByte
 3363              	.LVL457:
 934:led_manager.c **** 	LED_Driver2_MasterWriteByte(byte06_2);	//write byte to addr
 3364              		.loc 1 934 0
 3365 0032 044B     		ldr	r3, .L293
 3366 0034 93F85D00 		ldrb	r0, [r3, #93]	@ zero_extendqisi2
 3367 0038 FFF7FEFF 		bl	LED_Driver2_MasterWriteByte
 3368              	.LVL458:
 935:led_manager.c **** 	LED_Driver2_MasterSendStop();
 3369              		.loc 1 935 0
 3370 003c FFF7FEFF 		bl	LED_Driver2_MasterSendStop
 3371              	.LVL459:
 3372 0040 08BD     		pop	{r3, pc}
 3373              	.L294:
 3374 0042 00BF     		.align	2
 3375              	.L293:
 3376 0044 00000000 		.word	.LANCHOR0
 3377              		.cfi_endproc
 3378              	.LFE111:
 3379              		.size	b32_write, .-b32_write
 3380              		.section	.text.b33_write,"ax",%progbits
 3381              		.align	2
 3382              		.global	b33_write
 3383              		.thumb
 3384              		.thumb_func
 3385              		.type	b33_write, %function
 3386              	b33_write:
 3387              	.LFB112:
 936:led_manager.c **** }
 937:led_manager.c **** void b33_write(int bool) {
 3388              		.loc 1 937 0
 3389              		.cfi_startproc
 3390              		@ args = 0, pretend = 0, frame = 0
 3391              		@ frame_needed = 0, uses_anonymous_args = 0
 3392              	.LVL460:
 3393 0000 08B5     		push	{r3, lr}
 3394              		.cfi_def_cfa_offset 8
 3395              		.cfi_offset 3, -8
 3396              		.cfi_offset 14, -4
ARM GAS  D:\Windows\AppData\Local\Temp\cc9YXq6z.s 			page 81


 3397              	.LVL461:
 938:led_manager.c **** 	uint8_t bit = 0x02;
 939:led_manager.c **** 	if(bool == 1) 	//led on
 3398              		.loc 1 939 0
 3399 0002 0128     		cmp	r0, #1
 3400 0004 07D1     		bne	.L296
 940:led_manager.c **** 		byte07_2 = byte07_2 | bit;
 3401              		.loc 1 940 0
 3402 0006 0F4A     		ldr	r2, .L299
 3403 0008 92F85E30 		ldrb	r3, [r2, #94]	@ zero_extendqisi2
 3404 000c 43F00203 		orr	r3, r3, #2
 3405 0010 82F85E30 		strb	r3, [r2, #94]
 3406 0014 06E0     		b	.L297
 3407              	.L296:
 941:led_manager.c **** 	else			//led off
 942:led_manager.c **** 		byte07_2 = byte07_2 & ~bit;
 3408              		.loc 1 942 0
 3409 0016 0B4A     		ldr	r2, .L299
 3410 0018 92F85E30 		ldrb	r3, [r2, #94]	@ zero_extendqisi2
 3411 001c 23F00203 		bic	r3, r3, #2
 3412 0020 82F85E30 		strb	r3, [r2, #94]
 3413              	.L297:
 943:led_manager.c **** 	
 944:led_manager.c **** 	LED_Driver2_MasterSendStart(LED_ADDR, 0);
 3414              		.loc 1 944 0
 3415 0024 4020     		movs	r0, #64
 3416              	.LVL462:
 3417 0026 0021     		movs	r1, #0
 3418 0028 FFF7FEFF 		bl	LED_Driver2_MasterSendStart
 3419              	.LVL463:
 945:led_manager.c **** 	LED_Driver2_MasterWriteByte(LED07);		//move to LED addr
 3420              		.loc 1 945 0
 3421 002c 0720     		movs	r0, #7
 3422 002e FFF7FEFF 		bl	LED_Driver2_MasterWriteByte
 3423              	.LVL464:
 946:led_manager.c **** 	LED_Driver2_MasterWriteByte(byte07_2);	//write byte to addr
 3424              		.loc 1 946 0
 3425 0032 044B     		ldr	r3, .L299
 3426 0034 93F85E00 		ldrb	r0, [r3, #94]	@ zero_extendqisi2
 3427 0038 FFF7FEFF 		bl	LED_Driver2_MasterWriteByte
 3428              	.LVL465:
 947:led_manager.c **** 	LED_Driver2_MasterSendStop();
 3429              		.loc 1 947 0
 3430 003c FFF7FEFF 		bl	LED_Driver2_MasterSendStop
 3431              	.LVL466:
 3432 0040 08BD     		pop	{r3, pc}
 3433              	.L300:
 3434 0042 00BF     		.align	2
 3435              	.L299:
 3436 0044 00000000 		.word	.LANCHOR0
 3437              		.cfi_endproc
 3438              	.LFE112:
 3439              		.size	b33_write, .-b33_write
 3440              		.section	.text.b34_write,"ax",%progbits
 3441              		.align	2
 3442              		.global	b34_write
 3443              		.thumb
ARM GAS  D:\Windows\AppData\Local\Temp\cc9YXq6z.s 			page 82


 3444              		.thumb_func
 3445              		.type	b34_write, %function
 3446              	b34_write:
 3447              	.LFB113:
 948:led_manager.c **** }
 949:led_manager.c **** void b34_write(int bool) {
 3448              		.loc 1 949 0
 3449              		.cfi_startproc
 3450              		@ args = 0, pretend = 0, frame = 0
 3451              		@ frame_needed = 0, uses_anonymous_args = 0
 3452              	.LVL467:
 3453 0000 08B5     		push	{r3, lr}
 3454              		.cfi_def_cfa_offset 8
 3455              		.cfi_offset 3, -8
 3456              		.cfi_offset 14, -4
 3457              	.LVL468:
 950:led_manager.c **** 	uint8_t bit = 0x20;
 951:led_manager.c **** 	if(bool == 1) 	//led on
 3458              		.loc 1 951 0
 3459 0002 0128     		cmp	r0, #1
 3460 0004 07D1     		bne	.L302
 952:led_manager.c **** 		byte07_2 = byte07_2 | bit;
 3461              		.loc 1 952 0
 3462 0006 0F4A     		ldr	r2, .L305
 3463 0008 92F85E30 		ldrb	r3, [r2, #94]	@ zero_extendqisi2
 3464 000c 43F02003 		orr	r3, r3, #32
 3465 0010 82F85E30 		strb	r3, [r2, #94]
 3466 0014 06E0     		b	.L303
 3467              	.L302:
 953:led_manager.c **** 	else			//led off
 954:led_manager.c **** 		byte07_2 = byte07_2 & ~bit;
 3468              		.loc 1 954 0
 3469 0016 0B4A     		ldr	r2, .L305
 3470 0018 92F85E30 		ldrb	r3, [r2, #94]	@ zero_extendqisi2
 3471 001c 23F02003 		bic	r3, r3, #32
 3472 0020 82F85E30 		strb	r3, [r2, #94]
 3473              	.L303:
 955:led_manager.c **** 	
 956:led_manager.c **** 	LED_Driver2_MasterSendStart(LED_ADDR, 0);
 3474              		.loc 1 956 0
 3475 0024 4020     		movs	r0, #64
 3476              	.LVL469:
 3477 0026 0021     		movs	r1, #0
 3478 0028 FFF7FEFF 		bl	LED_Driver2_MasterSendStart
 3479              	.LVL470:
 957:led_manager.c **** 	LED_Driver2_MasterWriteByte(LED07);		//move to LED addr
 3480              		.loc 1 957 0
 3481 002c 0720     		movs	r0, #7
 3482 002e FFF7FEFF 		bl	LED_Driver2_MasterWriteByte
 3483              	.LVL471:
 958:led_manager.c **** 	LED_Driver2_MasterWriteByte(byte07_2);	//write byte to addr
 3484              		.loc 1 958 0
 3485 0032 044B     		ldr	r3, .L305
 3486 0034 93F85E00 		ldrb	r0, [r3, #94]	@ zero_extendqisi2
 3487 0038 FFF7FEFF 		bl	LED_Driver2_MasterWriteByte
 3488              	.LVL472:
 959:led_manager.c **** 	LED_Driver2_MasterSendStop();
ARM GAS  D:\Windows\AppData\Local\Temp\cc9YXq6z.s 			page 83


 3489              		.loc 1 959 0
 3490 003c FFF7FEFF 		bl	LED_Driver2_MasterSendStop
 3491              	.LVL473:
 3492 0040 08BD     		pop	{r3, pc}
 3493              	.L306:
 3494 0042 00BF     		.align	2
 3495              	.L305:
 3496 0044 00000000 		.word	.LANCHOR0
 3497              		.cfi_endproc
 3498              	.LFE113:
 3499              		.size	b34_write, .-b34_write
 3500              		.section	.text.b35_write,"ax",%progbits
 3501              		.align	2
 3502              		.global	b35_write
 3503              		.thumb
 3504              		.thumb_func
 3505              		.type	b35_write, %function
 3506              	b35_write:
 3507              	.LFB114:
 960:led_manager.c **** }
 961:led_manager.c **** void b35_write(int bool) {
 3508              		.loc 1 961 0
 3509              		.cfi_startproc
 3510              		@ args = 0, pretend = 0, frame = 0
 3511              		@ frame_needed = 0, uses_anonymous_args = 0
 3512              	.LVL474:
 3513 0000 08B5     		push	{r3, lr}
 3514              		.cfi_def_cfa_offset 8
 3515              		.cfi_offset 3, -8
 3516              		.cfi_offset 14, -4
 3517              	.LVL475:
 962:led_manager.c **** 	uint8_t bit = 0x02;
 963:led_manager.c **** 	if(bool == 1) 	//led on
 3518              		.loc 1 963 0
 3519 0002 0128     		cmp	r0, #1
 3520 0004 07D1     		bne	.L308
 964:led_manager.c **** 		byte08_2 = byte08_2 | bit;
 3521              		.loc 1 964 0
 3522 0006 0F4A     		ldr	r2, .L311
 3523 0008 92F87C30 		ldrb	r3, [r2, #124]	@ zero_extendqisi2
 3524 000c 43F00203 		orr	r3, r3, #2
 3525 0010 82F87C30 		strb	r3, [r2, #124]
 3526 0014 06E0     		b	.L309
 3527              	.L308:
 965:led_manager.c **** 	else			//led off
 966:led_manager.c **** 		byte08_2 = byte08_2 & ~bit;
 3528              		.loc 1 966 0
 3529 0016 0B4A     		ldr	r2, .L311
 3530 0018 92F87C30 		ldrb	r3, [r2, #124]	@ zero_extendqisi2
 3531 001c 23F00203 		bic	r3, r3, #2
 3532 0020 82F87C30 		strb	r3, [r2, #124]
 3533              	.L309:
 967:led_manager.c **** 	
 968:led_manager.c **** 	LED_Driver2_MasterSendStart(LED_ADDR, 0);
 3534              		.loc 1 968 0
 3535 0024 4020     		movs	r0, #64
 3536              	.LVL476:
ARM GAS  D:\Windows\AppData\Local\Temp\cc9YXq6z.s 			page 84


 3537 0026 0021     		movs	r1, #0
 3538 0028 FFF7FEFF 		bl	LED_Driver2_MasterSendStart
 3539              	.LVL477:
 969:led_manager.c **** 	LED_Driver2_MasterWriteByte(LED08);		//move to LED addr
 3540              		.loc 1 969 0
 3541 002c 0820     		movs	r0, #8
 3542 002e FFF7FEFF 		bl	LED_Driver2_MasterWriteByte
 3543              	.LVL478:
 970:led_manager.c **** 	LED_Driver2_MasterWriteByte(byte08_2);	//write byte to addr
 3544              		.loc 1 970 0
 3545 0032 044B     		ldr	r3, .L311
 3546 0034 93F87C00 		ldrb	r0, [r3, #124]	@ zero_extendqisi2
 3547 0038 FFF7FEFF 		bl	LED_Driver2_MasterWriteByte
 3548              	.LVL479:
 971:led_manager.c **** 	LED_Driver2_MasterSendStop();
 3549              		.loc 1 971 0
 3550 003c FFF7FEFF 		bl	LED_Driver2_MasterSendStop
 3551              	.LVL480:
 3552 0040 08BD     		pop	{r3, pc}
 3553              	.L312:
 3554 0042 00BF     		.align	2
 3555              	.L311:
 3556 0044 00000000 		.word	.LANCHOR0
 3557              		.cfi_endproc
 3558              	.LFE114:
 3559              		.size	b35_write, .-b35_write
 3560              		.section	.text.b3_crit_isr,"ax",%progbits
 3561              		.align	2
 3562              		.global	b3_crit_isr
 3563              		.thumb
 3564              		.thumb_func
 3565              		.type	b3_crit_isr, %function
 3566              	b3_crit_isr:
 3567              	.LFB65:
  59:led_manager.c **** 	b3_crit_led = b3_crit_led == 0 ? 1:0;
 3568              		.loc 1 59 0
 3569              		.cfi_startproc
 3570              		@ args = 0, pretend = 0, frame = 0
 3571              		@ frame_needed = 0, uses_anonymous_args = 0
 3572 0000 10B5     		push	{r4, lr}
 3573              		.cfi_def_cfa_offset 8
 3574              		.cfi_offset 4, -8
 3575              		.cfi_offset 14, -4
  60:led_manager.c **** 	b31_write(b3_crit_led);
 3576              		.loc 1 60 0
 3577 0002 0D4C     		ldr	r4, .L315
 3578 0004 D4F89C00 		ldr	r0, [r4, #156]
 3579 0008 B0FA80F0 		clz	r0, r0
 3580 000c 4009     		lsrs	r0, r0, #5
 3581 000e C4F89C00 		str	r0, [r4, #156]
  61:led_manager.c **** 	b32_write(b3_crit_led);
 3582              		.loc 1 61 0
 3583 0012 FFF7FEFF 		bl	b31_write
 3584              	.LVL481:
  62:led_manager.c **** 	b33_write(b3_crit_led);
 3585              		.loc 1 62 0
 3586 0016 D4F89C00 		ldr	r0, [r4, #156]
ARM GAS  D:\Windows\AppData\Local\Temp\cc9YXq6z.s 			page 85


 3587 001a FFF7FEFF 		bl	b32_write
 3588              	.LVL482:
  63:led_manager.c **** 	b34_write(b3_crit_led);
 3589              		.loc 1 63 0
 3590 001e D4F89C00 		ldr	r0, [r4, #156]
 3591 0022 FFF7FEFF 		bl	b33_write
 3592              	.LVL483:
  64:led_manager.c **** 	b35_write(b3_crit_led);
 3593              		.loc 1 64 0
 3594 0026 D4F89C00 		ldr	r0, [r4, #156]
 3595 002a FFF7FEFF 		bl	b34_write
 3596              	.LVL484:
  65:led_manager.c **** 
 3597              		.loc 1 65 0
 3598 002e D4F89C00 		ldr	r0, [r4, #156]
 3599 0032 FFF7FEFF 		bl	b35_write
 3600              	.LVL485:
 3601 0036 10BD     		pop	{r4, pc}
 3602              	.L316:
 3603              		.align	2
 3604              	.L315:
 3605 0038 00000000 		.word	.LANCHOR0
 3606              		.cfi_endproc
 3607              	.LFE65:
 3608              		.size	b3_crit_isr, .-b3_crit_isr
 3609              		.section	.text.led_write_b3,"ax",%progbits
 3610              		.align	2
 3611              		.global	led_write_b3
 3612              		.thumb
 3613              		.thumb_func
 3614              		.type	led_write_b3, %function
 3615              	led_write_b3:
 3616              	.LFB71:
 278:led_manager.c **** 	int steps = 0;
 3617              		.loc 1 278 0
 3618              		.cfi_startproc
 3619              		@ args = 0, pretend = 0, frame = 0
 3620              		@ frame_needed = 0, uses_anonymous_args = 0
 3621              	.LVL486:
 3622 0000 10B5     		push	{r4, lr}
 3623              		.cfi_def_cfa_offset 8
 3624              		.cfi_offset 4, -8
 3625              		.cfi_offset 14, -4
 3626              	.LVL487:
 280:led_manager.c **** 		steps = 1;
 3627              		.loc 1 280 0
 3628 0002 2828     		cmp	r0, #40
 3629 0004 21D9     		bls	.L324
 282:led_manager.c **** 		steps = 2;
 3630              		.loc 1 282 0
 3631 0006 A0F12903 		sub	r3, r0, #41
 3632 000a DBB2     		uxtb	r3, r3
 3633 000c 042B     		cmp	r3, #4
 3634 000e 1ED9     		bls	.L325
 284:led_manager.c **** 		steps = 3;
 3635              		.loc 1 284 0
 3636 0010 A0F12E03 		sub	r3, r0, #46
ARM GAS  D:\Windows\AppData\Local\Temp\cc9YXq6z.s 			page 86


 3637 0014 DBB2     		uxtb	r3, r3
 3638 0016 042B     		cmp	r3, #4
 3639 0018 1BD9     		bls	.L326
 286:led_manager.c **** 		steps = 4;
 3640              		.loc 1 286 0
 3641 001a A0F13303 		sub	r3, r0, #51
 3642 001e DBB2     		uxtb	r3, r3
 3643 0020 042B     		cmp	r3, #4
 3644 0022 18D9     		bls	.L327
 288:led_manager.c **** 		steps = 5;
 3645              		.loc 1 288 0
 3646 0024 3838     		subs	r0, r0, #56
 3647              	.LVL488:
 3648 0026 C0B2     		uxtb	r0, r0
 3649 0028 0328     		cmp	r0, #3
 3650 002a 16D9     		bls	.L328
 291:led_manager.c **** 			b3_critical_timer_Start();
 3651              		.loc 1 291 0
 3652 002c 244B     		ldr	r3, .L332
 3653 002e D3F8A030 		ldr	r3, [r3, #160]
 3654 0032 A3B9     		cbnz	r3, .L329
 292:led_manager.c **** 			b3_crit_int_StartEx(b3_crit_isr);
 3655              		.loc 1 292 0
 3656 0034 FFF7FEFF 		bl	b3_critical_timer_Start
 3657              	.LVL489:
 293:led_manager.c **** 			b3_critical = 1;
 3658              		.loc 1 293 0
 3659 0038 2248     		ldr	r0, .L332+4
 3660 003a FFF7FEFF 		bl	b3_crit_int_StartEx
 3661              	.LVL490:
 294:led_manager.c **** 		} //if
 3662              		.loc 1 294 0
 3663 003e 0122     		movs	r2, #1
 3664 0040 1F4B     		ldr	r3, .L332
 3665 0042 C3F8A020 		str	r2, [r3, #160]
 279:led_manager.c **** 	if (MTR_CTRL_TEMP <= 40)
 3666              		.loc 1 279 0
 3667 0046 0023     		movs	r3, #0
 3668 0048 0AE0     		b	.L318
 3669              	.LVL491:
 3670              	.L324:
 281:led_manager.c **** 	else if (MTR_CTRL_TEMP > 40 && MTR_CTRL_TEMP <= 45)
 3671              		.loc 1 281 0
 3672 004a 0123     		movs	r3, #1
 3673 004c 08E0     		b	.L318
 3674              	.L325:
 283:led_manager.c **** 	else if (MTR_CTRL_TEMP > 45 && MTR_CTRL_TEMP <= 50)
 3675              		.loc 1 283 0
 3676 004e 0223     		movs	r3, #2
 3677 0050 06E0     		b	.L318
 3678              	.L326:
 285:led_manager.c **** 	else if (MTR_CTRL_TEMP > 50 && MTR_CTRL_TEMP <= 55)
 3679              		.loc 1 285 0
 3680 0052 0323     		movs	r3, #3
 3681 0054 04E0     		b	.L318
 3682              	.L327:
 287:led_manager.c **** 	else if (MTR_CTRL_TEMP > 55 && MTR_CTRL_TEMP <= 59)
ARM GAS  D:\Windows\AppData\Local\Temp\cc9YXq6z.s 			page 87


 3683              		.loc 1 287 0
 3684 0056 0423     		movs	r3, #4
 3685 0058 02E0     		b	.L318
 3686              	.LVL492:
 3687              	.L328:
 289:led_manager.c **** 	else {	//(MTR_CTRL_TEMP >= 59)
 3688              		.loc 1 289 0
 3689 005a 0523     		movs	r3, #5
 3690 005c 00E0     		b	.L318
 3691              	.L329:
 279:led_manager.c **** 	if (MTR_CTRL_TEMP <= 40)
 3692              		.loc 1 279 0
 3693 005e 0023     		movs	r3, #0
 3694              	.L318:
 3695              	.LVL493:
 298:led_manager.c **** 		int i;
 3696              		.loc 1 298 0
 3697 0060 174A     		ldr	r2, .L332
 3698 0062 D2F8A020 		ldr	r2, [r2, #160]
 3699 0066 42B1     		cbz	r2, .L330
 3700 0068 10BD     		pop	{r4, pc}
 3701              	.LVL494:
 3702              	.L321:
 3703              	.LBB6:
 301:led_manager.c **** 		for(i=steps; i<5; i++)
 3704              		.loc 1 301 0 discriminator 3
 3705 006a 1549     		ldr	r1, .L332
 3706 006c 01EB8201 		add	r1, r1, r2, lsl #2
 3707 0070 0120     		movs	r0, #1
 3708 0072 C1F8A400 		str	r0, [r1, #164]
 300:led_manager.c **** 			b3_arr[i] = 1;	//on leds
 3709              		.loc 1 300 0 discriminator 3
 3710 0076 0244     		add	r2, r2, r0
 3711              	.LVL495:
 3712 0078 00E0     		b	.L319
 3713              	.LVL496:
 3714              	.L330:
 3715              	.LBE6:
 3716 007a 0022     		movs	r2, #0
 3717              	.L319:
 3718              	.LVL497:
 3719              	.LBB7:
 300:led_manager.c **** 			b3_arr[i] = 1;	//on leds
 3720              		.loc 1 300 0 is_stmt 0 discriminator 1
 3721 007c 9A42     		cmp	r2, r3
 3722 007e F4DB     		blt	.L321
 3723 0080 06E0     		b	.L322
 3724              	.LVL498:
 3725              	.L323:
 303:led_manager.c **** 		
 3726              		.loc 1 303 0 is_stmt 1 discriminator 3
 3727 0082 0F4A     		ldr	r2, .L332
 3728 0084 02EB8302 		add	r2, r2, r3, lsl #2
 3729 0088 0021     		movs	r1, #0
 3730 008a C2F8A410 		str	r1, [r2, #164]
 302:led_manager.c **** 			b3_arr[i] = 0;	//off leds
 3731              		.loc 1 302 0 discriminator 3
ARM GAS  D:\Windows\AppData\Local\Temp\cc9YXq6z.s 			page 88


 3732 008e 0133     		adds	r3, r3, #1
 3733              	.LVL499:
 3734              	.L322:
 302:led_manager.c **** 			b3_arr[i] = 0;	//off leds
 3735              		.loc 1 302 0 is_stmt 0 discriminator 1
 3736 0090 042B     		cmp	r3, #4
 3737 0092 F6DD     		ble	.L323
 305:led_manager.c **** 		b32_write(b3_arr[1]);
 3738              		.loc 1 305 0 is_stmt 1
 3739 0094 0A4C     		ldr	r4, .L332
 3740 0096 D4F8A400 		ldr	r0, [r4, #164]
 3741 009a FFF7FEFF 		bl	b31_write
 3742              	.LVL500:
 306:led_manager.c **** 		b33_write(b3_arr[2]);
 3743              		.loc 1 306 0
 3744 009e D4F8A800 		ldr	r0, [r4, #168]
 3745 00a2 FFF7FEFF 		bl	b32_write
 3746              	.LVL501:
 307:led_manager.c **** 		b34_write(b3_arr[3]);
 3747              		.loc 1 307 0
 3748 00a6 D4F8AC00 		ldr	r0, [r4, #172]
 3749 00aa FFF7FEFF 		bl	b33_write
 3750              	.LVL502:
 308:led_manager.c **** 		b35_write(b3_arr[4]);
 3751              		.loc 1 308 0
 3752 00ae D4F8B000 		ldr	r0, [r4, #176]
 3753 00b2 FFF7FEFF 		bl	b34_write
 3754              	.LVL503:
 309:led_manager.c **** 	} //if
 3755              		.loc 1 309 0
 3756 00b6 D4F8B400 		ldr	r0, [r4, #180]
 3757 00ba FFF7FEFF 		bl	b35_write
 3758              	.LVL504:
 3759 00be 10BD     		pop	{r4, pc}
 3760              	.L333:
 3761              		.align	2
 3762              	.L332:
 3763 00c0 00000000 		.word	.LANCHOR0
 3764 00c4 00000000 		.word	b3_crit_isr
 3765              	.LBE7:
 3766              		.cfi_endproc
 3767              	.LFE71:
 3768              		.size	led_write_b3, .-led_write_b3
 3769              		.section	.text.c5_write,"ax",%progbits
 3770              		.align	2
 3771              		.global	c5_write
 3772              		.thumb
 3773              		.thumb_func
 3774              		.type	c5_write, %function
 3775              	c5_write:
 3776              	.LFB115:
 972:led_manager.c **** }
 973:led_manager.c **** 
 974:led_manager.c **** //main center horizontal bar
 975:led_manager.c **** void c5_write(int bool) {
 3777              		.loc 1 975 0
 3778              		.cfi_startproc
ARM GAS  D:\Windows\AppData\Local\Temp\cc9YXq6z.s 			page 89


 3779              		@ args = 0, pretend = 0, frame = 0
 3780              		@ frame_needed = 0, uses_anonymous_args = 0
 3781              	.LVL505:
 3782 0000 08B5     		push	{r3, lr}
 3783              		.cfi_def_cfa_offset 8
 3784              		.cfi_offset 3, -8
 3785              		.cfi_offset 14, -4
 3786              	.LVL506:
 976:led_manager.c **** 	uint8_t bit = 0x20;
 977:led_manager.c **** 	if(bool == 1) 	//led on
 3787              		.loc 1 977 0
 3788 0002 0128     		cmp	r0, #1
 3789 0004 07D1     		bne	.L335
 978:led_manager.c **** 		byte08_2 = byte08_2 | bit;
 3790              		.loc 1 978 0
 3791 0006 0F4A     		ldr	r2, .L338
 3792 0008 92F87C30 		ldrb	r3, [r2, #124]	@ zero_extendqisi2
 3793 000c 43F02003 		orr	r3, r3, #32
 3794 0010 82F87C30 		strb	r3, [r2, #124]
 3795 0014 06E0     		b	.L336
 3796              	.L335:
 979:led_manager.c **** 	else			//led off
 980:led_manager.c **** 		byte08_2 = byte08_2 & ~bit;
 3797              		.loc 1 980 0
 3798 0016 0B4A     		ldr	r2, .L338
 3799 0018 92F87C30 		ldrb	r3, [r2, #124]	@ zero_extendqisi2
 3800 001c 23F02003 		bic	r3, r3, #32
 3801 0020 82F87C30 		strb	r3, [r2, #124]
 3802              	.L336:
 981:led_manager.c **** 	
 982:led_manager.c **** 	LED_Driver2_MasterSendStart(LED_ADDR, 0);
 3803              		.loc 1 982 0
 3804 0024 4020     		movs	r0, #64
 3805              	.LVL507:
 3806 0026 0021     		movs	r1, #0
 3807 0028 FFF7FEFF 		bl	LED_Driver2_MasterSendStart
 3808              	.LVL508:
 983:led_manager.c **** 	LED_Driver2_MasterWriteByte(LED08);		//move to LED addr
 3809              		.loc 1 983 0
 3810 002c 0820     		movs	r0, #8
 3811 002e FFF7FEFF 		bl	LED_Driver2_MasterWriteByte
 3812              	.LVL509:
 984:led_manager.c **** 	LED_Driver2_MasterWriteByte(byte08_2);	//write byte to addr
 3813              		.loc 1 984 0
 3814 0032 044B     		ldr	r3, .L338
 3815 0034 93F87C00 		ldrb	r0, [r3, #124]	@ zero_extendqisi2
 3816 0038 FFF7FEFF 		bl	LED_Driver2_MasterWriteByte
 3817              	.LVL510:
 985:led_manager.c **** 	LED_Driver2_MasterSendStop();
 3818              		.loc 1 985 0
 3819 003c FFF7FEFF 		bl	LED_Driver2_MasterSendStop
 3820              	.LVL511:
 3821 0040 08BD     		pop	{r3, pc}
 3822              	.L339:
 3823 0042 00BF     		.align	2
 3824              	.L338:
 3825 0044 00000000 		.word	.LANCHOR0
ARM GAS  D:\Windows\AppData\Local\Temp\cc9YXq6z.s 			page 90


 3826              		.cfi_endproc
 3827              	.LFE115:
 3828              		.size	c5_write, .-c5_write
 3829              		.section	.text.c4_write,"ax",%progbits
 3830              		.align	2
 3831              		.global	c4_write
 3832              		.thumb
 3833              		.thumb_func
 3834              		.type	c4_write, %function
 3835              	c4_write:
 3836              	.LFB116:
 986:led_manager.c **** }
 987:led_manager.c **** void c4_write(int bool) {
 3837              		.loc 1 987 0
 3838              		.cfi_startproc
 3839              		@ args = 0, pretend = 0, frame = 0
 3840              		@ frame_needed = 0, uses_anonymous_args = 0
 3841              	.LVL512:
 3842 0000 08B5     		push	{r3, lr}
 3843              		.cfi_def_cfa_offset 8
 3844              		.cfi_offset 3, -8
 3845              		.cfi_offset 14, -4
 3846              	.LVL513:
 988:led_manager.c **** 	uint8_t bit = 0x04;
 989:led_manager.c **** 	if(bool == 1) 	//led on
 3847              		.loc 1 989 0
 3848 0002 0128     		cmp	r0, #1
 3849 0004 07D1     		bne	.L341
 990:led_manager.c **** 		byte05_2 = byte05_2 | bit;
 3850              		.loc 1 990 0
 3851 0006 0F4A     		ldr	r2, .L344
 3852 0008 92F85C30 		ldrb	r3, [r2, #92]	@ zero_extendqisi2
 3853 000c 43F00403 		orr	r3, r3, #4
 3854 0010 82F85C30 		strb	r3, [r2, #92]
 3855 0014 06E0     		b	.L342
 3856              	.L341:
 991:led_manager.c **** 	else			//led off
 992:led_manager.c **** 		byte05_2 = byte05_2 & ~bit;
 3857              		.loc 1 992 0
 3858 0016 0B4A     		ldr	r2, .L344
 3859 0018 92F85C30 		ldrb	r3, [r2, #92]	@ zero_extendqisi2
 3860 001c 23F00403 		bic	r3, r3, #4
 3861 0020 82F85C30 		strb	r3, [r2, #92]
 3862              	.L342:
 993:led_manager.c **** 	
 994:led_manager.c **** 	LED_Driver2_MasterSendStart(LED_ADDR, 0);	// 0 = send write command, 1 = send read command
 3863              		.loc 1 994 0
 3864 0024 4020     		movs	r0, #64
 3865              	.LVL514:
 3866 0026 0021     		movs	r1, #0
 3867 0028 FFF7FEFF 		bl	LED_Driver2_MasterSendStart
 3868              	.LVL515:
 995:led_manager.c **** 	LED_Driver2_MasterWriteByte(LED05);		//move to LED addr
 3869              		.loc 1 995 0
 3870 002c 0520     		movs	r0, #5
 3871 002e FFF7FEFF 		bl	LED_Driver2_MasterWriteByte
 3872              	.LVL516:
ARM GAS  D:\Windows\AppData\Local\Temp\cc9YXq6z.s 			page 91


 996:led_manager.c **** 	LED_Driver2_MasterWriteByte(byte05_2);	//write byte to addr
 3873              		.loc 1 996 0
 3874 0032 044B     		ldr	r3, .L344
 3875 0034 93F85C00 		ldrb	r0, [r3, #92]	@ zero_extendqisi2
 3876 0038 FFF7FEFF 		bl	LED_Driver2_MasterWriteByte
 3877              	.LVL517:
 997:led_manager.c **** 	LED_Driver2_MasterSendStop();
 3878              		.loc 1 997 0
 3879 003c FFF7FEFF 		bl	LED_Driver2_MasterSendStop
 3880              	.LVL518:
 3881 0040 08BD     		pop	{r3, pc}
 3882              	.L345:
 3883 0042 00BF     		.align	2
 3884              	.L344:
 3885 0044 00000000 		.word	.LANCHOR0
 3886              		.cfi_endproc
 3887              	.LFE116:
 3888              		.size	c4_write, .-c4_write
 3889              		.section	.text.c3_write,"ax",%progbits
 3890              		.align	2
 3891              		.global	c3_write
 3892              		.thumb
 3893              		.thumb_func
 3894              		.type	c3_write, %function
 3895              	c3_write:
 3896              	.LFB117:
 998:led_manager.c **** }
 999:led_manager.c **** void c3_write(int bool) {
 3897              		.loc 1 999 0
 3898              		.cfi_startproc
 3899              		@ args = 0, pretend = 0, frame = 0
 3900              		@ frame_needed = 0, uses_anonymous_args = 0
 3901              	.LVL519:
 3902 0000 08B5     		push	{r3, lr}
 3903              		.cfi_def_cfa_offset 8
 3904              		.cfi_offset 3, -8
 3905              		.cfi_offset 14, -4
 3906              	.LVL520:
1000:led_manager.c **** 	uint8_t bit = 0x40;
1001:led_manager.c **** 	if(bool == 1) 	//led on
 3907              		.loc 1 1001 0
 3908 0002 0128     		cmp	r0, #1
 3909 0004 07D1     		bne	.L347
1002:led_manager.c **** 		byte05_2 = byte05_2 | bit;
 3910              		.loc 1 1002 0
 3911 0006 0F4A     		ldr	r2, .L350
 3912 0008 92F85C30 		ldrb	r3, [r2, #92]	@ zero_extendqisi2
 3913 000c 43F04003 		orr	r3, r3, #64
 3914 0010 82F85C30 		strb	r3, [r2, #92]
 3915 0014 06E0     		b	.L348
 3916              	.L347:
1003:led_manager.c **** 	else			//led off
1004:led_manager.c **** 		byte05_2 = byte05_2 & ~bit;
 3917              		.loc 1 1004 0
 3918 0016 0B4A     		ldr	r2, .L350
 3919 0018 92F85C30 		ldrb	r3, [r2, #92]	@ zero_extendqisi2
 3920 001c 23F04003 		bic	r3, r3, #64
ARM GAS  D:\Windows\AppData\Local\Temp\cc9YXq6z.s 			page 92


 3921 0020 82F85C30 		strb	r3, [r2, #92]
 3922              	.L348:
1005:led_manager.c **** 	
1006:led_manager.c **** 	LED_Driver2_MasterSendStart(LED_ADDR, 0);	// 0 = send write command, 1 = send read command
 3923              		.loc 1 1006 0
 3924 0024 4020     		movs	r0, #64
 3925              	.LVL521:
 3926 0026 0021     		movs	r1, #0
 3927 0028 FFF7FEFF 		bl	LED_Driver2_MasterSendStart
 3928              	.LVL522:
1007:led_manager.c **** 	LED_Driver2_MasterWriteByte(LED05);		//move to LED addr
 3929              		.loc 1 1007 0
 3930 002c 0520     		movs	r0, #5
 3931 002e FFF7FEFF 		bl	LED_Driver2_MasterWriteByte
 3932              	.LVL523:
1008:led_manager.c **** 	LED_Driver2_MasterWriteByte(byte05_2);	//write byte to addr
 3933              		.loc 1 1008 0
 3934 0032 044B     		ldr	r3, .L350
 3935 0034 93F85C00 		ldrb	r0, [r3, #92]	@ zero_extendqisi2
 3936 0038 FFF7FEFF 		bl	LED_Driver2_MasterWriteByte
 3937              	.LVL524:
1009:led_manager.c **** 	LED_Driver2_MasterSendStop();
 3938              		.loc 1 1009 0
 3939 003c FFF7FEFF 		bl	LED_Driver2_MasterSendStop
 3940              	.LVL525:
 3941 0040 08BD     		pop	{r3, pc}
 3942              	.L351:
 3943 0042 00BF     		.align	2
 3944              	.L350:
 3945 0044 00000000 		.word	.LANCHOR0
 3946              		.cfi_endproc
 3947              	.LFE117:
 3948              		.size	c3_write, .-c3_write
 3949              		.section	.text.c2_write,"ax",%progbits
 3950              		.align	2
 3951              		.global	c2_write
 3952              		.thumb
 3953              		.thumb_func
 3954              		.type	c2_write, %function
 3955              	c2_write:
 3956              	.LFB118:
1010:led_manager.c **** }
1011:led_manager.c **** //right bar
1012:led_manager.c **** void c2_write(int bool) {
 3957              		.loc 1 1012 0
 3958              		.cfi_startproc
 3959              		@ args = 0, pretend = 0, frame = 0
 3960              		@ frame_needed = 0, uses_anonymous_args = 0
 3961              	.LVL526:
 3962 0000 08B5     		push	{r3, lr}
 3963              		.cfi_def_cfa_offset 8
 3964              		.cfi_offset 3, -8
 3965              		.cfi_offset 14, -4
 3966              	.LVL527:
1013:led_manager.c **** 	uint8_t bit = 0x04;
1014:led_manager.c **** 	if(bool == 1) 	//led on
 3967              		.loc 1 1014 0
ARM GAS  D:\Windows\AppData\Local\Temp\cc9YXq6z.s 			page 93


 3968 0002 0128     		cmp	r0, #1
 3969 0004 07D1     		bne	.L353
1015:led_manager.c **** 		byte06_2 = byte06_2 | bit;
 3970              		.loc 1 1015 0
 3971 0006 0F4A     		ldr	r2, .L356
 3972 0008 92F85D30 		ldrb	r3, [r2, #93]	@ zero_extendqisi2
 3973 000c 43F00403 		orr	r3, r3, #4
 3974 0010 82F85D30 		strb	r3, [r2, #93]
 3975 0014 06E0     		b	.L354
 3976              	.L353:
1016:led_manager.c **** 	else			//led off
1017:led_manager.c **** 		byte06_2 = byte06_2 & ~bit;
 3977              		.loc 1 1017 0
 3978 0016 0B4A     		ldr	r2, .L356
 3979 0018 92F85D30 		ldrb	r3, [r2, #93]	@ zero_extendqisi2
 3980 001c 23F00403 		bic	r3, r3, #4
 3981 0020 82F85D30 		strb	r3, [r2, #93]
 3982              	.L354:
1018:led_manager.c **** 	
1019:led_manager.c **** 	LED_Driver2_MasterSendStart(LED_ADDR, 0);
 3983              		.loc 1 1019 0
 3984 0024 4020     		movs	r0, #64
 3985              	.LVL528:
 3986 0026 0021     		movs	r1, #0
 3987 0028 FFF7FEFF 		bl	LED_Driver2_MasterSendStart
 3988              	.LVL529:
1020:led_manager.c **** 	LED_Driver2_MasterWriteByte(LED06);		//move to LED addr
 3989              		.loc 1 1020 0
 3990 002c 0620     		movs	r0, #6
 3991 002e FFF7FEFF 		bl	LED_Driver2_MasterWriteByte
 3992              	.LVL530:
1021:led_manager.c **** 	LED_Driver2_MasterWriteByte(byte06_2);	//write byte to addr
 3993              		.loc 1 1021 0
 3994 0032 044B     		ldr	r3, .L356
 3995 0034 93F85D00 		ldrb	r0, [r3, #93]	@ zero_extendqisi2
 3996 0038 FFF7FEFF 		bl	LED_Driver2_MasterWriteByte
 3997              	.LVL531:
1022:led_manager.c **** 	LED_Driver2_MasterSendStop();
 3998              		.loc 1 1022 0
 3999 003c FFF7FEFF 		bl	LED_Driver2_MasterSendStop
 4000              	.LVL532:
 4001 0040 08BD     		pop	{r3, pc}
 4002              	.L357:
 4003 0042 00BF     		.align	2
 4004              	.L356:
 4005 0044 00000000 		.word	.LANCHOR0
 4006              		.cfi_endproc
 4007              	.LFE118:
 4008              		.size	c2_write, .-c2_write
 4009              		.section	.text.c1_write,"ax",%progbits
 4010              		.align	2
 4011              		.global	c1_write
 4012              		.thumb
 4013              		.thumb_func
 4014              		.type	c1_write, %function
 4015              	c1_write:
 4016              	.LFB119:
ARM GAS  D:\Windows\AppData\Local\Temp\cc9YXq6z.s 			page 94


1023:led_manager.c **** }
1024:led_manager.c **** //right bar
1025:led_manager.c **** void c1_write(int bool) {
 4017              		.loc 1 1025 0
 4018              		.cfi_startproc
 4019              		@ args = 0, pretend = 0, frame = 0
 4020              		@ frame_needed = 0, uses_anonymous_args = 0
 4021              	.LVL533:
 4022 0000 08B5     		push	{r3, lr}
 4023              		.cfi_def_cfa_offset 8
 4024              		.cfi_offset 3, -8
 4025              		.cfi_offset 14, -4
 4026              	.LVL534:
1026:led_manager.c **** 	uint8_t bit = 0x40;
1027:led_manager.c **** 	if(bool == 1) 	//led on
 4027              		.loc 1 1027 0
 4028 0002 0128     		cmp	r0, #1
 4029 0004 07D1     		bne	.L359
1028:led_manager.c **** 		byte06_2 = byte06_2 | bit;
 4030              		.loc 1 1028 0
 4031 0006 0F4A     		ldr	r2, .L362
 4032 0008 92F85D30 		ldrb	r3, [r2, #93]	@ zero_extendqisi2
 4033 000c 43F04003 		orr	r3, r3, #64
 4034 0010 82F85D30 		strb	r3, [r2, #93]
 4035 0014 06E0     		b	.L360
 4036              	.L359:
1029:led_manager.c **** 	else			//led off
1030:led_manager.c **** 		byte06_2 = byte06_2 & ~bit;
 4037              		.loc 1 1030 0
 4038 0016 0B4A     		ldr	r2, .L362
 4039 0018 92F85D30 		ldrb	r3, [r2, #93]	@ zero_extendqisi2
 4040 001c 23F04003 		bic	r3, r3, #64
 4041 0020 82F85D30 		strb	r3, [r2, #93]
 4042              	.L360:
1031:led_manager.c **** 	
1032:led_manager.c **** 	LED_Driver2_MasterSendStart(LED_ADDR, 0);
 4043              		.loc 1 1032 0
 4044 0024 4020     		movs	r0, #64
 4045              	.LVL535:
 4046 0026 0021     		movs	r1, #0
 4047 0028 FFF7FEFF 		bl	LED_Driver2_MasterSendStart
 4048              	.LVL536:
1033:led_manager.c **** 	LED_Driver2_MasterWriteByte(LED06);		//move to LED addr
 4049              		.loc 1 1033 0
 4050 002c 0620     		movs	r0, #6
 4051 002e FFF7FEFF 		bl	LED_Driver2_MasterWriteByte
 4052              	.LVL537:
1034:led_manager.c **** 	LED_Driver2_MasterWriteByte(byte06_2);	//write byte to addr
 4053              		.loc 1 1034 0
 4054 0032 044B     		ldr	r3, .L362
 4055 0034 93F85D00 		ldrb	r0, [r3, #93]	@ zero_extendqisi2
 4056 0038 FFF7FEFF 		bl	LED_Driver2_MasterWriteByte
 4057              	.LVL538:
1035:led_manager.c **** 	LED_Driver2_MasterSendStop();
 4058              		.loc 1 1035 0
 4059 003c FFF7FEFF 		bl	LED_Driver2_MasterSendStop
 4060              	.LVL539:
ARM GAS  D:\Windows\AppData\Local\Temp\cc9YXq6z.s 			page 95


 4061 0040 08BD     		pop	{r3, pc}
 4062              	.L363:
 4063 0042 00BF     		.align	2
 4064              	.L362:
 4065 0044 00000000 		.word	.LANCHOR0
 4066              		.cfi_endproc
 4067              	.LFE119:
 4068              		.size	c1_write, .-c1_write
 4069              		.section	.text.c1_crit_isr,"ax",%progbits
 4070              		.align	2
 4071              		.global	c1_crit_isr
 4072              		.thumb
 4073              		.thumb_func
 4074              		.type	c1_crit_isr, %function
 4075              	c1_crit_isr:
 4076              	.LFB66:
  68:led_manager.c **** 	c1_crit_led = c1_crit_led == 0 ? 1:0;
 4077              		.loc 1 68 0
 4078              		.cfi_startproc
 4079              		@ args = 0, pretend = 0, frame = 0
 4080              		@ frame_needed = 0, uses_anonymous_args = 0
 4081 0000 10B5     		push	{r4, lr}
 4082              		.cfi_def_cfa_offset 8
 4083              		.cfi_offset 4, -8
 4084              		.cfi_offset 14, -4
  69:led_manager.c **** 	c1_write(c1_crit_led);
 4085              		.loc 1 69 0
 4086 0002 0D4C     		ldr	r4, .L366
 4087 0004 D4F8B800 		ldr	r0, [r4, #184]
 4088 0008 B0FA80F0 		clz	r0, r0
 4089 000c 4009     		lsrs	r0, r0, #5
 4090 000e C4F8B800 		str	r0, [r4, #184]
  70:led_manager.c **** 	c2_write(c1_crit_led);
 4091              		.loc 1 70 0
 4092 0012 FFF7FEFF 		bl	c1_write
 4093              	.LVL540:
  71:led_manager.c **** 	c3_write(c1_crit_led);
 4094              		.loc 1 71 0
 4095 0016 D4F8B800 		ldr	r0, [r4, #184]
 4096 001a FFF7FEFF 		bl	c2_write
 4097              	.LVL541:
  72:led_manager.c **** 	c4_write(c1_crit_led);
 4098              		.loc 1 72 0
 4099 001e D4F8B800 		ldr	r0, [r4, #184]
 4100 0022 FFF7FEFF 		bl	c3_write
 4101              	.LVL542:
  73:led_manager.c **** 	c5_write(c1_crit_led);
 4102              		.loc 1 73 0
 4103 0026 D4F8B800 		ldr	r0, [r4, #184]
 4104 002a FFF7FEFF 		bl	c4_write
 4105              	.LVL543:
  74:led_manager.c **** }
 4106              		.loc 1 74 0
 4107 002e D4F8B800 		ldr	r0, [r4, #184]
 4108 0032 FFF7FEFF 		bl	c5_write
 4109              	.LVL544:
 4110 0036 10BD     		pop	{r4, pc}
ARM GAS  D:\Windows\AppData\Local\Temp\cc9YXq6z.s 			page 96


 4111              	.L367:
 4112              		.align	2
 4113              	.L366:
 4114 0038 00000000 		.word	.LANCHOR0
 4115              		.cfi_endproc
 4116              	.LFE66:
 4117              		.size	c1_crit_isr, .-c1_crit_isr
 4118              		.section	.text.led_write_c1,"ax",%progbits
 4119              		.align	2
 4120              		.global	led_write_c1
 4121              		.thumb
 4122              		.thumb_func
 4123              		.type	led_write_c1, %function
 4124              	led_write_c1:
 4125              	.LFB72:
 313:led_manager.c **** 	int steps = 0;
 4126              		.loc 1 313 0
 4127              		.cfi_startproc
 4128              		@ args = 0, pretend = 0, frame = 0
 4129              		@ frame_needed = 0, uses_anonymous_args = 0
 4130              	.LVL545:
 4131 0000 10B5     		push	{r4, lr}
 4132              		.cfi_def_cfa_offset 8
 4133              		.cfi_offset 4, -8
 4134              		.cfi_offset 14, -4
 4135              	.LVL546:
 315:led_manager.c **** 		steps = 5;
 4136              		.loc 1 315 0
 4137 0002 A0F15103 		sub	r3, r0, #81
 4138 0006 DBB2     		uxtb	r3, r3
 4139 0008 122B     		cmp	r3, #18
 4140 000a 21D9     		bls	.L375
 317:led_manager.c **** 		steps = 4;
 4141              		.loc 1 317 0
 4142 000c A0F13D03 		sub	r3, r0, #61
 4143 0010 DBB2     		uxtb	r3, r3
 4144 0012 122B     		cmp	r3, #18
 4145 0014 1ED9     		bls	.L376
 319:led_manager.c **** 		steps = 3;
 4146              		.loc 1 319 0
 4147 0016 A0F12903 		sub	r3, r0, #41
 4148 001a DBB2     		uxtb	r3, r3
 4149 001c 122B     		cmp	r3, #18
 4150 001e 1BD9     		bls	.L377
 321:led_manager.c **** 		steps = 2;
 4151              		.loc 1 321 0
 4152 0020 A0F11503 		sub	r3, r0, #21
 4153 0024 DBB2     		uxtb	r3, r3
 4154 0026 122B     		cmp	r3, #18
 4155 0028 18D9     		bls	.L378
 323:led_manager.c **** 		steps = 1;
 4156              		.loc 1 323 0
 4157 002a 0B38     		subs	r0, r0, #11
 4158              	.LVL547:
 4159 002c C0B2     		uxtb	r0, r0
 4160 002e 0828     		cmp	r0, #8
 4161 0030 16D9     		bls	.L379
ARM GAS  D:\Windows\AppData\Local\Temp\cc9YXq6z.s 			page 97


 326:led_manager.c **** 			c1_critical_timer_Start();
 4162              		.loc 1 326 0
 4163 0032 254B     		ldr	r3, .L383
 4164 0034 D3F8BC30 		ldr	r3, [r3, #188]
 4165 0038 A3B9     		cbnz	r3, .L380
 327:led_manager.c **** 			c1_crit_int_StartEx(c1_crit_isr);
 4166              		.loc 1 327 0
 4167 003a FFF7FEFF 		bl	c1_critical_timer_Start
 4168              	.LVL548:
 328:led_manager.c **** 			c1_critical = 1;
 4169              		.loc 1 328 0
 4170 003e 2348     		ldr	r0, .L383+4
 4171 0040 FFF7FEFF 		bl	c1_crit_int_StartEx
 4172              	.LVL549:
 329:led_manager.c **** 		} //if
 4173              		.loc 1 329 0
 4174 0044 0122     		movs	r2, #1
 4175 0046 204B     		ldr	r3, .L383
 4176 0048 C3F8BC20 		str	r2, [r3, #188]
 314:led_manager.c **** 	if (SoC > 80 && SoC < 100)
 4177              		.loc 1 314 0
 4178 004c 0023     		movs	r3, #0
 4179 004e 0AE0     		b	.L369
 4180              	.LVL550:
 4181              	.L375:
 316:led_manager.c **** 	else if (SoC > 60  && SoC < 80)
 4182              		.loc 1 316 0
 4183 0050 0523     		movs	r3, #5
 4184 0052 08E0     		b	.L369
 4185              	.L376:
 318:led_manager.c **** 	else if (SoC > 40 && SoC < 60)
 4186              		.loc 1 318 0
 4187 0054 0423     		movs	r3, #4
 4188 0056 06E0     		b	.L369
 4189              	.L377:
 320:led_manager.c **** 	else if (SoC > 20 && SoC < 40)
 4190              		.loc 1 320 0
 4191 0058 0323     		movs	r3, #3
 4192 005a 04E0     		b	.L369
 4193              	.L378:
 322:led_manager.c **** 	else if (SoC > 10 && SoC < 20)
 4194              		.loc 1 322 0
 4195 005c 0223     		movs	r3, #2
 4196 005e 02E0     		b	.L369
 4197              	.LVL551:
 4198              	.L379:
 324:led_manager.c **** 	else {	//(SoC <= 10)
 4199              		.loc 1 324 0
 4200 0060 0123     		movs	r3, #1
 4201 0062 00E0     		b	.L369
 4202              	.L380:
 314:led_manager.c **** 	if (SoC > 80 && SoC < 100)
 4203              		.loc 1 314 0
 4204 0064 0023     		movs	r3, #0
 4205              	.L369:
 4206              	.LVL552:
 333:led_manager.c **** 		int i;
ARM GAS  D:\Windows\AppData\Local\Temp\cc9YXq6z.s 			page 98


 4207              		.loc 1 333 0
 4208 0066 184A     		ldr	r2, .L383
 4209 0068 D2F8BC20 		ldr	r2, [r2, #188]
 4210 006c 42B1     		cbz	r2, .L381
 4211 006e 10BD     		pop	{r4, pc}
 4212              	.LVL553:
 4213              	.L372:
 4214              	.LBB8:
 336:led_manager.c **** 		for(i=steps; i<5; i++)
 4215              		.loc 1 336 0 discriminator 3
 4216 0070 1549     		ldr	r1, .L383
 4217 0072 01EB8201 		add	r1, r1, r2, lsl #2
 4218 0076 0120     		movs	r0, #1
 4219 0078 C1F8C000 		str	r0, [r1, #192]
 335:led_manager.c **** 			c1_arr[i] = 1;	//on leds
 4220              		.loc 1 335 0 discriminator 3
 4221 007c 0244     		add	r2, r2, r0
 4222              	.LVL554:
 4223 007e 00E0     		b	.L370
 4224              	.LVL555:
 4225              	.L381:
 4226              	.LBE8:
 4227 0080 0022     		movs	r2, #0
 4228              	.L370:
 4229              	.LVL556:
 4230              	.LBB9:
 335:led_manager.c **** 			c1_arr[i] = 1;	//on leds
 4231              		.loc 1 335 0 is_stmt 0 discriminator 1
 4232 0082 9A42     		cmp	r2, r3
 4233 0084 F4DB     		blt	.L372
 4234 0086 06E0     		b	.L373
 4235              	.LVL557:
 4236              	.L374:
 338:led_manager.c **** 		
 4237              		.loc 1 338 0 is_stmt 1 discriminator 3
 4238 0088 0F4A     		ldr	r2, .L383
 4239 008a 02EB8302 		add	r2, r2, r3, lsl #2
 4240 008e 0021     		movs	r1, #0
 4241 0090 C2F8C010 		str	r1, [r2, #192]
 337:led_manager.c **** 			c1_arr[i] = 0;	//off leds
 4242              		.loc 1 337 0 discriminator 3
 4243 0094 0133     		adds	r3, r3, #1
 4244              	.LVL558:
 4245              	.L373:
 337:led_manager.c **** 			c1_arr[i] = 0;	//off leds
 4246              		.loc 1 337 0 is_stmt 0 discriminator 1
 4247 0096 042B     		cmp	r3, #4
 4248 0098 F6DD     		ble	.L374
 340:led_manager.c **** 		c2_write(c1_arr[1]);
 4249              		.loc 1 340 0 is_stmt 1
 4250 009a 0B4C     		ldr	r4, .L383
 4251 009c D4F8C000 		ldr	r0, [r4, #192]
 4252 00a0 FFF7FEFF 		bl	c1_write
 4253              	.LVL559:
 341:led_manager.c **** 		c3_write(c1_arr[2]);
 4254              		.loc 1 341 0
 4255 00a4 D4F8C400 		ldr	r0, [r4, #196]
ARM GAS  D:\Windows\AppData\Local\Temp\cc9YXq6z.s 			page 99


 4256 00a8 FFF7FEFF 		bl	c2_write
 4257              	.LVL560:
 342:led_manager.c **** 		c4_write(c1_arr[3]);
 4258              		.loc 1 342 0
 4259 00ac D4F8C800 		ldr	r0, [r4, #200]
 4260 00b0 FFF7FEFF 		bl	c3_write
 4261              	.LVL561:
 343:led_manager.c **** 		c5_write(c1_arr[4]);
 4262              		.loc 1 343 0
 4263 00b4 D4F8CC00 		ldr	r0, [r4, #204]
 4264 00b8 FFF7FEFF 		bl	c4_write
 4265              	.LVL562:
 344:led_manager.c **** 	} //if
 4266              		.loc 1 344 0
 4267 00bc D4F8D000 		ldr	r0, [r4, #208]
 4268 00c0 FFF7FEFF 		bl	c5_write
 4269              	.LVL563:
 4270 00c4 10BD     		pop	{r4, pc}
 4271              	.L384:
 4272 00c6 00BF     		.align	2
 4273              	.L383:
 4274 00c8 00000000 		.word	.LANCHOR0
 4275 00cc 00000000 		.word	c1_crit_isr
 4276              	.LBE9:
 4277              		.cfi_endproc
 4278              	.LFE72:
 4279              		.size	led_write_c1, .-led_write_c1
 4280              		.global	c1_crit_led
 4281              		.global	b3_crit_led
 4282              		.global	b2_crit_led
 4283              		.global	b1_crit_led
 4284              		.global	c1_critical
 4285              		.global	b3_critical
 4286              		.global	b2_critical
 4287              		.global	b1_critical
 4288              		.global	c1_arr
 4289              		.global	b3_arr
 4290              		.global	b2_arr
 4291              		.global	b1_arr
 4292              		.global	tach_arr
 4293              		.global	byte08_2
 4294              		.global	byte07_2
 4295              		.global	byte06_2
 4296              		.global	byte05_2
 4297              		.global	byte08
 4298              		.global	byte07
 4299              		.global	byte06
 4300              		.global	byte05
 4301              		.bss
 4302              		.align	2
 4303              		.set	.LANCHOR0,. + 0
 4304              		.type	byte05, %object
 4305              		.size	byte05, 1
 4306              	byte05:
 4307 0000 00       		.space	1
 4308              		.type	byte06, %object
 4309              		.size	byte06, 1
ARM GAS  D:\Windows\AppData\Local\Temp\cc9YXq6z.s 			page 100


 4310              	byte06:
 4311 0001 00       		.space	1
 4312              		.type	byte07, %object
 4313              		.size	byte07, 1
 4314              	byte07:
 4315 0002 00       		.space	1
 4316              		.type	byte08, %object
 4317              		.size	byte08, 1
 4318              	byte08:
 4319 0003 00       		.space	1
 4320              		.type	tach_arr, %object
 4321              		.size	tach_arr, 88
 4322              	tach_arr:
 4323 0004 00000000 		.space	88
 4323      00000000 
 4323      00000000 
 4323      00000000 
 4323      00000000 
 4324              		.type	byte05_2, %object
 4325              		.size	byte05_2, 1
 4326              	byte05_2:
 4327 005c 00       		.space	1
 4328              		.type	byte06_2, %object
 4329              		.size	byte06_2, 1
 4330              	byte06_2:
 4331 005d 00       		.space	1
 4332              		.type	byte07_2, %object
 4333              		.size	byte07_2, 1
 4334              	byte07_2:
 4335 005e 00       		.space	1
 4336 005f 00       		.space	1
 4337              		.type	b1_crit_led, %object
 4338              		.size	b1_crit_led, 4
 4339              	b1_crit_led:
 4340 0060 00000000 		.space	4
 4341              		.type	b1_critical, %object
 4342              		.size	b1_critical, 4
 4343              	b1_critical:
 4344 0064 00000000 		.space	4
 4345              		.type	b1_arr, %object
 4346              		.size	b1_arr, 20
 4347              	b1_arr:
 4348 0068 00000000 		.space	20
 4348      00000000 
 4348      00000000 
 4348      00000000 
 4348      00000000 
 4349              		.type	byte08_2, %object
 4350              		.size	byte08_2, 1
 4351              	byte08_2:
 4352 007c 00       		.space	1
 4353 007d 000000   		.space	3
 4354              		.type	b2_crit_led, %object
 4355              		.size	b2_crit_led, 4
 4356              	b2_crit_led:
 4357 0080 00000000 		.space	4
 4358              		.type	b2_critical, %object
ARM GAS  D:\Windows\AppData\Local\Temp\cc9YXq6z.s 			page 101


 4359              		.size	b2_critical, 4
 4360              	b2_critical:
 4361 0084 00000000 		.space	4
 4362              		.type	b2_arr, %object
 4363              		.size	b2_arr, 20
 4364              	b2_arr:
 4365 0088 00000000 		.space	20
 4365      00000000 
 4365      00000000 
 4365      00000000 
 4365      00000000 
 4366              		.type	b3_crit_led, %object
 4367              		.size	b3_crit_led, 4
 4368              	b3_crit_led:
 4369 009c 00000000 		.space	4
 4370              		.type	b3_critical, %object
 4371              		.size	b3_critical, 4
 4372              	b3_critical:
 4373 00a0 00000000 		.space	4
 4374              		.type	b3_arr, %object
 4375              		.size	b3_arr, 20
 4376              	b3_arr:
 4377 00a4 00000000 		.space	20
 4377      00000000 
 4377      00000000 
 4377      00000000 
 4377      00000000 
 4378              		.type	c1_crit_led, %object
 4379              		.size	c1_crit_led, 4
 4380              	c1_crit_led:
 4381 00b8 00000000 		.space	4
 4382              		.type	c1_critical, %object
 4383              		.size	c1_critical, 4
 4384              	c1_critical:
 4385 00bc 00000000 		.space	4
 4386              		.type	c1_arr, %object
 4387              		.size	c1_arr, 20
 4388              	c1_arr:
 4389 00c0 00000000 		.space	20
 4389      00000000 
 4389      00000000 
 4389      00000000 
 4389      00000000 
 4390              		.text
 4391              	.Letext0:
 4392              		.file 2 "d:\\programming\\cypress\\psoc creator\\4.0\\psoc creator\\import\\gnu\\arm\\4.9.3\\arm-n
 4393              		.file 3 "d:\\programming\\cypress\\psoc creator\\4.0\\psoc creator\\import\\gnu\\arm\\4.9.3\\arm-n
 4394              		.file 4 "Generated_Source\\PSoC5/cytypes.h"
 4395              		.file 5 "Generated_Source\\PSoC5/core_cm3.h"
 4396              		.file 6 "Generated_Source\\PSoC5/LED_Driver1.h"
 4397              		.file 7 "Generated_Source\\PSoC5/LED_Driver2.h"
 4398              		.file 8 "Generated_Source\\PSoC5/b1_critical_timer.h"
 4399              		.file 9 "Generated_Source\\PSoC5/b2_critical_timer.h"
 4400              		.file 10 "Generated_Source\\PSoC5/b1_crit_int.h"
 4401              		.file 11 "Generated_Source\\PSoC5/b2_crit_int.h"
 4402              		.file 12 "Generated_Source\\PSoC5/b3_critical_timer.h"
 4403              		.file 13 "Generated_Source\\PSoC5/b3_crit_int.h"
ARM GAS  D:\Windows\AppData\Local\Temp\cc9YXq6z.s 			page 102


 4404              		.file 14 "Generated_Source\\PSoC5/c1_critical_timer.h"
 4405              		.file 15 "Generated_Source\\PSoC5/c1_crit_int.h"
 4406              		.section	.debug_info,"",%progbits
 4407              	.Ldebug_info0:
 4408 0000 99210000 		.4byte	0x2199
 4409 0004 0400     		.2byte	0x4
 4410 0006 00000000 		.4byte	.Ldebug_abbrev0
 4411 000a 04       		.byte	0x4
 4412 000b 01       		.uleb128 0x1
 4413 000c 04050000 		.4byte	.LASF122
 4414 0010 01       		.byte	0x1
 4415 0011 B6030000 		.4byte	.LASF123
 4416 0015 30000000 		.4byte	.LASF124
 4417 0019 60000000 		.4byte	.Ldebug_ranges0+0x60
 4418 001d 00000000 		.4byte	0
 4419 0021 00000000 		.4byte	.Ldebug_line0
 4420 0025 02       		.uleb128 0x2
 4421 0026 08       		.byte	0x8
 4422 0027 07       		.byte	0x7
 4423 0028 5A010000 		.4byte	.LASF0
 4424 002c 02       		.uleb128 0x2
 4425 002d 04       		.byte	0x4
 4426 002e 07       		.byte	0x7
 4427 002f A8000000 		.4byte	.LASF1
 4428 0033 02       		.uleb128 0x2
 4429 0034 01       		.byte	0x1
 4430 0035 06       		.byte	0x6
 4431 0036 23060000 		.4byte	.LASF2
 4432 003a 03       		.uleb128 0x3
 4433 003b 02040000 		.4byte	.LASF5
 4434 003f 02       		.byte	0x2
 4435 0040 1D       		.byte	0x1d
 4436 0041 45000000 		.4byte	0x45
 4437 0045 02       		.uleb128 0x2
 4438 0046 01       		.byte	0x1
 4439 0047 08       		.byte	0x8
 4440 0048 F6040000 		.4byte	.LASF3
 4441 004c 02       		.uleb128 0x2
 4442 004d 02       		.byte	0x2
 4443 004e 05       		.byte	0x5
 4444 004f 80030000 		.4byte	.LASF4
 4445 0053 03       		.uleb128 0x3
 4446 0054 7B010000 		.4byte	.LASF6
 4447 0058 02       		.byte	0x2
 4448 0059 2B       		.byte	0x2b
 4449 005a 5E000000 		.4byte	0x5e
 4450 005e 02       		.uleb128 0x2
 4451 005f 02       		.byte	0x2
 4452 0060 07       		.byte	0x7
 4453 0061 38060000 		.4byte	.LASF7
 4454 0065 03       		.uleb128 0x3
 4455 0066 B5000000 		.4byte	.LASF8
 4456 006a 02       		.byte	0x2
 4457 006b 3F       		.byte	0x3f
 4458 006c 70000000 		.4byte	0x70
 4459 0070 02       		.uleb128 0x2
 4460 0071 04       		.byte	0x4
ARM GAS  D:\Windows\AppData\Local\Temp\cc9YXq6z.s 			page 103


 4461 0072 05       		.byte	0x5
 4462 0073 90030000 		.4byte	.LASF9
 4463 0077 02       		.uleb128 0x2
 4464 0078 04       		.byte	0x4
 4465 0079 07       		.byte	0x7
 4466 007a 66040000 		.4byte	.LASF10
 4467 007e 02       		.uleb128 0x2
 4468 007f 08       		.byte	0x8
 4469 0080 05       		.byte	0x5
 4470 0081 8F020000 		.4byte	.LASF11
 4471 0085 04       		.uleb128 0x4
 4472 0086 04       		.byte	0x4
 4473 0087 05       		.byte	0x5
 4474 0088 696E7400 		.ascii	"int\000"
 4475 008c 03       		.uleb128 0x3
 4476 008d 6A020000 		.4byte	.LASF12
 4477 0091 03       		.byte	0x3
 4478 0092 15       		.byte	0x15
 4479 0093 3A000000 		.4byte	0x3a
 4480 0097 03       		.uleb128 0x3
 4481 0098 57030000 		.4byte	.LASF13
 4482 009c 03       		.byte	0x3
 4483 009d 21       		.byte	0x21
 4484 009e 53000000 		.4byte	0x53
 4485 00a2 03       		.uleb128 0x3
 4486 00a3 84040000 		.4byte	.LASF14
 4487 00a7 03       		.byte	0x3
 4488 00a8 2C       		.byte	0x2c
 4489 00a9 65000000 		.4byte	0x65
 4490 00ad 05       		.uleb128 0x5
 4491 00ae 78060000 		.4byte	.LASF15
 4492 00b2 04       		.byte	0x4
 4493 00b3 3801     		.2byte	0x138
 4494 00b5 45000000 		.4byte	0x45
 4495 00b9 02       		.uleb128 0x2
 4496 00ba 04       		.byte	0x4
 4497 00bb 04       		.byte	0x4
 4498 00bc 1D010000 		.4byte	.LASF16
 4499 00c0 02       		.uleb128 0x2
 4500 00c1 08       		.byte	0x8
 4501 00c2 04       		.byte	0x4
 4502 00c3 7E060000 		.4byte	.LASF17
 4503 00c7 02       		.uleb128 0x2
 4504 00c8 01       		.byte	0x1
 4505 00c9 08       		.byte	0x8
 4506 00ca 17020000 		.4byte	.LASF18
 4507 00ce 05       		.uleb128 0x5
 4508 00cf E7020000 		.4byte	.LASF19
 4509 00d3 04       		.byte	0x4
 4510 00d4 F401     		.2byte	0x1f4
 4511 00d6 DA000000 		.4byte	0xda
 4512 00da 06       		.uleb128 0x6
 4513 00db 04       		.byte	0x4
 4514 00dc E0000000 		.4byte	0xe0
 4515 00e0 07       		.uleb128 0x7
 4516 00e1 02       		.uleb128 0x2
 4517 00e2 04       		.byte	0x4
ARM GAS  D:\Windows\AppData\Local\Temp\cc9YXq6z.s 			page 104


 4518 00e3 07       		.byte	0x7
 4519 00e4 45040000 		.4byte	.LASF20
 4520 00e8 08       		.uleb128 0x8
 4521 00e9 92010000 		.4byte	.LASF21
 4522 00ed 01       		.byte	0x1
 4523 00ee C301     		.2byte	0x1c3
 4524 00f0 00000000 		.4byte	.LFB75
 4525 00f4 4E000000 		.4byte	.LFE75-.LFB75
 4526 00f8 01       		.uleb128 0x1
 4527 00f9 9C       		.byte	0x9c
 4528 00fa ED010000 		.4byte	0x1ed
 4529 00fe 09       		.uleb128 0x9
 4530 00ff CE020000 		.4byte	.LASF23
 4531 0103 01       		.byte	0x1
 4532 0104 C301     		.2byte	0x1c3
 4533 0106 85000000 		.4byte	0x85
 4534 010a 00000000 		.4byte	.LLST0
 4535 010e 0A       		.uleb128 0xa
 4536 010f 8A030000 		.4byte	.LASF24
 4537 0113 01       		.byte	0x1
 4538 0114 C401     		.2byte	0x1c4
 4539 0116 8C000000 		.4byte	0x8c
 4540 011a 77       		.byte	0x77
 4541 011b 0B       		.uleb128 0xb
 4542 011c 0C000000 		.4byte	.LVL3
 4543 0120 BE200000 		.4byte	0x20be
 4544 0124 34010000 		.4byte	0x134
 4545 0128 0C       		.uleb128 0xc
 4546 0129 01       		.uleb128 0x1
 4547 012a 51       		.byte	0x51
 4548 012b 01       		.uleb128 0x1
 4549 012c 30       		.byte	0x30
 4550 012d 0C       		.uleb128 0xc
 4551 012e 01       		.uleb128 0x1
 4552 012f 50       		.byte	0x50
 4553 0130 02       		.uleb128 0x2
 4554 0131 08       		.byte	0x8
 4555 0132 40       		.byte	0x40
 4556 0133 00       		.byte	0
 4557 0134 0B       		.uleb128 0xb
 4558 0135 12000000 		.4byte	.LVL4
 4559 0139 D8200000 		.4byte	0x20d8
 4560 013d 47010000 		.4byte	0x147
 4561 0141 0C       		.uleb128 0xc
 4562 0142 01       		.uleb128 0x1
 4563 0143 50       		.byte	0x50
 4564 0144 01       		.uleb128 0x1
 4565 0145 35       		.byte	0x35
 4566 0146 00       		.byte	0
 4567 0147 0B       		.uleb128 0xb
 4568 0148 1C000000 		.4byte	.LVL5
 4569 014c D8200000 		.4byte	0x20d8
 4570 0150 5B010000 		.4byte	0x15b
 4571 0154 0C       		.uleb128 0xc
 4572 0155 01       		.uleb128 0x1
 4573 0156 50       		.byte	0x50
 4574 0157 02       		.uleb128 0x2
ARM GAS  D:\Windows\AppData\Local\Temp\cc9YXq6z.s 			page 105


 4575 0158 08       		.byte	0x8
 4576 0159 77       		.byte	0x77
 4577 015a 00       		.byte	0
 4578 015b 0B       		.uleb128 0xb
 4579 015c 22000000 		.4byte	.LVL6
 4580 0160 D8200000 		.4byte	0x20d8
 4581 0164 6F010000 		.4byte	0x16f
 4582 0168 0C       		.uleb128 0xc
 4583 0169 01       		.uleb128 0x1
 4584 016a 50       		.byte	0x50
 4585 016b 02       		.uleb128 0x2
 4586 016c 08       		.byte	0x8
 4587 016d 77       		.byte	0x77
 4588 016e 00       		.byte	0
 4589 016f 0B       		.uleb128 0xb
 4590 0170 28000000 		.4byte	.LVL7
 4591 0174 D8200000 		.4byte	0x20d8
 4592 0178 83010000 		.4byte	0x183
 4593 017c 0C       		.uleb128 0xc
 4594 017d 01       		.uleb128 0x1
 4595 017e 50       		.byte	0x50
 4596 017f 02       		.uleb128 0x2
 4597 0180 08       		.byte	0x8
 4598 0181 77       		.byte	0x77
 4599 0182 00       		.byte	0
 4600 0183 0B       		.uleb128 0xb
 4601 0184 2E000000 		.4byte	.LVL8
 4602 0188 D8200000 		.4byte	0x20d8
 4603 018c 97010000 		.4byte	0x197
 4604 0190 0C       		.uleb128 0xc
 4605 0191 01       		.uleb128 0x1
 4606 0192 50       		.byte	0x50
 4607 0193 02       		.uleb128 0x2
 4608 0194 08       		.byte	0x8
 4609 0195 77       		.byte	0x77
 4610 0196 00       		.byte	0
 4611 0197 0B       		.uleb128 0xb
 4612 0198 36000000 		.4byte	.LVL9
 4613 019c D8200000 		.4byte	0x20d8
 4614 01a0 AA010000 		.4byte	0x1aa
 4615 01a4 0C       		.uleb128 0xc
 4616 01a5 01       		.uleb128 0x1
 4617 01a6 50       		.byte	0x50
 4618 01a7 01       		.uleb128 0x1
 4619 01a8 30       		.byte	0x30
 4620 01a9 00       		.byte	0
 4621 01aa 0B       		.uleb128 0xb
 4622 01ab 3C000000 		.4byte	.LVL10
 4623 01af D8200000 		.4byte	0x20d8
 4624 01b3 BD010000 		.4byte	0x1bd
 4625 01b7 0C       		.uleb128 0xc
 4626 01b8 01       		.uleb128 0x1
 4627 01b9 50       		.byte	0x50
 4628 01ba 01       		.uleb128 0x1
 4629 01bb 30       		.byte	0x30
 4630 01bc 00       		.byte	0
 4631 01bd 0B       		.uleb128 0xb
ARM GAS  D:\Windows\AppData\Local\Temp\cc9YXq6z.s 			page 106


 4632 01be 42000000 		.4byte	.LVL11
 4633 01c2 D8200000 		.4byte	0x20d8
 4634 01c6 D0010000 		.4byte	0x1d0
 4635 01ca 0C       		.uleb128 0xc
 4636 01cb 01       		.uleb128 0x1
 4637 01cc 50       		.byte	0x50
 4638 01cd 01       		.uleb128 0x1
 4639 01ce 30       		.byte	0x30
 4640 01cf 00       		.byte	0
 4641 01d0 0B       		.uleb128 0xb
 4642 01d1 48000000 		.4byte	.LVL12
 4643 01d5 D8200000 		.4byte	0x20d8
 4644 01d9 E3010000 		.4byte	0x1e3
 4645 01dd 0C       		.uleb128 0xc
 4646 01de 01       		.uleb128 0x1
 4647 01df 50       		.byte	0x50
 4648 01e0 01       		.uleb128 0x1
 4649 01e1 30       		.byte	0x30
 4650 01e2 00       		.byte	0
 4651 01e3 0D       		.uleb128 0xd
 4652 01e4 4C000000 		.4byte	.LVL13
 4653 01e8 ED200000 		.4byte	0x20ed
 4654 01ec 00       		.byte	0
 4655 01ed 08       		.uleb128 0x8
 4656 01ee D3000000 		.4byte	.LASF22
 4657 01f2 01       		.byte	0x1
 4658 01f3 D601     		.2byte	0x1d6
 4659 01f5 00000000 		.4byte	.LFB76
 4660 01f9 4E000000 		.4byte	.LFE76-.LFB76
 4661 01fd 01       		.uleb128 0x1
 4662 01fe 9C       		.byte	0x9c
 4663 01ff F2020000 		.4byte	0x2f2
 4664 0203 09       		.uleb128 0x9
 4665 0204 CE020000 		.4byte	.LASF23
 4666 0208 01       		.byte	0x1
 4667 0209 D601     		.2byte	0x1d6
 4668 020b 85000000 		.4byte	0x85
 4669 020f 1E000000 		.4byte	.LLST1
 4670 0213 0A       		.uleb128 0xa
 4671 0214 8A030000 		.4byte	.LASF24
 4672 0218 01       		.byte	0x1
 4673 0219 D701     		.2byte	0x1d7
 4674 021b 8C000000 		.4byte	0x8c
 4675 021f 77       		.byte	0x77
 4676 0220 0B       		.uleb128 0xb
 4677 0221 0C000000 		.4byte	.LVL17
 4678 0225 F8200000 		.4byte	0x20f8
 4679 0229 39020000 		.4byte	0x239
 4680 022d 0C       		.uleb128 0xc
 4681 022e 01       		.uleb128 0x1
 4682 022f 51       		.byte	0x51
 4683 0230 01       		.uleb128 0x1
 4684 0231 30       		.byte	0x30
 4685 0232 0C       		.uleb128 0xc
 4686 0233 01       		.uleb128 0x1
 4687 0234 50       		.byte	0x50
 4688 0235 02       		.uleb128 0x2
ARM GAS  D:\Windows\AppData\Local\Temp\cc9YXq6z.s 			page 107


 4689 0236 08       		.byte	0x8
 4690 0237 40       		.byte	0x40
 4691 0238 00       		.byte	0
 4692 0239 0B       		.uleb128 0xb
 4693 023a 12000000 		.4byte	.LVL18
 4694 023e 12210000 		.4byte	0x2112
 4695 0242 4C020000 		.4byte	0x24c
 4696 0246 0C       		.uleb128 0xc
 4697 0247 01       		.uleb128 0x1
 4698 0248 50       		.byte	0x50
 4699 0249 01       		.uleb128 0x1
 4700 024a 35       		.byte	0x35
 4701 024b 00       		.byte	0
 4702 024c 0B       		.uleb128 0xb
 4703 024d 1C000000 		.4byte	.LVL19
 4704 0251 12210000 		.4byte	0x2112
 4705 0255 60020000 		.4byte	0x260
 4706 0259 0C       		.uleb128 0xc
 4707 025a 01       		.uleb128 0x1
 4708 025b 50       		.byte	0x50
 4709 025c 02       		.uleb128 0x2
 4710 025d 08       		.byte	0x8
 4711 025e 77       		.byte	0x77
 4712 025f 00       		.byte	0
 4713 0260 0B       		.uleb128 0xb
 4714 0261 22000000 		.4byte	.LVL20
 4715 0265 12210000 		.4byte	0x2112
 4716 0269 74020000 		.4byte	0x274
 4717 026d 0C       		.uleb128 0xc
 4718 026e 01       		.uleb128 0x1
 4719 026f 50       		.byte	0x50
 4720 0270 02       		.uleb128 0x2
 4721 0271 08       		.byte	0x8
 4722 0272 77       		.byte	0x77
 4723 0273 00       		.byte	0
 4724 0274 0B       		.uleb128 0xb
 4725 0275 28000000 		.4byte	.LVL21
 4726 0279 12210000 		.4byte	0x2112
 4727 027d 88020000 		.4byte	0x288
 4728 0281 0C       		.uleb128 0xc
 4729 0282 01       		.uleb128 0x1
 4730 0283 50       		.byte	0x50
 4731 0284 02       		.uleb128 0x2
 4732 0285 08       		.byte	0x8
 4733 0286 77       		.byte	0x77
 4734 0287 00       		.byte	0
 4735 0288 0B       		.uleb128 0xb
 4736 0289 2E000000 		.4byte	.LVL22
 4737 028d 12210000 		.4byte	0x2112
 4738 0291 9C020000 		.4byte	0x29c
 4739 0295 0C       		.uleb128 0xc
 4740 0296 01       		.uleb128 0x1
 4741 0297 50       		.byte	0x50
 4742 0298 02       		.uleb128 0x2
 4743 0299 08       		.byte	0x8
 4744 029a 77       		.byte	0x77
 4745 029b 00       		.byte	0
ARM GAS  D:\Windows\AppData\Local\Temp\cc9YXq6z.s 			page 108


 4746 029c 0B       		.uleb128 0xb
 4747 029d 36000000 		.4byte	.LVL23
 4748 02a1 12210000 		.4byte	0x2112
 4749 02a5 AF020000 		.4byte	0x2af
 4750 02a9 0C       		.uleb128 0xc
 4751 02aa 01       		.uleb128 0x1
 4752 02ab 50       		.byte	0x50
 4753 02ac 01       		.uleb128 0x1
 4754 02ad 30       		.byte	0x30
 4755 02ae 00       		.byte	0
 4756 02af 0B       		.uleb128 0xb
 4757 02b0 3C000000 		.4byte	.LVL24
 4758 02b4 12210000 		.4byte	0x2112
 4759 02b8 C2020000 		.4byte	0x2c2
 4760 02bc 0C       		.uleb128 0xc
 4761 02bd 01       		.uleb128 0x1
 4762 02be 50       		.byte	0x50
 4763 02bf 01       		.uleb128 0x1
 4764 02c0 30       		.byte	0x30
 4765 02c1 00       		.byte	0
 4766 02c2 0B       		.uleb128 0xb
 4767 02c3 42000000 		.4byte	.LVL25
 4768 02c7 12210000 		.4byte	0x2112
 4769 02cb D5020000 		.4byte	0x2d5
 4770 02cf 0C       		.uleb128 0xc
 4771 02d0 01       		.uleb128 0x1
 4772 02d1 50       		.byte	0x50
 4773 02d2 01       		.uleb128 0x1
 4774 02d3 30       		.byte	0x30
 4775 02d4 00       		.byte	0
 4776 02d5 0B       		.uleb128 0xb
 4777 02d6 48000000 		.4byte	.LVL26
 4778 02da 12210000 		.4byte	0x2112
 4779 02de E8020000 		.4byte	0x2e8
 4780 02e2 0C       		.uleb128 0xc
 4781 02e3 01       		.uleb128 0x1
 4782 02e4 50       		.byte	0x50
 4783 02e5 01       		.uleb128 0x1
 4784 02e6 30       		.byte	0x30
 4785 02e7 00       		.byte	0
 4786 02e8 0D       		.uleb128 0xd
 4787 02e9 4C000000 		.4byte	.LVL27
 4788 02ed 27210000 		.4byte	0x2127
 4789 02f1 00       		.byte	0
 4790 02f2 0E       		.uleb128 0xe
 4791 02f3 99030000 		.4byte	.LASF44
 4792 02f7 01       		.byte	0x1
 4793 02f8 4E       		.byte	0x4e
 4794 02f9 00000000 		.4byte	.LFB67
 4795 02fd 08010000 		.4byte	.LFE67-.LFB67
 4796 0301 01       		.uleb128 0x1
 4797 0302 9C       		.byte	0x9c
 4798 0303 36060000 		.4byte	0x636
 4799 0307 0D       		.uleb128 0xd
 4800 0308 06000000 		.4byte	.LVL28
 4801 030c 32210000 		.4byte	0x2132
 4802 0310 0D       		.uleb128 0xd
ARM GAS  D:\Windows\AppData\Local\Temp\cc9YXq6z.s 			page 109


 4803 0311 0A000000 		.4byte	.LVL29
 4804 0315 39210000 		.4byte	0x2139
 4805 0319 0B       		.uleb128 0xb
 4806 031a 12000000 		.4byte	.LVL30
 4807 031e BE200000 		.4byte	0x20be
 4808 0322 32030000 		.4byte	0x332
 4809 0326 0C       		.uleb128 0xc
 4810 0327 01       		.uleb128 0x1
 4811 0328 51       		.byte	0x51
 4812 0329 01       		.uleb128 0x1
 4813 032a 30       		.byte	0x30
 4814 032b 0C       		.uleb128 0xc
 4815 032c 01       		.uleb128 0x1
 4816 032d 50       		.byte	0x50
 4817 032e 02       		.uleb128 0x2
 4818 032f 08       		.byte	0x8
 4819 0330 40       		.byte	0x40
 4820 0331 00       		.byte	0
 4821 0332 0B       		.uleb128 0xb
 4822 0333 18000000 		.4byte	.LVL31
 4823 0337 D8200000 		.4byte	0x20d8
 4824 033b 45030000 		.4byte	0x345
 4825 033f 0C       		.uleb128 0xc
 4826 0340 01       		.uleb128 0x1
 4827 0341 50       		.byte	0x50
 4828 0342 01       		.uleb128 0x1
 4829 0343 30       		.byte	0x30
 4830 0344 00       		.byte	0
 4831 0345 0B       		.uleb128 0xb
 4832 0346 1E000000 		.4byte	.LVL32
 4833 034a D8200000 		.4byte	0x20d8
 4834 034e 58030000 		.4byte	0x358
 4835 0352 0C       		.uleb128 0xc
 4836 0353 01       		.uleb128 0x1
 4837 0354 50       		.byte	0x50
 4838 0355 01       		.uleb128 0x1
 4839 0356 30       		.byte	0x30
 4840 0357 00       		.byte	0
 4841 0358 0B       		.uleb128 0xb
 4842 0359 24000000 		.4byte	.LVL33
 4843 035d D8200000 		.4byte	0x20d8
 4844 0361 6B030000 		.4byte	0x36b
 4845 0365 0C       		.uleb128 0xc
 4846 0366 01       		.uleb128 0x1
 4847 0367 50       		.byte	0x50
 4848 0368 01       		.uleb128 0x1
 4849 0369 30       		.byte	0x30
 4850 036a 00       		.byte	0
 4851 036b 0B       		.uleb128 0xb
 4852 036c 2A000000 		.4byte	.LVL34
 4853 0370 D8200000 		.4byte	0x20d8
 4854 0374 7E030000 		.4byte	0x37e
 4855 0378 0C       		.uleb128 0xc
 4856 0379 01       		.uleb128 0x1
 4857 037a 50       		.byte	0x50
 4858 037b 01       		.uleb128 0x1
 4859 037c 4F       		.byte	0x4f
ARM GAS  D:\Windows\AppData\Local\Temp\cc9YXq6z.s 			page 110


 4860 037d 00       		.byte	0
 4861 037e 0B       		.uleb128 0xb
 4862 037f 30000000 		.4byte	.LVL35
 4863 0383 D8200000 		.4byte	0x20d8
 4864 0387 91030000 		.4byte	0x391
 4865 038b 0C       		.uleb128 0xc
 4866 038c 01       		.uleb128 0x1
 4867 038d 50       		.byte	0x50
 4868 038e 01       		.uleb128 0x1
 4869 038f 4F       		.byte	0x4f
 4870 0390 00       		.byte	0
 4871 0391 0B       		.uleb128 0xb
 4872 0392 36000000 		.4byte	.LVL36
 4873 0396 D8200000 		.4byte	0x20d8
 4874 039a A4030000 		.4byte	0x3a4
 4875 039e 0C       		.uleb128 0xc
 4876 039f 01       		.uleb128 0x1
 4877 03a0 50       		.byte	0x50
 4878 03a1 01       		.uleb128 0x1
 4879 03a2 4F       		.byte	0x4f
 4880 03a3 00       		.byte	0
 4881 03a4 0D       		.uleb128 0xd
 4882 03a5 3A000000 		.4byte	.LVL37
 4883 03a9 ED200000 		.4byte	0x20ed
 4884 03ad 0B       		.uleb128 0xb
 4885 03ae 42000000 		.4byte	.LVL38
 4886 03b2 BE200000 		.4byte	0x20be
 4887 03b6 C6030000 		.4byte	0x3c6
 4888 03ba 0C       		.uleb128 0xc
 4889 03bb 01       		.uleb128 0x1
 4890 03bc 51       		.byte	0x51
 4891 03bd 01       		.uleb128 0x1
 4892 03be 30       		.byte	0x30
 4893 03bf 0C       		.uleb128 0xc
 4894 03c0 01       		.uleb128 0x1
 4895 03c1 50       		.byte	0x50
 4896 03c2 02       		.uleb128 0x2
 4897 03c3 08       		.byte	0x8
 4898 03c4 40       		.byte	0x40
 4899 03c5 00       		.byte	0
 4900 03c6 0B       		.uleb128 0xb
 4901 03c7 48000000 		.4byte	.LVL39
 4902 03cb D8200000 		.4byte	0x20d8
 4903 03cf D9030000 		.4byte	0x3d9
 4904 03d3 0C       		.uleb128 0xc
 4905 03d4 01       		.uleb128 0x1
 4906 03d5 50       		.byte	0x50
 4907 03d6 01       		.uleb128 0x1
 4908 03d7 39       		.byte	0x39
 4909 03d8 00       		.byte	0
 4910 03d9 0B       		.uleb128 0xb
 4911 03da 4E000000 		.4byte	.LVL40
 4912 03de D8200000 		.4byte	0x20d8
 4913 03e2 ED030000 		.4byte	0x3ed
 4914 03e6 0C       		.uleb128 0xc
 4915 03e7 01       		.uleb128 0x1
 4916 03e8 50       		.byte	0x50
ARM GAS  D:\Windows\AppData\Local\Temp\cc9YXq6z.s 			page 111


 4917 03e9 02       		.uleb128 0x2
 4918 03ea 08       		.byte	0x8
 4919 03eb 55       		.byte	0x55
 4920 03ec 00       		.byte	0
 4921 03ed 0B       		.uleb128 0xb
 4922 03ee 54000000 		.4byte	.LVL41
 4923 03f2 D8200000 		.4byte	0x20d8
 4924 03f6 01040000 		.4byte	0x401
 4925 03fa 0C       		.uleb128 0xc
 4926 03fb 01       		.uleb128 0x1
 4927 03fc 50       		.byte	0x50
 4928 03fd 02       		.uleb128 0x2
 4929 03fe 08       		.byte	0x8
 4930 03ff 55       		.byte	0x55
 4931 0400 00       		.byte	0
 4932 0401 0B       		.uleb128 0xb
 4933 0402 5A000000 		.4byte	.LVL42
 4934 0406 D8200000 		.4byte	0x20d8
 4935 040a 15040000 		.4byte	0x415
 4936 040e 0C       		.uleb128 0xc
 4937 040f 01       		.uleb128 0x1
 4938 0410 50       		.byte	0x50
 4939 0411 02       		.uleb128 0x2
 4940 0412 08       		.byte	0x8
 4941 0413 55       		.byte	0x55
 4942 0414 00       		.byte	0
 4943 0415 0B       		.uleb128 0xb
 4944 0416 60000000 		.4byte	.LVL43
 4945 041a D8200000 		.4byte	0x20d8
 4946 041e 29040000 		.4byte	0x429
 4947 0422 0C       		.uleb128 0xc
 4948 0423 01       		.uleb128 0x1
 4949 0424 50       		.byte	0x50
 4950 0425 02       		.uleb128 0x2
 4951 0426 08       		.byte	0x8
 4952 0427 55       		.byte	0x55
 4953 0428 00       		.byte	0
 4954 0429 0B       		.uleb128 0xb
 4955 042a 66000000 		.4byte	.LVL44
 4956 042e D8200000 		.4byte	0x20d8
 4957 0432 3D040000 		.4byte	0x43d
 4958 0436 0C       		.uleb128 0xc
 4959 0437 01       		.uleb128 0x1
 4960 0438 50       		.byte	0x50
 4961 0439 02       		.uleb128 0x2
 4962 043a 08       		.byte	0x8
 4963 043b 55       		.byte	0x55
 4964 043c 00       		.byte	0
 4965 043d 0B       		.uleb128 0xb
 4966 043e 6C000000 		.4byte	.LVL45
 4967 0442 D8200000 		.4byte	0x20d8
 4968 0446 51040000 		.4byte	0x451
 4969 044a 0C       		.uleb128 0xc
 4970 044b 01       		.uleb128 0x1
 4971 044c 50       		.byte	0x50
 4972 044d 02       		.uleb128 0x2
 4973 044e 08       		.byte	0x8
ARM GAS  D:\Windows\AppData\Local\Temp\cc9YXq6z.s 			page 112


 4974 044f 55       		.byte	0x55
 4975 0450 00       		.byte	0
 4976 0451 0B       		.uleb128 0xb
 4977 0452 72000000 		.4byte	.LVL46
 4978 0456 D8200000 		.4byte	0x20d8
 4979 045a 65040000 		.4byte	0x465
 4980 045e 0C       		.uleb128 0xc
 4981 045f 01       		.uleb128 0x1
 4982 0460 50       		.byte	0x50
 4983 0461 02       		.uleb128 0x2
 4984 0462 09       		.byte	0x9
 4985 0463 FF       		.byte	0xff
 4986 0464 00       		.byte	0
 4987 0465 0B       		.uleb128 0xb
 4988 0466 78000000 		.4byte	.LVL47
 4989 046a D8200000 		.4byte	0x20d8
 4990 046e 79040000 		.4byte	0x479
 4991 0472 0C       		.uleb128 0xc
 4992 0473 01       		.uleb128 0x1
 4993 0474 50       		.byte	0x50
 4994 0475 02       		.uleb128 0x2
 4995 0476 09       		.byte	0x9
 4996 0477 FF       		.byte	0xff
 4997 0478 00       		.byte	0
 4998 0479 0B       		.uleb128 0xb
 4999 047a 7E000000 		.4byte	.LVL48
 5000 047e D8200000 		.4byte	0x20d8
 5001 0482 8D040000 		.4byte	0x48d
 5002 0486 0C       		.uleb128 0xc
 5003 0487 01       		.uleb128 0x1
 5004 0488 50       		.byte	0x50
 5005 0489 02       		.uleb128 0x2
 5006 048a 09       		.byte	0x9
 5007 048b FF       		.byte	0xff
 5008 048c 00       		.byte	0
 5009 048d 0D       		.uleb128 0xd
 5010 048e 82000000 		.4byte	.LVL49
 5011 0492 ED200000 		.4byte	0x20ed
 5012 0496 0B       		.uleb128 0xb
 5013 0497 8A000000 		.4byte	.LVL50
 5014 049b F8200000 		.4byte	0x20f8
 5015 049f AF040000 		.4byte	0x4af
 5016 04a3 0C       		.uleb128 0xc
 5017 04a4 01       		.uleb128 0x1
 5018 04a5 51       		.byte	0x51
 5019 04a6 01       		.uleb128 0x1
 5020 04a7 30       		.byte	0x30
 5021 04a8 0C       		.uleb128 0xc
 5022 04a9 01       		.uleb128 0x1
 5023 04aa 50       		.byte	0x50
 5024 04ab 02       		.uleb128 0x2
 5025 04ac 08       		.byte	0x8
 5026 04ad 40       		.byte	0x40
 5027 04ae 00       		.byte	0
 5028 04af 0B       		.uleb128 0xb
 5029 04b0 90000000 		.4byte	.LVL51
 5030 04b4 12210000 		.4byte	0x2112
ARM GAS  D:\Windows\AppData\Local\Temp\cc9YXq6z.s 			page 113


 5031 04b8 C2040000 		.4byte	0x4c2
 5032 04bc 0C       		.uleb128 0xc
 5033 04bd 01       		.uleb128 0x1
 5034 04be 50       		.byte	0x50
 5035 04bf 01       		.uleb128 0x1
 5036 04c0 30       		.byte	0x30
 5037 04c1 00       		.byte	0
 5038 04c2 0B       		.uleb128 0xb
 5039 04c3 96000000 		.4byte	.LVL52
 5040 04c7 12210000 		.4byte	0x2112
 5041 04cb D5040000 		.4byte	0x4d5
 5042 04cf 0C       		.uleb128 0xc
 5043 04d0 01       		.uleb128 0x1
 5044 04d1 50       		.byte	0x50
 5045 04d2 01       		.uleb128 0x1
 5046 04d3 30       		.byte	0x30
 5047 04d4 00       		.byte	0
 5048 04d5 0B       		.uleb128 0xb
 5049 04d6 9C000000 		.4byte	.LVL53
 5050 04da 12210000 		.4byte	0x2112
 5051 04de E8040000 		.4byte	0x4e8
 5052 04e2 0C       		.uleb128 0xc
 5053 04e3 01       		.uleb128 0x1
 5054 04e4 50       		.byte	0x50
 5055 04e5 01       		.uleb128 0x1
 5056 04e6 30       		.byte	0x30
 5057 04e7 00       		.byte	0
 5058 04e8 0B       		.uleb128 0xb
 5059 04e9 A2000000 		.4byte	.LVL54
 5060 04ed 12210000 		.4byte	0x2112
 5061 04f1 FB040000 		.4byte	0x4fb
 5062 04f5 0C       		.uleb128 0xc
 5063 04f6 01       		.uleb128 0x1
 5064 04f7 50       		.byte	0x50
 5065 04f8 01       		.uleb128 0x1
 5066 04f9 4F       		.byte	0x4f
 5067 04fa 00       		.byte	0
 5068 04fb 0B       		.uleb128 0xb
 5069 04fc A8000000 		.4byte	.LVL55
 5070 0500 12210000 		.4byte	0x2112
 5071 0504 0E050000 		.4byte	0x50e
 5072 0508 0C       		.uleb128 0xc
 5073 0509 01       		.uleb128 0x1
 5074 050a 50       		.byte	0x50
 5075 050b 01       		.uleb128 0x1
 5076 050c 4F       		.byte	0x4f
 5077 050d 00       		.byte	0
 5078 050e 0B       		.uleb128 0xb
 5079 050f AE000000 		.4byte	.LVL56
 5080 0513 12210000 		.4byte	0x2112
 5081 0517 21050000 		.4byte	0x521
 5082 051b 0C       		.uleb128 0xc
 5083 051c 01       		.uleb128 0x1
 5084 051d 50       		.byte	0x50
 5085 051e 01       		.uleb128 0x1
 5086 051f 4F       		.byte	0x4f
 5087 0520 00       		.byte	0
ARM GAS  D:\Windows\AppData\Local\Temp\cc9YXq6z.s 			page 114


 5088 0521 0D       		.uleb128 0xd
 5089 0522 B2000000 		.4byte	.LVL57
 5090 0526 27210000 		.4byte	0x2127
 5091 052a 0B       		.uleb128 0xb
 5092 052b BA000000 		.4byte	.LVL58
 5093 052f F8200000 		.4byte	0x20f8
 5094 0533 43050000 		.4byte	0x543
 5095 0537 0C       		.uleb128 0xc
 5096 0538 01       		.uleb128 0x1
 5097 0539 51       		.byte	0x51
 5098 053a 01       		.uleb128 0x1
 5099 053b 30       		.byte	0x30
 5100 053c 0C       		.uleb128 0xc
 5101 053d 01       		.uleb128 0x1
 5102 053e 50       		.byte	0x50
 5103 053f 02       		.uleb128 0x2
 5104 0540 08       		.byte	0x8
 5105 0541 40       		.byte	0x40
 5106 0542 00       		.byte	0
 5107 0543 0B       		.uleb128 0xb
 5108 0544 C0000000 		.4byte	.LVL59
 5109 0548 12210000 		.4byte	0x2112
 5110 054c 56050000 		.4byte	0x556
 5111 0550 0C       		.uleb128 0xc
 5112 0551 01       		.uleb128 0x1
 5113 0552 50       		.byte	0x50
 5114 0553 01       		.uleb128 0x1
 5115 0554 39       		.byte	0x39
 5116 0555 00       		.byte	0
 5117 0556 0B       		.uleb128 0xb
 5118 0557 C6000000 		.4byte	.LVL60
 5119 055b 12210000 		.4byte	0x2112
 5120 055f 6A050000 		.4byte	0x56a
 5121 0563 0C       		.uleb128 0xc
 5122 0564 01       		.uleb128 0x1
 5123 0565 50       		.byte	0x50
 5124 0566 02       		.uleb128 0x2
 5125 0567 08       		.byte	0x8
 5126 0568 55       		.byte	0x55
 5127 0569 00       		.byte	0
 5128 056a 0B       		.uleb128 0xb
 5129 056b CC000000 		.4byte	.LVL61
 5130 056f 12210000 		.4byte	0x2112
 5131 0573 7E050000 		.4byte	0x57e
 5132 0577 0C       		.uleb128 0xc
 5133 0578 01       		.uleb128 0x1
 5134 0579 50       		.byte	0x50
 5135 057a 02       		.uleb128 0x2
 5136 057b 08       		.byte	0x8
 5137 057c 55       		.byte	0x55
 5138 057d 00       		.byte	0
 5139 057e 0B       		.uleb128 0xb
 5140 057f D2000000 		.4byte	.LVL62
 5141 0583 12210000 		.4byte	0x2112
 5142 0587 92050000 		.4byte	0x592
 5143 058b 0C       		.uleb128 0xc
 5144 058c 01       		.uleb128 0x1
ARM GAS  D:\Windows\AppData\Local\Temp\cc9YXq6z.s 			page 115


 5145 058d 50       		.byte	0x50
 5146 058e 02       		.uleb128 0x2
 5147 058f 08       		.byte	0x8
 5148 0590 55       		.byte	0x55
 5149 0591 00       		.byte	0
 5150 0592 0B       		.uleb128 0xb
 5151 0593 D8000000 		.4byte	.LVL63
 5152 0597 12210000 		.4byte	0x2112
 5153 059b A6050000 		.4byte	0x5a6
 5154 059f 0C       		.uleb128 0xc
 5155 05a0 01       		.uleb128 0x1
 5156 05a1 50       		.byte	0x50
 5157 05a2 02       		.uleb128 0x2
 5158 05a3 08       		.byte	0x8
 5159 05a4 55       		.byte	0x55
 5160 05a5 00       		.byte	0
 5161 05a6 0B       		.uleb128 0xb
 5162 05a7 DE000000 		.4byte	.LVL64
 5163 05ab 12210000 		.4byte	0x2112
 5164 05af BA050000 		.4byte	0x5ba
 5165 05b3 0C       		.uleb128 0xc
 5166 05b4 01       		.uleb128 0x1
 5167 05b5 50       		.byte	0x50
 5168 05b6 02       		.uleb128 0x2
 5169 05b7 08       		.byte	0x8
 5170 05b8 55       		.byte	0x55
 5171 05b9 00       		.byte	0
 5172 05ba 0B       		.uleb128 0xb
 5173 05bb E4000000 		.4byte	.LVL65
 5174 05bf 12210000 		.4byte	0x2112
 5175 05c3 CE050000 		.4byte	0x5ce
 5176 05c7 0C       		.uleb128 0xc
 5177 05c8 01       		.uleb128 0x1
 5178 05c9 50       		.byte	0x50
 5179 05ca 02       		.uleb128 0x2
 5180 05cb 08       		.byte	0x8
 5181 05cc 55       		.byte	0x55
 5182 05cd 00       		.byte	0
 5183 05ce 0B       		.uleb128 0xb
 5184 05cf EA000000 		.4byte	.LVL66
 5185 05d3 12210000 		.4byte	0x2112
 5186 05d7 E2050000 		.4byte	0x5e2
 5187 05db 0C       		.uleb128 0xc
 5188 05dc 01       		.uleb128 0x1
 5189 05dd 50       		.byte	0x50
 5190 05de 02       		.uleb128 0x2
 5191 05df 09       		.byte	0x9
 5192 05e0 FF       		.byte	0xff
 5193 05e1 00       		.byte	0
 5194 05e2 0B       		.uleb128 0xb
 5195 05e3 F0000000 		.4byte	.LVL67
 5196 05e7 12210000 		.4byte	0x2112
 5197 05eb F6050000 		.4byte	0x5f6
 5198 05ef 0C       		.uleb128 0xc
 5199 05f0 01       		.uleb128 0x1
 5200 05f1 50       		.byte	0x50
 5201 05f2 02       		.uleb128 0x2
ARM GAS  D:\Windows\AppData\Local\Temp\cc9YXq6z.s 			page 116


 5202 05f3 09       		.byte	0x9
 5203 05f4 FF       		.byte	0xff
 5204 05f5 00       		.byte	0
 5205 05f6 0B       		.uleb128 0xb
 5206 05f7 F6000000 		.4byte	.LVL68
 5207 05fb 12210000 		.4byte	0x2112
 5208 05ff 0A060000 		.4byte	0x60a
 5209 0603 0C       		.uleb128 0xc
 5210 0604 01       		.uleb128 0x1
 5211 0605 50       		.byte	0x50
 5212 0606 02       		.uleb128 0x2
 5213 0607 09       		.byte	0x9
 5214 0608 FF       		.byte	0xff
 5215 0609 00       		.byte	0
 5216 060a 0D       		.uleb128 0xd
 5217 060b FA000000 		.4byte	.LVL69
 5218 060f 27210000 		.4byte	0x2127
 5219 0613 0B       		.uleb128 0xb
 5220 0614 00010000 		.4byte	.LVL70
 5221 0618 E8000000 		.4byte	0xe8
 5222 061c 26060000 		.4byte	0x626
 5223 0620 0C       		.uleb128 0xc
 5224 0621 01       		.uleb128 0x1
 5225 0622 50       		.byte	0x50
 5226 0623 01       		.uleb128 0x1
 5227 0624 30       		.byte	0x30
 5228 0625 00       		.byte	0
 5229 0626 0F       		.uleb128 0xf
 5230 0627 06010000 		.4byte	.LVL71
 5231 062b ED010000 		.4byte	0x1ed
 5232 062f 0C       		.uleb128 0xc
 5233 0630 01       		.uleb128 0x1
 5234 0631 50       		.byte	0x50
 5235 0632 01       		.uleb128 0x1
 5236 0633 30       		.byte	0x30
 5237 0634 00       		.byte	0
 5238 0635 00       		.byte	0
 5239 0636 08       		.uleb128 0x8
 5240 0637 A1010000 		.4byte	.LASF25
 5241 063b 01       		.byte	0x1
 5242 063c 0A02     		.2byte	0x20a
 5243 063e 00000000 		.4byte	.LFB78
 5244 0642 3C000000 		.4byte	.LFE78-.LFB78
 5245 0646 01       		.uleb128 0x1
 5246 0647 9C       		.byte	0x9c
 5247 0648 A8060000 		.4byte	0x6a8
 5248 064c 09       		.uleb128 0x9
 5249 064d CE020000 		.4byte	.LASF23
 5250 0651 01       		.byte	0x1
 5251 0652 0A02     		.2byte	0x20a
 5252 0654 85000000 		.4byte	0x85
 5253 0658 3C000000 		.4byte	.LLST2
 5254 065c 10       		.uleb128 0x10
 5255 065d 62697400 		.ascii	"bit\000"
 5256 0661 01       		.byte	0x1
 5257 0662 0B02     		.2byte	0x20b
 5258 0664 8C000000 		.4byte	0x8c
ARM GAS  D:\Windows\AppData\Local\Temp\cc9YXq6z.s 			page 117


 5259 0668 01       		.byte	0x1
 5260 0669 0B       		.uleb128 0xb
 5261 066a 24000000 		.4byte	.LVL75
 5262 066e BE200000 		.4byte	0x20be
 5263 0672 82060000 		.4byte	0x682
 5264 0676 0C       		.uleb128 0xc
 5265 0677 01       		.uleb128 0x1
 5266 0678 51       		.byte	0x51
 5267 0679 01       		.uleb128 0x1
 5268 067a 30       		.byte	0x30
 5269 067b 0C       		.uleb128 0xc
 5270 067c 01       		.uleb128 0x1
 5271 067d 50       		.byte	0x50
 5272 067e 02       		.uleb128 0x2
 5273 067f 08       		.byte	0x8
 5274 0680 40       		.byte	0x40
 5275 0681 00       		.byte	0
 5276 0682 0B       		.uleb128 0xb
 5277 0683 2A000000 		.4byte	.LVL76
 5278 0687 D8200000 		.4byte	0x20d8
 5279 068b 95060000 		.4byte	0x695
 5280 068f 0C       		.uleb128 0xc
 5281 0690 01       		.uleb128 0x1
 5282 0691 50       		.byte	0x50
 5283 0692 01       		.uleb128 0x1
 5284 0693 35       		.byte	0x35
 5285 0694 00       		.byte	0
 5286 0695 0D       		.uleb128 0xd
 5287 0696 32000000 		.4byte	.LVL77
 5288 069a D8200000 		.4byte	0x20d8
 5289 069e 0D       		.uleb128 0xd
 5290 069f 36000000 		.4byte	.LVL78
 5291 06a3 ED200000 		.4byte	0x20ed
 5292 06a7 00       		.byte	0
 5293 06a8 08       		.uleb128 0x8
 5294 06a9 AA050000 		.4byte	.LASF26
 5295 06ad 01       		.byte	0x1
 5296 06ae 1602     		.2byte	0x216
 5297 06b0 00000000 		.4byte	.LFB79
 5298 06b4 3C000000 		.4byte	.LFE79-.LFB79
 5299 06b8 01       		.uleb128 0x1
 5300 06b9 9C       		.byte	0x9c
 5301 06ba 1A070000 		.4byte	0x71a
 5302 06be 09       		.uleb128 0x9
 5303 06bf CE020000 		.4byte	.LASF23
 5304 06c3 01       		.byte	0x1
 5305 06c4 1602     		.2byte	0x216
 5306 06c6 85000000 		.4byte	0x85
 5307 06ca 5D000000 		.4byte	.LLST3
 5308 06ce 10       		.uleb128 0x10
 5309 06cf 62697400 		.ascii	"bit\000"
 5310 06d3 01       		.byte	0x1
 5311 06d4 1702     		.2byte	0x217
 5312 06d6 8C000000 		.4byte	0x8c
 5313 06da 10       		.byte	0x10
 5314 06db 0B       		.uleb128 0xb
 5315 06dc 24000000 		.4byte	.LVL82
ARM GAS  D:\Windows\AppData\Local\Temp\cc9YXq6z.s 			page 118


 5316 06e0 BE200000 		.4byte	0x20be
 5317 06e4 F4060000 		.4byte	0x6f4
 5318 06e8 0C       		.uleb128 0xc
 5319 06e9 01       		.uleb128 0x1
 5320 06ea 51       		.byte	0x51
 5321 06eb 01       		.uleb128 0x1
 5322 06ec 30       		.byte	0x30
 5323 06ed 0C       		.uleb128 0xc
 5324 06ee 01       		.uleb128 0x1
 5325 06ef 50       		.byte	0x50
 5326 06f0 02       		.uleb128 0x2
 5327 06f1 08       		.byte	0x8
 5328 06f2 40       		.byte	0x40
 5329 06f3 00       		.byte	0
 5330 06f4 0B       		.uleb128 0xb
 5331 06f5 2A000000 		.4byte	.LVL83
 5332 06f9 D8200000 		.4byte	0x20d8
 5333 06fd 07070000 		.4byte	0x707
 5334 0701 0C       		.uleb128 0xc
 5335 0702 01       		.uleb128 0x1
 5336 0703 50       		.byte	0x50
 5337 0704 01       		.uleb128 0x1
 5338 0705 35       		.byte	0x35
 5339 0706 00       		.byte	0
 5340 0707 0D       		.uleb128 0xd
 5341 0708 32000000 		.4byte	.LVL84
 5342 070c D8200000 		.4byte	0x20d8
 5343 0710 0D       		.uleb128 0xd
 5344 0711 36000000 		.4byte	.LVL85
 5345 0715 ED200000 		.4byte	0x20ed
 5346 0719 00       		.byte	0
 5347 071a 08       		.uleb128 0x8
 5348 071b BE010000 		.4byte	.LASF27
 5349 071f 01       		.byte	0x1
 5350 0720 2202     		.2byte	0x222
 5351 0722 00000000 		.4byte	.LFB80
 5352 0726 3C000000 		.4byte	.LFE80-.LFB80
 5353 072a 01       		.uleb128 0x1
 5354 072b 9C       		.byte	0x9c
 5355 072c 8C070000 		.4byte	0x78c
 5356 0730 09       		.uleb128 0x9
 5357 0731 CE020000 		.4byte	.LASF23
 5358 0735 01       		.byte	0x1
 5359 0736 2202     		.2byte	0x222
 5360 0738 85000000 		.4byte	0x85
 5361 073c 7E000000 		.4byte	.LLST4
 5362 0740 10       		.uleb128 0x10
 5363 0741 62697400 		.ascii	"bit\000"
 5364 0745 01       		.byte	0x1
 5365 0746 2302     		.2byte	0x223
 5366 0748 8C000000 		.4byte	0x8c
 5367 074c 01       		.byte	0x1
 5368 074d 0B       		.uleb128 0xb
 5369 074e 24000000 		.4byte	.LVL89
 5370 0752 BE200000 		.4byte	0x20be
 5371 0756 66070000 		.4byte	0x766
 5372 075a 0C       		.uleb128 0xc
ARM GAS  D:\Windows\AppData\Local\Temp\cc9YXq6z.s 			page 119


 5373 075b 01       		.uleb128 0x1
 5374 075c 51       		.byte	0x51
 5375 075d 01       		.uleb128 0x1
 5376 075e 30       		.byte	0x30
 5377 075f 0C       		.uleb128 0xc
 5378 0760 01       		.uleb128 0x1
 5379 0761 50       		.byte	0x50
 5380 0762 02       		.uleb128 0x2
 5381 0763 08       		.byte	0x8
 5382 0764 40       		.byte	0x40
 5383 0765 00       		.byte	0
 5384 0766 0B       		.uleb128 0xb
 5385 0767 2A000000 		.4byte	.LVL90
 5386 076b D8200000 		.4byte	0x20d8
 5387 076f 79070000 		.4byte	0x779
 5388 0773 0C       		.uleb128 0xc
 5389 0774 01       		.uleb128 0x1
 5390 0775 50       		.byte	0x50
 5391 0776 01       		.uleb128 0x1
 5392 0777 36       		.byte	0x36
 5393 0778 00       		.byte	0
 5394 0779 0D       		.uleb128 0xd
 5395 077a 32000000 		.4byte	.LVL91
 5396 077e D8200000 		.4byte	0x20d8
 5397 0782 0D       		.uleb128 0xd
 5398 0783 36000000 		.4byte	.LVL92
 5399 0787 ED200000 		.4byte	0x20ed
 5400 078b 00       		.byte	0
 5401 078c 08       		.uleb128 0x8
 5402 078d C7050000 		.4byte	.LASF28
 5403 0791 01       		.byte	0x1
 5404 0792 2E02     		.2byte	0x22e
 5405 0794 00000000 		.4byte	.LFB81
 5406 0798 3C000000 		.4byte	.LFE81-.LFB81
 5407 079c 01       		.uleb128 0x1
 5408 079d 9C       		.byte	0x9c
 5409 079e FE070000 		.4byte	0x7fe
 5410 07a2 09       		.uleb128 0x9
 5411 07a3 CE020000 		.4byte	.LASF23
 5412 07a7 01       		.byte	0x1
 5413 07a8 2E02     		.2byte	0x22e
 5414 07aa 85000000 		.4byte	0x85
 5415 07ae 9F000000 		.4byte	.LLST5
 5416 07b2 10       		.uleb128 0x10
 5417 07b3 62697400 		.ascii	"bit\000"
 5418 07b7 01       		.byte	0x1
 5419 07b8 2F02     		.2byte	0x22f
 5420 07ba 8C000000 		.4byte	0x8c
 5421 07be 10       		.byte	0x10
 5422 07bf 0B       		.uleb128 0xb
 5423 07c0 24000000 		.4byte	.LVL96
 5424 07c4 BE200000 		.4byte	0x20be
 5425 07c8 D8070000 		.4byte	0x7d8
 5426 07cc 0C       		.uleb128 0xc
 5427 07cd 01       		.uleb128 0x1
 5428 07ce 51       		.byte	0x51
 5429 07cf 01       		.uleb128 0x1
ARM GAS  D:\Windows\AppData\Local\Temp\cc9YXq6z.s 			page 120


 5430 07d0 30       		.byte	0x30
 5431 07d1 0C       		.uleb128 0xc
 5432 07d2 01       		.uleb128 0x1
 5433 07d3 50       		.byte	0x50
 5434 07d4 02       		.uleb128 0x2
 5435 07d5 08       		.byte	0x8
 5436 07d6 40       		.byte	0x40
 5437 07d7 00       		.byte	0
 5438 07d8 0B       		.uleb128 0xb
 5439 07d9 2A000000 		.4byte	.LVL97
 5440 07dd D8200000 		.4byte	0x20d8
 5441 07e1 EB070000 		.4byte	0x7eb
 5442 07e5 0C       		.uleb128 0xc
 5443 07e6 01       		.uleb128 0x1
 5444 07e7 50       		.byte	0x50
 5445 07e8 01       		.uleb128 0x1
 5446 07e9 36       		.byte	0x36
 5447 07ea 00       		.byte	0
 5448 07eb 0D       		.uleb128 0xd
 5449 07ec 32000000 		.4byte	.LVL98
 5450 07f0 D8200000 		.4byte	0x20d8
 5451 07f4 0D       		.uleb128 0xd
 5452 07f5 36000000 		.4byte	.LVL99
 5453 07f9 ED200000 		.4byte	0x20ed
 5454 07fd 00       		.byte	0
 5455 07fe 08       		.uleb128 0x8
 5456 07ff 4B020000 		.4byte	.LASF29
 5457 0803 01       		.byte	0x1
 5458 0804 3A02     		.2byte	0x23a
 5459 0806 00000000 		.4byte	.LFB82
 5460 080a 3C000000 		.4byte	.LFE82-.LFB82
 5461 080e 01       		.uleb128 0x1
 5462 080f 9C       		.byte	0x9c
 5463 0810 70080000 		.4byte	0x870
 5464 0814 09       		.uleb128 0x9
 5465 0815 CE020000 		.4byte	.LASF23
 5466 0819 01       		.byte	0x1
 5467 081a 3A02     		.2byte	0x23a
 5468 081c 85000000 		.4byte	0x85
 5469 0820 C0000000 		.4byte	.LLST6
 5470 0824 10       		.uleb128 0x10
 5471 0825 62697400 		.ascii	"bit\000"
 5472 0829 01       		.byte	0x1
 5473 082a 3B02     		.2byte	0x23b
 5474 082c 8C000000 		.4byte	0x8c
 5475 0830 01       		.byte	0x1
 5476 0831 0B       		.uleb128 0xb
 5477 0832 24000000 		.4byte	.LVL103
 5478 0836 BE200000 		.4byte	0x20be
 5479 083a 4A080000 		.4byte	0x84a
 5480 083e 0C       		.uleb128 0xc
 5481 083f 01       		.uleb128 0x1
 5482 0840 51       		.byte	0x51
 5483 0841 01       		.uleb128 0x1
 5484 0842 30       		.byte	0x30
 5485 0843 0C       		.uleb128 0xc
 5486 0844 01       		.uleb128 0x1
ARM GAS  D:\Windows\AppData\Local\Temp\cc9YXq6z.s 			page 121


 5487 0845 50       		.byte	0x50
 5488 0846 02       		.uleb128 0x2
 5489 0847 08       		.byte	0x8
 5490 0848 40       		.byte	0x40
 5491 0849 00       		.byte	0
 5492 084a 0B       		.uleb128 0xb
 5493 084b 2A000000 		.4byte	.LVL104
 5494 084f D8200000 		.4byte	0x20d8
 5495 0853 5D080000 		.4byte	0x85d
 5496 0857 0C       		.uleb128 0xc
 5497 0858 01       		.uleb128 0x1
 5498 0859 50       		.byte	0x50
 5499 085a 01       		.uleb128 0x1
 5500 085b 37       		.byte	0x37
 5501 085c 00       		.byte	0
 5502 085d 0D       		.uleb128 0xd
 5503 085e 32000000 		.4byte	.LVL105
 5504 0862 D8200000 		.4byte	0x20d8
 5505 0866 0D       		.uleb128 0xd
 5506 0867 36000000 		.4byte	.LVL106
 5507 086b ED200000 		.4byte	0x20ed
 5508 086f 00       		.byte	0
 5509 0870 08       		.uleb128 0x8
 5510 0871 0A000000 		.4byte	.LASF30
 5511 0875 01       		.byte	0x1
 5512 0876 4602     		.2byte	0x246
 5513 0878 00000000 		.4byte	.LFB83
 5514 087c 3C000000 		.4byte	.LFE83-.LFB83
 5515 0880 01       		.uleb128 0x1
 5516 0881 9C       		.byte	0x9c
 5517 0882 E2080000 		.4byte	0x8e2
 5518 0886 09       		.uleb128 0x9
 5519 0887 CE020000 		.4byte	.LASF23
 5520 088b 01       		.byte	0x1
 5521 088c 4602     		.2byte	0x246
 5522 088e 85000000 		.4byte	0x85
 5523 0892 E1000000 		.4byte	.LLST7
 5524 0896 10       		.uleb128 0x10
 5525 0897 62697400 		.ascii	"bit\000"
 5526 089b 01       		.byte	0x1
 5527 089c 4702     		.2byte	0x247
 5528 089e 8C000000 		.4byte	0x8c
 5529 08a2 10       		.byte	0x10
 5530 08a3 0B       		.uleb128 0xb
 5531 08a4 24000000 		.4byte	.LVL110
 5532 08a8 BE200000 		.4byte	0x20be
 5533 08ac BC080000 		.4byte	0x8bc
 5534 08b0 0C       		.uleb128 0xc
 5535 08b1 01       		.uleb128 0x1
 5536 08b2 51       		.byte	0x51
 5537 08b3 01       		.uleb128 0x1
 5538 08b4 30       		.byte	0x30
 5539 08b5 0C       		.uleb128 0xc
 5540 08b6 01       		.uleb128 0x1
 5541 08b7 50       		.byte	0x50
 5542 08b8 02       		.uleb128 0x2
 5543 08b9 08       		.byte	0x8
ARM GAS  D:\Windows\AppData\Local\Temp\cc9YXq6z.s 			page 122


 5544 08ba 40       		.byte	0x40
 5545 08bb 00       		.byte	0
 5546 08bc 0B       		.uleb128 0xb
 5547 08bd 2A000000 		.4byte	.LVL111
 5548 08c1 D8200000 		.4byte	0x20d8
 5549 08c5 CF080000 		.4byte	0x8cf
 5550 08c9 0C       		.uleb128 0xc
 5551 08ca 01       		.uleb128 0x1
 5552 08cb 50       		.byte	0x50
 5553 08cc 01       		.uleb128 0x1
 5554 08cd 37       		.byte	0x37
 5555 08ce 00       		.byte	0
 5556 08cf 0D       		.uleb128 0xd
 5557 08d0 32000000 		.4byte	.LVL112
 5558 08d4 D8200000 		.4byte	0x20d8
 5559 08d8 0D       		.uleb128 0xd
 5560 08d9 36000000 		.4byte	.LVL113
 5561 08dd ED200000 		.4byte	0x20ed
 5562 08e1 00       		.byte	0
 5563 08e2 08       		.uleb128 0x8
 5564 08e3 09030000 		.4byte	.LASF31
 5565 08e7 01       		.byte	0x1
 5566 08e8 5202     		.2byte	0x252
 5567 08ea 00000000 		.4byte	.LFB84
 5568 08ee 3C000000 		.4byte	.LFE84-.LFB84
 5569 08f2 01       		.uleb128 0x1
 5570 08f3 9C       		.byte	0x9c
 5571 08f4 54090000 		.4byte	0x954
 5572 08f8 09       		.uleb128 0x9
 5573 08f9 CE020000 		.4byte	.LASF23
 5574 08fd 01       		.byte	0x1
 5575 08fe 5202     		.2byte	0x252
 5576 0900 85000000 		.4byte	0x85
 5577 0904 02010000 		.4byte	.LLST8
 5578 0908 10       		.uleb128 0x10
 5579 0909 62697400 		.ascii	"bit\000"
 5580 090d 01       		.byte	0x1
 5581 090e 5302     		.2byte	0x253
 5582 0910 8C000000 		.4byte	0x8c
 5583 0914 01       		.byte	0x1
 5584 0915 0B       		.uleb128 0xb
 5585 0916 24000000 		.4byte	.LVL117
 5586 091a BE200000 		.4byte	0x20be
 5587 091e 2E090000 		.4byte	0x92e
 5588 0922 0C       		.uleb128 0xc
 5589 0923 01       		.uleb128 0x1
 5590 0924 51       		.byte	0x51
 5591 0925 01       		.uleb128 0x1
 5592 0926 30       		.byte	0x30
 5593 0927 0C       		.uleb128 0xc
 5594 0928 01       		.uleb128 0x1
 5595 0929 50       		.byte	0x50
 5596 092a 02       		.uleb128 0x2
 5597 092b 08       		.byte	0x8
 5598 092c 40       		.byte	0x40
 5599 092d 00       		.byte	0
 5600 092e 0B       		.uleb128 0xb
ARM GAS  D:\Windows\AppData\Local\Temp\cc9YXq6z.s 			page 123


 5601 092f 2A000000 		.4byte	.LVL118
 5602 0933 D8200000 		.4byte	0x20d8
 5603 0937 41090000 		.4byte	0x941
 5604 093b 0C       		.uleb128 0xc
 5605 093c 01       		.uleb128 0x1
 5606 093d 50       		.byte	0x50
 5607 093e 01       		.uleb128 0x1
 5608 093f 38       		.byte	0x38
 5609 0940 00       		.byte	0
 5610 0941 0D       		.uleb128 0xd
 5611 0942 32000000 		.4byte	.LVL119
 5612 0946 D8200000 		.4byte	0x20d8
 5613 094a 0D       		.uleb128 0xd
 5614 094b 36000000 		.4byte	.LVL120
 5615 094f ED200000 		.4byte	0x20ed
 5616 0953 00       		.byte	0
 5617 0954 08       		.uleb128 0x8
 5618 0955 E2000000 		.4byte	.LASF32
 5619 0959 01       		.byte	0x1
 5620 095a 5E02     		.2byte	0x25e
 5621 095c 00000000 		.4byte	.LFB85
 5622 0960 3C000000 		.4byte	.LFE85-.LFB85
 5623 0964 01       		.uleb128 0x1
 5624 0965 9C       		.byte	0x9c
 5625 0966 C6090000 		.4byte	0x9c6
 5626 096a 09       		.uleb128 0x9
 5627 096b CE020000 		.4byte	.LASF23
 5628 096f 01       		.byte	0x1
 5629 0970 5E02     		.2byte	0x25e
 5630 0972 85000000 		.4byte	0x85
 5631 0976 23010000 		.4byte	.LLST9
 5632 097a 10       		.uleb128 0x10
 5633 097b 62697400 		.ascii	"bit\000"
 5634 097f 01       		.byte	0x1
 5635 0980 5F02     		.2byte	0x25f
 5636 0982 8C000000 		.4byte	0x8c
 5637 0986 10       		.byte	0x10
 5638 0987 0B       		.uleb128 0xb
 5639 0988 24000000 		.4byte	.LVL124
 5640 098c BE200000 		.4byte	0x20be
 5641 0990 A0090000 		.4byte	0x9a0
 5642 0994 0C       		.uleb128 0xc
 5643 0995 01       		.uleb128 0x1
 5644 0996 51       		.byte	0x51
 5645 0997 01       		.uleb128 0x1
 5646 0998 30       		.byte	0x30
 5647 0999 0C       		.uleb128 0xc
 5648 099a 01       		.uleb128 0x1
 5649 099b 50       		.byte	0x50
 5650 099c 02       		.uleb128 0x2
 5651 099d 08       		.byte	0x8
 5652 099e 40       		.byte	0x40
 5653 099f 00       		.byte	0
 5654 09a0 0B       		.uleb128 0xb
 5655 09a1 2A000000 		.4byte	.LVL125
 5656 09a5 D8200000 		.4byte	0x20d8
 5657 09a9 B3090000 		.4byte	0x9b3
ARM GAS  D:\Windows\AppData\Local\Temp\cc9YXq6z.s 			page 124


 5658 09ad 0C       		.uleb128 0xc
 5659 09ae 01       		.uleb128 0x1
 5660 09af 50       		.byte	0x50
 5661 09b0 01       		.uleb128 0x1
 5662 09b1 38       		.byte	0x38
 5663 09b2 00       		.byte	0
 5664 09b3 0D       		.uleb128 0xd
 5665 09b4 32000000 		.4byte	.LVL126
 5666 09b8 D8200000 		.4byte	0x20d8
 5667 09bc 0D       		.uleb128 0xd
 5668 09bd 36000000 		.4byte	.LVL127
 5669 09c1 ED200000 		.4byte	0x20ed
 5670 09c5 00       		.byte	0
 5671 09c6 08       		.uleb128 0x8
 5672 09c7 C4030000 		.4byte	.LASF33
 5673 09cb 01       		.byte	0x1
 5674 09cc 6A02     		.2byte	0x26a
 5675 09ce 00000000 		.4byte	.LFB86
 5676 09d2 3C000000 		.4byte	.LFE86-.LFB86
 5677 09d6 01       		.uleb128 0x1
 5678 09d7 9C       		.byte	0x9c
 5679 09d8 380A0000 		.4byte	0xa38
 5680 09dc 09       		.uleb128 0x9
 5681 09dd CE020000 		.4byte	.LASF23
 5682 09e1 01       		.byte	0x1
 5683 09e2 6A02     		.2byte	0x26a
 5684 09e4 85000000 		.4byte	0x85
 5685 09e8 44010000 		.4byte	.LLST10
 5686 09ec 10       		.uleb128 0x10
 5687 09ed 62697400 		.ascii	"bit\000"
 5688 09f1 01       		.byte	0x1
 5689 09f2 6B02     		.2byte	0x26b
 5690 09f4 8C000000 		.4byte	0x8c
 5691 09f8 02       		.byte	0x2
 5692 09f9 0B       		.uleb128 0xb
 5693 09fa 24000000 		.4byte	.LVL131
 5694 09fe BE200000 		.4byte	0x20be
 5695 0a02 120A0000 		.4byte	0xa12
 5696 0a06 0C       		.uleb128 0xc
 5697 0a07 01       		.uleb128 0x1
 5698 0a08 51       		.byte	0x51
 5699 0a09 01       		.uleb128 0x1
 5700 0a0a 30       		.byte	0x30
 5701 0a0b 0C       		.uleb128 0xc
 5702 0a0c 01       		.uleb128 0x1
 5703 0a0d 50       		.byte	0x50
 5704 0a0e 02       		.uleb128 0x2
 5705 0a0f 08       		.byte	0x8
 5706 0a10 40       		.byte	0x40
 5707 0a11 00       		.byte	0
 5708 0a12 0B       		.uleb128 0xb
 5709 0a13 2A000000 		.4byte	.LVL132
 5710 0a17 D8200000 		.4byte	0x20d8
 5711 0a1b 250A0000 		.4byte	0xa25
 5712 0a1f 0C       		.uleb128 0xc
 5713 0a20 01       		.uleb128 0x1
 5714 0a21 50       		.byte	0x50
ARM GAS  D:\Windows\AppData\Local\Temp\cc9YXq6z.s 			page 125


 5715 0a22 01       		.uleb128 0x1
 5716 0a23 35       		.byte	0x35
 5717 0a24 00       		.byte	0
 5718 0a25 0D       		.uleb128 0xd
 5719 0a26 32000000 		.4byte	.LVL133
 5720 0a2a D8200000 		.4byte	0x20d8
 5721 0a2e 0D       		.uleb128 0xd
 5722 0a2f 36000000 		.4byte	.LVL134
 5723 0a33 ED200000 		.4byte	0x20ed
 5724 0a37 00       		.byte	0
 5725 0a38 08       		.uleb128 0x8
 5726 0a39 9D020000 		.4byte	.LASF34
 5727 0a3d 01       		.byte	0x1
 5728 0a3e 7602     		.2byte	0x276
 5729 0a40 00000000 		.4byte	.LFB87
 5730 0a44 3C000000 		.4byte	.LFE87-.LFB87
 5731 0a48 01       		.uleb128 0x1
 5732 0a49 9C       		.byte	0x9c
 5733 0a4a AA0A0000 		.4byte	0xaaa
 5734 0a4e 09       		.uleb128 0x9
 5735 0a4f CE020000 		.4byte	.LASF23
 5736 0a53 01       		.byte	0x1
 5737 0a54 7602     		.2byte	0x276
 5738 0a56 85000000 		.4byte	0x85
 5739 0a5a 65010000 		.4byte	.LLST11
 5740 0a5e 10       		.uleb128 0x10
 5741 0a5f 62697400 		.ascii	"bit\000"
 5742 0a63 01       		.byte	0x1
 5743 0a64 7702     		.2byte	0x277
 5744 0a66 8C000000 		.4byte	0x8c
 5745 0a6a 20       		.byte	0x20
 5746 0a6b 0B       		.uleb128 0xb
 5747 0a6c 24000000 		.4byte	.LVL138
 5748 0a70 BE200000 		.4byte	0x20be
 5749 0a74 840A0000 		.4byte	0xa84
 5750 0a78 0C       		.uleb128 0xc
 5751 0a79 01       		.uleb128 0x1
 5752 0a7a 51       		.byte	0x51
 5753 0a7b 01       		.uleb128 0x1
 5754 0a7c 30       		.byte	0x30
 5755 0a7d 0C       		.uleb128 0xc
 5756 0a7e 01       		.uleb128 0x1
 5757 0a7f 50       		.byte	0x50
 5758 0a80 02       		.uleb128 0x2
 5759 0a81 08       		.byte	0x8
 5760 0a82 40       		.byte	0x40
 5761 0a83 00       		.byte	0
 5762 0a84 0B       		.uleb128 0xb
 5763 0a85 2A000000 		.4byte	.LVL139
 5764 0a89 D8200000 		.4byte	0x20d8
 5765 0a8d 970A0000 		.4byte	0xa97
 5766 0a91 0C       		.uleb128 0xc
 5767 0a92 01       		.uleb128 0x1
 5768 0a93 50       		.byte	0x50
 5769 0a94 01       		.uleb128 0x1
 5770 0a95 35       		.byte	0x35
 5771 0a96 00       		.byte	0
ARM GAS  D:\Windows\AppData\Local\Temp\cc9YXq6z.s 			page 126


 5772 0a97 0D       		.uleb128 0xd
 5773 0a98 32000000 		.4byte	.LVL140
 5774 0a9c D8200000 		.4byte	0x20d8
 5775 0aa0 0D       		.uleb128 0xd
 5776 0aa1 36000000 		.4byte	.LVL141
 5777 0aa5 ED200000 		.4byte	0x20ed
 5778 0aa9 00       		.byte	0
 5779 0aaa 08       		.uleb128 0x8
 5780 0aab 95000000 		.4byte	.LASF35
 5781 0aaf 01       		.byte	0x1
 5782 0ab0 8202     		.2byte	0x282
 5783 0ab2 00000000 		.4byte	.LFB88
 5784 0ab6 3C000000 		.4byte	.LFE88-.LFB88
 5785 0aba 01       		.uleb128 0x1
 5786 0abb 9C       		.byte	0x9c
 5787 0abc 1C0B0000 		.4byte	0xb1c
 5788 0ac0 09       		.uleb128 0x9
 5789 0ac1 CE020000 		.4byte	.LASF23
 5790 0ac5 01       		.byte	0x1
 5791 0ac6 8202     		.2byte	0x282
 5792 0ac8 85000000 		.4byte	0x85
 5793 0acc 86010000 		.4byte	.LLST12
 5794 0ad0 10       		.uleb128 0x10
 5795 0ad1 62697400 		.ascii	"bit\000"
 5796 0ad5 01       		.byte	0x1
 5797 0ad6 8302     		.2byte	0x283
 5798 0ad8 8C000000 		.4byte	0x8c
 5799 0adc 02       		.byte	0x2
 5800 0add 0B       		.uleb128 0xb
 5801 0ade 24000000 		.4byte	.LVL145
 5802 0ae2 BE200000 		.4byte	0x20be
 5803 0ae6 F60A0000 		.4byte	0xaf6
 5804 0aea 0C       		.uleb128 0xc
 5805 0aeb 01       		.uleb128 0x1
 5806 0aec 51       		.byte	0x51
 5807 0aed 01       		.uleb128 0x1
 5808 0aee 30       		.byte	0x30
 5809 0aef 0C       		.uleb128 0xc
 5810 0af0 01       		.uleb128 0x1
 5811 0af1 50       		.byte	0x50
 5812 0af2 02       		.uleb128 0x2
 5813 0af3 08       		.byte	0x8
 5814 0af4 40       		.byte	0x40
 5815 0af5 00       		.byte	0
 5816 0af6 0B       		.uleb128 0xb
 5817 0af7 2A000000 		.4byte	.LVL146
 5818 0afb D8200000 		.4byte	0x20d8
 5819 0aff 090B0000 		.4byte	0xb09
 5820 0b03 0C       		.uleb128 0xc
 5821 0b04 01       		.uleb128 0x1
 5822 0b05 50       		.byte	0x50
 5823 0b06 01       		.uleb128 0x1
 5824 0b07 36       		.byte	0x36
 5825 0b08 00       		.byte	0
 5826 0b09 0D       		.uleb128 0xd
 5827 0b0a 32000000 		.4byte	.LVL147
 5828 0b0e D8200000 		.4byte	0x20d8
ARM GAS  D:\Windows\AppData\Local\Temp\cc9YXq6z.s 			page 127


 5829 0b12 0D       		.uleb128 0xd
 5830 0b13 36000000 		.4byte	.LVL148
 5831 0b17 ED200000 		.4byte	0x20ed
 5832 0b1b 00       		.byte	0
 5833 0b1c 08       		.uleb128 0x8
 5834 0b1d 4D030000 		.4byte	.LASF36
 5835 0b21 01       		.byte	0x1
 5836 0b22 8E02     		.2byte	0x28e
 5837 0b24 00000000 		.4byte	.LFB89
 5838 0b28 3C000000 		.4byte	.LFE89-.LFB89
 5839 0b2c 01       		.uleb128 0x1
 5840 0b2d 9C       		.byte	0x9c
 5841 0b2e 8E0B0000 		.4byte	0xb8e
 5842 0b32 09       		.uleb128 0x9
 5843 0b33 CE020000 		.4byte	.LASF23
 5844 0b37 01       		.byte	0x1
 5845 0b38 8E02     		.2byte	0x28e
 5846 0b3a 85000000 		.4byte	0x85
 5847 0b3e A7010000 		.4byte	.LLST13
 5848 0b42 10       		.uleb128 0x10
 5849 0b43 62697400 		.ascii	"bit\000"
 5850 0b47 01       		.byte	0x1
 5851 0b48 8F02     		.2byte	0x28f
 5852 0b4a 8C000000 		.4byte	0x8c
 5853 0b4e 20       		.byte	0x20
 5854 0b4f 0B       		.uleb128 0xb
 5855 0b50 24000000 		.4byte	.LVL152
 5856 0b54 BE200000 		.4byte	0x20be
 5857 0b58 680B0000 		.4byte	0xb68
 5858 0b5c 0C       		.uleb128 0xc
 5859 0b5d 01       		.uleb128 0x1
 5860 0b5e 51       		.byte	0x51
 5861 0b5f 01       		.uleb128 0x1
 5862 0b60 30       		.byte	0x30
 5863 0b61 0C       		.uleb128 0xc
 5864 0b62 01       		.uleb128 0x1
 5865 0b63 50       		.byte	0x50
 5866 0b64 02       		.uleb128 0x2
 5867 0b65 08       		.byte	0x8
 5868 0b66 40       		.byte	0x40
 5869 0b67 00       		.byte	0
 5870 0b68 0B       		.uleb128 0xb
 5871 0b69 2A000000 		.4byte	.LVL153
 5872 0b6d D8200000 		.4byte	0x20d8
 5873 0b71 7B0B0000 		.4byte	0xb7b
 5874 0b75 0C       		.uleb128 0xc
 5875 0b76 01       		.uleb128 0x1
 5876 0b77 50       		.byte	0x50
 5877 0b78 01       		.uleb128 0x1
 5878 0b79 36       		.byte	0x36
 5879 0b7a 00       		.byte	0
 5880 0b7b 0D       		.uleb128 0xd
 5881 0b7c 32000000 		.4byte	.LVL154
 5882 0b80 D8200000 		.4byte	0x20d8
 5883 0b84 0D       		.uleb128 0xd
 5884 0b85 36000000 		.4byte	.LVL155
 5885 0b89 ED200000 		.4byte	0x20ed
ARM GAS  D:\Windows\AppData\Local\Temp\cc9YXq6z.s 			page 128


 5886 0b8d 00       		.byte	0
 5887 0b8e 08       		.uleb128 0x8
 5888 0b8f 03010000 		.4byte	.LASF37
 5889 0b93 01       		.byte	0x1
 5890 0b94 9A02     		.2byte	0x29a
 5891 0b96 00000000 		.4byte	.LFB90
 5892 0b9a 3C000000 		.4byte	.LFE90-.LFB90
 5893 0b9e 01       		.uleb128 0x1
 5894 0b9f 9C       		.byte	0x9c
 5895 0ba0 000C0000 		.4byte	0xc00
 5896 0ba4 09       		.uleb128 0x9
 5897 0ba5 CE020000 		.4byte	.LASF23
 5898 0ba9 01       		.byte	0x1
 5899 0baa 9A02     		.2byte	0x29a
 5900 0bac 85000000 		.4byte	0x85
 5901 0bb0 C8010000 		.4byte	.LLST14
 5902 0bb4 10       		.uleb128 0x10
 5903 0bb5 62697400 		.ascii	"bit\000"
 5904 0bb9 01       		.byte	0x1
 5905 0bba 9B02     		.2byte	0x29b
 5906 0bbc 8C000000 		.4byte	0x8c
 5907 0bc0 02       		.byte	0x2
 5908 0bc1 0B       		.uleb128 0xb
 5909 0bc2 24000000 		.4byte	.LVL159
 5910 0bc6 BE200000 		.4byte	0x20be
 5911 0bca DA0B0000 		.4byte	0xbda
 5912 0bce 0C       		.uleb128 0xc
 5913 0bcf 01       		.uleb128 0x1
 5914 0bd0 51       		.byte	0x51
 5915 0bd1 01       		.uleb128 0x1
 5916 0bd2 30       		.byte	0x30
 5917 0bd3 0C       		.uleb128 0xc
 5918 0bd4 01       		.uleb128 0x1
 5919 0bd5 50       		.byte	0x50
 5920 0bd6 02       		.uleb128 0x2
 5921 0bd7 08       		.byte	0x8
 5922 0bd8 40       		.byte	0x40
 5923 0bd9 00       		.byte	0
 5924 0bda 0B       		.uleb128 0xb
 5925 0bdb 2A000000 		.4byte	.LVL160
 5926 0bdf D8200000 		.4byte	0x20d8
 5927 0be3 ED0B0000 		.4byte	0xbed
 5928 0be7 0C       		.uleb128 0xc
 5929 0be8 01       		.uleb128 0x1
 5930 0be9 50       		.byte	0x50
 5931 0bea 01       		.uleb128 0x1
 5932 0beb 37       		.byte	0x37
 5933 0bec 00       		.byte	0
 5934 0bed 0D       		.uleb128 0xd
 5935 0bee 32000000 		.4byte	.LVL161
 5936 0bf2 D8200000 		.4byte	0x20d8
 5937 0bf6 0D       		.uleb128 0xd
 5938 0bf7 36000000 		.4byte	.LVL162
 5939 0bfb ED200000 		.4byte	0x20ed
 5940 0bff 00       		.byte	0
 5941 0c00 08       		.uleb128 0x8
 5942 0c01 16040000 		.4byte	.LASF38
ARM GAS  D:\Windows\AppData\Local\Temp\cc9YXq6z.s 			page 129


 5943 0c05 01       		.byte	0x1
 5944 0c06 A602     		.2byte	0x2a6
 5945 0c08 00000000 		.4byte	.LFB91
 5946 0c0c 3C000000 		.4byte	.LFE91-.LFB91
 5947 0c10 01       		.uleb128 0x1
 5948 0c11 9C       		.byte	0x9c
 5949 0c12 720C0000 		.4byte	0xc72
 5950 0c16 09       		.uleb128 0x9
 5951 0c17 CE020000 		.4byte	.LASF23
 5952 0c1b 01       		.byte	0x1
 5953 0c1c A602     		.2byte	0x2a6
 5954 0c1e 85000000 		.4byte	0x85
 5955 0c22 E9010000 		.4byte	.LLST15
 5956 0c26 10       		.uleb128 0x10
 5957 0c27 62697400 		.ascii	"bit\000"
 5958 0c2b 01       		.byte	0x1
 5959 0c2c A702     		.2byte	0x2a7
 5960 0c2e 8C000000 		.4byte	0x8c
 5961 0c32 20       		.byte	0x20
 5962 0c33 0B       		.uleb128 0xb
 5963 0c34 24000000 		.4byte	.LVL166
 5964 0c38 BE200000 		.4byte	0x20be
 5965 0c3c 4C0C0000 		.4byte	0xc4c
 5966 0c40 0C       		.uleb128 0xc
 5967 0c41 01       		.uleb128 0x1
 5968 0c42 51       		.byte	0x51
 5969 0c43 01       		.uleb128 0x1
 5970 0c44 30       		.byte	0x30
 5971 0c45 0C       		.uleb128 0xc
 5972 0c46 01       		.uleb128 0x1
 5973 0c47 50       		.byte	0x50
 5974 0c48 02       		.uleb128 0x2
 5975 0c49 08       		.byte	0x8
 5976 0c4a 40       		.byte	0x40
 5977 0c4b 00       		.byte	0
 5978 0c4c 0B       		.uleb128 0xb
 5979 0c4d 2A000000 		.4byte	.LVL167
 5980 0c51 D8200000 		.4byte	0x20d8
 5981 0c55 5F0C0000 		.4byte	0xc5f
 5982 0c59 0C       		.uleb128 0xc
 5983 0c5a 01       		.uleb128 0x1
 5984 0c5b 50       		.byte	0x50
 5985 0c5c 01       		.uleb128 0x1
 5986 0c5d 37       		.byte	0x37
 5987 0c5e 00       		.byte	0
 5988 0c5f 0D       		.uleb128 0xd
 5989 0c60 32000000 		.4byte	.LVL168
 5990 0c64 D8200000 		.4byte	0x20d8
 5991 0c68 0D       		.uleb128 0xd
 5992 0c69 36000000 		.4byte	.LVL169
 5993 0c6d ED200000 		.4byte	0x20ed
 5994 0c71 00       		.byte	0
 5995 0c72 08       		.uleb128 0x8
 5996 0c73 13010000 		.4byte	.LASF39
 5997 0c77 01       		.byte	0x1
 5998 0c78 B202     		.2byte	0x2b2
 5999 0c7a 00000000 		.4byte	.LFB92
ARM GAS  D:\Windows\AppData\Local\Temp\cc9YXq6z.s 			page 130


 6000 0c7e 3C000000 		.4byte	.LFE92-.LFB92
 6001 0c82 01       		.uleb128 0x1
 6002 0c83 9C       		.byte	0x9c
 6003 0c84 E40C0000 		.4byte	0xce4
 6004 0c88 09       		.uleb128 0x9
 6005 0c89 CE020000 		.4byte	.LASF23
 6006 0c8d 01       		.byte	0x1
 6007 0c8e B202     		.2byte	0x2b2
 6008 0c90 85000000 		.4byte	0x85
 6009 0c94 0A020000 		.4byte	.LLST16
 6010 0c98 10       		.uleb128 0x10
 6011 0c99 62697400 		.ascii	"bit\000"
 6012 0c9d 01       		.byte	0x1
 6013 0c9e B302     		.2byte	0x2b3
 6014 0ca0 8C000000 		.4byte	0x8c
 6015 0ca4 02       		.byte	0x2
 6016 0ca5 0B       		.uleb128 0xb
 6017 0ca6 24000000 		.4byte	.LVL173
 6018 0caa BE200000 		.4byte	0x20be
 6019 0cae BE0C0000 		.4byte	0xcbe
 6020 0cb2 0C       		.uleb128 0xc
 6021 0cb3 01       		.uleb128 0x1
 6022 0cb4 51       		.byte	0x51
 6023 0cb5 01       		.uleb128 0x1
 6024 0cb6 30       		.byte	0x30
 6025 0cb7 0C       		.uleb128 0xc
 6026 0cb8 01       		.uleb128 0x1
 6027 0cb9 50       		.byte	0x50
 6028 0cba 02       		.uleb128 0x2
 6029 0cbb 08       		.byte	0x8
 6030 0cbc 40       		.byte	0x40
 6031 0cbd 00       		.byte	0
 6032 0cbe 0B       		.uleb128 0xb
 6033 0cbf 2A000000 		.4byte	.LVL174
 6034 0cc3 D8200000 		.4byte	0x20d8
 6035 0cc7 D10C0000 		.4byte	0xcd1
 6036 0ccb 0C       		.uleb128 0xc
 6037 0ccc 01       		.uleb128 0x1
 6038 0ccd 50       		.byte	0x50
 6039 0cce 01       		.uleb128 0x1
 6040 0ccf 38       		.byte	0x38
 6041 0cd0 00       		.byte	0
 6042 0cd1 0D       		.uleb128 0xd
 6043 0cd2 32000000 		.4byte	.LVL175
 6044 0cd6 D8200000 		.4byte	0x20d8
 6045 0cda 0D       		.uleb128 0xd
 6046 0cdb 36000000 		.4byte	.LVL176
 6047 0cdf ED200000 		.4byte	0x20ed
 6048 0ce3 00       		.byte	0
 6049 0ce4 08       		.uleb128 0x8
 6050 0ce5 3B040000 		.4byte	.LASF40
 6051 0ce9 01       		.byte	0x1
 6052 0cea BE02     		.2byte	0x2be
 6053 0cec 00000000 		.4byte	.LFB93
 6054 0cf0 3C000000 		.4byte	.LFE93-.LFB93
 6055 0cf4 01       		.uleb128 0x1
 6056 0cf5 9C       		.byte	0x9c
ARM GAS  D:\Windows\AppData\Local\Temp\cc9YXq6z.s 			page 131


 6057 0cf6 560D0000 		.4byte	0xd56
 6058 0cfa 09       		.uleb128 0x9
 6059 0cfb CE020000 		.4byte	.LASF23
 6060 0cff 01       		.byte	0x1
 6061 0d00 BE02     		.2byte	0x2be
 6062 0d02 85000000 		.4byte	0x85
 6063 0d06 2B020000 		.4byte	.LLST17
 6064 0d0a 10       		.uleb128 0x10
 6065 0d0b 62697400 		.ascii	"bit\000"
 6066 0d0f 01       		.byte	0x1
 6067 0d10 BF02     		.2byte	0x2bf
 6068 0d12 8C000000 		.4byte	0x8c
 6069 0d16 20       		.byte	0x20
 6070 0d17 0B       		.uleb128 0xb
 6071 0d18 24000000 		.4byte	.LVL180
 6072 0d1c BE200000 		.4byte	0x20be
 6073 0d20 300D0000 		.4byte	0xd30
 6074 0d24 0C       		.uleb128 0xc
 6075 0d25 01       		.uleb128 0x1
 6076 0d26 51       		.byte	0x51
 6077 0d27 01       		.uleb128 0x1
 6078 0d28 30       		.byte	0x30
 6079 0d29 0C       		.uleb128 0xc
 6080 0d2a 01       		.uleb128 0x1
 6081 0d2b 50       		.byte	0x50
 6082 0d2c 02       		.uleb128 0x2
 6083 0d2d 08       		.byte	0x8
 6084 0d2e 40       		.byte	0x40
 6085 0d2f 00       		.byte	0
 6086 0d30 0B       		.uleb128 0xb
 6087 0d31 2A000000 		.4byte	.LVL181
 6088 0d35 D8200000 		.4byte	0x20d8
 6089 0d39 430D0000 		.4byte	0xd43
 6090 0d3d 0C       		.uleb128 0xc
 6091 0d3e 01       		.uleb128 0x1
 6092 0d3f 50       		.byte	0x50
 6093 0d40 01       		.uleb128 0x1
 6094 0d41 38       		.byte	0x38
 6095 0d42 00       		.byte	0
 6096 0d43 0D       		.uleb128 0xd
 6097 0d44 32000000 		.4byte	.LVL182
 6098 0d48 D8200000 		.4byte	0x20d8
 6099 0d4c 0D       		.uleb128 0xd
 6100 0d4d 36000000 		.4byte	.LVL183
 6101 0d51 ED200000 		.4byte	0x20ed
 6102 0d55 00       		.byte	0
 6103 0d56 08       		.uleb128 0x8
 6104 0d57 D3010000 		.4byte	.LASF41
 6105 0d5b 01       		.byte	0x1
 6106 0d5c CA02     		.2byte	0x2ca
 6107 0d5e 00000000 		.4byte	.LFB94
 6108 0d62 3C000000 		.4byte	.LFE94-.LFB94
 6109 0d66 01       		.uleb128 0x1
 6110 0d67 9C       		.byte	0x9c
 6111 0d68 C80D0000 		.4byte	0xdc8
 6112 0d6c 09       		.uleb128 0x9
 6113 0d6d CE020000 		.4byte	.LASF23
ARM GAS  D:\Windows\AppData\Local\Temp\cc9YXq6z.s 			page 132


 6114 0d71 01       		.byte	0x1
 6115 0d72 CA02     		.2byte	0x2ca
 6116 0d74 85000000 		.4byte	0x85
 6117 0d78 4C020000 		.4byte	.LLST18
 6118 0d7c 10       		.uleb128 0x10
 6119 0d7d 62697400 		.ascii	"bit\000"
 6120 0d81 01       		.byte	0x1
 6121 0d82 CB02     		.2byte	0x2cb
 6122 0d84 8C000000 		.4byte	0x8c
 6123 0d88 04       		.byte	0x4
 6124 0d89 0B       		.uleb128 0xb
 6125 0d8a 24000000 		.4byte	.LVL187
 6126 0d8e BE200000 		.4byte	0x20be
 6127 0d92 A20D0000 		.4byte	0xda2
 6128 0d96 0C       		.uleb128 0xc
 6129 0d97 01       		.uleb128 0x1
 6130 0d98 51       		.byte	0x51
 6131 0d99 01       		.uleb128 0x1
 6132 0d9a 30       		.byte	0x30
 6133 0d9b 0C       		.uleb128 0xc
 6134 0d9c 01       		.uleb128 0x1
 6135 0d9d 50       		.byte	0x50
 6136 0d9e 02       		.uleb128 0x2
 6137 0d9f 08       		.byte	0x8
 6138 0da0 40       		.byte	0x40
 6139 0da1 00       		.byte	0
 6140 0da2 0B       		.uleb128 0xb
 6141 0da3 2A000000 		.4byte	.LVL188
 6142 0da7 D8200000 		.4byte	0x20d8
 6143 0dab B50D0000 		.4byte	0xdb5
 6144 0daf 0C       		.uleb128 0xc
 6145 0db0 01       		.uleb128 0x1
 6146 0db1 50       		.byte	0x50
 6147 0db2 01       		.uleb128 0x1
 6148 0db3 35       		.byte	0x35
 6149 0db4 00       		.byte	0
 6150 0db5 0D       		.uleb128 0xd
 6151 0db6 32000000 		.4byte	.LVL189
 6152 0dba D8200000 		.4byte	0x20d8
 6153 0dbe 0D       		.uleb128 0xd
 6154 0dbf 36000000 		.4byte	.LVL190
 6155 0dc3 ED200000 		.4byte	0x20ed
 6156 0dc7 00       		.byte	0
 6157 0dc8 08       		.uleb128 0x8
 6158 0dc9 19060000 		.4byte	.LASF42
 6159 0dcd 01       		.byte	0x1
 6160 0dce D602     		.2byte	0x2d6
 6161 0dd0 00000000 		.4byte	.LFB95
 6162 0dd4 3C000000 		.4byte	.LFE95-.LFB95
 6163 0dd8 01       		.uleb128 0x1
 6164 0dd9 9C       		.byte	0x9c
 6165 0dda 3A0E0000 		.4byte	0xe3a
 6166 0dde 09       		.uleb128 0x9
 6167 0ddf CE020000 		.4byte	.LASF23
 6168 0de3 01       		.byte	0x1
 6169 0de4 D602     		.2byte	0x2d6
 6170 0de6 85000000 		.4byte	0x85
ARM GAS  D:\Windows\AppData\Local\Temp\cc9YXq6z.s 			page 133


 6171 0dea 6D020000 		.4byte	.LLST19
 6172 0dee 10       		.uleb128 0x10
 6173 0def 62697400 		.ascii	"bit\000"
 6174 0df3 01       		.byte	0x1
 6175 0df4 D702     		.2byte	0x2d7
 6176 0df6 8C000000 		.4byte	0x8c
 6177 0dfa 40       		.byte	0x40
 6178 0dfb 0B       		.uleb128 0xb
 6179 0dfc 24000000 		.4byte	.LVL194
 6180 0e00 BE200000 		.4byte	0x20be
 6181 0e04 140E0000 		.4byte	0xe14
 6182 0e08 0C       		.uleb128 0xc
 6183 0e09 01       		.uleb128 0x1
 6184 0e0a 51       		.byte	0x51
 6185 0e0b 01       		.uleb128 0x1
 6186 0e0c 30       		.byte	0x30
 6187 0e0d 0C       		.uleb128 0xc
 6188 0e0e 01       		.uleb128 0x1
 6189 0e0f 50       		.byte	0x50
 6190 0e10 02       		.uleb128 0x2
 6191 0e11 08       		.byte	0x8
 6192 0e12 40       		.byte	0x40
 6193 0e13 00       		.byte	0
 6194 0e14 0B       		.uleb128 0xb
 6195 0e15 2A000000 		.4byte	.LVL195
 6196 0e19 D8200000 		.4byte	0x20d8
 6197 0e1d 270E0000 		.4byte	0xe27
 6198 0e21 0C       		.uleb128 0xc
 6199 0e22 01       		.uleb128 0x1
 6200 0e23 50       		.byte	0x50
 6201 0e24 01       		.uleb128 0x1
 6202 0e25 35       		.byte	0x35
 6203 0e26 00       		.byte	0
 6204 0e27 0D       		.uleb128 0xd
 6205 0e28 32000000 		.4byte	.LVL196
 6206 0e2c D8200000 		.4byte	0x20d8
 6207 0e30 0D       		.uleb128 0xd
 6208 0e31 36000000 		.4byte	.LVL197
 6209 0e35 ED200000 		.4byte	0x20ed
 6210 0e39 00       		.byte	0
 6211 0e3a 08       		.uleb128 0x8
 6212 0e3b 72020000 		.4byte	.LASF43
 6213 0e3f 01       		.byte	0x1
 6214 0e40 E202     		.2byte	0x2e2
 6215 0e42 00000000 		.4byte	.LFB96
 6216 0e46 3C000000 		.4byte	.LFE96-.LFB96
 6217 0e4a 01       		.uleb128 0x1
 6218 0e4b 9C       		.byte	0x9c
 6219 0e4c AC0E0000 		.4byte	0xeac
 6220 0e50 09       		.uleb128 0x9
 6221 0e51 CE020000 		.4byte	.LASF23
 6222 0e55 01       		.byte	0x1
 6223 0e56 E202     		.2byte	0x2e2
 6224 0e58 85000000 		.4byte	0x85
 6225 0e5c 8E020000 		.4byte	.LLST20
 6226 0e60 10       		.uleb128 0x10
 6227 0e61 62697400 		.ascii	"bit\000"
ARM GAS  D:\Windows\AppData\Local\Temp\cc9YXq6z.s 			page 134


 6228 0e65 01       		.byte	0x1
 6229 0e66 E302     		.2byte	0x2e3
 6230 0e68 8C000000 		.4byte	0x8c
 6231 0e6c 04       		.byte	0x4
 6232 0e6d 0B       		.uleb128 0xb
 6233 0e6e 24000000 		.4byte	.LVL201
 6234 0e72 BE200000 		.4byte	0x20be
 6235 0e76 860E0000 		.4byte	0xe86
 6236 0e7a 0C       		.uleb128 0xc
 6237 0e7b 01       		.uleb128 0x1
 6238 0e7c 51       		.byte	0x51
 6239 0e7d 01       		.uleb128 0x1
 6240 0e7e 30       		.byte	0x30
 6241 0e7f 0C       		.uleb128 0xc
 6242 0e80 01       		.uleb128 0x1
 6243 0e81 50       		.byte	0x50
 6244 0e82 02       		.uleb128 0x2
 6245 0e83 08       		.byte	0x8
 6246 0e84 40       		.byte	0x40
 6247 0e85 00       		.byte	0
 6248 0e86 0B       		.uleb128 0xb
 6249 0e87 2A000000 		.4byte	.LVL202
 6250 0e8b D8200000 		.4byte	0x20d8
 6251 0e8f 990E0000 		.4byte	0xe99
 6252 0e93 0C       		.uleb128 0xc
 6253 0e94 01       		.uleb128 0x1
 6254 0e95 50       		.byte	0x50
 6255 0e96 01       		.uleb128 0x1
 6256 0e97 36       		.byte	0x36
 6257 0e98 00       		.byte	0
 6258 0e99 0D       		.uleb128 0xd
 6259 0e9a 32000000 		.4byte	.LVL203
 6260 0e9e D8200000 		.4byte	0x20d8
 6261 0ea2 0D       		.uleb128 0xd
 6262 0ea3 36000000 		.4byte	.LVL204
 6263 0ea7 ED200000 		.4byte	0x20ed
 6264 0eab 00       		.byte	0
 6265 0eac 11       		.uleb128 0x11
 6266 0ead 26020000 		.4byte	.LASF45
 6267 0eb1 01       		.byte	0x1
 6268 0eb2 5E01     		.2byte	0x15e
 6269 0eb4 00000000 		.4byte	.LFB73
 6270 0eb8 1C000000 		.4byte	.LFE73-.LFB73
 6271 0ebc 01       		.uleb128 0x1
 6272 0ebd 9C       		.byte	0x9c
 6273 0ebe 0B0F0000 		.4byte	0xf0b
 6274 0ec2 0B       		.uleb128 0xb
 6275 0ec3 08000000 		.4byte	.LVL205
 6276 0ec7 36060000 		.4byte	0x636
 6277 0ecb D50E0000 		.4byte	0xed5
 6278 0ecf 0C       		.uleb128 0xc
 6279 0ed0 01       		.uleb128 0x1
 6280 0ed1 50       		.byte	0x50
 6281 0ed2 01       		.uleb128 0x1
 6282 0ed3 31       		.byte	0x31
 6283 0ed4 00       		.byte	0
 6284 0ed5 0B       		.uleb128 0xb
ARM GAS  D:\Windows\AppData\Local\Temp\cc9YXq6z.s 			page 135


 6285 0ed6 0E000000 		.4byte	.LVL206
 6286 0eda 000C0000 		.4byte	0xc00
 6287 0ede E80E0000 		.4byte	0xee8
 6288 0ee2 0C       		.uleb128 0xc
 6289 0ee3 01       		.uleb128 0x1
 6290 0ee4 50       		.byte	0x50
 6291 0ee5 01       		.uleb128 0x1
 6292 0ee6 31       		.byte	0x31
 6293 0ee7 00       		.byte	0
 6294 0ee8 0B       		.uleb128 0xb
 6295 0ee9 14000000 		.4byte	.LVL207
 6296 0eed 720C0000 		.4byte	0xc72
 6297 0ef1 FB0E0000 		.4byte	0xefb
 6298 0ef5 0C       		.uleb128 0xc
 6299 0ef6 01       		.uleb128 0x1
 6300 0ef7 50       		.byte	0x50
 6301 0ef8 01       		.uleb128 0x1
 6302 0ef9 31       		.byte	0x31
 6303 0efa 00       		.byte	0
 6304 0efb 0F       		.uleb128 0xf
 6305 0efc 1A000000 		.4byte	.LVL208
 6306 0f00 3A0E0000 		.4byte	0xe3a
 6307 0f04 0C       		.uleb128 0xc
 6308 0f05 01       		.uleb128 0x1
 6309 0f06 50       		.byte	0x50
 6310 0f07 01       		.uleb128 0x1
 6311 0f08 31       		.byte	0x31
 6312 0f09 00       		.byte	0
 6313 0f0a 00       		.byte	0
 6314 0f0b 11       		.uleb128 0x11
 6315 0f0c 78030000 		.4byte	.LASF46
 6316 0f10 01       		.byte	0x1
 6317 0f11 9101     		.2byte	0x191
 6318 0f13 00000000 		.4byte	.LFB74
 6319 0f17 1C000000 		.4byte	.LFE74-.LFB74
 6320 0f1b 01       		.uleb128 0x1
 6321 0f1c 9C       		.byte	0x9c
 6322 0f1d 6A0F0000 		.4byte	0xf6a
 6323 0f21 0B       		.uleb128 0xb
 6324 0f22 08000000 		.4byte	.LVL209
 6325 0f26 36060000 		.4byte	0x636
 6326 0f2a 340F0000 		.4byte	0xf34
 6327 0f2e 0C       		.uleb128 0xc
 6328 0f2f 01       		.uleb128 0x1
 6329 0f30 50       		.byte	0x50
 6330 0f31 01       		.uleb128 0x1
 6331 0f32 30       		.byte	0x30
 6332 0f33 00       		.byte	0
 6333 0f34 0B       		.uleb128 0xb
 6334 0f35 0E000000 		.4byte	.LVL210
 6335 0f39 000C0000 		.4byte	0xc00
 6336 0f3d 470F0000 		.4byte	0xf47
 6337 0f41 0C       		.uleb128 0xc
 6338 0f42 01       		.uleb128 0x1
 6339 0f43 50       		.byte	0x50
 6340 0f44 01       		.uleb128 0x1
 6341 0f45 30       		.byte	0x30
ARM GAS  D:\Windows\AppData\Local\Temp\cc9YXq6z.s 			page 136


 6342 0f46 00       		.byte	0
 6343 0f47 0B       		.uleb128 0xb
 6344 0f48 14000000 		.4byte	.LVL211
 6345 0f4c 720C0000 		.4byte	0xc72
 6346 0f50 5A0F0000 		.4byte	0xf5a
 6347 0f54 0C       		.uleb128 0xc
 6348 0f55 01       		.uleb128 0x1
 6349 0f56 50       		.byte	0x50
 6350 0f57 01       		.uleb128 0x1
 6351 0f58 30       		.byte	0x30
 6352 0f59 00       		.byte	0
 6353 0f5a 0F       		.uleb128 0xf
 6354 0f5b 1A000000 		.4byte	.LVL212
 6355 0f5f 3A0E0000 		.4byte	0xe3a
 6356 0f63 0C       		.uleb128 0xc
 6357 0f64 01       		.uleb128 0x1
 6358 0f65 50       		.byte	0x50
 6359 0f66 01       		.uleb128 0x1
 6360 0f67 30       		.byte	0x30
 6361 0f68 00       		.byte	0
 6362 0f69 00       		.byte	0
 6363 0f6a 08       		.uleb128 0x8
 6364 0f6b BD050000 		.4byte	.LASF47
 6365 0f6f 01       		.byte	0x1
 6366 0f70 EE02     		.2byte	0x2ee
 6367 0f72 00000000 		.4byte	.LFB97
 6368 0f76 3C000000 		.4byte	.LFE97-.LFB97
 6369 0f7a 01       		.uleb128 0x1
 6370 0f7b 9C       		.byte	0x9c
 6371 0f7c DC0F0000 		.4byte	0xfdc
 6372 0f80 09       		.uleb128 0x9
 6373 0f81 CE020000 		.4byte	.LASF23
 6374 0f85 01       		.byte	0x1
 6375 0f86 EE02     		.2byte	0x2ee
 6376 0f88 85000000 		.4byte	0x85
 6377 0f8c AF020000 		.4byte	.LLST21
 6378 0f90 10       		.uleb128 0x10
 6379 0f91 62697400 		.ascii	"bit\000"
 6380 0f95 01       		.byte	0x1
 6381 0f96 EF02     		.2byte	0x2ef
 6382 0f98 8C000000 		.4byte	0x8c
 6383 0f9c 40       		.byte	0x40
 6384 0f9d 0B       		.uleb128 0xb
 6385 0f9e 24000000 		.4byte	.LVL216
 6386 0fa2 BE200000 		.4byte	0x20be
 6387 0fa6 B60F0000 		.4byte	0xfb6
 6388 0faa 0C       		.uleb128 0xc
 6389 0fab 01       		.uleb128 0x1
 6390 0fac 51       		.byte	0x51
 6391 0fad 01       		.uleb128 0x1
 6392 0fae 30       		.byte	0x30
 6393 0faf 0C       		.uleb128 0xc
 6394 0fb0 01       		.uleb128 0x1
 6395 0fb1 50       		.byte	0x50
 6396 0fb2 02       		.uleb128 0x2
 6397 0fb3 08       		.byte	0x8
 6398 0fb4 40       		.byte	0x40
ARM GAS  D:\Windows\AppData\Local\Temp\cc9YXq6z.s 			page 137


 6399 0fb5 00       		.byte	0
 6400 0fb6 0B       		.uleb128 0xb
 6401 0fb7 2A000000 		.4byte	.LVL217
 6402 0fbb D8200000 		.4byte	0x20d8
 6403 0fbf C90F0000 		.4byte	0xfc9
 6404 0fc3 0C       		.uleb128 0xc
 6405 0fc4 01       		.uleb128 0x1
 6406 0fc5 50       		.byte	0x50
 6407 0fc6 01       		.uleb128 0x1
 6408 0fc7 36       		.byte	0x36
 6409 0fc8 00       		.byte	0
 6410 0fc9 0D       		.uleb128 0xd
 6411 0fca 32000000 		.4byte	.LVL218
 6412 0fce D8200000 		.4byte	0x20d8
 6413 0fd2 0D       		.uleb128 0xd
 6414 0fd3 36000000 		.4byte	.LVL219
 6415 0fd7 ED200000 		.4byte	0x20ed
 6416 0fdb 00       		.byte	0
 6417 0fdc 08       		.uleb128 0x8
 6418 0fdd 41020000 		.4byte	.LASF48
 6419 0fe1 01       		.byte	0x1
 6420 0fe2 FA02     		.2byte	0x2fa
 6421 0fe4 00000000 		.4byte	.LFB98
 6422 0fe8 3C000000 		.4byte	.LFE98-.LFB98
 6423 0fec 01       		.uleb128 0x1
 6424 0fed 9C       		.byte	0x9c
 6425 0fee 4E100000 		.4byte	0x104e
 6426 0ff2 09       		.uleb128 0x9
 6427 0ff3 CE020000 		.4byte	.LASF23
 6428 0ff7 01       		.byte	0x1
 6429 0ff8 FA02     		.2byte	0x2fa
 6430 0ffa 85000000 		.4byte	0x85
 6431 0ffe D0020000 		.4byte	.LLST22
 6432 1002 10       		.uleb128 0x10
 6433 1003 62697400 		.ascii	"bit\000"
 6434 1007 01       		.byte	0x1
 6435 1008 FB02     		.2byte	0x2fb
 6436 100a 8C000000 		.4byte	0x8c
 6437 100e 04       		.byte	0x4
 6438 100f 0B       		.uleb128 0xb
 6439 1010 24000000 		.4byte	.LVL223
 6440 1014 BE200000 		.4byte	0x20be
 6441 1018 28100000 		.4byte	0x1028
 6442 101c 0C       		.uleb128 0xc
 6443 101d 01       		.uleb128 0x1
 6444 101e 51       		.byte	0x51
 6445 101f 01       		.uleb128 0x1
 6446 1020 30       		.byte	0x30
 6447 1021 0C       		.uleb128 0xc
 6448 1022 01       		.uleb128 0x1
 6449 1023 50       		.byte	0x50
 6450 1024 02       		.uleb128 0x2
 6451 1025 08       		.byte	0x8
 6452 1026 40       		.byte	0x40
 6453 1027 00       		.byte	0
 6454 1028 0B       		.uleb128 0xb
 6455 1029 2A000000 		.4byte	.LVL224
ARM GAS  D:\Windows\AppData\Local\Temp\cc9YXq6z.s 			page 138


 6456 102d D8200000 		.4byte	0x20d8
 6457 1031 3B100000 		.4byte	0x103b
 6458 1035 0C       		.uleb128 0xc
 6459 1036 01       		.uleb128 0x1
 6460 1037 50       		.byte	0x50
 6461 1038 01       		.uleb128 0x1
 6462 1039 37       		.byte	0x37
 6463 103a 00       		.byte	0
 6464 103b 0D       		.uleb128 0xd
 6465 103c 32000000 		.4byte	.LVL225
 6466 1040 D8200000 		.4byte	0x20d8
 6467 1044 0D       		.uleb128 0xd
 6468 1045 36000000 		.4byte	.LVL226
 6469 1049 ED200000 		.4byte	0x20ed
 6470 104d 00       		.byte	0
 6471 104e 08       		.uleb128 0x8
 6472 104f 00000000 		.4byte	.LASF49
 6473 1053 01       		.byte	0x1
 6474 1054 0603     		.2byte	0x306
 6475 1056 00000000 		.4byte	.LFB99
 6476 105a 3C000000 		.4byte	.LFE99-.LFB99
 6477 105e 01       		.uleb128 0x1
 6478 105f 9C       		.byte	0x9c
 6479 1060 C0100000 		.4byte	0x10c0
 6480 1064 09       		.uleb128 0x9
 6481 1065 CE020000 		.4byte	.LASF23
 6482 1069 01       		.byte	0x1
 6483 106a 0603     		.2byte	0x306
 6484 106c 85000000 		.4byte	0x85
 6485 1070 F1020000 		.4byte	.LLST23
 6486 1074 10       		.uleb128 0x10
 6487 1075 62697400 		.ascii	"bit\000"
 6488 1079 01       		.byte	0x1
 6489 107a 0703     		.2byte	0x307
 6490 107c 8C000000 		.4byte	0x8c
 6491 1080 40       		.byte	0x40
 6492 1081 0B       		.uleb128 0xb
 6493 1082 24000000 		.4byte	.LVL230
 6494 1086 BE200000 		.4byte	0x20be
 6495 108a 9A100000 		.4byte	0x109a
 6496 108e 0C       		.uleb128 0xc
 6497 108f 01       		.uleb128 0x1
 6498 1090 51       		.byte	0x51
 6499 1091 01       		.uleb128 0x1
 6500 1092 30       		.byte	0x30
 6501 1093 0C       		.uleb128 0xc
 6502 1094 01       		.uleb128 0x1
 6503 1095 50       		.byte	0x50
 6504 1096 02       		.uleb128 0x2
 6505 1097 08       		.byte	0x8
 6506 1098 40       		.byte	0x40
 6507 1099 00       		.byte	0
 6508 109a 0B       		.uleb128 0xb
 6509 109b 2A000000 		.4byte	.LVL231
 6510 109f D8200000 		.4byte	0x20d8
 6511 10a3 AD100000 		.4byte	0x10ad
 6512 10a7 0C       		.uleb128 0xc
ARM GAS  D:\Windows\AppData\Local\Temp\cc9YXq6z.s 			page 139


 6513 10a8 01       		.uleb128 0x1
 6514 10a9 50       		.byte	0x50
 6515 10aa 01       		.uleb128 0x1
 6516 10ab 37       		.byte	0x37
 6517 10ac 00       		.byte	0
 6518 10ad 0D       		.uleb128 0xd
 6519 10ae 32000000 		.4byte	.LVL232
 6520 10b2 D8200000 		.4byte	0x20d8
 6521 10b6 0D       		.uleb128 0xd
 6522 10b7 36000000 		.4byte	.LVL233
 6523 10bb ED200000 		.4byte	0x20ed
 6524 10bf 00       		.byte	0
 6525 10c0 12       		.uleb128 0x12
 6526 10c1 2C040000 		.4byte	.LASF50
 6527 10c5 01       		.byte	0x1
 6528 10c6 84       		.byte	0x84
 6529 10c7 00000000 		.4byte	.LFB68
 6530 10cb A0010000 		.4byte	.LFE68-.LFB68
 6531 10cf 01       		.uleb128 0x1
 6532 10d0 9C       		.byte	0x9c
 6533 10d1 D6110000 		.4byte	0x11d6
 6534 10d5 13       		.uleb128 0x13
 6535 10d6 ED010000 		.4byte	.LASF51
 6536 10da 01       		.byte	0x1
 6537 10db 84       		.byte	0x84
 6538 10dc 97000000 		.4byte	0x97
 6539 10e0 12030000 		.4byte	.LLST24
 6540 10e4 14       		.uleb128 0x14
 6541 10e5 4A010000 		.4byte	.LASF52
 6542 10e9 01       		.byte	0x1
 6543 10ea 85       		.byte	0x85
 6544 10eb 85000000 		.4byte	0x85
 6545 10ef 33030000 		.4byte	.LLST25
 6546 10f3 14       		.uleb128 0x14
 6547 10f4 0D010000 		.4byte	.LASF53
 6548 10f8 01       		.byte	0x1
 6549 10f9 86       		.byte	0x86
 6550 10fa 85000000 		.4byte	0x85
 6551 10fe 4E050000 		.4byte	.LLST26
 6552 1102 15       		.uleb128 0x15
 6553 1103 6900     		.ascii	"i\000"
 6554 1105 01       		.byte	0x1
 6555 1106 B2       		.byte	0xb2
 6556 1107 85000000 		.4byte	0x85
 6557 110b 6D050000 		.4byte	.LLST27
 6558 110f 0D       		.uleb128 0xd
 6559 1110 16010000 		.4byte	.LVL279
 6560 1114 36060000 		.4byte	0x636
 6561 1118 0D       		.uleb128 0xd
 6562 1119 1C010000 		.4byte	.LVL280
 6563 111d A8060000 		.4byte	0x6a8
 6564 1121 0D       		.uleb128 0xd
 6565 1122 22010000 		.4byte	.LVL281
 6566 1126 1A070000 		.4byte	0x71a
 6567 112a 0D       		.uleb128 0xd
 6568 112b 28010000 		.4byte	.LVL282
 6569 112f 8C070000 		.4byte	0x78c
ARM GAS  D:\Windows\AppData\Local\Temp\cc9YXq6z.s 			page 140


 6570 1133 0D       		.uleb128 0xd
 6571 1134 2E010000 		.4byte	.LVL283
 6572 1138 FE070000 		.4byte	0x7fe
 6573 113c 0D       		.uleb128 0xd
 6574 113d 34010000 		.4byte	.LVL284
 6575 1141 70080000 		.4byte	0x870
 6576 1145 0D       		.uleb128 0xd
 6577 1146 3A010000 		.4byte	.LVL285
 6578 114a E2080000 		.4byte	0x8e2
 6579 114e 0D       		.uleb128 0xd
 6580 114f 40010000 		.4byte	.LVL286
 6581 1153 54090000 		.4byte	0x954
 6582 1157 0D       		.uleb128 0xd
 6583 1158 46010000 		.4byte	.LVL287
 6584 115c C6090000 		.4byte	0x9c6
 6585 1160 0D       		.uleb128 0xd
 6586 1161 4C010000 		.4byte	.LVL288
 6587 1165 380A0000 		.4byte	0xa38
 6588 1169 0D       		.uleb128 0xd
 6589 116a 52010000 		.4byte	.LVL289
 6590 116e AA0A0000 		.4byte	0xaaa
 6591 1172 0D       		.uleb128 0xd
 6592 1173 58010000 		.4byte	.LVL290
 6593 1177 1C0B0000 		.4byte	0xb1c
 6594 117b 0D       		.uleb128 0xd
 6595 117c 5E010000 		.4byte	.LVL291
 6596 1180 8E0B0000 		.4byte	0xb8e
 6597 1184 0D       		.uleb128 0xd
 6598 1185 64010000 		.4byte	.LVL292
 6599 1189 000C0000 		.4byte	0xc00
 6600 118d 0D       		.uleb128 0xd
 6601 118e 6A010000 		.4byte	.LVL293
 6602 1192 720C0000 		.4byte	0xc72
 6603 1196 0D       		.uleb128 0xd
 6604 1197 70010000 		.4byte	.LVL294
 6605 119b E40C0000 		.4byte	0xce4
 6606 119f 0D       		.uleb128 0xd
 6607 11a0 76010000 		.4byte	.LVL295
 6608 11a4 560D0000 		.4byte	0xd56
 6609 11a8 0D       		.uleb128 0xd
 6610 11a9 7C010000 		.4byte	.LVL296
 6611 11ad C80D0000 		.4byte	0xdc8
 6612 11b1 0D       		.uleb128 0xd
 6613 11b2 82010000 		.4byte	.LVL297
 6614 11b6 3A0E0000 		.4byte	0xe3a
 6615 11ba 0D       		.uleb128 0xd
 6616 11bb 88010000 		.4byte	.LVL298
 6617 11bf 6A0F0000 		.4byte	0xf6a
 6618 11c3 0D       		.uleb128 0xd
 6619 11c4 8E010000 		.4byte	.LVL299
 6620 11c8 DC0F0000 		.4byte	0xfdc
 6621 11cc 0D       		.uleb128 0xd
 6622 11cd 94010000 		.4byte	.LVL300
 6623 11d1 4E100000 		.4byte	0x104e
 6624 11d5 00       		.byte	0
 6625 11d6 16       		.uleb128 0x16
 6626 11d7 EB000000 		.4byte	.LASF125
ARM GAS  D:\Windows\AppData\Local\Temp\cc9YXq6z.s 			page 141


 6627 11db 01       		.byte	0x1
 6628 11dc E901     		.2byte	0x1e9
 6629 11de 85000000 		.4byte	0x85
 6630 11e2 00000000 		.4byte	.LFB77
 6631 11e6 B8000000 		.4byte	.LFE77-.LFB77
 6632 11ea 01       		.uleb128 0x1
 6633 11eb 9C       		.byte	0x9c
 6634 11ec D5120000 		.4byte	0x12d5
 6635 11f0 17       		.uleb128 0x17
 6636 11f1 6900     		.ascii	"i\000"
 6637 11f3 01       		.byte	0x1
 6638 11f4 E901     		.2byte	0x1e9
 6639 11f6 85000000 		.4byte	0x85
 6640 11fa 97050000 		.4byte	.LLST28
 6641 11fe 17       		.uleb128 0x17
 6642 11ff 61727200 		.ascii	"arr\000"
 6643 1203 01       		.byte	0x1
 6644 1204 E901     		.2byte	0x1e9
 6645 1206 D5120000 		.4byte	0x12d5
 6646 120a C0050000 		.4byte	.LLST29
 6647 120e 0D       		.uleb128 0xd
 6648 120f 0C000000 		.4byte	.LVL303
 6649 1213 36060000 		.4byte	0x636
 6650 1217 0D       		.uleb128 0xd
 6651 1218 12000000 		.4byte	.LVL304
 6652 121c A8060000 		.4byte	0x6a8
 6653 1220 0D       		.uleb128 0xd
 6654 1221 18000000 		.4byte	.LVL305
 6655 1225 1A070000 		.4byte	0x71a
 6656 1229 0D       		.uleb128 0xd
 6657 122a 1E000000 		.4byte	.LVL306
 6658 122e 8C070000 		.4byte	0x78c
 6659 1232 0D       		.uleb128 0xd
 6660 1233 24000000 		.4byte	.LVL307
 6661 1237 FE070000 		.4byte	0x7fe
 6662 123b 0D       		.uleb128 0xd
 6663 123c 2A000000 		.4byte	.LVL308
 6664 1240 70080000 		.4byte	0x870
 6665 1244 0D       		.uleb128 0xd
 6666 1245 30000000 		.4byte	.LVL309
 6667 1249 E2080000 		.4byte	0x8e2
 6668 124d 0D       		.uleb128 0xd
 6669 124e 36000000 		.4byte	.LVL310
 6670 1252 54090000 		.4byte	0x954
 6671 1256 0D       		.uleb128 0xd
 6672 1257 3C000000 		.4byte	.LVL311
 6673 125b C6090000 		.4byte	0x9c6
 6674 125f 0D       		.uleb128 0xd
 6675 1260 42000000 		.4byte	.LVL312
 6676 1264 380A0000 		.4byte	0xa38
 6677 1268 0D       		.uleb128 0xd
 6678 1269 48000000 		.4byte	.LVL313
 6679 126d AA0A0000 		.4byte	0xaaa
 6680 1271 0D       		.uleb128 0xd
 6681 1272 4E000000 		.4byte	.LVL314
 6682 1276 1C0B0000 		.4byte	0xb1c
 6683 127a 0D       		.uleb128 0xd
ARM GAS  D:\Windows\AppData\Local\Temp\cc9YXq6z.s 			page 142


 6684 127b 54000000 		.4byte	.LVL315
 6685 127f 8E0B0000 		.4byte	0xb8e
 6686 1283 0D       		.uleb128 0xd
 6687 1284 5A000000 		.4byte	.LVL316
 6688 1288 000C0000 		.4byte	0xc00
 6689 128c 0D       		.uleb128 0xd
 6690 128d 60000000 		.4byte	.LVL317
 6691 1291 720C0000 		.4byte	0xc72
 6692 1295 0D       		.uleb128 0xd
 6693 1296 66000000 		.4byte	.LVL318
 6694 129a E40C0000 		.4byte	0xce4
 6695 129e 0D       		.uleb128 0xd
 6696 129f 6C000000 		.4byte	.LVL319
 6697 12a3 560D0000 		.4byte	0xd56
 6698 12a7 0D       		.uleb128 0xd
 6699 12a8 72000000 		.4byte	.LVL320
 6700 12ac C80D0000 		.4byte	0xdc8
 6701 12b0 0D       		.uleb128 0xd
 6702 12b1 78000000 		.4byte	.LVL321
 6703 12b5 3A0E0000 		.4byte	0xe3a
 6704 12b9 0D       		.uleb128 0xd
 6705 12ba 7E000000 		.4byte	.LVL322
 6706 12be 6A0F0000 		.4byte	0xf6a
 6707 12c2 0D       		.uleb128 0xd
 6708 12c3 84000000 		.4byte	.LVL323
 6709 12c7 DC0F0000 		.4byte	0xfdc
 6710 12cb 0D       		.uleb128 0xd
 6711 12cc 8A000000 		.4byte	.LVL324
 6712 12d0 4E100000 		.4byte	0x104e
 6713 12d4 00       		.byte	0
 6714 12d5 06       		.uleb128 0x6
 6715 12d6 04       		.byte	0x4
 6716 12d7 85000000 		.4byte	0x85
 6717 12db 08       		.uleb128 0x8
 6718 12dc 85020000 		.4byte	.LASF54
 6719 12e0 01       		.byte	0x1
 6720 12e1 1503     		.2byte	0x315
 6721 12e3 00000000 		.4byte	.LFB100
 6722 12e7 48000000 		.4byte	.LFE100-.LFB100
 6723 12eb 01       		.uleb128 0x1
 6724 12ec 9C       		.byte	0x9c
 6725 12ed 4D130000 		.4byte	0x134d
 6726 12f1 09       		.uleb128 0x9
 6727 12f2 CE020000 		.4byte	.LASF23
 6728 12f6 01       		.byte	0x1
 6729 12f7 1503     		.2byte	0x315
 6730 12f9 85000000 		.4byte	0x85
 6731 12fd EC050000 		.4byte	.LLST30
 6732 1301 10       		.uleb128 0x10
 6733 1302 62697400 		.ascii	"bit\000"
 6734 1306 01       		.byte	0x1
 6735 1307 1603     		.2byte	0x316
 6736 1309 8C000000 		.4byte	0x8c
 6737 130d 01       		.byte	0x1
 6738 130e 0B       		.uleb128 0xb
 6739 130f 2C000000 		.4byte	.LVL331
 6740 1313 F8200000 		.4byte	0x20f8
ARM GAS  D:\Windows\AppData\Local\Temp\cc9YXq6z.s 			page 143


 6741 1317 27130000 		.4byte	0x1327
 6742 131b 0C       		.uleb128 0xc
 6743 131c 01       		.uleb128 0x1
 6744 131d 51       		.byte	0x51
 6745 131e 01       		.uleb128 0x1
 6746 131f 30       		.byte	0x30
 6747 1320 0C       		.uleb128 0xc
 6748 1321 01       		.uleb128 0x1
 6749 1322 50       		.byte	0x50
 6750 1323 02       		.uleb128 0x2
 6751 1324 08       		.byte	0x8
 6752 1325 40       		.byte	0x40
 6753 1326 00       		.byte	0
 6754 1327 0B       		.uleb128 0xb
 6755 1328 32000000 		.4byte	.LVL332
 6756 132c 12210000 		.4byte	0x2112
 6757 1330 3A130000 		.4byte	0x133a
 6758 1334 0C       		.uleb128 0xc
 6759 1335 01       		.uleb128 0x1
 6760 1336 50       		.byte	0x50
 6761 1337 01       		.uleb128 0x1
 6762 1338 35       		.byte	0x35
 6763 1339 00       		.byte	0
 6764 133a 0D       		.uleb128 0xd
 6765 133b 3C000000 		.4byte	.LVL333
 6766 133f 12210000 		.4byte	0x2112
 6767 1343 0D       		.uleb128 0xd
 6768 1344 40000000 		.4byte	.LVL334
 6769 1348 27210000 		.4byte	0x2127
 6770 134c 00       		.byte	0
 6771 134d 08       		.uleb128 0x8
 6772 134e 8B000000 		.4byte	.LASF55
 6773 1352 01       		.byte	0x1
 6774 1353 2103     		.2byte	0x321
 6775 1355 00000000 		.4byte	.LFB101
 6776 1359 48000000 		.4byte	.LFE101-.LFB101
 6777 135d 01       		.uleb128 0x1
 6778 135e 9C       		.byte	0x9c
 6779 135f BF130000 		.4byte	0x13bf
 6780 1363 09       		.uleb128 0x9
 6781 1364 CE020000 		.4byte	.LASF23
 6782 1368 01       		.byte	0x1
 6783 1369 2103     		.2byte	0x321
 6784 136b 85000000 		.4byte	0x85
 6785 136f 0D060000 		.4byte	.LLST31
 6786 1373 10       		.uleb128 0x10
 6787 1374 62697400 		.ascii	"bit\000"
 6788 1378 01       		.byte	0x1
 6789 1379 2203     		.2byte	0x322
 6790 137b 8C000000 		.4byte	0x8c
 6791 137f 10       		.byte	0x10
 6792 1380 0B       		.uleb128 0xb
 6793 1381 2C000000 		.4byte	.LVL338
 6794 1385 F8200000 		.4byte	0x20f8
 6795 1389 99130000 		.4byte	0x1399
 6796 138d 0C       		.uleb128 0xc
 6797 138e 01       		.uleb128 0x1
ARM GAS  D:\Windows\AppData\Local\Temp\cc9YXq6z.s 			page 144


 6798 138f 51       		.byte	0x51
 6799 1390 01       		.uleb128 0x1
 6800 1391 30       		.byte	0x30
 6801 1392 0C       		.uleb128 0xc
 6802 1393 01       		.uleb128 0x1
 6803 1394 50       		.byte	0x50
 6804 1395 02       		.uleb128 0x2
 6805 1396 08       		.byte	0x8
 6806 1397 40       		.byte	0x40
 6807 1398 00       		.byte	0
 6808 1399 0B       		.uleb128 0xb
 6809 139a 32000000 		.4byte	.LVL339
 6810 139e 12210000 		.4byte	0x2112
 6811 13a2 AC130000 		.4byte	0x13ac
 6812 13a6 0C       		.uleb128 0xc
 6813 13a7 01       		.uleb128 0x1
 6814 13a8 50       		.byte	0x50
 6815 13a9 01       		.uleb128 0x1
 6816 13aa 35       		.byte	0x35
 6817 13ab 00       		.byte	0
 6818 13ac 0D       		.uleb128 0xd
 6819 13ad 3C000000 		.4byte	.LVL340
 6820 13b1 12210000 		.4byte	0x2112
 6821 13b5 0D       		.uleb128 0xd
 6822 13b6 40000000 		.4byte	.LVL341
 6823 13ba 27210000 		.4byte	0x2127
 6824 13be 00       		.byte	0
 6825 13bf 08       		.uleb128 0x8
 6826 13c0 27030000 		.4byte	.LASF56
 6827 13c4 01       		.byte	0x1
 6828 13c5 2D03     		.2byte	0x32d
 6829 13c7 00000000 		.4byte	.LFB102
 6830 13cb 48000000 		.4byte	.LFE102-.LFB102
 6831 13cf 01       		.uleb128 0x1
 6832 13d0 9C       		.byte	0x9c
 6833 13d1 31140000 		.4byte	0x1431
 6834 13d5 09       		.uleb128 0x9
 6835 13d6 CE020000 		.4byte	.LASF23
 6836 13da 01       		.byte	0x1
 6837 13db 2D03     		.2byte	0x32d
 6838 13dd 85000000 		.4byte	0x85
 6839 13e1 2E060000 		.4byte	.LLST32
 6840 13e5 10       		.uleb128 0x10
 6841 13e6 62697400 		.ascii	"bit\000"
 6842 13ea 01       		.byte	0x1
 6843 13eb 2E03     		.2byte	0x32e
 6844 13ed 8C000000 		.4byte	0x8c
 6845 13f1 01       		.byte	0x1
 6846 13f2 0B       		.uleb128 0xb
 6847 13f3 2C000000 		.4byte	.LVL345
 6848 13f7 F8200000 		.4byte	0x20f8
 6849 13fb 0B140000 		.4byte	0x140b
 6850 13ff 0C       		.uleb128 0xc
 6851 1400 01       		.uleb128 0x1
 6852 1401 51       		.byte	0x51
 6853 1402 01       		.uleb128 0x1
 6854 1403 30       		.byte	0x30
ARM GAS  D:\Windows\AppData\Local\Temp\cc9YXq6z.s 			page 145


 6855 1404 0C       		.uleb128 0xc
 6856 1405 01       		.uleb128 0x1
 6857 1406 50       		.byte	0x50
 6858 1407 02       		.uleb128 0x2
 6859 1408 08       		.byte	0x8
 6860 1409 40       		.byte	0x40
 6861 140a 00       		.byte	0
 6862 140b 0B       		.uleb128 0xb
 6863 140c 32000000 		.4byte	.LVL346
 6864 1410 12210000 		.4byte	0x2112
 6865 1414 1E140000 		.4byte	0x141e
 6866 1418 0C       		.uleb128 0xc
 6867 1419 01       		.uleb128 0x1
 6868 141a 50       		.byte	0x50
 6869 141b 01       		.uleb128 0x1
 6870 141c 36       		.byte	0x36
 6871 141d 00       		.byte	0
 6872 141e 0D       		.uleb128 0xd
 6873 141f 3C000000 		.4byte	.LVL347
 6874 1423 12210000 		.4byte	0x2112
 6875 1427 0D       		.uleb128 0xd
 6876 1428 40000000 		.4byte	.LVL348
 6877 142c 27210000 		.4byte	0x2127
 6878 1430 00       		.byte	0
 6879 1431 08       		.uleb128 0x8
 6880 1432 F9000000 		.4byte	.LASF57
 6881 1436 01       		.byte	0x1
 6882 1437 3903     		.2byte	0x339
 6883 1439 00000000 		.4byte	.LFB103
 6884 143d 48000000 		.4byte	.LFE103-.LFB103
 6885 1441 01       		.uleb128 0x1
 6886 1442 9C       		.byte	0x9c
 6887 1443 A3140000 		.4byte	0x14a3
 6888 1447 09       		.uleb128 0x9
 6889 1448 CE020000 		.4byte	.LASF23
 6890 144c 01       		.byte	0x1
 6891 144d 3903     		.2byte	0x339
 6892 144f 85000000 		.4byte	0x85
 6893 1453 4F060000 		.4byte	.LLST33
 6894 1457 10       		.uleb128 0x10
 6895 1458 62697400 		.ascii	"bit\000"
 6896 145c 01       		.byte	0x1
 6897 145d 3A03     		.2byte	0x33a
 6898 145f 8C000000 		.4byte	0x8c
 6899 1463 10       		.byte	0x10
 6900 1464 0B       		.uleb128 0xb
 6901 1465 2C000000 		.4byte	.LVL352
 6902 1469 F8200000 		.4byte	0x20f8
 6903 146d 7D140000 		.4byte	0x147d
 6904 1471 0C       		.uleb128 0xc
 6905 1472 01       		.uleb128 0x1
 6906 1473 51       		.byte	0x51
 6907 1474 01       		.uleb128 0x1
 6908 1475 30       		.byte	0x30
 6909 1476 0C       		.uleb128 0xc
 6910 1477 01       		.uleb128 0x1
 6911 1478 50       		.byte	0x50
ARM GAS  D:\Windows\AppData\Local\Temp\cc9YXq6z.s 			page 146


 6912 1479 02       		.uleb128 0x2
 6913 147a 08       		.byte	0x8
 6914 147b 40       		.byte	0x40
 6915 147c 00       		.byte	0
 6916 147d 0B       		.uleb128 0xb
 6917 147e 32000000 		.4byte	.LVL353
 6918 1482 12210000 		.4byte	0x2112
 6919 1486 90140000 		.4byte	0x1490
 6920 148a 0C       		.uleb128 0xc
 6921 148b 01       		.uleb128 0x1
 6922 148c 50       		.byte	0x50
 6923 148d 01       		.uleb128 0x1
 6924 148e 36       		.byte	0x36
 6925 148f 00       		.byte	0
 6926 1490 0D       		.uleb128 0xd
 6927 1491 3C000000 		.4byte	.LVL354
 6928 1495 12210000 		.4byte	0x2112
 6929 1499 0D       		.uleb128 0xd
 6930 149a 40000000 		.4byte	.LVL355
 6931 149e 27210000 		.4byte	0x2127
 6932 14a2 00       		.byte	0
 6933 14a3 08       		.uleb128 0x8
 6934 14a4 60030000 		.4byte	.LASF58
 6935 14a8 01       		.byte	0x1
 6936 14a9 4503     		.2byte	0x345
 6937 14ab 00000000 		.4byte	.LFB104
 6938 14af 48000000 		.4byte	.LFE104-.LFB104
 6939 14b3 01       		.uleb128 0x1
 6940 14b4 9C       		.byte	0x9c
 6941 14b5 15150000 		.4byte	0x1515
 6942 14b9 09       		.uleb128 0x9
 6943 14ba CE020000 		.4byte	.LASF23
 6944 14be 01       		.byte	0x1
 6945 14bf 4503     		.2byte	0x345
 6946 14c1 85000000 		.4byte	0x85
 6947 14c5 70060000 		.4byte	.LLST34
 6948 14c9 10       		.uleb128 0x10
 6949 14ca 62697400 		.ascii	"bit\000"
 6950 14ce 01       		.byte	0x1
 6951 14cf 4603     		.2byte	0x346
 6952 14d1 8C000000 		.4byte	0x8c
 6953 14d5 01       		.byte	0x1
 6954 14d6 0B       		.uleb128 0xb
 6955 14d7 2C000000 		.4byte	.LVL359
 6956 14db F8200000 		.4byte	0x20f8
 6957 14df EF140000 		.4byte	0x14ef
 6958 14e3 0C       		.uleb128 0xc
 6959 14e4 01       		.uleb128 0x1
 6960 14e5 51       		.byte	0x51
 6961 14e6 01       		.uleb128 0x1
 6962 14e7 30       		.byte	0x30
 6963 14e8 0C       		.uleb128 0xc
 6964 14e9 01       		.uleb128 0x1
 6965 14ea 50       		.byte	0x50
 6966 14eb 02       		.uleb128 0x2
 6967 14ec 08       		.byte	0x8
 6968 14ed 40       		.byte	0x40
ARM GAS  D:\Windows\AppData\Local\Temp\cc9YXq6z.s 			page 147


 6969 14ee 00       		.byte	0
 6970 14ef 0B       		.uleb128 0xb
 6971 14f0 32000000 		.4byte	.LVL360
 6972 14f4 12210000 		.4byte	0x2112
 6973 14f8 02150000 		.4byte	0x1502
 6974 14fc 0C       		.uleb128 0xc
 6975 14fd 01       		.uleb128 0x1
 6976 14fe 50       		.byte	0x50
 6977 14ff 01       		.uleb128 0x1
 6978 1500 37       		.byte	0x37
 6979 1501 00       		.byte	0
 6980 1502 0D       		.uleb128 0xd
 6981 1503 3C000000 		.4byte	.LVL361
 6982 1507 12210000 		.4byte	0x2112
 6983 150b 0D       		.uleb128 0xd
 6984 150c 40000000 		.4byte	.LVL362
 6985 1510 27210000 		.4byte	0x2127
 6986 1514 00       		.byte	0
 6987 1515 12       		.uleb128 0x12
 6988 1516 FD020000 		.4byte	.LASF59
 6989 151a 01       		.byte	0x1
 6990 151b 29       		.byte	0x29
 6991 151c 00000000 		.4byte	.LFB63
 6992 1520 30000000 		.4byte	.LFE63-.LFB63
 6993 1524 01       		.uleb128 0x1
 6994 1525 9C       		.byte	0x9c
 6995 1526 58150000 		.4byte	0x1558
 6996 152a 0D       		.uleb128 0xd
 6997 152b 12000000 		.4byte	.LVL363
 6998 152f DB120000 		.4byte	0x12db
 6999 1533 0D       		.uleb128 0xd
 7000 1534 18000000 		.4byte	.LVL364
 7001 1538 4D130000 		.4byte	0x134d
 7002 153c 0D       		.uleb128 0xd
 7003 153d 1E000000 		.4byte	.LVL365
 7004 1541 BF130000 		.4byte	0x13bf
 7005 1545 0D       		.uleb128 0xd
 7006 1546 24000000 		.4byte	.LVL366
 7007 154a 31140000 		.4byte	0x1431
 7008 154e 0D       		.uleb128 0xd
 7009 154f 2A000000 		.4byte	.LVL367
 7010 1553 A3140000 		.4byte	0x14a3
 7011 1557 00       		.byte	0
 7012 1558 12       		.uleb128 0x12
 7013 1559 F2050000 		.4byte	.LASF60
 7014 155d 01       		.byte	0x1
 7015 155e D0       		.byte	0xd0
 7016 155f 00000000 		.4byte	.LFB69
 7017 1563 B4000000 		.4byte	.LFE69-.LFB69
 7018 1567 01       		.uleb128 0x1
 7019 1568 9C       		.byte	0x9c
 7020 1569 EC150000 		.4byte	0x15ec
 7021 156d 13       		.uleb128 0x13
 7022 156e B9020000 		.4byte	.LASF61
 7023 1572 01       		.byte	0x1
 7024 1573 D0       		.byte	0xd0
 7025 1574 8C000000 		.4byte	0x8c
ARM GAS  D:\Windows\AppData\Local\Temp\cc9YXq6z.s 			page 148


 7026 1578 91060000 		.4byte	.LLST35
 7027 157c 14       		.uleb128 0x14
 7028 157d 0D010000 		.4byte	.LASF53
 7029 1581 01       		.byte	0x1
 7030 1582 D1       		.byte	0xd1
 7031 1583 85000000 		.4byte	0x85
 7032 1587 CB060000 		.4byte	.LLST36
 7033 158b 18       		.uleb128 0x18
 7034 158c 00000000 		.4byte	.Ldebug_ranges0+0
 7035 1590 CF150000 		.4byte	0x15cf
 7036 1594 15       		.uleb128 0x15
 7037 1595 6900     		.ascii	"i\000"
 7038 1597 01       		.byte	0x1
 7039 1598 E5       		.byte	0xe5
 7040 1599 85000000 		.4byte	0x85
 7041 159d EA060000 		.4byte	.LLST37
 7042 15a1 0D       		.uleb128 0xd
 7043 15a2 92000000 		.4byte	.LVL382
 7044 15a6 DB120000 		.4byte	0x12db
 7045 15aa 0D       		.uleb128 0xd
 7046 15ab 98000000 		.4byte	.LVL383
 7047 15af 4D130000 		.4byte	0x134d
 7048 15b3 0D       		.uleb128 0xd
 7049 15b4 9E000000 		.4byte	.LVL384
 7050 15b8 BF130000 		.4byte	0x13bf
 7051 15bc 0D       		.uleb128 0xd
 7052 15bd A4000000 		.4byte	.LVL385
 7053 15c1 31140000 		.4byte	0x1431
 7054 15c5 0D       		.uleb128 0xd
 7055 15c6 AA000000 		.4byte	.LVL386
 7056 15ca A3140000 		.4byte	0x14a3
 7057 15ce 00       		.byte	0
 7058 15cf 0D       		.uleb128 0xd
 7059 15d0 36000000 		.4byte	.LVL371
 7060 15d4 40210000 		.4byte	0x2140
 7061 15d8 0F       		.uleb128 0xf
 7062 15d9 3C000000 		.4byte	.LVL372
 7063 15dd 47210000 		.4byte	0x2147
 7064 15e1 0C       		.uleb128 0xc
 7065 15e2 01       		.uleb128 0x1
 7066 15e3 50       		.byte	0x50
 7067 15e4 05       		.uleb128 0x5
 7068 15e5 03       		.byte	0x3
 7069 15e6 00000000 		.4byte	b1_crit_isr
 7070 15ea 00       		.byte	0
 7071 15eb 00       		.byte	0
 7072 15ec 08       		.uleb128 0x8
 7073 15ed B3050000 		.4byte	.LASF62
 7074 15f1 01       		.byte	0x1
 7075 15f2 5303     		.2byte	0x353
 7076 15f4 00000000 		.4byte	.LFB105
 7077 15f8 48000000 		.4byte	.LFE105-.LFB105
 7078 15fc 01       		.uleb128 0x1
 7079 15fd 9C       		.byte	0x9c
 7080 15fe 5E160000 		.4byte	0x165e
 7081 1602 09       		.uleb128 0x9
 7082 1603 CE020000 		.4byte	.LASF23
ARM GAS  D:\Windows\AppData\Local\Temp\cc9YXq6z.s 			page 149


 7083 1607 01       		.byte	0x1
 7084 1608 5303     		.2byte	0x353
 7085 160a 85000000 		.4byte	0x85
 7086 160e 13070000 		.4byte	.LLST38
 7087 1612 10       		.uleb128 0x10
 7088 1613 62697400 		.ascii	"bit\000"
 7089 1617 01       		.byte	0x1
 7090 1618 5403     		.2byte	0x354
 7091 161a 8C000000 		.4byte	0x8c
 7092 161e 10       		.byte	0x10
 7093 161f 0B       		.uleb128 0xb
 7094 1620 2C000000 		.4byte	.LVL390
 7095 1624 F8200000 		.4byte	0x20f8
 7096 1628 38160000 		.4byte	0x1638
 7097 162c 0C       		.uleb128 0xc
 7098 162d 01       		.uleb128 0x1
 7099 162e 51       		.byte	0x51
 7100 162f 01       		.uleb128 0x1
 7101 1630 30       		.byte	0x30
 7102 1631 0C       		.uleb128 0xc
 7103 1632 01       		.uleb128 0x1
 7104 1633 50       		.byte	0x50
 7105 1634 02       		.uleb128 0x2
 7106 1635 08       		.byte	0x8
 7107 1636 40       		.byte	0x40
 7108 1637 00       		.byte	0
 7109 1638 0B       		.uleb128 0xb
 7110 1639 32000000 		.4byte	.LVL391
 7111 163d 12210000 		.4byte	0x2112
 7112 1641 4B160000 		.4byte	0x164b
 7113 1645 0C       		.uleb128 0xc
 7114 1646 01       		.uleb128 0x1
 7115 1647 50       		.byte	0x50
 7116 1648 01       		.uleb128 0x1
 7117 1649 37       		.byte	0x37
 7118 164a 00       		.byte	0
 7119 164b 0D       		.uleb128 0xd
 7120 164c 3C000000 		.4byte	.LVL392
 7121 1650 12210000 		.4byte	0x2112
 7122 1654 0D       		.uleb128 0xd
 7123 1655 40000000 		.4byte	.LVL393
 7124 1659 27210000 		.4byte	0x2127
 7125 165d 00       		.byte	0
 7126 165e 08       		.uleb128 0x8
 7127 165f 1C020000 		.4byte	.LASF63
 7128 1663 01       		.byte	0x1
 7129 1664 5F03     		.2byte	0x35f
 7130 1666 00000000 		.4byte	.LFB106
 7131 166a 48000000 		.4byte	.LFE106-.LFB106
 7132 166e 01       		.uleb128 0x1
 7133 166f 9C       		.byte	0x9c
 7134 1670 D0160000 		.4byte	0x16d0
 7135 1674 09       		.uleb128 0x9
 7136 1675 CE020000 		.4byte	.LASF23
 7137 1679 01       		.byte	0x1
 7138 167a 5F03     		.2byte	0x35f
 7139 167c 85000000 		.4byte	0x85
ARM GAS  D:\Windows\AppData\Local\Temp\cc9YXq6z.s 			page 150


 7140 1680 34070000 		.4byte	.LLST39
 7141 1684 10       		.uleb128 0x10
 7142 1685 62697400 		.ascii	"bit\000"
 7143 1689 01       		.byte	0x1
 7144 168a 6003     		.2byte	0x360
 7145 168c 8C000000 		.4byte	0x8c
 7146 1690 01       		.byte	0x1
 7147 1691 0B       		.uleb128 0xb
 7148 1692 2C000000 		.4byte	.LVL397
 7149 1696 F8200000 		.4byte	0x20f8
 7150 169a AA160000 		.4byte	0x16aa
 7151 169e 0C       		.uleb128 0xc
 7152 169f 01       		.uleb128 0x1
 7153 16a0 51       		.byte	0x51
 7154 16a1 01       		.uleb128 0x1
 7155 16a2 30       		.byte	0x30
 7156 16a3 0C       		.uleb128 0xc
 7157 16a4 01       		.uleb128 0x1
 7158 16a5 50       		.byte	0x50
 7159 16a6 02       		.uleb128 0x2
 7160 16a7 08       		.byte	0x8
 7161 16a8 40       		.byte	0x40
 7162 16a9 00       		.byte	0
 7163 16aa 0B       		.uleb128 0xb
 7164 16ab 32000000 		.4byte	.LVL398
 7165 16af 12210000 		.4byte	0x2112
 7166 16b3 BD160000 		.4byte	0x16bd
 7167 16b7 0C       		.uleb128 0xc
 7168 16b8 01       		.uleb128 0x1
 7169 16b9 50       		.byte	0x50
 7170 16ba 01       		.uleb128 0x1
 7171 16bb 38       		.byte	0x38
 7172 16bc 00       		.byte	0
 7173 16bd 0D       		.uleb128 0xd
 7174 16be 3C000000 		.4byte	.LVL399
 7175 16c2 12210000 		.4byte	0x2112
 7176 16c6 0D       		.uleb128 0xd
 7177 16c7 40000000 		.4byte	.LVL400
 7178 16cb 27210000 		.4byte	0x2127
 7179 16cf 00       		.byte	0
 7180 16d0 08       		.uleb128 0x8
 7181 16d1 D0050000 		.4byte	.LASF64
 7182 16d5 01       		.byte	0x1
 7183 16d6 6B03     		.2byte	0x36b
 7184 16d8 00000000 		.4byte	.LFB107
 7185 16dc 48000000 		.4byte	.LFE107-.LFB107
 7186 16e0 01       		.uleb128 0x1
 7187 16e1 9C       		.byte	0x9c
 7188 16e2 42170000 		.4byte	0x1742
 7189 16e6 09       		.uleb128 0x9
 7190 16e7 CE020000 		.4byte	.LASF23
 7191 16eb 01       		.byte	0x1
 7192 16ec 6B03     		.2byte	0x36b
 7193 16ee 85000000 		.4byte	0x85
 7194 16f2 55070000 		.4byte	.LLST40
 7195 16f6 10       		.uleb128 0x10
 7196 16f7 62697400 		.ascii	"bit\000"
ARM GAS  D:\Windows\AppData\Local\Temp\cc9YXq6z.s 			page 151


 7197 16fb 01       		.byte	0x1
 7198 16fc 6C03     		.2byte	0x36c
 7199 16fe 8C000000 		.4byte	0x8c
 7200 1702 10       		.byte	0x10
 7201 1703 0B       		.uleb128 0xb
 7202 1704 2C000000 		.4byte	.LVL404
 7203 1708 F8200000 		.4byte	0x20f8
 7204 170c 1C170000 		.4byte	0x171c
 7205 1710 0C       		.uleb128 0xc
 7206 1711 01       		.uleb128 0x1
 7207 1712 51       		.byte	0x51
 7208 1713 01       		.uleb128 0x1
 7209 1714 30       		.byte	0x30
 7210 1715 0C       		.uleb128 0xc
 7211 1716 01       		.uleb128 0x1
 7212 1717 50       		.byte	0x50
 7213 1718 02       		.uleb128 0x2
 7214 1719 08       		.byte	0x8
 7215 171a 40       		.byte	0x40
 7216 171b 00       		.byte	0
 7217 171c 0B       		.uleb128 0xb
 7218 171d 32000000 		.4byte	.LVL405
 7219 1721 12210000 		.4byte	0x2112
 7220 1725 2F170000 		.4byte	0x172f
 7221 1729 0C       		.uleb128 0xc
 7222 172a 01       		.uleb128 0x1
 7223 172b 50       		.byte	0x50
 7224 172c 01       		.uleb128 0x1
 7225 172d 38       		.byte	0x38
 7226 172e 00       		.byte	0
 7227 172f 0D       		.uleb128 0xd
 7228 1730 3C000000 		.4byte	.LVL406
 7229 1734 12210000 		.4byte	0x2112
 7230 1738 0D       		.uleb128 0xd
 7231 1739 40000000 		.4byte	.LVL407
 7232 173d 27210000 		.4byte	0x2127
 7233 1741 00       		.byte	0
 7234 1742 08       		.uleb128 0x8
 7235 1743 60020000 		.4byte	.LASF65
 7236 1747 01       		.byte	0x1
 7237 1748 7703     		.2byte	0x377
 7238 174a 00000000 		.4byte	.LFB108
 7239 174e 48000000 		.4byte	.LFE108-.LFB108
 7240 1752 01       		.uleb128 0x1
 7241 1753 9C       		.byte	0x9c
 7242 1754 B4170000 		.4byte	0x17b4
 7243 1758 09       		.uleb128 0x9
 7244 1759 CE020000 		.4byte	.LASF23
 7245 175d 01       		.byte	0x1
 7246 175e 7703     		.2byte	0x377
 7247 1760 85000000 		.4byte	0x85
 7248 1764 76070000 		.4byte	.LLST41
 7249 1768 10       		.uleb128 0x10
 7250 1769 62697400 		.ascii	"bit\000"
 7251 176d 01       		.byte	0x1
 7252 176e 7803     		.2byte	0x378
 7253 1770 8C000000 		.4byte	0x8c
ARM GAS  D:\Windows\AppData\Local\Temp\cc9YXq6z.s 			page 152


 7254 1774 02       		.byte	0x2
 7255 1775 0B       		.uleb128 0xb
 7256 1776 2C000000 		.4byte	.LVL411
 7257 177a F8200000 		.4byte	0x20f8
 7258 177e 8E170000 		.4byte	0x178e
 7259 1782 0C       		.uleb128 0xc
 7260 1783 01       		.uleb128 0x1
 7261 1784 51       		.byte	0x51
 7262 1785 01       		.uleb128 0x1
 7263 1786 30       		.byte	0x30
 7264 1787 0C       		.uleb128 0xc
 7265 1788 01       		.uleb128 0x1
 7266 1789 50       		.byte	0x50
 7267 178a 02       		.uleb128 0x2
 7268 178b 08       		.byte	0x8
 7269 178c 40       		.byte	0x40
 7270 178d 00       		.byte	0
 7271 178e 0B       		.uleb128 0xb
 7272 178f 32000000 		.4byte	.LVL412
 7273 1793 12210000 		.4byte	0x2112
 7274 1797 A1170000 		.4byte	0x17a1
 7275 179b 0C       		.uleb128 0xc
 7276 179c 01       		.uleb128 0x1
 7277 179d 50       		.byte	0x50
 7278 179e 01       		.uleb128 0x1
 7279 179f 35       		.byte	0x35
 7280 17a0 00       		.byte	0
 7281 17a1 0D       		.uleb128 0xd
 7282 17a2 3C000000 		.4byte	.LVL413
 7283 17a6 12210000 		.4byte	0x2112
 7284 17aa 0D       		.uleb128 0xd
 7285 17ab 40000000 		.4byte	.LVL414
 7286 17af 27210000 		.4byte	0x2127
 7287 17b3 00       		.byte	0
 7288 17b4 08       		.uleb128 0x8
 7289 17b5 1A000000 		.4byte	.LASF66
 7290 17b9 01       		.byte	0x1
 7291 17ba 8303     		.2byte	0x383
 7292 17bc 00000000 		.4byte	.LFB109
 7293 17c0 48000000 		.4byte	.LFE109-.LFB109
 7294 17c4 01       		.uleb128 0x1
 7295 17c5 9C       		.byte	0x9c
 7296 17c6 26180000 		.4byte	0x1826
 7297 17ca 09       		.uleb128 0x9
 7298 17cb CE020000 		.4byte	.LASF23
 7299 17cf 01       		.byte	0x1
 7300 17d0 8303     		.2byte	0x383
 7301 17d2 85000000 		.4byte	0x85
 7302 17d6 97070000 		.4byte	.LLST42
 7303 17da 10       		.uleb128 0x10
 7304 17db 62697400 		.ascii	"bit\000"
 7305 17df 01       		.byte	0x1
 7306 17e0 8403     		.2byte	0x384
 7307 17e2 8C000000 		.4byte	0x8c
 7308 17e6 20       		.byte	0x20
 7309 17e7 0B       		.uleb128 0xb
 7310 17e8 2C000000 		.4byte	.LVL418
ARM GAS  D:\Windows\AppData\Local\Temp\cc9YXq6z.s 			page 153


 7311 17ec F8200000 		.4byte	0x20f8
 7312 17f0 00180000 		.4byte	0x1800
 7313 17f4 0C       		.uleb128 0xc
 7314 17f5 01       		.uleb128 0x1
 7315 17f6 51       		.byte	0x51
 7316 17f7 01       		.uleb128 0x1
 7317 17f8 30       		.byte	0x30
 7318 17f9 0C       		.uleb128 0xc
 7319 17fa 01       		.uleb128 0x1
 7320 17fb 50       		.byte	0x50
 7321 17fc 02       		.uleb128 0x2
 7322 17fd 08       		.byte	0x8
 7323 17fe 40       		.byte	0x40
 7324 17ff 00       		.byte	0
 7325 1800 0B       		.uleb128 0xb
 7326 1801 32000000 		.4byte	.LVL419
 7327 1805 12210000 		.4byte	0x2112
 7328 1809 13180000 		.4byte	0x1813
 7329 180d 0C       		.uleb128 0xc
 7330 180e 01       		.uleb128 0x1
 7331 180f 50       		.byte	0x50
 7332 1810 01       		.uleb128 0x1
 7333 1811 35       		.byte	0x35
 7334 1812 00       		.byte	0
 7335 1813 0D       		.uleb128 0xd
 7336 1814 3C000000 		.4byte	.LVL420
 7337 1818 12210000 		.4byte	0x2112
 7338 181c 0D       		.uleb128 0xd
 7339 181d 40000000 		.4byte	.LVL421
 7340 1821 27210000 		.4byte	0x2127
 7341 1825 00       		.byte	0
 7342 1826 12       		.uleb128 0x12
 7343 1827 78040000 		.4byte	.LASF67
 7344 182b 01       		.byte	0x1
 7345 182c 32       		.byte	0x32
 7346 182d 00000000 		.4byte	.LFB64
 7347 1831 3C000000 		.4byte	.LFE64-.LFB64
 7348 1835 01       		.uleb128 0x1
 7349 1836 9C       		.byte	0x9c
 7350 1837 69180000 		.4byte	0x1869
 7351 183b 0D       		.uleb128 0xd
 7352 183c 16000000 		.4byte	.LVL422
 7353 1840 EC150000 		.4byte	0x15ec
 7354 1844 0D       		.uleb128 0xd
 7355 1845 1E000000 		.4byte	.LVL423
 7356 1849 5E160000 		.4byte	0x165e
 7357 184d 0D       		.uleb128 0xd
 7358 184e 26000000 		.4byte	.LVL424
 7359 1852 D0160000 		.4byte	0x16d0
 7360 1856 0D       		.uleb128 0xd
 7361 1857 2E000000 		.4byte	.LVL425
 7362 185b 42170000 		.4byte	0x1742
 7363 185f 0D       		.uleb128 0xd
 7364 1860 36000000 		.4byte	.LVL426
 7365 1864 B4170000 		.4byte	0x17b4
 7366 1868 00       		.byte	0
 7367 1869 12       		.uleb128 0x12
ARM GAS  D:\Windows\AppData\Local\Temp\cc9YXq6z.s 			page 154


 7368 186a FF050000 		.4byte	.LASF68
 7369 186e 01       		.byte	0x1
 7370 186f F3       		.byte	0xf3
 7371 1870 00000000 		.4byte	.LFB70
 7372 1874 C8000000 		.4byte	.LFE70-.LFB70
 7373 1878 01       		.uleb128 0x1
 7374 1879 9C       		.byte	0x9c
 7375 187a FE180000 		.4byte	0x18fe
 7376 187e 13       		.uleb128 0x13
 7377 187f F0030000 		.4byte	.LASF69
 7378 1883 01       		.byte	0x1
 7379 1884 F3       		.byte	0xf3
 7380 1885 8C000000 		.4byte	0x8c
 7381 1889 B8070000 		.4byte	.LLST43
 7382 188d 14       		.uleb128 0x14
 7383 188e 0D010000 		.4byte	.LASF53
 7384 1892 01       		.byte	0x1
 7385 1893 F4       		.byte	0xf4
 7386 1894 85000000 		.4byte	0x85
 7387 1898 F2070000 		.4byte	.LLST44
 7388 189c 18       		.uleb128 0x18
 7389 189d 18000000 		.4byte	.Ldebug_ranges0+0x18
 7390 18a1 E1180000 		.4byte	0x18e1
 7391 18a5 19       		.uleb128 0x19
 7392 18a6 6900     		.ascii	"i\000"
 7393 18a8 01       		.byte	0x1
 7394 18a9 0801     		.2byte	0x108
 7395 18ab 85000000 		.4byte	0x85
 7396 18af 11080000 		.4byte	.LLST45
 7397 18b3 0D       		.uleb128 0xd
 7398 18b4 9E000000 		.4byte	.LVL441
 7399 18b8 EC150000 		.4byte	0x15ec
 7400 18bc 0D       		.uleb128 0xd
 7401 18bd A6000000 		.4byte	.LVL442
 7402 18c1 5E160000 		.4byte	0x165e
 7403 18c5 0D       		.uleb128 0xd
 7404 18c6 AE000000 		.4byte	.LVL443
 7405 18ca D0160000 		.4byte	0x16d0
 7406 18ce 0D       		.uleb128 0xd
 7407 18cf B6000000 		.4byte	.LVL444
 7408 18d3 42170000 		.4byte	0x1742
 7409 18d7 0D       		.uleb128 0xd
 7410 18d8 BE000000 		.4byte	.LVL445
 7411 18dc B4170000 		.4byte	0x17b4
 7412 18e0 00       		.byte	0
 7413 18e1 0D       		.uleb128 0xd
 7414 18e2 38000000 		.4byte	.LVL430
 7415 18e6 58210000 		.4byte	0x2158
 7416 18ea 0F       		.uleb128 0xf
 7417 18eb 3E000000 		.4byte	.LVL431
 7418 18ef 5F210000 		.4byte	0x215f
 7419 18f3 0C       		.uleb128 0xc
 7420 18f4 01       		.uleb128 0x1
 7421 18f5 50       		.byte	0x50
 7422 18f6 05       		.uleb128 0x5
 7423 18f7 03       		.byte	0x3
 7424 18f8 00000000 		.4byte	b2_crit_isr
ARM GAS  D:\Windows\AppData\Local\Temp\cc9YXq6z.s 			page 155


 7425 18fc 00       		.byte	0
 7426 18fd 00       		.byte	0
 7427 18fe 08       		.uleb128 0x8
 7428 18ff 9B060000 		.4byte	.LASF70
 7429 1903 01       		.byte	0x1
 7430 1904 9103     		.2byte	0x391
 7431 1906 00000000 		.4byte	.LFB110
 7432 190a 48000000 		.4byte	.LFE110-.LFB110
 7433 190e 01       		.uleb128 0x1
 7434 190f 9C       		.byte	0x9c
 7435 1910 70190000 		.4byte	0x1970
 7436 1914 09       		.uleb128 0x9
 7437 1915 CE020000 		.4byte	.LASF23
 7438 1919 01       		.byte	0x1
 7439 191a 9103     		.2byte	0x391
 7440 191c 85000000 		.4byte	0x85
 7441 1920 3A080000 		.4byte	.LLST46
 7442 1924 10       		.uleb128 0x10
 7443 1925 62697400 		.ascii	"bit\000"
 7444 1929 01       		.byte	0x1
 7445 192a 9203     		.2byte	0x392
 7446 192c 8C000000 		.4byte	0x8c
 7447 1930 02       		.byte	0x2
 7448 1931 0B       		.uleb128 0xb
 7449 1932 2C000000 		.4byte	.LVL449
 7450 1936 F8200000 		.4byte	0x20f8
 7451 193a 4A190000 		.4byte	0x194a
 7452 193e 0C       		.uleb128 0xc
 7453 193f 01       		.uleb128 0x1
 7454 1940 51       		.byte	0x51
 7455 1941 01       		.uleb128 0x1
 7456 1942 30       		.byte	0x30
 7457 1943 0C       		.uleb128 0xc
 7458 1944 01       		.uleb128 0x1
 7459 1945 50       		.byte	0x50
 7460 1946 02       		.uleb128 0x2
 7461 1947 08       		.byte	0x8
 7462 1948 40       		.byte	0x40
 7463 1949 00       		.byte	0
 7464 194a 0B       		.uleb128 0xb
 7465 194b 32000000 		.4byte	.LVL450
 7466 194f 12210000 		.4byte	0x2112
 7467 1953 5D190000 		.4byte	0x195d
 7468 1957 0C       		.uleb128 0xc
 7469 1958 01       		.uleb128 0x1
 7470 1959 50       		.byte	0x50
 7471 195a 01       		.uleb128 0x1
 7472 195b 36       		.byte	0x36
 7473 195c 00       		.byte	0
 7474 195d 0D       		.uleb128 0xd
 7475 195e 3C000000 		.4byte	.LVL451
 7476 1962 12210000 		.4byte	0x2112
 7477 1966 0D       		.uleb128 0xd
 7478 1967 40000000 		.4byte	.LVL452
 7479 196b 27210000 		.4byte	0x2127
 7480 196f 00       		.byte	0
 7481 1970 08       		.uleb128 0x8
ARM GAS  D:\Windows\AppData\Local\Temp\cc9YXq6z.s 			page 156


 7482 1971 0C040000 		.4byte	.LASF71
 7483 1975 01       		.byte	0x1
 7484 1976 9D03     		.2byte	0x39d
 7485 1978 00000000 		.4byte	.LFB111
 7486 197c 48000000 		.4byte	.LFE111-.LFB111
 7487 1980 01       		.uleb128 0x1
 7488 1981 9C       		.byte	0x9c
 7489 1982 E2190000 		.4byte	0x19e2
 7490 1986 09       		.uleb128 0x9
 7491 1987 CE020000 		.4byte	.LASF23
 7492 198b 01       		.byte	0x1
 7493 198c 9D03     		.2byte	0x39d
 7494 198e 85000000 		.4byte	0x85
 7495 1992 5B080000 		.4byte	.LLST47
 7496 1996 10       		.uleb128 0x10
 7497 1997 62697400 		.ascii	"bit\000"
 7498 199b 01       		.byte	0x1
 7499 199c 9E03     		.2byte	0x39e
 7500 199e 8C000000 		.4byte	0x8c
 7501 19a2 20       		.byte	0x20
 7502 19a3 0B       		.uleb128 0xb
 7503 19a4 2C000000 		.4byte	.LVL456
 7504 19a8 F8200000 		.4byte	0x20f8
 7505 19ac BC190000 		.4byte	0x19bc
 7506 19b0 0C       		.uleb128 0xc
 7507 19b1 01       		.uleb128 0x1
 7508 19b2 51       		.byte	0x51
 7509 19b3 01       		.uleb128 0x1
 7510 19b4 30       		.byte	0x30
 7511 19b5 0C       		.uleb128 0xc
 7512 19b6 01       		.uleb128 0x1
 7513 19b7 50       		.byte	0x50
 7514 19b8 02       		.uleb128 0x2
 7515 19b9 08       		.byte	0x8
 7516 19ba 40       		.byte	0x40
 7517 19bb 00       		.byte	0
 7518 19bc 0B       		.uleb128 0xb
 7519 19bd 32000000 		.4byte	.LVL457
 7520 19c1 12210000 		.4byte	0x2112
 7521 19c5 CF190000 		.4byte	0x19cf
 7522 19c9 0C       		.uleb128 0xc
 7523 19ca 01       		.uleb128 0x1
 7524 19cb 50       		.byte	0x50
 7525 19cc 01       		.uleb128 0x1
 7526 19cd 36       		.byte	0x36
 7527 19ce 00       		.byte	0
 7528 19cf 0D       		.uleb128 0xd
 7529 19d0 3C000000 		.4byte	.LVL458
 7530 19d4 12210000 		.4byte	0x2112
 7531 19d8 0D       		.uleb128 0xd
 7532 19d9 40000000 		.4byte	.LVL459
 7533 19dd 27210000 		.4byte	0x2127
 7534 19e1 00       		.byte	0
 7535 19e2 08       		.uleb128 0x8
 7536 19e3 71010000 		.4byte	.LASF72
 7537 19e7 01       		.byte	0x1
 7538 19e8 A903     		.2byte	0x3a9
ARM GAS  D:\Windows\AppData\Local\Temp\cc9YXq6z.s 			page 157


 7539 19ea 00000000 		.4byte	.LFB112
 7540 19ee 48000000 		.4byte	.LFE112-.LFB112
 7541 19f2 01       		.uleb128 0x1
 7542 19f3 9C       		.byte	0x9c
 7543 19f4 541A0000 		.4byte	0x1a54
 7544 19f8 09       		.uleb128 0x9
 7545 19f9 CE020000 		.4byte	.LASF23
 7546 19fd 01       		.byte	0x1
 7547 19fe A903     		.2byte	0x3a9
 7548 1a00 85000000 		.4byte	0x85
 7549 1a04 7C080000 		.4byte	.LLST48
 7550 1a08 10       		.uleb128 0x10
 7551 1a09 62697400 		.ascii	"bit\000"
 7552 1a0d 01       		.byte	0x1
 7553 1a0e AA03     		.2byte	0x3aa
 7554 1a10 8C000000 		.4byte	0x8c
 7555 1a14 02       		.byte	0x2
 7556 1a15 0B       		.uleb128 0xb
 7557 1a16 2C000000 		.4byte	.LVL463
 7558 1a1a F8200000 		.4byte	0x20f8
 7559 1a1e 2E1A0000 		.4byte	0x1a2e
 7560 1a22 0C       		.uleb128 0xc
 7561 1a23 01       		.uleb128 0x1
 7562 1a24 51       		.byte	0x51
 7563 1a25 01       		.uleb128 0x1
 7564 1a26 30       		.byte	0x30
 7565 1a27 0C       		.uleb128 0xc
 7566 1a28 01       		.uleb128 0x1
 7567 1a29 50       		.byte	0x50
 7568 1a2a 02       		.uleb128 0x2
 7569 1a2b 08       		.byte	0x8
 7570 1a2c 40       		.byte	0x40
 7571 1a2d 00       		.byte	0
 7572 1a2e 0B       		.uleb128 0xb
 7573 1a2f 32000000 		.4byte	.LVL464
 7574 1a33 12210000 		.4byte	0x2112
 7575 1a37 411A0000 		.4byte	0x1a41
 7576 1a3b 0C       		.uleb128 0xc
 7577 1a3c 01       		.uleb128 0x1
 7578 1a3d 50       		.byte	0x50
 7579 1a3e 01       		.uleb128 0x1
 7580 1a3f 37       		.byte	0x37
 7581 1a40 00       		.byte	0
 7582 1a41 0D       		.uleb128 0xd
 7583 1a42 3C000000 		.4byte	.LVL465
 7584 1a46 12210000 		.4byte	0x2112
 7585 1a4a 0D       		.uleb128 0xd
 7586 1a4b 40000000 		.4byte	.LVL466
 7587 1a4f 27210000 		.4byte	0x2127
 7588 1a53 00       		.byte	0
 7589 1a54 08       		.uleb128 0x8
 7590 1a55 D0040000 		.4byte	.LASF73
 7591 1a59 01       		.byte	0x1
 7592 1a5a B503     		.2byte	0x3b5
 7593 1a5c 00000000 		.4byte	.LFB113
 7594 1a60 48000000 		.4byte	.LFE113-.LFB113
 7595 1a64 01       		.uleb128 0x1
ARM GAS  D:\Windows\AppData\Local\Temp\cc9YXq6z.s 			page 158


 7596 1a65 9C       		.byte	0x9c
 7597 1a66 C61A0000 		.4byte	0x1ac6
 7598 1a6a 09       		.uleb128 0x9
 7599 1a6b CE020000 		.4byte	.LASF23
 7600 1a6f 01       		.byte	0x1
 7601 1a70 B503     		.2byte	0x3b5
 7602 1a72 85000000 		.4byte	0x85
 7603 1a76 9D080000 		.4byte	.LLST49
 7604 1a7a 10       		.uleb128 0x10
 7605 1a7b 62697400 		.ascii	"bit\000"
 7606 1a7f 01       		.byte	0x1
 7607 1a80 B603     		.2byte	0x3b6
 7608 1a82 8C000000 		.4byte	0x8c
 7609 1a86 20       		.byte	0x20
 7610 1a87 0B       		.uleb128 0xb
 7611 1a88 2C000000 		.4byte	.LVL470
 7612 1a8c F8200000 		.4byte	0x20f8
 7613 1a90 A01A0000 		.4byte	0x1aa0
 7614 1a94 0C       		.uleb128 0xc
 7615 1a95 01       		.uleb128 0x1
 7616 1a96 51       		.byte	0x51
 7617 1a97 01       		.uleb128 0x1
 7618 1a98 30       		.byte	0x30
 7619 1a99 0C       		.uleb128 0xc
 7620 1a9a 01       		.uleb128 0x1
 7621 1a9b 50       		.byte	0x50
 7622 1a9c 02       		.uleb128 0x2
 7623 1a9d 08       		.byte	0x8
 7624 1a9e 40       		.byte	0x40
 7625 1a9f 00       		.byte	0
 7626 1aa0 0B       		.uleb128 0xb
 7627 1aa1 32000000 		.4byte	.LVL471
 7628 1aa5 12210000 		.4byte	0x2112
 7629 1aa9 B31A0000 		.4byte	0x1ab3
 7630 1aad 0C       		.uleb128 0xc
 7631 1aae 01       		.uleb128 0x1
 7632 1aaf 50       		.byte	0x50
 7633 1ab0 01       		.uleb128 0x1
 7634 1ab1 37       		.byte	0x37
 7635 1ab2 00       		.byte	0
 7636 1ab3 0D       		.uleb128 0xd
 7637 1ab4 3C000000 		.4byte	.LVL472
 7638 1ab8 12210000 		.4byte	0x2112
 7639 1abc 0D       		.uleb128 0xd
 7640 1abd 40000000 		.4byte	.LVL473
 7641 1ac1 27210000 		.4byte	0x2127
 7642 1ac5 00       		.byte	0
 7643 1ac6 08       		.uleb128 0x8
 7644 1ac7 0D020000 		.4byte	.LASF74
 7645 1acb 01       		.byte	0x1
 7646 1acc C103     		.2byte	0x3c1
 7647 1ace 00000000 		.4byte	.LFB114
 7648 1ad2 48000000 		.4byte	.LFE114-.LFB114
 7649 1ad6 01       		.uleb128 0x1
 7650 1ad7 9C       		.byte	0x9c
 7651 1ad8 381B0000 		.4byte	0x1b38
 7652 1adc 09       		.uleb128 0x9
ARM GAS  D:\Windows\AppData\Local\Temp\cc9YXq6z.s 			page 159


 7653 1add CE020000 		.4byte	.LASF23
 7654 1ae1 01       		.byte	0x1
 7655 1ae2 C103     		.2byte	0x3c1
 7656 1ae4 85000000 		.4byte	0x85
 7657 1ae8 BE080000 		.4byte	.LLST50
 7658 1aec 10       		.uleb128 0x10
 7659 1aed 62697400 		.ascii	"bit\000"
 7660 1af1 01       		.byte	0x1
 7661 1af2 C203     		.2byte	0x3c2
 7662 1af4 8C000000 		.4byte	0x8c
 7663 1af8 02       		.byte	0x2
 7664 1af9 0B       		.uleb128 0xb
 7665 1afa 2C000000 		.4byte	.LVL477
 7666 1afe F8200000 		.4byte	0x20f8
 7667 1b02 121B0000 		.4byte	0x1b12
 7668 1b06 0C       		.uleb128 0xc
 7669 1b07 01       		.uleb128 0x1
 7670 1b08 51       		.byte	0x51
 7671 1b09 01       		.uleb128 0x1
 7672 1b0a 30       		.byte	0x30
 7673 1b0b 0C       		.uleb128 0xc
 7674 1b0c 01       		.uleb128 0x1
 7675 1b0d 50       		.byte	0x50
 7676 1b0e 02       		.uleb128 0x2
 7677 1b0f 08       		.byte	0x8
 7678 1b10 40       		.byte	0x40
 7679 1b11 00       		.byte	0
 7680 1b12 0B       		.uleb128 0xb
 7681 1b13 32000000 		.4byte	.LVL478
 7682 1b17 12210000 		.4byte	0x2112
 7683 1b1b 251B0000 		.4byte	0x1b25
 7684 1b1f 0C       		.uleb128 0xc
 7685 1b20 01       		.uleb128 0x1
 7686 1b21 50       		.byte	0x50
 7687 1b22 01       		.uleb128 0x1
 7688 1b23 38       		.byte	0x38
 7689 1b24 00       		.byte	0
 7690 1b25 0D       		.uleb128 0xd
 7691 1b26 3C000000 		.4byte	.LVL479
 7692 1b2a 12210000 		.4byte	0x2112
 7693 1b2e 0D       		.uleb128 0xd
 7694 1b2f 40000000 		.4byte	.LVL480
 7695 1b33 27210000 		.4byte	0x2127
 7696 1b37 00       		.byte	0
 7697 1b38 12       		.uleb128 0x12
 7698 1b39 24000000 		.4byte	.LASF75
 7699 1b3d 01       		.byte	0x1
 7700 1b3e 3B       		.byte	0x3b
 7701 1b3f 00000000 		.4byte	.LFB65
 7702 1b43 3C000000 		.4byte	.LFE65-.LFB65
 7703 1b47 01       		.uleb128 0x1
 7704 1b48 9C       		.byte	0x9c
 7705 1b49 7B1B0000 		.4byte	0x1b7b
 7706 1b4d 0D       		.uleb128 0xd
 7707 1b4e 16000000 		.4byte	.LVL481
 7708 1b52 FE180000 		.4byte	0x18fe
 7709 1b56 0D       		.uleb128 0xd
ARM GAS  D:\Windows\AppData\Local\Temp\cc9YXq6z.s 			page 160


 7710 1b57 1E000000 		.4byte	.LVL482
 7711 1b5b 70190000 		.4byte	0x1970
 7712 1b5f 0D       		.uleb128 0xd
 7713 1b60 26000000 		.4byte	.LVL483
 7714 1b64 E2190000 		.4byte	0x19e2
 7715 1b68 0D       		.uleb128 0xd
 7716 1b69 2E000000 		.4byte	.LVL484
 7717 1b6d 541A0000 		.4byte	0x1a54
 7718 1b71 0D       		.uleb128 0xd
 7719 1b72 36000000 		.4byte	.LVL485
 7720 1b76 C61A0000 		.4byte	0x1ac6
 7721 1b7a 00       		.byte	0
 7722 1b7b 08       		.uleb128 0x8
 7723 1b7c 0C060000 		.4byte	.LASF76
 7724 1b80 01       		.byte	0x1
 7725 1b81 1601     		.2byte	0x116
 7726 1b83 00000000 		.4byte	.LFB71
 7727 1b87 C8000000 		.4byte	.LFE71-.LFB71
 7728 1b8b 01       		.uleb128 0x1
 7729 1b8c 9C       		.byte	0x9c
 7730 1b8d 131C0000 		.4byte	0x1c13
 7731 1b91 09       		.uleb128 0x9
 7732 1b92 6A030000 		.4byte	.LASF77
 7733 1b96 01       		.byte	0x1
 7734 1b97 1601     		.2byte	0x116
 7735 1b99 8C000000 		.4byte	0x8c
 7736 1b9d DF080000 		.4byte	.LLST51
 7737 1ba1 1A       		.uleb128 0x1a
 7738 1ba2 0D010000 		.4byte	.LASF53
 7739 1ba6 01       		.byte	0x1
 7740 1ba7 1701     		.2byte	0x117
 7741 1ba9 85000000 		.4byte	0x85
 7742 1bad 19090000 		.4byte	.LLST52
 7743 1bb1 18       		.uleb128 0x18
 7744 1bb2 30000000 		.4byte	.Ldebug_ranges0+0x30
 7745 1bb6 F61B0000 		.4byte	0x1bf6
 7746 1bba 19       		.uleb128 0x19
 7747 1bbb 6900     		.ascii	"i\000"
 7748 1bbd 01       		.byte	0x1
 7749 1bbe 2B01     		.2byte	0x12b
 7750 1bc0 85000000 		.4byte	0x85
 7751 1bc4 38090000 		.4byte	.LLST53
 7752 1bc8 0D       		.uleb128 0xd
 7753 1bc9 9E000000 		.4byte	.LVL500
 7754 1bcd FE180000 		.4byte	0x18fe
 7755 1bd1 0D       		.uleb128 0xd
 7756 1bd2 A6000000 		.4byte	.LVL501
 7757 1bd6 70190000 		.4byte	0x1970
 7758 1bda 0D       		.uleb128 0xd
 7759 1bdb AE000000 		.4byte	.LVL502
 7760 1bdf E2190000 		.4byte	0x19e2
 7761 1be3 0D       		.uleb128 0xd
 7762 1be4 B6000000 		.4byte	.LVL503
 7763 1be8 541A0000 		.4byte	0x1a54
 7764 1bec 0D       		.uleb128 0xd
 7765 1bed BE000000 		.4byte	.LVL504
 7766 1bf1 C61A0000 		.4byte	0x1ac6
ARM GAS  D:\Windows\AppData\Local\Temp\cc9YXq6z.s 			page 161


 7767 1bf5 00       		.byte	0
 7768 1bf6 0D       		.uleb128 0xd
 7769 1bf7 38000000 		.4byte	.LVL489
 7770 1bfb 70210000 		.4byte	0x2170
 7771 1bff 0F       		.uleb128 0xf
 7772 1c00 3E000000 		.4byte	.LVL490
 7773 1c04 77210000 		.4byte	0x2177
 7774 1c08 0C       		.uleb128 0xc
 7775 1c09 01       		.uleb128 0x1
 7776 1c0a 50       		.byte	0x50
 7777 1c0b 05       		.uleb128 0x5
 7778 1c0c 03       		.byte	0x3
 7779 1c0d 00000000 		.4byte	b3_crit_isr
 7780 1c11 00       		.byte	0
 7781 1c12 00       		.byte	0
 7782 1c13 08       		.uleb128 0x8
 7783 1c14 9F000000 		.4byte	.LASF78
 7784 1c18 01       		.byte	0x1
 7785 1c19 CF03     		.2byte	0x3cf
 7786 1c1b 00000000 		.4byte	.LFB115
 7787 1c1f 48000000 		.4byte	.LFE115-.LFB115
 7788 1c23 01       		.uleb128 0x1
 7789 1c24 9C       		.byte	0x9c
 7790 1c25 851C0000 		.4byte	0x1c85
 7791 1c29 09       		.uleb128 0x9
 7792 1c2a CE020000 		.4byte	.LASF23
 7793 1c2e 01       		.byte	0x1
 7794 1c2f CF03     		.2byte	0x3cf
 7795 1c31 85000000 		.4byte	0x85
 7796 1c35 61090000 		.4byte	.LLST54
 7797 1c39 10       		.uleb128 0x10
 7798 1c3a 62697400 		.ascii	"bit\000"
 7799 1c3e 01       		.byte	0x1
 7800 1c3f D003     		.2byte	0x3d0
 7801 1c41 8C000000 		.4byte	0x8c
 7802 1c45 20       		.byte	0x20
 7803 1c46 0B       		.uleb128 0xb
 7804 1c47 2C000000 		.4byte	.LVL508
 7805 1c4b F8200000 		.4byte	0x20f8
 7806 1c4f 5F1C0000 		.4byte	0x1c5f
 7807 1c53 0C       		.uleb128 0xc
 7808 1c54 01       		.uleb128 0x1
 7809 1c55 51       		.byte	0x51
 7810 1c56 01       		.uleb128 0x1
 7811 1c57 30       		.byte	0x30
 7812 1c58 0C       		.uleb128 0xc
 7813 1c59 01       		.uleb128 0x1
 7814 1c5a 50       		.byte	0x50
 7815 1c5b 02       		.uleb128 0x2
 7816 1c5c 08       		.byte	0x8
 7817 1c5d 40       		.byte	0x40
 7818 1c5e 00       		.byte	0
 7819 1c5f 0B       		.uleb128 0xb
 7820 1c60 32000000 		.4byte	.LVL509
 7821 1c64 12210000 		.4byte	0x2112
 7822 1c68 721C0000 		.4byte	0x1c72
 7823 1c6c 0C       		.uleb128 0xc
ARM GAS  D:\Windows\AppData\Local\Temp\cc9YXq6z.s 			page 162


 7824 1c6d 01       		.uleb128 0x1
 7825 1c6e 50       		.byte	0x50
 7826 1c6f 01       		.uleb128 0x1
 7827 1c70 38       		.byte	0x38
 7828 1c71 00       		.byte	0
 7829 1c72 0D       		.uleb128 0xd
 7830 1c73 3C000000 		.4byte	.LVL510
 7831 1c77 12210000 		.4byte	0x2112
 7832 1c7b 0D       		.uleb128 0xd
 7833 1c7c 40000000 		.4byte	.LVL511
 7834 1c80 27210000 		.4byte	0x2127
 7835 1c84 00       		.byte	0
 7836 1c85 08       		.uleb128 0x8
 7837 1c86 1E030000 		.4byte	.LASF79
 7838 1c8a 01       		.byte	0x1
 7839 1c8b DB03     		.2byte	0x3db
 7840 1c8d 00000000 		.4byte	.LFB116
 7841 1c91 48000000 		.4byte	.LFE116-.LFB116
 7842 1c95 01       		.uleb128 0x1
 7843 1c96 9C       		.byte	0x9c
 7844 1c97 F71C0000 		.4byte	0x1cf7
 7845 1c9b 09       		.uleb128 0x9
 7846 1c9c CE020000 		.4byte	.LASF23
 7847 1ca0 01       		.byte	0x1
 7848 1ca1 DB03     		.2byte	0x3db
 7849 1ca3 85000000 		.4byte	0x85
 7850 1ca7 82090000 		.4byte	.LLST55
 7851 1cab 10       		.uleb128 0x10
 7852 1cac 62697400 		.ascii	"bit\000"
 7853 1cb0 01       		.byte	0x1
 7854 1cb1 DC03     		.2byte	0x3dc
 7855 1cb3 8C000000 		.4byte	0x8c
 7856 1cb7 04       		.byte	0x4
 7857 1cb8 0B       		.uleb128 0xb
 7858 1cb9 2C000000 		.4byte	.LVL515
 7859 1cbd F8200000 		.4byte	0x20f8
 7860 1cc1 D11C0000 		.4byte	0x1cd1
 7861 1cc5 0C       		.uleb128 0xc
 7862 1cc6 01       		.uleb128 0x1
 7863 1cc7 51       		.byte	0x51
 7864 1cc8 01       		.uleb128 0x1
 7865 1cc9 30       		.byte	0x30
 7866 1cca 0C       		.uleb128 0xc
 7867 1ccb 01       		.uleb128 0x1
 7868 1ccc 50       		.byte	0x50
 7869 1ccd 02       		.uleb128 0x2
 7870 1cce 08       		.byte	0x8
 7871 1ccf 40       		.byte	0x40
 7872 1cd0 00       		.byte	0
 7873 1cd1 0B       		.uleb128 0xb
 7874 1cd2 32000000 		.4byte	.LVL516
 7875 1cd6 12210000 		.4byte	0x2112
 7876 1cda E41C0000 		.4byte	0x1ce4
 7877 1cde 0C       		.uleb128 0xc
 7878 1cdf 01       		.uleb128 0x1
 7879 1ce0 50       		.byte	0x50
 7880 1ce1 01       		.uleb128 0x1
ARM GAS  D:\Windows\AppData\Local\Temp\cc9YXq6z.s 			page 163


 7881 1ce2 35       		.byte	0x35
 7882 1ce3 00       		.byte	0
 7883 1ce4 0D       		.uleb128 0xd
 7884 1ce5 3C000000 		.4byte	.LVL517
 7885 1ce9 12210000 		.4byte	0x2112
 7886 1ced 0D       		.uleb128 0xd
 7887 1cee 40000000 		.4byte	.LVL518
 7888 1cf2 27210000 		.4byte	0x2127
 7889 1cf6 00       		.byte	0
 7890 1cf7 08       		.uleb128 0x8
 7891 1cf8 76000000 		.4byte	.LASF80
 7892 1cfc 01       		.byte	0x1
 7893 1cfd E703     		.2byte	0x3e7
 7894 1cff 00000000 		.4byte	.LFB117
 7895 1d03 48000000 		.4byte	.LFE117-.LFB117
 7896 1d07 01       		.uleb128 0x1
 7897 1d08 9C       		.byte	0x9c
 7898 1d09 691D0000 		.4byte	0x1d69
 7899 1d0d 09       		.uleb128 0x9
 7900 1d0e CE020000 		.4byte	.LASF23
 7901 1d12 01       		.byte	0x1
 7902 1d13 E703     		.2byte	0x3e7
 7903 1d15 85000000 		.4byte	0x85
 7904 1d19 A3090000 		.4byte	.LLST56
 7905 1d1d 10       		.uleb128 0x10
 7906 1d1e 62697400 		.ascii	"bit\000"
 7907 1d22 01       		.byte	0x1
 7908 1d23 E803     		.2byte	0x3e8
 7909 1d25 8C000000 		.4byte	0x8c
 7910 1d29 40       		.byte	0x40
 7911 1d2a 0B       		.uleb128 0xb
 7912 1d2b 2C000000 		.4byte	.LVL522
 7913 1d2f F8200000 		.4byte	0x20f8
 7914 1d33 431D0000 		.4byte	0x1d43
 7915 1d37 0C       		.uleb128 0xc
 7916 1d38 01       		.uleb128 0x1
 7917 1d39 51       		.byte	0x51
 7918 1d3a 01       		.uleb128 0x1
 7919 1d3b 30       		.byte	0x30
 7920 1d3c 0C       		.uleb128 0xc
 7921 1d3d 01       		.uleb128 0x1
 7922 1d3e 50       		.byte	0x50
 7923 1d3f 02       		.uleb128 0x2
 7924 1d40 08       		.byte	0x8
 7925 1d41 40       		.byte	0x40
 7926 1d42 00       		.byte	0
 7927 1d43 0B       		.uleb128 0xb
 7928 1d44 32000000 		.4byte	.LVL523
 7929 1d48 12210000 		.4byte	0x2112
 7930 1d4c 561D0000 		.4byte	0x1d56
 7931 1d50 0C       		.uleb128 0xc
 7932 1d51 01       		.uleb128 0x1
 7933 1d52 50       		.byte	0x50
 7934 1d53 01       		.uleb128 0x1
 7935 1d54 35       		.byte	0x35
 7936 1d55 00       		.byte	0
 7937 1d56 0D       		.uleb128 0xd
ARM GAS  D:\Windows\AppData\Local\Temp\cc9YXq6z.s 			page 164


 7938 1d57 3C000000 		.4byte	.LVL524
 7939 1d5b 12210000 		.4byte	0x2112
 7940 1d5f 0D       		.uleb128 0xd
 7941 1d60 40000000 		.4byte	.LVL525
 7942 1d64 27210000 		.4byte	0x2127
 7943 1d68 00       		.byte	0
 7944 1d69 08       		.uleb128 0x8
 7945 1d6a 7C020000 		.4byte	.LASF81
 7946 1d6e 01       		.byte	0x1
 7947 1d6f F403     		.2byte	0x3f4
 7948 1d71 00000000 		.4byte	.LFB118
 7949 1d75 48000000 		.4byte	.LFE118-.LFB118
 7950 1d79 01       		.uleb128 0x1
 7951 1d7a 9C       		.byte	0x9c
 7952 1d7b DB1D0000 		.4byte	0x1ddb
 7953 1d7f 09       		.uleb128 0x9
 7954 1d80 CE020000 		.4byte	.LASF23
 7955 1d84 01       		.byte	0x1
 7956 1d85 F403     		.2byte	0x3f4
 7957 1d87 85000000 		.4byte	0x85
 7958 1d8b C4090000 		.4byte	.LLST57
 7959 1d8f 10       		.uleb128 0x10
 7960 1d90 62697400 		.ascii	"bit\000"
 7961 1d94 01       		.byte	0x1
 7962 1d95 F503     		.2byte	0x3f5
 7963 1d97 8C000000 		.4byte	0x8c
 7964 1d9b 04       		.byte	0x4
 7965 1d9c 0B       		.uleb128 0xb
 7966 1d9d 2C000000 		.4byte	.LVL529
 7967 1da1 F8200000 		.4byte	0x20f8
 7968 1da5 B51D0000 		.4byte	0x1db5
 7969 1da9 0C       		.uleb128 0xc
 7970 1daa 01       		.uleb128 0x1
 7971 1dab 51       		.byte	0x51
 7972 1dac 01       		.uleb128 0x1
 7973 1dad 30       		.byte	0x30
 7974 1dae 0C       		.uleb128 0xc
 7975 1daf 01       		.uleb128 0x1
 7976 1db0 50       		.byte	0x50
 7977 1db1 02       		.uleb128 0x2
 7978 1db2 08       		.byte	0x8
 7979 1db3 40       		.byte	0x40
 7980 1db4 00       		.byte	0
 7981 1db5 0B       		.uleb128 0xb
 7982 1db6 32000000 		.4byte	.LVL530
 7983 1dba 12210000 		.4byte	0x2112
 7984 1dbe C81D0000 		.4byte	0x1dc8
 7985 1dc2 0C       		.uleb128 0xc
 7986 1dc3 01       		.uleb128 0x1
 7987 1dc4 50       		.byte	0x50
 7988 1dc5 01       		.uleb128 0x1
 7989 1dc6 36       		.byte	0x36
 7990 1dc7 00       		.byte	0
 7991 1dc8 0D       		.uleb128 0xd
 7992 1dc9 3C000000 		.4byte	.LVL531
 7993 1dcd 12210000 		.4byte	0x2112
 7994 1dd1 0D       		.uleb128 0xd
ARM GAS  D:\Windows\AppData\Local\Temp\cc9YXq6z.s 			page 165


 7995 1dd2 40000000 		.4byte	.LVL532
 7996 1dd6 27210000 		.4byte	0x2127
 7997 1dda 00       		.byte	0
 7998 1ddb 08       		.uleb128 0x8
 7999 1ddc 2F060000 		.4byte	.LASF82
 8000 1de0 01       		.byte	0x1
 8001 1de1 0104     		.2byte	0x401
 8002 1de3 00000000 		.4byte	.LFB119
 8003 1de7 48000000 		.4byte	.LFE119-.LFB119
 8004 1deb 01       		.uleb128 0x1
 8005 1dec 9C       		.byte	0x9c
 8006 1ded 4D1E0000 		.4byte	0x1e4d
 8007 1df1 09       		.uleb128 0x9
 8008 1df2 CE020000 		.4byte	.LASF23
 8009 1df6 01       		.byte	0x1
 8010 1df7 0104     		.2byte	0x401
 8011 1df9 85000000 		.4byte	0x85
 8012 1dfd E5090000 		.4byte	.LLST58
 8013 1e01 10       		.uleb128 0x10
 8014 1e02 62697400 		.ascii	"bit\000"
 8015 1e06 01       		.byte	0x1
 8016 1e07 0204     		.2byte	0x402
 8017 1e09 8C000000 		.4byte	0x8c
 8018 1e0d 40       		.byte	0x40
 8019 1e0e 0B       		.uleb128 0xb
 8020 1e0f 2C000000 		.4byte	.LVL536
 8021 1e13 F8200000 		.4byte	0x20f8
 8022 1e17 271E0000 		.4byte	0x1e27
 8023 1e1b 0C       		.uleb128 0xc
 8024 1e1c 01       		.uleb128 0x1
 8025 1e1d 51       		.byte	0x51
 8026 1e1e 01       		.uleb128 0x1
 8027 1e1f 30       		.byte	0x30
 8028 1e20 0C       		.uleb128 0xc
 8029 1e21 01       		.uleb128 0x1
 8030 1e22 50       		.byte	0x50
 8031 1e23 02       		.uleb128 0x2
 8032 1e24 08       		.byte	0x8
 8033 1e25 40       		.byte	0x40
 8034 1e26 00       		.byte	0
 8035 1e27 0B       		.uleb128 0xb
 8036 1e28 32000000 		.4byte	.LVL537
 8037 1e2c 12210000 		.4byte	0x2112
 8038 1e30 3A1E0000 		.4byte	0x1e3a
 8039 1e34 0C       		.uleb128 0xc
 8040 1e35 01       		.uleb128 0x1
 8041 1e36 50       		.byte	0x50
 8042 1e37 01       		.uleb128 0x1
 8043 1e38 36       		.byte	0x36
 8044 1e39 00       		.byte	0
 8045 1e3a 0D       		.uleb128 0xd
 8046 1e3b 3C000000 		.4byte	.LVL538
 8047 1e3f 12210000 		.4byte	0x2112
 8048 1e43 0D       		.uleb128 0xd
 8049 1e44 40000000 		.4byte	.LVL539
 8050 1e48 27210000 		.4byte	0x2127
 8051 1e4c 00       		.byte	0
ARM GAS  D:\Windows\AppData\Local\Temp\cc9YXq6z.s 			page 166


 8052 1e4d 12       		.uleb128 0x12
 8053 1e4e C7010000 		.4byte	.LASF83
 8054 1e52 01       		.byte	0x1
 8055 1e53 44       		.byte	0x44
 8056 1e54 00000000 		.4byte	.LFB66
 8057 1e58 3C000000 		.4byte	.LFE66-.LFB66
 8058 1e5c 01       		.uleb128 0x1
 8059 1e5d 9C       		.byte	0x9c
 8060 1e5e 901E0000 		.4byte	0x1e90
 8061 1e62 0D       		.uleb128 0xd
 8062 1e63 16000000 		.4byte	.LVL540
 8063 1e67 DB1D0000 		.4byte	0x1ddb
 8064 1e6b 0D       		.uleb128 0xd
 8065 1e6c 1E000000 		.4byte	.LVL541
 8066 1e70 691D0000 		.4byte	0x1d69
 8067 1e74 0D       		.uleb128 0xd
 8068 1e75 26000000 		.4byte	.LVL542
 8069 1e79 F71C0000 		.4byte	0x1cf7
 8070 1e7d 0D       		.uleb128 0xd
 8071 1e7e 2E000000 		.4byte	.LVL543
 8072 1e82 851C0000 		.4byte	0x1c85
 8073 1e86 0D       		.uleb128 0xd
 8074 1e87 36000000 		.4byte	.LVL544
 8075 1e8b 131C0000 		.4byte	0x1c13
 8076 1e8f 00       		.byte	0
 8077 1e90 08       		.uleb128 0x8
 8078 1e91 8E060000 		.4byte	.LASF84
 8079 1e95 01       		.byte	0x1
 8080 1e96 3901     		.2byte	0x139
 8081 1e98 00000000 		.4byte	.LFB72
 8082 1e9c D0000000 		.4byte	.LFE72-.LFB72
 8083 1ea0 01       		.uleb128 0x1
 8084 1ea1 9C       		.byte	0x9c
 8085 1ea2 281F0000 		.4byte	0x1f28
 8086 1ea6 17       		.uleb128 0x17
 8087 1ea7 536F4300 		.ascii	"SoC\000"
 8088 1eab 01       		.byte	0x1
 8089 1eac 3901     		.2byte	0x139
 8090 1eae 8C000000 		.4byte	0x8c
 8091 1eb2 060A0000 		.4byte	.LLST59
 8092 1eb6 1A       		.uleb128 0x1a
 8093 1eb7 0D010000 		.4byte	.LASF53
 8094 1ebb 01       		.byte	0x1
 8095 1ebc 3A01     		.2byte	0x13a
 8096 1ebe 85000000 		.4byte	0x85
 8097 1ec2 400A0000 		.4byte	.LLST60
 8098 1ec6 18       		.uleb128 0x18
 8099 1ec7 48000000 		.4byte	.Ldebug_ranges0+0x48
 8100 1ecb 0B1F0000 		.4byte	0x1f0b
 8101 1ecf 19       		.uleb128 0x19
 8102 1ed0 6900     		.ascii	"i\000"
 8103 1ed2 01       		.byte	0x1
 8104 1ed3 4E01     		.2byte	0x14e
 8105 1ed5 85000000 		.4byte	0x85
 8106 1ed9 5F0A0000 		.4byte	.LLST61
 8107 1edd 0D       		.uleb128 0xd
 8108 1ede A4000000 		.4byte	.LVL559
ARM GAS  D:\Windows\AppData\Local\Temp\cc9YXq6z.s 			page 167


 8109 1ee2 DB1D0000 		.4byte	0x1ddb
 8110 1ee6 0D       		.uleb128 0xd
 8111 1ee7 AC000000 		.4byte	.LVL560
 8112 1eeb 691D0000 		.4byte	0x1d69
 8113 1eef 0D       		.uleb128 0xd
 8114 1ef0 B4000000 		.4byte	.LVL561
 8115 1ef4 F71C0000 		.4byte	0x1cf7
 8116 1ef8 0D       		.uleb128 0xd
 8117 1ef9 BC000000 		.4byte	.LVL562
 8118 1efd 851C0000 		.4byte	0x1c85
 8119 1f01 0D       		.uleb128 0xd
 8120 1f02 C4000000 		.4byte	.LVL563
 8121 1f06 131C0000 		.4byte	0x1c13
 8122 1f0a 00       		.byte	0
 8123 1f0b 0D       		.uleb128 0xd
 8124 1f0c 3E000000 		.4byte	.LVL548
 8125 1f10 88210000 		.4byte	0x2188
 8126 1f14 0F       		.uleb128 0xf
 8127 1f15 44000000 		.4byte	.LVL549
 8128 1f19 8F210000 		.4byte	0x218f
 8129 1f1d 0C       		.uleb128 0xc
 8130 1f1e 01       		.uleb128 0x1
 8131 1f1f 50       		.byte	0x50
 8132 1f20 05       		.uleb128 0x5
 8133 1f21 03       		.byte	0x3
 8134 1f22 00000000 		.4byte	c1_crit_isr
 8135 1f26 00       		.byte	0
 8136 1f27 00       		.byte	0
 8137 1f28 1B       		.uleb128 0x1b
 8138 1f29 A9030000 		.4byte	.LASF85
 8139 1f2d 05       		.byte	0x5
 8140 1f2e 5506     		.2byte	0x655
 8141 1f30 341F0000 		.4byte	0x1f34
 8142 1f34 1C       		.uleb128 0x1c
 8143 1f35 A2000000 		.4byte	0xa2
 8144 1f39 1D       		.uleb128 0x1d
 8145 1f3a 8C040000 		.4byte	.LASF86
 8146 1f3e 01       		.byte	0x1
 8147 1f3f 0F       		.byte	0xf
 8148 1f40 8C000000 		.4byte	0x8c
 8149 1f44 05       		.uleb128 0x5
 8150 1f45 03       		.byte	0x3
 8151 1f46 00000000 		.4byte	byte05
 8152 1f4a 1D       		.uleb128 0x1d
 8153 1f4b 93040000 		.4byte	.LASF87
 8154 1f4f 01       		.byte	0x1
 8155 1f50 10       		.byte	0x10
 8156 1f51 8C000000 		.4byte	0x8c
 8157 1f55 05       		.uleb128 0x5
 8158 1f56 03       		.byte	0x3
 8159 1f57 00000000 		.4byte	byte06
 8160 1f5b 1D       		.uleb128 0x1d
 8161 1f5c 9A040000 		.4byte	.LASF88
 8162 1f60 01       		.byte	0x1
 8163 1f61 11       		.byte	0x11
 8164 1f62 8C000000 		.4byte	0x8c
 8165 1f66 05       		.uleb128 0x5
ARM GAS  D:\Windows\AppData\Local\Temp\cc9YXq6z.s 			page 168


 8166 1f67 03       		.byte	0x3
 8167 1f68 00000000 		.4byte	byte07
 8168 1f6c 1D       		.uleb128 0x1d
 8169 1f6d A1040000 		.4byte	.LASF89
 8170 1f71 01       		.byte	0x1
 8171 1f72 12       		.byte	0x12
 8172 1f73 8C000000 		.4byte	0x8c
 8173 1f77 05       		.uleb128 0x5
 8174 1f78 03       		.byte	0x3
 8175 1f79 00000000 		.4byte	byte08
 8176 1f7d 1D       		.uleb128 0x1d
 8177 1f7e F4020000 		.4byte	.LASF90
 8178 1f82 01       		.byte	0x1
 8179 1f83 14       		.byte	0x14
 8180 1f84 8C000000 		.4byte	0x8c
 8181 1f88 05       		.uleb128 0x5
 8182 1f89 03       		.byte	0x3
 8183 1f8a 00000000 		.4byte	byte05_2
 8184 1f8e 1D       		.uleb128 0x1d
 8185 1f8f 85060000 		.4byte	.LASF91
 8186 1f93 01       		.byte	0x1
 8187 1f94 15       		.byte	0x15
 8188 1f95 8C000000 		.4byte	0x8c
 8189 1f99 05       		.uleb128 0x5
 8190 1f9a 03       		.byte	0x3
 8191 1f9b 00000000 		.4byte	byte06_2
 8192 1f9f 1D       		.uleb128 0x1d
 8193 1fa0 DD010000 		.4byte	.LASF92
 8194 1fa4 01       		.byte	0x1
 8195 1fa5 16       		.byte	0x16
 8196 1fa6 8C000000 		.4byte	0x8c
 8197 1faa 05       		.uleb128 0x5
 8198 1fab 03       		.byte	0x3
 8199 1fac 00000000 		.4byte	byte07_2
 8200 1fb0 1D       		.uleb128 0x1d
 8201 1fb1 F9030000 		.4byte	.LASF93
 8202 1fb5 01       		.byte	0x1
 8203 1fb6 17       		.byte	0x17
 8204 1fb7 8C000000 		.4byte	0x8c
 8205 1fbb 05       		.uleb128 0x5
 8206 1fbc 03       		.byte	0x3
 8207 1fbd 00000000 		.4byte	byte08_2
 8208 1fc1 1E       		.uleb128 0x1e
 8209 1fc2 85000000 		.4byte	0x85
 8210 1fc6 D11F0000 		.4byte	0x1fd1
 8211 1fca 1F       		.uleb128 0x1f
 8212 1fcb E1000000 		.4byte	0xe1
 8213 1fcf 15       		.byte	0x15
 8214 1fd0 00       		.byte	0
 8215 1fd1 1D       		.uleb128 0x1d
 8216 1fd2 6D000000 		.4byte	.LASF94
 8217 1fd6 01       		.byte	0x1
 8218 1fd7 19       		.byte	0x19
 8219 1fd8 C11F0000 		.4byte	0x1fc1
 8220 1fdc 05       		.uleb128 0x5
 8221 1fdd 03       		.byte	0x3
 8222 1fde 00000000 		.4byte	tach_arr
ARM GAS  D:\Windows\AppData\Local\Temp\cc9YXq6z.s 			page 169


 8223 1fe2 1E       		.uleb128 0x1e
 8224 1fe3 85000000 		.4byte	0x85
 8225 1fe7 F21F0000 		.4byte	0x1ff2
 8226 1feb 1F       		.uleb128 0x1f
 8227 1fec E1000000 		.4byte	0xe1
 8228 1ff0 04       		.byte	0x4
 8229 1ff1 00       		.byte	0
 8230 1ff2 1D       		.uleb128 0x1d
 8231 1ff3 E9030000 		.4byte	.LASF95
 8232 1ff7 01       		.byte	0x1
 8233 1ff8 1A       		.byte	0x1a
 8234 1ff9 E21F0000 		.4byte	0x1fe2
 8235 1ffd 05       		.uleb128 0x5
 8236 1ffe 03       		.byte	0x3
 8237 1fff 00000000 		.4byte	b1_arr
 8238 2003 1D       		.uleb128 0x1d
 8239 2004 E6010000 		.4byte	.LASF96
 8240 2008 01       		.byte	0x1
 8241 2009 1B       		.byte	0x1b
 8242 200a E21F0000 		.4byte	0x1fe2
 8243 200e 05       		.uleb128 0x5
 8244 200f 03       		.byte	0x3
 8245 2010 00000000 		.4byte	b2_arr
 8246 2014 1D       		.uleb128 0x1d
 8247 2015 13000000 		.4byte	.LASF97
 8248 2019 01       		.byte	0x1
 8249 201a 1C       		.byte	0x1c
 8250 201b E21F0000 		.4byte	0x1fe2
 8251 201f 05       		.uleb128 0x5
 8252 2020 03       		.byte	0x3
 8253 2021 00000000 		.4byte	b3_arr
 8254 2025 1D       		.uleb128 0x1d
 8255 2026 53010000 		.4byte	.LASF98
 8256 202a 01       		.byte	0x1
 8257 202b 1D       		.byte	0x1d
 8258 202c E21F0000 		.4byte	0x1fe2
 8259 2030 05       		.uleb128 0x5
 8260 2031 03       		.byte	0x3
 8261 2032 00000000 		.4byte	c1_arr
 8262 2036 1D       		.uleb128 0x1d
 8263 2037 20040000 		.4byte	.LASF99
 8264 203b 01       		.byte	0x1
 8265 203c 1F       		.byte	0x1f
 8266 203d 85000000 		.4byte	0x85
 8267 2041 05       		.uleb128 0x5
 8268 2042 03       		.byte	0x3
 8269 2043 00000000 		.4byte	b1_critical
 8270 2047 1D       		.uleb128 0x1d
 8271 2048 54020000 		.4byte	.LASF100
 8272 204c 01       		.byte	0x1
 8273 204d 20       		.byte	0x20
 8274 204e 85000000 		.4byte	0x85
 8275 2052 05       		.uleb128 0x5
 8276 2053 03       		.byte	0x3
 8277 2054 00000000 		.4byte	b2_critical
 8278 2058 1D       		.uleb128 0x1d
 8279 2059 3E010000 		.4byte	.LASF101
ARM GAS  D:\Windows\AppData\Local\Temp\cc9YXq6z.s 			page 170


 8280 205d 01       		.byte	0x1
 8281 205e 21       		.byte	0x21
 8282 205f 85000000 		.4byte	0x85
 8283 2063 05       		.uleb128 0x5
 8284 2064 03       		.byte	0x3
 8285 2065 00000000 		.4byte	b3_critical
 8286 2069 1D       		.uleb128 0x1d
 8287 206a C2020000 		.4byte	.LASF102
 8288 206e 01       		.byte	0x1
 8289 206f 22       		.byte	0x22
 8290 2070 85000000 		.4byte	0x85
 8291 2074 05       		.uleb128 0x5
 8292 2075 03       		.byte	0x3
 8293 2076 00000000 		.4byte	c1_critical
 8294 207a 1D       		.uleb128 0x1d
 8295 207b C4040000 		.4byte	.LASF103
 8296 207f 01       		.byte	0x1
 8297 2080 24       		.byte	0x24
 8298 2081 85000000 		.4byte	0x85
 8299 2085 05       		.uleb128 0x5
 8300 2086 03       		.byte	0x3
 8301 2087 00000000 		.4byte	b1_crit_led
 8302 208b 1D       		.uleb128 0x1d
 8303 208c 7F000000 		.4byte	.LASF104
 8304 2090 01       		.byte	0x1
 8305 2091 25       		.byte	0x25
 8306 2092 85000000 		.4byte	0x85
 8307 2096 05       		.uleb128 0x5
 8308 2097 03       		.byte	0x3
 8309 2098 00000000 		.4byte	b2_crit_led
 8310 209c 1D       		.uleb128 0x1d
 8311 209d 86010000 		.4byte	.LASF105
 8312 20a1 01       		.byte	0x1
 8313 20a2 26       		.byte	0x26
 8314 20a3 85000000 		.4byte	0x85
 8315 20a7 05       		.uleb128 0x5
 8316 20a8 03       		.byte	0x3
 8317 20a9 00000000 		.4byte	b3_crit_led
 8318 20ad 1D       		.uleb128 0x1d
 8319 20ae 12030000 		.4byte	.LASF106
 8320 20b2 01       		.byte	0x1
 8321 20b3 27       		.byte	0x27
 8322 20b4 85000000 		.4byte	0x85
 8323 20b8 05       		.uleb128 0x5
 8324 20b9 03       		.byte	0x3
 8325 20ba 00000000 		.4byte	c1_crit_led
 8326 20be 20       		.uleb128 0x20
 8327 20bf 31030000 		.4byte	.LASF107
 8328 20c3 06       		.byte	0x6
 8329 20c4 B1       		.byte	0xb1
 8330 20c5 AD000000 		.4byte	0xad
 8331 20c9 D8200000 		.4byte	0x20d8
 8332 20cd 21       		.uleb128 0x21
 8333 20ce AD000000 		.4byte	0xad
 8334 20d2 21       		.uleb128 0x21
 8335 20d3 AD000000 		.4byte	0xad
 8336 20d7 00       		.byte	0
ARM GAS  D:\Windows\AppData\Local\Temp\cc9YXq6z.s 			page 171


 8337 20d8 20       		.uleb128 0x20
 8338 20d9 A8040000 		.4byte	.LASF108
 8339 20dd 06       		.byte	0x6
 8340 20de B6       		.byte	0xb6
 8341 20df AD000000 		.4byte	0xad
 8342 20e3 ED200000 		.4byte	0x20ed
 8343 20e7 21       		.uleb128 0x21
 8344 20e8 AD000000 		.4byte	0xad
 8345 20ec 00       		.byte	0
 8346 20ed 22       		.uleb128 0x22
 8347 20ee 4B060000 		.4byte	.LASF111
 8348 20f2 06       		.byte	0x6
 8349 20f3 B5       		.byte	0xb5
 8350 20f4 AD000000 		.4byte	0xad
 8351 20f8 20       		.uleb128 0x20
 8352 20f9 DA040000 		.4byte	.LASF109
 8353 20fd 07       		.byte	0x7
 8354 20fe B1       		.byte	0xb1
 8355 20ff AD000000 		.4byte	0xad
 8356 2103 12210000 		.4byte	0x2112
 8357 2107 21       		.uleb128 0x21
 8358 2108 AD000000 		.4byte	0xad
 8359 210c 21       		.uleb128 0x21
 8360 210d AD000000 		.4byte	0xad
 8361 2111 00       		.byte	0
 8362 2112 20       		.uleb128 0x20
 8363 2113 CD030000 		.4byte	.LASF110
 8364 2117 07       		.byte	0x7
 8365 2118 B6       		.byte	0xb6
 8366 2119 AD000000 		.4byte	0xad
 8367 211d 27210000 		.4byte	0x2127
 8368 2121 21       		.uleb128 0x21
 8369 2122 AD000000 		.4byte	0xad
 8370 2126 00       		.byte	0
 8371 2127 22       		.uleb128 0x22
 8372 2128 23010000 		.4byte	.LASF112
 8373 212c 07       		.byte	0x7
 8374 212d B5       		.byte	0xb5
 8375 212e AD000000 		.4byte	0xad
 8376 2132 23       		.uleb128 0x23
 8377 2133 66060000 		.4byte	.LASF113
 8378 2137 06       		.byte	0x6
 8379 2138 93       		.byte	0x93
 8380 2139 23       		.uleb128 0x23
 8381 213a A7020000 		.4byte	.LASF114
 8382 213e 07       		.byte	0x7
 8383 213f 93       		.byte	0x93
 8384 2140 23       		.uleb128 0x23
 8385 2141 DA050000 		.4byte	.LASF115
 8386 2145 08       		.byte	0x8
 8387 2146 5A       		.byte	0x5a
 8388 2147 24       		.uleb128 0x24
 8389 2148 BF000000 		.4byte	.LASF117
 8390 214c 0A       		.byte	0xa
 8391 214d 18       		.byte	0x18
 8392 214e 58210000 		.4byte	0x2158
 8393 2152 21       		.uleb128 0x21
ARM GAS  D:\Windows\AppData\Local\Temp\cc9YXq6z.s 			page 172


 8394 2153 CE000000 		.4byte	0xce
 8395 2157 00       		.byte	0
 8396 2158 23       		.uleb128 0x23
 8397 2159 F5010000 		.4byte	.LASF116
 8398 215d 09       		.byte	0x9
 8399 215e 5A       		.byte	0x5a
 8400 215f 24       		.uleb128 0x24
 8401 2160 2D020000 		.4byte	.LASF118
 8402 2164 0B       		.byte	0xb
 8403 2165 18       		.byte	0x18
 8404 2166 70210000 		.4byte	0x2170
 8405 216a 21       		.uleb128 0x21
 8406 216b CE000000 		.4byte	0xce
 8407 216f 00       		.byte	0
 8408 2170 23       		.uleb128 0x23
 8409 2171 92050000 		.4byte	.LASF119
 8410 2175 0C       		.byte	0xc
 8411 2176 5A       		.byte	0x5a
 8412 2177 24       		.uleb128 0x24
 8413 2178 AA010000 		.4byte	.LASF120
 8414 217c 0D       		.byte	0xd
 8415 217d 18       		.byte	0x18
 8416 217e 88210000 		.4byte	0x2188
 8417 2182 21       		.uleb128 0x21
 8418 2183 CE000000 		.4byte	0xce
 8419 2187 00       		.byte	0
 8420 2188 23       		.uleb128 0x23
 8421 2189 4E040000 		.4byte	.LASF121
 8422 218d 0E       		.byte	0xe
 8423 218e 5A       		.byte	0x5a
 8424 218f 25       		.uleb128 0x25
 8425 2190 D3020000 		.4byte	.LASF126
 8426 2194 0F       		.byte	0xf
 8427 2195 18       		.byte	0x18
 8428 2196 21       		.uleb128 0x21
 8429 2197 CE000000 		.4byte	0xce
 8430 219b 00       		.byte	0
 8431 219c 00       		.byte	0
 8432              		.section	.debug_abbrev,"",%progbits
 8433              	.Ldebug_abbrev0:
 8434 0000 01       		.uleb128 0x1
 8435 0001 11       		.uleb128 0x11
 8436 0002 01       		.byte	0x1
 8437 0003 25       		.uleb128 0x25
 8438 0004 0E       		.uleb128 0xe
 8439 0005 13       		.uleb128 0x13
 8440 0006 0B       		.uleb128 0xb
 8441 0007 03       		.uleb128 0x3
 8442 0008 0E       		.uleb128 0xe
 8443 0009 1B       		.uleb128 0x1b
 8444 000a 0E       		.uleb128 0xe
 8445 000b 55       		.uleb128 0x55
 8446 000c 17       		.uleb128 0x17
 8447 000d 11       		.uleb128 0x11
 8448 000e 01       		.uleb128 0x1
 8449 000f 10       		.uleb128 0x10
 8450 0010 17       		.uleb128 0x17
ARM GAS  D:\Windows\AppData\Local\Temp\cc9YXq6z.s 			page 173


 8451 0011 00       		.byte	0
 8452 0012 00       		.byte	0
 8453 0013 02       		.uleb128 0x2
 8454 0014 24       		.uleb128 0x24
 8455 0015 00       		.byte	0
 8456 0016 0B       		.uleb128 0xb
 8457 0017 0B       		.uleb128 0xb
 8458 0018 3E       		.uleb128 0x3e
 8459 0019 0B       		.uleb128 0xb
 8460 001a 03       		.uleb128 0x3
 8461 001b 0E       		.uleb128 0xe
 8462 001c 00       		.byte	0
 8463 001d 00       		.byte	0
 8464 001e 03       		.uleb128 0x3
 8465 001f 16       		.uleb128 0x16
 8466 0020 00       		.byte	0
 8467 0021 03       		.uleb128 0x3
 8468 0022 0E       		.uleb128 0xe
 8469 0023 3A       		.uleb128 0x3a
 8470 0024 0B       		.uleb128 0xb
 8471 0025 3B       		.uleb128 0x3b
 8472 0026 0B       		.uleb128 0xb
 8473 0027 49       		.uleb128 0x49
 8474 0028 13       		.uleb128 0x13
 8475 0029 00       		.byte	0
 8476 002a 00       		.byte	0
 8477 002b 04       		.uleb128 0x4
 8478 002c 24       		.uleb128 0x24
 8479 002d 00       		.byte	0
 8480 002e 0B       		.uleb128 0xb
 8481 002f 0B       		.uleb128 0xb
 8482 0030 3E       		.uleb128 0x3e
 8483 0031 0B       		.uleb128 0xb
 8484 0032 03       		.uleb128 0x3
 8485 0033 08       		.uleb128 0x8
 8486 0034 00       		.byte	0
 8487 0035 00       		.byte	0
 8488 0036 05       		.uleb128 0x5
 8489 0037 16       		.uleb128 0x16
 8490 0038 00       		.byte	0
 8491 0039 03       		.uleb128 0x3
 8492 003a 0E       		.uleb128 0xe
 8493 003b 3A       		.uleb128 0x3a
 8494 003c 0B       		.uleb128 0xb
 8495 003d 3B       		.uleb128 0x3b
 8496 003e 05       		.uleb128 0x5
 8497 003f 49       		.uleb128 0x49
 8498 0040 13       		.uleb128 0x13
 8499 0041 00       		.byte	0
 8500 0042 00       		.byte	0
 8501 0043 06       		.uleb128 0x6
 8502 0044 0F       		.uleb128 0xf
 8503 0045 00       		.byte	0
 8504 0046 0B       		.uleb128 0xb
 8505 0047 0B       		.uleb128 0xb
 8506 0048 49       		.uleb128 0x49
 8507 0049 13       		.uleb128 0x13
ARM GAS  D:\Windows\AppData\Local\Temp\cc9YXq6z.s 			page 174


 8508 004a 00       		.byte	0
 8509 004b 00       		.byte	0
 8510 004c 07       		.uleb128 0x7
 8511 004d 15       		.uleb128 0x15
 8512 004e 00       		.byte	0
 8513 004f 27       		.uleb128 0x27
 8514 0050 19       		.uleb128 0x19
 8515 0051 00       		.byte	0
 8516 0052 00       		.byte	0
 8517 0053 08       		.uleb128 0x8
 8518 0054 2E       		.uleb128 0x2e
 8519 0055 01       		.byte	0x1
 8520 0056 3F       		.uleb128 0x3f
 8521 0057 19       		.uleb128 0x19
 8522 0058 03       		.uleb128 0x3
 8523 0059 0E       		.uleb128 0xe
 8524 005a 3A       		.uleb128 0x3a
 8525 005b 0B       		.uleb128 0xb
 8526 005c 3B       		.uleb128 0x3b
 8527 005d 05       		.uleb128 0x5
 8528 005e 27       		.uleb128 0x27
 8529 005f 19       		.uleb128 0x19
 8530 0060 11       		.uleb128 0x11
 8531 0061 01       		.uleb128 0x1
 8532 0062 12       		.uleb128 0x12
 8533 0063 06       		.uleb128 0x6
 8534 0064 40       		.uleb128 0x40
 8535 0065 18       		.uleb128 0x18
 8536 0066 9742     		.uleb128 0x2117
 8537 0068 19       		.uleb128 0x19
 8538 0069 01       		.uleb128 0x1
 8539 006a 13       		.uleb128 0x13
 8540 006b 00       		.byte	0
 8541 006c 00       		.byte	0
 8542 006d 09       		.uleb128 0x9
 8543 006e 05       		.uleb128 0x5
 8544 006f 00       		.byte	0
 8545 0070 03       		.uleb128 0x3
 8546 0071 0E       		.uleb128 0xe
 8547 0072 3A       		.uleb128 0x3a
 8548 0073 0B       		.uleb128 0xb
 8549 0074 3B       		.uleb128 0x3b
 8550 0075 05       		.uleb128 0x5
 8551 0076 49       		.uleb128 0x49
 8552 0077 13       		.uleb128 0x13
 8553 0078 02       		.uleb128 0x2
 8554 0079 17       		.uleb128 0x17
 8555 007a 00       		.byte	0
 8556 007b 00       		.byte	0
 8557 007c 0A       		.uleb128 0xa
 8558 007d 34       		.uleb128 0x34
 8559 007e 00       		.byte	0
 8560 007f 03       		.uleb128 0x3
 8561 0080 0E       		.uleb128 0xe
 8562 0081 3A       		.uleb128 0x3a
 8563 0082 0B       		.uleb128 0xb
 8564 0083 3B       		.uleb128 0x3b
ARM GAS  D:\Windows\AppData\Local\Temp\cc9YXq6z.s 			page 175


 8565 0084 05       		.uleb128 0x5
 8566 0085 49       		.uleb128 0x49
 8567 0086 13       		.uleb128 0x13
 8568 0087 1C       		.uleb128 0x1c
 8569 0088 0B       		.uleb128 0xb
 8570 0089 00       		.byte	0
 8571 008a 00       		.byte	0
 8572 008b 0B       		.uleb128 0xb
 8573 008c 898201   		.uleb128 0x4109
 8574 008f 01       		.byte	0x1
 8575 0090 11       		.uleb128 0x11
 8576 0091 01       		.uleb128 0x1
 8577 0092 31       		.uleb128 0x31
 8578 0093 13       		.uleb128 0x13
 8579 0094 01       		.uleb128 0x1
 8580 0095 13       		.uleb128 0x13
 8581 0096 00       		.byte	0
 8582 0097 00       		.byte	0
 8583 0098 0C       		.uleb128 0xc
 8584 0099 8A8201   		.uleb128 0x410a
 8585 009c 00       		.byte	0
 8586 009d 02       		.uleb128 0x2
 8587 009e 18       		.uleb128 0x18
 8588 009f 9142     		.uleb128 0x2111
 8589 00a1 18       		.uleb128 0x18
 8590 00a2 00       		.byte	0
 8591 00a3 00       		.byte	0
 8592 00a4 0D       		.uleb128 0xd
 8593 00a5 898201   		.uleb128 0x4109
 8594 00a8 00       		.byte	0
 8595 00a9 11       		.uleb128 0x11
 8596 00aa 01       		.uleb128 0x1
 8597 00ab 31       		.uleb128 0x31
 8598 00ac 13       		.uleb128 0x13
 8599 00ad 00       		.byte	0
 8600 00ae 00       		.byte	0
 8601 00af 0E       		.uleb128 0xe
 8602 00b0 2E       		.uleb128 0x2e
 8603 00b1 01       		.byte	0x1
 8604 00b2 3F       		.uleb128 0x3f
 8605 00b3 19       		.uleb128 0x19
 8606 00b4 03       		.uleb128 0x3
 8607 00b5 0E       		.uleb128 0xe
 8608 00b6 3A       		.uleb128 0x3a
 8609 00b7 0B       		.uleb128 0xb
 8610 00b8 3B       		.uleb128 0x3b
 8611 00b9 0B       		.uleb128 0xb
 8612 00ba 11       		.uleb128 0x11
 8613 00bb 01       		.uleb128 0x1
 8614 00bc 12       		.uleb128 0x12
 8615 00bd 06       		.uleb128 0x6
 8616 00be 40       		.uleb128 0x40
 8617 00bf 18       		.uleb128 0x18
 8618 00c0 9742     		.uleb128 0x2117
 8619 00c2 19       		.uleb128 0x19
 8620 00c3 01       		.uleb128 0x1
 8621 00c4 13       		.uleb128 0x13
ARM GAS  D:\Windows\AppData\Local\Temp\cc9YXq6z.s 			page 176


 8622 00c5 00       		.byte	0
 8623 00c6 00       		.byte	0
 8624 00c7 0F       		.uleb128 0xf
 8625 00c8 898201   		.uleb128 0x4109
 8626 00cb 01       		.byte	0x1
 8627 00cc 11       		.uleb128 0x11
 8628 00cd 01       		.uleb128 0x1
 8629 00ce 31       		.uleb128 0x31
 8630 00cf 13       		.uleb128 0x13
 8631 00d0 00       		.byte	0
 8632 00d1 00       		.byte	0
 8633 00d2 10       		.uleb128 0x10
 8634 00d3 34       		.uleb128 0x34
 8635 00d4 00       		.byte	0
 8636 00d5 03       		.uleb128 0x3
 8637 00d6 08       		.uleb128 0x8
 8638 00d7 3A       		.uleb128 0x3a
 8639 00d8 0B       		.uleb128 0xb
 8640 00d9 3B       		.uleb128 0x3b
 8641 00da 05       		.uleb128 0x5
 8642 00db 49       		.uleb128 0x49
 8643 00dc 13       		.uleb128 0x13
 8644 00dd 1C       		.uleb128 0x1c
 8645 00de 0B       		.uleb128 0xb
 8646 00df 00       		.byte	0
 8647 00e0 00       		.byte	0
 8648 00e1 11       		.uleb128 0x11
 8649 00e2 2E       		.uleb128 0x2e
 8650 00e3 01       		.byte	0x1
 8651 00e4 3F       		.uleb128 0x3f
 8652 00e5 19       		.uleb128 0x19
 8653 00e6 03       		.uleb128 0x3
 8654 00e7 0E       		.uleb128 0xe
 8655 00e8 3A       		.uleb128 0x3a
 8656 00e9 0B       		.uleb128 0xb
 8657 00ea 3B       		.uleb128 0x3b
 8658 00eb 05       		.uleb128 0x5
 8659 00ec 11       		.uleb128 0x11
 8660 00ed 01       		.uleb128 0x1
 8661 00ee 12       		.uleb128 0x12
 8662 00ef 06       		.uleb128 0x6
 8663 00f0 40       		.uleb128 0x40
 8664 00f1 18       		.uleb128 0x18
 8665 00f2 9742     		.uleb128 0x2117
 8666 00f4 19       		.uleb128 0x19
 8667 00f5 01       		.uleb128 0x1
 8668 00f6 13       		.uleb128 0x13
 8669 00f7 00       		.byte	0
 8670 00f8 00       		.byte	0
 8671 00f9 12       		.uleb128 0x12
 8672 00fa 2E       		.uleb128 0x2e
 8673 00fb 01       		.byte	0x1
 8674 00fc 3F       		.uleb128 0x3f
 8675 00fd 19       		.uleb128 0x19
 8676 00fe 03       		.uleb128 0x3
 8677 00ff 0E       		.uleb128 0xe
 8678 0100 3A       		.uleb128 0x3a
ARM GAS  D:\Windows\AppData\Local\Temp\cc9YXq6z.s 			page 177


 8679 0101 0B       		.uleb128 0xb
 8680 0102 3B       		.uleb128 0x3b
 8681 0103 0B       		.uleb128 0xb
 8682 0104 27       		.uleb128 0x27
 8683 0105 19       		.uleb128 0x19
 8684 0106 11       		.uleb128 0x11
 8685 0107 01       		.uleb128 0x1
 8686 0108 12       		.uleb128 0x12
 8687 0109 06       		.uleb128 0x6
 8688 010a 40       		.uleb128 0x40
 8689 010b 18       		.uleb128 0x18
 8690 010c 9742     		.uleb128 0x2117
 8691 010e 19       		.uleb128 0x19
 8692 010f 01       		.uleb128 0x1
 8693 0110 13       		.uleb128 0x13
 8694 0111 00       		.byte	0
 8695 0112 00       		.byte	0
 8696 0113 13       		.uleb128 0x13
 8697 0114 05       		.uleb128 0x5
 8698 0115 00       		.byte	0
 8699 0116 03       		.uleb128 0x3
 8700 0117 0E       		.uleb128 0xe
 8701 0118 3A       		.uleb128 0x3a
 8702 0119 0B       		.uleb128 0xb
 8703 011a 3B       		.uleb128 0x3b
 8704 011b 0B       		.uleb128 0xb
 8705 011c 49       		.uleb128 0x49
 8706 011d 13       		.uleb128 0x13
 8707 011e 02       		.uleb128 0x2
 8708 011f 17       		.uleb128 0x17
 8709 0120 00       		.byte	0
 8710 0121 00       		.byte	0
 8711 0122 14       		.uleb128 0x14
 8712 0123 34       		.uleb128 0x34
 8713 0124 00       		.byte	0
 8714 0125 03       		.uleb128 0x3
 8715 0126 0E       		.uleb128 0xe
 8716 0127 3A       		.uleb128 0x3a
 8717 0128 0B       		.uleb128 0xb
 8718 0129 3B       		.uleb128 0x3b
 8719 012a 0B       		.uleb128 0xb
 8720 012b 49       		.uleb128 0x49
 8721 012c 13       		.uleb128 0x13
 8722 012d 02       		.uleb128 0x2
 8723 012e 17       		.uleb128 0x17
 8724 012f 00       		.byte	0
 8725 0130 00       		.byte	0
 8726 0131 15       		.uleb128 0x15
 8727 0132 34       		.uleb128 0x34
 8728 0133 00       		.byte	0
 8729 0134 03       		.uleb128 0x3
 8730 0135 08       		.uleb128 0x8
 8731 0136 3A       		.uleb128 0x3a
 8732 0137 0B       		.uleb128 0xb
 8733 0138 3B       		.uleb128 0x3b
 8734 0139 0B       		.uleb128 0xb
 8735 013a 49       		.uleb128 0x49
ARM GAS  D:\Windows\AppData\Local\Temp\cc9YXq6z.s 			page 178


 8736 013b 13       		.uleb128 0x13
 8737 013c 02       		.uleb128 0x2
 8738 013d 17       		.uleb128 0x17
 8739 013e 00       		.byte	0
 8740 013f 00       		.byte	0
 8741 0140 16       		.uleb128 0x16
 8742 0141 2E       		.uleb128 0x2e
 8743 0142 01       		.byte	0x1
 8744 0143 3F       		.uleb128 0x3f
 8745 0144 19       		.uleb128 0x19
 8746 0145 03       		.uleb128 0x3
 8747 0146 0E       		.uleb128 0xe
 8748 0147 3A       		.uleb128 0x3a
 8749 0148 0B       		.uleb128 0xb
 8750 0149 3B       		.uleb128 0x3b
 8751 014a 05       		.uleb128 0x5
 8752 014b 27       		.uleb128 0x27
 8753 014c 19       		.uleb128 0x19
 8754 014d 49       		.uleb128 0x49
 8755 014e 13       		.uleb128 0x13
 8756 014f 11       		.uleb128 0x11
 8757 0150 01       		.uleb128 0x1
 8758 0151 12       		.uleb128 0x12
 8759 0152 06       		.uleb128 0x6
 8760 0153 40       		.uleb128 0x40
 8761 0154 18       		.uleb128 0x18
 8762 0155 9742     		.uleb128 0x2117
 8763 0157 19       		.uleb128 0x19
 8764 0158 01       		.uleb128 0x1
 8765 0159 13       		.uleb128 0x13
 8766 015a 00       		.byte	0
 8767 015b 00       		.byte	0
 8768 015c 17       		.uleb128 0x17
 8769 015d 05       		.uleb128 0x5
 8770 015e 00       		.byte	0
 8771 015f 03       		.uleb128 0x3
 8772 0160 08       		.uleb128 0x8
 8773 0161 3A       		.uleb128 0x3a
 8774 0162 0B       		.uleb128 0xb
 8775 0163 3B       		.uleb128 0x3b
 8776 0164 05       		.uleb128 0x5
 8777 0165 49       		.uleb128 0x49
 8778 0166 13       		.uleb128 0x13
 8779 0167 02       		.uleb128 0x2
 8780 0168 17       		.uleb128 0x17
 8781 0169 00       		.byte	0
 8782 016a 00       		.byte	0
 8783 016b 18       		.uleb128 0x18
 8784 016c 0B       		.uleb128 0xb
 8785 016d 01       		.byte	0x1
 8786 016e 55       		.uleb128 0x55
 8787 016f 17       		.uleb128 0x17
 8788 0170 01       		.uleb128 0x1
 8789 0171 13       		.uleb128 0x13
 8790 0172 00       		.byte	0
 8791 0173 00       		.byte	0
 8792 0174 19       		.uleb128 0x19
ARM GAS  D:\Windows\AppData\Local\Temp\cc9YXq6z.s 			page 179


 8793 0175 34       		.uleb128 0x34
 8794 0176 00       		.byte	0
 8795 0177 03       		.uleb128 0x3
 8796 0178 08       		.uleb128 0x8
 8797 0179 3A       		.uleb128 0x3a
 8798 017a 0B       		.uleb128 0xb
 8799 017b 3B       		.uleb128 0x3b
 8800 017c 05       		.uleb128 0x5
 8801 017d 49       		.uleb128 0x49
 8802 017e 13       		.uleb128 0x13
 8803 017f 02       		.uleb128 0x2
 8804 0180 17       		.uleb128 0x17
 8805 0181 00       		.byte	0
 8806 0182 00       		.byte	0
 8807 0183 1A       		.uleb128 0x1a
 8808 0184 34       		.uleb128 0x34
 8809 0185 00       		.byte	0
 8810 0186 03       		.uleb128 0x3
 8811 0187 0E       		.uleb128 0xe
 8812 0188 3A       		.uleb128 0x3a
 8813 0189 0B       		.uleb128 0xb
 8814 018a 3B       		.uleb128 0x3b
 8815 018b 05       		.uleb128 0x5
 8816 018c 49       		.uleb128 0x49
 8817 018d 13       		.uleb128 0x13
 8818 018e 02       		.uleb128 0x2
 8819 018f 17       		.uleb128 0x17
 8820 0190 00       		.byte	0
 8821 0191 00       		.byte	0
 8822 0192 1B       		.uleb128 0x1b
 8823 0193 34       		.uleb128 0x34
 8824 0194 00       		.byte	0
 8825 0195 03       		.uleb128 0x3
 8826 0196 0E       		.uleb128 0xe
 8827 0197 3A       		.uleb128 0x3a
 8828 0198 0B       		.uleb128 0xb
 8829 0199 3B       		.uleb128 0x3b
 8830 019a 05       		.uleb128 0x5
 8831 019b 49       		.uleb128 0x49
 8832 019c 13       		.uleb128 0x13
 8833 019d 3F       		.uleb128 0x3f
 8834 019e 19       		.uleb128 0x19
 8835 019f 3C       		.uleb128 0x3c
 8836 01a0 19       		.uleb128 0x19
 8837 01a1 00       		.byte	0
 8838 01a2 00       		.byte	0
 8839 01a3 1C       		.uleb128 0x1c
 8840 01a4 35       		.uleb128 0x35
 8841 01a5 00       		.byte	0
 8842 01a6 49       		.uleb128 0x49
 8843 01a7 13       		.uleb128 0x13
 8844 01a8 00       		.byte	0
 8845 01a9 00       		.byte	0
 8846 01aa 1D       		.uleb128 0x1d
 8847 01ab 34       		.uleb128 0x34
 8848 01ac 00       		.byte	0
 8849 01ad 03       		.uleb128 0x3
ARM GAS  D:\Windows\AppData\Local\Temp\cc9YXq6z.s 			page 180


 8850 01ae 0E       		.uleb128 0xe
 8851 01af 3A       		.uleb128 0x3a
 8852 01b0 0B       		.uleb128 0xb
 8853 01b1 3B       		.uleb128 0x3b
 8854 01b2 0B       		.uleb128 0xb
 8855 01b3 49       		.uleb128 0x49
 8856 01b4 13       		.uleb128 0x13
 8857 01b5 3F       		.uleb128 0x3f
 8858 01b6 19       		.uleb128 0x19
 8859 01b7 02       		.uleb128 0x2
 8860 01b8 18       		.uleb128 0x18
 8861 01b9 00       		.byte	0
 8862 01ba 00       		.byte	0
 8863 01bb 1E       		.uleb128 0x1e
 8864 01bc 01       		.uleb128 0x1
 8865 01bd 01       		.byte	0x1
 8866 01be 49       		.uleb128 0x49
 8867 01bf 13       		.uleb128 0x13
 8868 01c0 01       		.uleb128 0x1
 8869 01c1 13       		.uleb128 0x13
 8870 01c2 00       		.byte	0
 8871 01c3 00       		.byte	0
 8872 01c4 1F       		.uleb128 0x1f
 8873 01c5 21       		.uleb128 0x21
 8874 01c6 00       		.byte	0
 8875 01c7 49       		.uleb128 0x49
 8876 01c8 13       		.uleb128 0x13
 8877 01c9 2F       		.uleb128 0x2f
 8878 01ca 0B       		.uleb128 0xb
 8879 01cb 00       		.byte	0
 8880 01cc 00       		.byte	0
 8881 01cd 20       		.uleb128 0x20
 8882 01ce 2E       		.uleb128 0x2e
 8883 01cf 01       		.byte	0x1
 8884 01d0 3F       		.uleb128 0x3f
 8885 01d1 19       		.uleb128 0x19
 8886 01d2 03       		.uleb128 0x3
 8887 01d3 0E       		.uleb128 0xe
 8888 01d4 3A       		.uleb128 0x3a
 8889 01d5 0B       		.uleb128 0xb
 8890 01d6 3B       		.uleb128 0x3b
 8891 01d7 0B       		.uleb128 0xb
 8892 01d8 27       		.uleb128 0x27
 8893 01d9 19       		.uleb128 0x19
 8894 01da 49       		.uleb128 0x49
 8895 01db 13       		.uleb128 0x13
 8896 01dc 3C       		.uleb128 0x3c
 8897 01dd 19       		.uleb128 0x19
 8898 01de 01       		.uleb128 0x1
 8899 01df 13       		.uleb128 0x13
 8900 01e0 00       		.byte	0
 8901 01e1 00       		.byte	0
 8902 01e2 21       		.uleb128 0x21
 8903 01e3 05       		.uleb128 0x5
 8904 01e4 00       		.byte	0
 8905 01e5 49       		.uleb128 0x49
 8906 01e6 13       		.uleb128 0x13
ARM GAS  D:\Windows\AppData\Local\Temp\cc9YXq6z.s 			page 181


 8907 01e7 00       		.byte	0
 8908 01e8 00       		.byte	0
 8909 01e9 22       		.uleb128 0x22
 8910 01ea 2E       		.uleb128 0x2e
 8911 01eb 00       		.byte	0
 8912 01ec 3F       		.uleb128 0x3f
 8913 01ed 19       		.uleb128 0x19
 8914 01ee 03       		.uleb128 0x3
 8915 01ef 0E       		.uleb128 0xe
 8916 01f0 3A       		.uleb128 0x3a
 8917 01f1 0B       		.uleb128 0xb
 8918 01f2 3B       		.uleb128 0x3b
 8919 01f3 0B       		.uleb128 0xb
 8920 01f4 27       		.uleb128 0x27
 8921 01f5 19       		.uleb128 0x19
 8922 01f6 49       		.uleb128 0x49
 8923 01f7 13       		.uleb128 0x13
 8924 01f8 3C       		.uleb128 0x3c
 8925 01f9 19       		.uleb128 0x19
 8926 01fa 00       		.byte	0
 8927 01fb 00       		.byte	0
 8928 01fc 23       		.uleb128 0x23
 8929 01fd 2E       		.uleb128 0x2e
 8930 01fe 00       		.byte	0
 8931 01ff 3F       		.uleb128 0x3f
 8932 0200 19       		.uleb128 0x19
 8933 0201 03       		.uleb128 0x3
 8934 0202 0E       		.uleb128 0xe
 8935 0203 3A       		.uleb128 0x3a
 8936 0204 0B       		.uleb128 0xb
 8937 0205 3B       		.uleb128 0x3b
 8938 0206 0B       		.uleb128 0xb
 8939 0207 27       		.uleb128 0x27
 8940 0208 19       		.uleb128 0x19
 8941 0209 3C       		.uleb128 0x3c
 8942 020a 19       		.uleb128 0x19
 8943 020b 00       		.byte	0
 8944 020c 00       		.byte	0
 8945 020d 24       		.uleb128 0x24
 8946 020e 2E       		.uleb128 0x2e
 8947 020f 01       		.byte	0x1
 8948 0210 3F       		.uleb128 0x3f
 8949 0211 19       		.uleb128 0x19
 8950 0212 03       		.uleb128 0x3
 8951 0213 0E       		.uleb128 0xe
 8952 0214 3A       		.uleb128 0x3a
 8953 0215 0B       		.uleb128 0xb
 8954 0216 3B       		.uleb128 0x3b
 8955 0217 0B       		.uleb128 0xb
 8956 0218 27       		.uleb128 0x27
 8957 0219 19       		.uleb128 0x19
 8958 021a 3C       		.uleb128 0x3c
 8959 021b 19       		.uleb128 0x19
 8960 021c 01       		.uleb128 0x1
 8961 021d 13       		.uleb128 0x13
 8962 021e 00       		.byte	0
 8963 021f 00       		.byte	0
ARM GAS  D:\Windows\AppData\Local\Temp\cc9YXq6z.s 			page 182


 8964 0220 25       		.uleb128 0x25
 8965 0221 2E       		.uleb128 0x2e
 8966 0222 01       		.byte	0x1
 8967 0223 3F       		.uleb128 0x3f
 8968 0224 19       		.uleb128 0x19
 8969 0225 03       		.uleb128 0x3
 8970 0226 0E       		.uleb128 0xe
 8971 0227 3A       		.uleb128 0x3a
 8972 0228 0B       		.uleb128 0xb
 8973 0229 3B       		.uleb128 0x3b
 8974 022a 0B       		.uleb128 0xb
 8975 022b 27       		.uleb128 0x27
 8976 022c 19       		.uleb128 0x19
 8977 022d 3C       		.uleb128 0x3c
 8978 022e 19       		.uleb128 0x19
 8979 022f 00       		.byte	0
 8980 0230 00       		.byte	0
 8981 0231 00       		.byte	0
 8982              		.section	.debug_loc,"",%progbits
 8983              	.Ldebug_loc0:
 8984              	.LLST0:
 8985 0000 00000000 		.4byte	.LVL0
 8986 0004 06000000 		.4byte	.LVL2
 8987 0008 0100     		.2byte	0x1
 8988 000a 50       		.byte	0x50
 8989 000b 06000000 		.4byte	.LVL2
 8990 000f 4E000000 		.4byte	.LFE75
 8991 0013 0100     		.2byte	0x1
 8992 0015 54       		.byte	0x54
 8993 0016 00000000 		.4byte	0
 8994 001a 00000000 		.4byte	0
 8995              	.LLST1:
 8996 001e 00000000 		.4byte	.LVL14
 8997 0022 06000000 		.4byte	.LVL16
 8998 0026 0100     		.2byte	0x1
 8999 0028 50       		.byte	0x50
 9000 0029 06000000 		.4byte	.LVL16
 9001 002d 4E000000 		.4byte	.LFE76
 9002 0031 0100     		.2byte	0x1
 9003 0033 54       		.byte	0x54
 9004 0034 00000000 		.4byte	0
 9005 0038 00000000 		.4byte	0
 9006              	.LLST2:
 9007 003c 00000000 		.4byte	.LVL72
 9008 0040 1E000000 		.4byte	.LVL74
 9009 0044 0100     		.2byte	0x1
 9010 0046 50       		.byte	0x50
 9011 0047 1E000000 		.4byte	.LVL74
 9012 004b 3C000000 		.4byte	.LFE78
 9013 004f 0400     		.2byte	0x4
 9014 0051 F3       		.byte	0xf3
 9015 0052 01       		.uleb128 0x1
 9016 0053 50       		.byte	0x50
 9017 0054 9F       		.byte	0x9f
 9018 0055 00000000 		.4byte	0
 9019 0059 00000000 		.4byte	0
 9020              	.LLST3:
ARM GAS  D:\Windows\AppData\Local\Temp\cc9YXq6z.s 			page 183


 9021 005d 00000000 		.4byte	.LVL79
 9022 0061 1E000000 		.4byte	.LVL81
 9023 0065 0100     		.2byte	0x1
 9024 0067 50       		.byte	0x50
 9025 0068 1E000000 		.4byte	.LVL81
 9026 006c 3C000000 		.4byte	.LFE79
 9027 0070 0400     		.2byte	0x4
 9028 0072 F3       		.byte	0xf3
 9029 0073 01       		.uleb128 0x1
 9030 0074 50       		.byte	0x50
 9031 0075 9F       		.byte	0x9f
 9032 0076 00000000 		.4byte	0
 9033 007a 00000000 		.4byte	0
 9034              	.LLST4:
 9035 007e 00000000 		.4byte	.LVL86
 9036 0082 1E000000 		.4byte	.LVL88
 9037 0086 0100     		.2byte	0x1
 9038 0088 50       		.byte	0x50
 9039 0089 1E000000 		.4byte	.LVL88
 9040 008d 3C000000 		.4byte	.LFE80
 9041 0091 0400     		.2byte	0x4
 9042 0093 F3       		.byte	0xf3
 9043 0094 01       		.uleb128 0x1
 9044 0095 50       		.byte	0x50
 9045 0096 9F       		.byte	0x9f
 9046 0097 00000000 		.4byte	0
 9047 009b 00000000 		.4byte	0
 9048              	.LLST5:
 9049 009f 00000000 		.4byte	.LVL93
 9050 00a3 1E000000 		.4byte	.LVL95
 9051 00a7 0100     		.2byte	0x1
 9052 00a9 50       		.byte	0x50
 9053 00aa 1E000000 		.4byte	.LVL95
 9054 00ae 3C000000 		.4byte	.LFE81
 9055 00b2 0400     		.2byte	0x4
 9056 00b4 F3       		.byte	0xf3
 9057 00b5 01       		.uleb128 0x1
 9058 00b6 50       		.byte	0x50
 9059 00b7 9F       		.byte	0x9f
 9060 00b8 00000000 		.4byte	0
 9061 00bc 00000000 		.4byte	0
 9062              	.LLST6:
 9063 00c0 00000000 		.4byte	.LVL100
 9064 00c4 1E000000 		.4byte	.LVL102
 9065 00c8 0100     		.2byte	0x1
 9066 00ca 50       		.byte	0x50
 9067 00cb 1E000000 		.4byte	.LVL102
 9068 00cf 3C000000 		.4byte	.LFE82
 9069 00d3 0400     		.2byte	0x4
 9070 00d5 F3       		.byte	0xf3
 9071 00d6 01       		.uleb128 0x1
 9072 00d7 50       		.byte	0x50
 9073 00d8 9F       		.byte	0x9f
 9074 00d9 00000000 		.4byte	0
 9075 00dd 00000000 		.4byte	0
 9076              	.LLST7:
 9077 00e1 00000000 		.4byte	.LVL107
ARM GAS  D:\Windows\AppData\Local\Temp\cc9YXq6z.s 			page 184


 9078 00e5 1E000000 		.4byte	.LVL109
 9079 00e9 0100     		.2byte	0x1
 9080 00eb 50       		.byte	0x50
 9081 00ec 1E000000 		.4byte	.LVL109
 9082 00f0 3C000000 		.4byte	.LFE83
 9083 00f4 0400     		.2byte	0x4
 9084 00f6 F3       		.byte	0xf3
 9085 00f7 01       		.uleb128 0x1
 9086 00f8 50       		.byte	0x50
 9087 00f9 9F       		.byte	0x9f
 9088 00fa 00000000 		.4byte	0
 9089 00fe 00000000 		.4byte	0
 9090              	.LLST8:
 9091 0102 00000000 		.4byte	.LVL114
 9092 0106 1E000000 		.4byte	.LVL116
 9093 010a 0100     		.2byte	0x1
 9094 010c 50       		.byte	0x50
 9095 010d 1E000000 		.4byte	.LVL116
 9096 0111 3C000000 		.4byte	.LFE84
 9097 0115 0400     		.2byte	0x4
 9098 0117 F3       		.byte	0xf3
 9099 0118 01       		.uleb128 0x1
 9100 0119 50       		.byte	0x50
 9101 011a 9F       		.byte	0x9f
 9102 011b 00000000 		.4byte	0
 9103 011f 00000000 		.4byte	0
 9104              	.LLST9:
 9105 0123 00000000 		.4byte	.LVL121
 9106 0127 1E000000 		.4byte	.LVL123
 9107 012b 0100     		.2byte	0x1
 9108 012d 50       		.byte	0x50
 9109 012e 1E000000 		.4byte	.LVL123
 9110 0132 3C000000 		.4byte	.LFE85
 9111 0136 0400     		.2byte	0x4
 9112 0138 F3       		.byte	0xf3
 9113 0139 01       		.uleb128 0x1
 9114 013a 50       		.byte	0x50
 9115 013b 9F       		.byte	0x9f
 9116 013c 00000000 		.4byte	0
 9117 0140 00000000 		.4byte	0
 9118              	.LLST10:
 9119 0144 00000000 		.4byte	.LVL128
 9120 0148 1E000000 		.4byte	.LVL130
 9121 014c 0100     		.2byte	0x1
 9122 014e 50       		.byte	0x50
 9123 014f 1E000000 		.4byte	.LVL130
 9124 0153 3C000000 		.4byte	.LFE86
 9125 0157 0400     		.2byte	0x4
 9126 0159 F3       		.byte	0xf3
 9127 015a 01       		.uleb128 0x1
 9128 015b 50       		.byte	0x50
 9129 015c 9F       		.byte	0x9f
 9130 015d 00000000 		.4byte	0
 9131 0161 00000000 		.4byte	0
 9132              	.LLST11:
 9133 0165 00000000 		.4byte	.LVL135
 9134 0169 1E000000 		.4byte	.LVL137
ARM GAS  D:\Windows\AppData\Local\Temp\cc9YXq6z.s 			page 185


 9135 016d 0100     		.2byte	0x1
 9136 016f 50       		.byte	0x50
 9137 0170 1E000000 		.4byte	.LVL137
 9138 0174 3C000000 		.4byte	.LFE87
 9139 0178 0400     		.2byte	0x4
 9140 017a F3       		.byte	0xf3
 9141 017b 01       		.uleb128 0x1
 9142 017c 50       		.byte	0x50
 9143 017d 9F       		.byte	0x9f
 9144 017e 00000000 		.4byte	0
 9145 0182 00000000 		.4byte	0
 9146              	.LLST12:
 9147 0186 00000000 		.4byte	.LVL142
 9148 018a 1E000000 		.4byte	.LVL144
 9149 018e 0100     		.2byte	0x1
 9150 0190 50       		.byte	0x50
 9151 0191 1E000000 		.4byte	.LVL144
 9152 0195 3C000000 		.4byte	.LFE88
 9153 0199 0400     		.2byte	0x4
 9154 019b F3       		.byte	0xf3
 9155 019c 01       		.uleb128 0x1
 9156 019d 50       		.byte	0x50
 9157 019e 9F       		.byte	0x9f
 9158 019f 00000000 		.4byte	0
 9159 01a3 00000000 		.4byte	0
 9160              	.LLST13:
 9161 01a7 00000000 		.4byte	.LVL149
 9162 01ab 1E000000 		.4byte	.LVL151
 9163 01af 0100     		.2byte	0x1
 9164 01b1 50       		.byte	0x50
 9165 01b2 1E000000 		.4byte	.LVL151
 9166 01b6 3C000000 		.4byte	.LFE89
 9167 01ba 0400     		.2byte	0x4
 9168 01bc F3       		.byte	0xf3
 9169 01bd 01       		.uleb128 0x1
 9170 01be 50       		.byte	0x50
 9171 01bf 9F       		.byte	0x9f
 9172 01c0 00000000 		.4byte	0
 9173 01c4 00000000 		.4byte	0
 9174              	.LLST14:
 9175 01c8 00000000 		.4byte	.LVL156
 9176 01cc 1E000000 		.4byte	.LVL158
 9177 01d0 0100     		.2byte	0x1
 9178 01d2 50       		.byte	0x50
 9179 01d3 1E000000 		.4byte	.LVL158
 9180 01d7 3C000000 		.4byte	.LFE90
 9181 01db 0400     		.2byte	0x4
 9182 01dd F3       		.byte	0xf3
 9183 01de 01       		.uleb128 0x1
 9184 01df 50       		.byte	0x50
 9185 01e0 9F       		.byte	0x9f
 9186 01e1 00000000 		.4byte	0
 9187 01e5 00000000 		.4byte	0
 9188              	.LLST15:
 9189 01e9 00000000 		.4byte	.LVL163
 9190 01ed 1E000000 		.4byte	.LVL165
 9191 01f1 0100     		.2byte	0x1
ARM GAS  D:\Windows\AppData\Local\Temp\cc9YXq6z.s 			page 186


 9192 01f3 50       		.byte	0x50
 9193 01f4 1E000000 		.4byte	.LVL165
 9194 01f8 3C000000 		.4byte	.LFE91
 9195 01fc 0400     		.2byte	0x4
 9196 01fe F3       		.byte	0xf3
 9197 01ff 01       		.uleb128 0x1
 9198 0200 50       		.byte	0x50
 9199 0201 9F       		.byte	0x9f
 9200 0202 00000000 		.4byte	0
 9201 0206 00000000 		.4byte	0
 9202              	.LLST16:
 9203 020a 00000000 		.4byte	.LVL170
 9204 020e 1E000000 		.4byte	.LVL172
 9205 0212 0100     		.2byte	0x1
 9206 0214 50       		.byte	0x50
 9207 0215 1E000000 		.4byte	.LVL172
 9208 0219 3C000000 		.4byte	.LFE92
 9209 021d 0400     		.2byte	0x4
 9210 021f F3       		.byte	0xf3
 9211 0220 01       		.uleb128 0x1
 9212 0221 50       		.byte	0x50
 9213 0222 9F       		.byte	0x9f
 9214 0223 00000000 		.4byte	0
 9215 0227 00000000 		.4byte	0
 9216              	.LLST17:
 9217 022b 00000000 		.4byte	.LVL177
 9218 022f 1E000000 		.4byte	.LVL179
 9219 0233 0100     		.2byte	0x1
 9220 0235 50       		.byte	0x50
 9221 0236 1E000000 		.4byte	.LVL179
 9222 023a 3C000000 		.4byte	.LFE93
 9223 023e 0400     		.2byte	0x4
 9224 0240 F3       		.byte	0xf3
 9225 0241 01       		.uleb128 0x1
 9226 0242 50       		.byte	0x50
 9227 0243 9F       		.byte	0x9f
 9228 0244 00000000 		.4byte	0
 9229 0248 00000000 		.4byte	0
 9230              	.LLST18:
 9231 024c 00000000 		.4byte	.LVL184
 9232 0250 1E000000 		.4byte	.LVL186
 9233 0254 0100     		.2byte	0x1
 9234 0256 50       		.byte	0x50
 9235 0257 1E000000 		.4byte	.LVL186
 9236 025b 3C000000 		.4byte	.LFE94
 9237 025f 0400     		.2byte	0x4
 9238 0261 F3       		.byte	0xf3
 9239 0262 01       		.uleb128 0x1
 9240 0263 50       		.byte	0x50
 9241 0264 9F       		.byte	0x9f
 9242 0265 00000000 		.4byte	0
 9243 0269 00000000 		.4byte	0
 9244              	.LLST19:
 9245 026d 00000000 		.4byte	.LVL191
 9246 0271 1E000000 		.4byte	.LVL193
 9247 0275 0100     		.2byte	0x1
 9248 0277 50       		.byte	0x50
ARM GAS  D:\Windows\AppData\Local\Temp\cc9YXq6z.s 			page 187


 9249 0278 1E000000 		.4byte	.LVL193
 9250 027c 3C000000 		.4byte	.LFE95
 9251 0280 0400     		.2byte	0x4
 9252 0282 F3       		.byte	0xf3
 9253 0283 01       		.uleb128 0x1
 9254 0284 50       		.byte	0x50
 9255 0285 9F       		.byte	0x9f
 9256 0286 00000000 		.4byte	0
 9257 028a 00000000 		.4byte	0
 9258              	.LLST20:
 9259 028e 00000000 		.4byte	.LVL198
 9260 0292 1E000000 		.4byte	.LVL200
 9261 0296 0100     		.2byte	0x1
 9262 0298 50       		.byte	0x50
 9263 0299 1E000000 		.4byte	.LVL200
 9264 029d 3C000000 		.4byte	.LFE96
 9265 02a1 0400     		.2byte	0x4
 9266 02a3 F3       		.byte	0xf3
 9267 02a4 01       		.uleb128 0x1
 9268 02a5 50       		.byte	0x50
 9269 02a6 9F       		.byte	0x9f
 9270 02a7 00000000 		.4byte	0
 9271 02ab 00000000 		.4byte	0
 9272              	.LLST21:
 9273 02af 00000000 		.4byte	.LVL213
 9274 02b3 1E000000 		.4byte	.LVL215
 9275 02b7 0100     		.2byte	0x1
 9276 02b9 50       		.byte	0x50
 9277 02ba 1E000000 		.4byte	.LVL215
 9278 02be 3C000000 		.4byte	.LFE97
 9279 02c2 0400     		.2byte	0x4
 9280 02c4 F3       		.byte	0xf3
 9281 02c5 01       		.uleb128 0x1
 9282 02c6 50       		.byte	0x50
 9283 02c7 9F       		.byte	0x9f
 9284 02c8 00000000 		.4byte	0
 9285 02cc 00000000 		.4byte	0
 9286              	.LLST22:
 9287 02d0 00000000 		.4byte	.LVL220
 9288 02d4 1E000000 		.4byte	.LVL222
 9289 02d8 0100     		.2byte	0x1
 9290 02da 50       		.byte	0x50
 9291 02db 1E000000 		.4byte	.LVL222
 9292 02df 3C000000 		.4byte	.LFE98
 9293 02e3 0400     		.2byte	0x4
 9294 02e5 F3       		.byte	0xf3
 9295 02e6 01       		.uleb128 0x1
 9296 02e7 50       		.byte	0x50
 9297 02e8 9F       		.byte	0x9f
 9298 02e9 00000000 		.4byte	0
 9299 02ed 00000000 		.4byte	0
 9300              	.LLST23:
 9301 02f1 00000000 		.4byte	.LVL227
 9302 02f5 1E000000 		.4byte	.LVL229
 9303 02f9 0100     		.2byte	0x1
 9304 02fb 50       		.byte	0x50
 9305 02fc 1E000000 		.4byte	.LVL229
ARM GAS  D:\Windows\AppData\Local\Temp\cc9YXq6z.s 			page 188


 9306 0300 3C000000 		.4byte	.LFE99
 9307 0304 0400     		.2byte	0x4
 9308 0306 F3       		.byte	0xf3
 9309 0307 01       		.uleb128 0x1
 9310 0308 50       		.byte	0x50
 9311 0309 9F       		.byte	0x9f
 9312 030a 00000000 		.4byte	0
 9313 030e 00000000 		.4byte	0
 9314              	.LLST24:
 9315 0312 00000000 		.4byte	.LVL234
 9316 0316 EA000000 		.4byte	.LVL275
 9317 031a 0100     		.2byte	0x1
 9318 031c 50       		.byte	0x50
 9319 031d EA000000 		.4byte	.LVL275
 9320 0321 A0010000 		.4byte	.LFE68
 9321 0325 0400     		.2byte	0x4
 9322 0327 F3       		.byte	0xf3
 9323 0328 01       		.uleb128 0x1
 9324 0329 50       		.byte	0x50
 9325 032a 9F       		.byte	0x9f
 9326 032b 00000000 		.4byte	0
 9327 032f 00000000 		.4byte	0
 9328              	.LLST25:
 9329 0333 08000000 		.4byte	.LVL235
 9330 0337 94000000 		.4byte	.LVL236
 9331 033b 0100     		.2byte	0x1
 9332 033d 53       		.byte	0x53
 9333 033e 94000000 		.4byte	.LVL236
 9334 0342 9A000000 		.4byte	.LVL237
 9335 0346 0400     		.2byte	0x4
 9336 0348 73       		.byte	0x73
 9337 0349 DB00     		.sleb128 91
 9338 034b 9F       		.byte	0x9f
 9339 034c 9A000000 		.4byte	.LVL237
 9340 0350 9C000000 		.4byte	.LVL238
 9341 0354 0400     		.2byte	0x4
 9342 0356 72       		.byte	0x72
 9343 0357 D600     		.sleb128 86
 9344 0359 9F       		.byte	0x9f
 9345 035a 9C000000 		.4byte	.LVL238
 9346 035e 9E000000 		.4byte	.LVL239
 9347 0362 0100     		.2byte	0x1
 9348 0364 53       		.byte	0x53
 9349 0365 9E000000 		.4byte	.LVL239
 9350 0369 A0000000 		.4byte	.LVL240
 9351 036d 1800     		.2byte	0x18
 9352 036f 70       		.byte	0x70
 9353 0370 00       		.sleb128 0
 9354 0371 F7       		.byte	0xf7
 9355 0372 2C       		.uleb128 0x2c
 9356 0373 F7       		.byte	0xf7
 9357 0374 25       		.uleb128 0x25
 9358 0375 0C       		.byte	0xc
 9359 0376 F1197605 		.4byte	0x57619f1
 9360 037a F7       		.byte	0xf7
 9361 037b 25       		.uleb128 0x25
 9362 037c 1E       		.byte	0x1e
ARM GAS  D:\Windows\AppData\Local\Temp\cc9YXq6z.s 			page 189


 9363 037d 08       		.byte	0x8
 9364 037e 20       		.byte	0x20
 9365 037f F7       		.byte	0xf7
 9366 0380 25       		.uleb128 0x25
 9367 0381 25       		.byte	0x25
 9368 0382 F7       		.byte	0xf7
 9369 0383 2C       		.uleb128 0x2c
 9370 0384 37       		.byte	0x37
 9371 0385 25       		.byte	0x25
 9372 0386 9F       		.byte	0x9f
 9373 0387 A0000000 		.4byte	.LVL240
 9374 038b A2000000 		.4byte	.LVL241
 9375 038f 0100     		.2byte	0x1
 9376 0391 53       		.byte	0x53
 9377 0392 A2000000 		.4byte	.LVL241
 9378 0396 A4000000 		.4byte	.LVL242
 9379 039a 0300     		.2byte	0x3
 9380 039c 72       		.byte	0x72
 9381 039d 06       		.sleb128 6
 9382 039e 9F       		.byte	0x9f
 9383 039f A4000000 		.4byte	.LVL242
 9384 03a3 A6000000 		.4byte	.LVL243
 9385 03a7 0100     		.2byte	0x1
 9386 03a9 53       		.byte	0x53
 9387 03aa A6000000 		.4byte	.LVL243
 9388 03ae A8000000 		.4byte	.LVL244
 9389 03b2 0300     		.2byte	0x3
 9390 03b4 72       		.byte	0x72
 9391 03b5 0B       		.sleb128 11
 9392 03b6 9F       		.byte	0x9f
 9393 03b7 A8000000 		.4byte	.LVL244
 9394 03bb AA000000 		.4byte	.LVL245
 9395 03bf 0100     		.2byte	0x1
 9396 03c1 53       		.byte	0x53
 9397 03c2 AA000000 		.4byte	.LVL245
 9398 03c6 AC000000 		.4byte	.LVL246
 9399 03ca 0300     		.2byte	0x3
 9400 03cc 72       		.byte	0x72
 9401 03cd 10       		.sleb128 16
 9402 03ce 9F       		.byte	0x9f
 9403 03cf AC000000 		.4byte	.LVL246
 9404 03d3 AE000000 		.4byte	.LVL247
 9405 03d7 0100     		.2byte	0x1
 9406 03d9 53       		.byte	0x53
 9407 03da AE000000 		.4byte	.LVL247
 9408 03de B0000000 		.4byte	.LVL248
 9409 03e2 0300     		.2byte	0x3
 9410 03e4 72       		.byte	0x72
 9411 03e5 15       		.sleb128 21
 9412 03e6 9F       		.byte	0x9f
 9413 03e7 B0000000 		.4byte	.LVL248
 9414 03eb B2000000 		.4byte	.LVL249
 9415 03ef 0100     		.2byte	0x1
 9416 03f1 53       		.byte	0x53
 9417 03f2 B2000000 		.4byte	.LVL249
 9418 03f6 B4000000 		.4byte	.LVL250
 9419 03fa 0300     		.2byte	0x3
ARM GAS  D:\Windows\AppData\Local\Temp\cc9YXq6z.s 			page 190


 9420 03fc 72       		.byte	0x72
 9421 03fd 1A       		.sleb128 26
 9422 03fe 9F       		.byte	0x9f
 9423 03ff B4000000 		.4byte	.LVL250
 9424 0403 B6000000 		.4byte	.LVL251
 9425 0407 0100     		.2byte	0x1
 9426 0409 53       		.byte	0x53
 9427 040a B6000000 		.4byte	.LVL251
 9428 040e B8000000 		.4byte	.LVL252
 9429 0412 0300     		.2byte	0x3
 9430 0414 72       		.byte	0x72
 9431 0415 1F       		.sleb128 31
 9432 0416 9F       		.byte	0x9f
 9433 0417 B8000000 		.4byte	.LVL252
 9434 041b BA000000 		.4byte	.LVL253
 9435 041f 0100     		.2byte	0x1
 9436 0421 53       		.byte	0x53
 9437 0422 BA000000 		.4byte	.LVL253
 9438 0426 BC000000 		.4byte	.LVL254
 9439 042a 0300     		.2byte	0x3
 9440 042c 72       		.byte	0x72
 9441 042d 24       		.sleb128 36
 9442 042e 9F       		.byte	0x9f
 9443 042f BC000000 		.4byte	.LVL254
 9444 0433 BE000000 		.4byte	.LVL255
 9445 0437 0100     		.2byte	0x1
 9446 0439 53       		.byte	0x53
 9447 043a BE000000 		.4byte	.LVL255
 9448 043e C0000000 		.4byte	.LVL256
 9449 0442 0300     		.2byte	0x3
 9450 0444 72       		.byte	0x72
 9451 0445 29       		.sleb128 41
 9452 0446 9F       		.byte	0x9f
 9453 0447 C0000000 		.4byte	.LVL256
 9454 044b C2000000 		.4byte	.LVL257
 9455 044f 0100     		.2byte	0x1
 9456 0451 53       		.byte	0x53
 9457 0452 C2000000 		.4byte	.LVL257
 9458 0456 C4000000 		.4byte	.LVL258
 9459 045a 0300     		.2byte	0x3
 9460 045c 72       		.byte	0x72
 9461 045d 2E       		.sleb128 46
 9462 045e 9F       		.byte	0x9f
 9463 045f C4000000 		.4byte	.LVL258
 9464 0463 C6000000 		.4byte	.LVL259
 9465 0467 0100     		.2byte	0x1
 9466 0469 53       		.byte	0x53
 9467 046a C6000000 		.4byte	.LVL259
 9468 046e C8000000 		.4byte	.LVL260
 9469 0472 0300     		.2byte	0x3
 9470 0474 72       		.byte	0x72
 9471 0475 33       		.sleb128 51
 9472 0476 9F       		.byte	0x9f
 9473 0477 C8000000 		.4byte	.LVL260
 9474 047b CA000000 		.4byte	.LVL261
 9475 047f 0100     		.2byte	0x1
 9476 0481 53       		.byte	0x53
ARM GAS  D:\Windows\AppData\Local\Temp\cc9YXq6z.s 			page 191


 9477 0482 CA000000 		.4byte	.LVL261
 9478 0486 CC000000 		.4byte	.LVL262
 9479 048a 0300     		.2byte	0x3
 9480 048c 72       		.byte	0x72
 9481 048d 38       		.sleb128 56
 9482 048e 9F       		.byte	0x9f
 9483 048f CC000000 		.4byte	.LVL262
 9484 0493 CE000000 		.4byte	.LVL263
 9485 0497 0100     		.2byte	0x1
 9486 0499 53       		.byte	0x53
 9487 049a CE000000 		.4byte	.LVL263
 9488 049e D0000000 		.4byte	.LVL264
 9489 04a2 0300     		.2byte	0x3
 9490 04a4 72       		.byte	0x72
 9491 04a5 3D       		.sleb128 61
 9492 04a6 9F       		.byte	0x9f
 9493 04a7 D0000000 		.4byte	.LVL264
 9494 04ab D2000000 		.4byte	.LVL265
 9495 04af 0100     		.2byte	0x1
 9496 04b1 53       		.byte	0x53
 9497 04b2 D2000000 		.4byte	.LVL265
 9498 04b6 D4000000 		.4byte	.LVL266
 9499 04ba 0400     		.2byte	0x4
 9500 04bc 72       		.byte	0x72
 9501 04bd C200     		.sleb128 66
 9502 04bf 9F       		.byte	0x9f
 9503 04c0 D4000000 		.4byte	.LVL266
 9504 04c4 D6000000 		.4byte	.LVL267
 9505 04c8 0100     		.2byte	0x1
 9506 04ca 53       		.byte	0x53
 9507 04cb D6000000 		.4byte	.LVL267
 9508 04cf D8000000 		.4byte	.LVL268
 9509 04d3 0400     		.2byte	0x4
 9510 04d5 72       		.byte	0x72
 9511 04d6 C700     		.sleb128 71
 9512 04d8 9F       		.byte	0x9f
 9513 04d9 D8000000 		.4byte	.LVL268
 9514 04dd DA000000 		.4byte	.LVL269
 9515 04e1 0100     		.2byte	0x1
 9516 04e3 53       		.byte	0x53
 9517 04e4 DA000000 		.4byte	.LVL269
 9518 04e8 DC000000 		.4byte	.LVL270
 9519 04ec 0400     		.2byte	0x4
 9520 04ee 72       		.byte	0x72
 9521 04ef CC00     		.sleb128 76
 9522 04f1 9F       		.byte	0x9f
 9523 04f2 DC000000 		.4byte	.LVL270
 9524 04f6 DE000000 		.4byte	.LVL271
 9525 04fa 0100     		.2byte	0x1
 9526 04fc 53       		.byte	0x53
 9527 04fd DE000000 		.4byte	.LVL271
 9528 0501 E0000000 		.4byte	.LVL272
 9529 0505 0400     		.2byte	0x4
 9530 0507 72       		.byte	0x72
 9531 0508 D100     		.sleb128 81
 9532 050a 9F       		.byte	0x9f
 9533 050b E0000000 		.4byte	.LVL272
ARM GAS  D:\Windows\AppData\Local\Temp\cc9YXq6z.s 			page 192


 9534 050f E2000000 		.4byte	.LVL273
 9535 0513 0100     		.2byte	0x1
 9536 0515 53       		.byte	0x53
 9537 0516 E2000000 		.4byte	.LVL273
 9538 051a E6000000 		.4byte	.LVL274
 9539 051e 0400     		.2byte	0x4
 9540 0520 72       		.byte	0x72
 9541 0521 D600     		.sleb128 86
 9542 0523 9F       		.byte	0x9f
 9543 0524 E6000000 		.4byte	.LVL274
 9544 0528 EA000000 		.4byte	.LVL275
 9545 052c 1800     		.2byte	0x18
 9546 052e 70       		.byte	0x70
 9547 052f 00       		.sleb128 0
 9548 0530 F7       		.byte	0xf7
 9549 0531 2C       		.uleb128 0x2c
 9550 0532 F7       		.byte	0xf7
 9551 0533 25       		.uleb128 0x25
 9552 0534 0C       		.byte	0xc
 9553 0535 F1197605 		.4byte	0x57619f1
 9554 0539 F7       		.byte	0xf7
 9555 053a 25       		.uleb128 0x25
 9556 053b 1E       		.byte	0x1e
 9557 053c 08       		.byte	0x8
 9558 053d 20       		.byte	0x20
 9559 053e F7       		.byte	0xf7
 9560 053f 25       		.uleb128 0x25
 9561 0540 25       		.byte	0x25
 9562 0541 F7       		.byte	0xf7
 9563 0542 2C       		.uleb128 0x2c
 9564 0543 37       		.byte	0x37
 9565 0544 25       		.byte	0x25
 9566 0545 9F       		.byte	0x9f
 9567 0546 00000000 		.4byte	0
 9568 054a 00000000 		.4byte	0
 9569              	.LLST26:
 9570 054e 08000000 		.4byte	.LVL235
 9571 0552 E6000000 		.4byte	.LVL274
 9572 0556 0200     		.2byte	0x2
 9573 0558 30       		.byte	0x30
 9574 0559 9F       		.byte	0x9f
 9575 055a E6000000 		.4byte	.LVL274
 9576 055e FC000000 		.4byte	.LVL277
 9577 0562 0100     		.2byte	0x1
 9578 0564 53       		.byte	0x53
 9579 0565 00000000 		.4byte	0
 9580 0569 00000000 		.4byte	0
 9581              	.LLST27:
 9582 056d E6000000 		.4byte	.LVL274
 9583 0571 EA000000 		.4byte	.LVL275
 9584 0575 0200     		.2byte	0x2
 9585 0577 30       		.byte	0x30
 9586 0578 9F       		.byte	0x9f
 9587 0579 EA000000 		.4byte	.LVL275
 9588 057d FC000000 		.4byte	.LVL277
 9589 0581 0100     		.2byte	0x1
 9590 0583 52       		.byte	0x52
ARM GAS  D:\Windows\AppData\Local\Temp\cc9YXq6z.s 			page 193


 9591 0584 FC000000 		.4byte	.LVL277
 9592 0588 15010000 		.4byte	.LVL279-1
 9593 058c 0100     		.2byte	0x1
 9594 058e 53       		.byte	0x53
 9595 058f 00000000 		.4byte	0
 9596 0593 00000000 		.4byte	0
 9597              	.LLST28:
 9598 0597 00000000 		.4byte	.LVL301
 9599 059b 08000000 		.4byte	.LVL302
 9600 059f 0100     		.2byte	0x1
 9601 05a1 50       		.byte	0x50
 9602 05a2 08000000 		.4byte	.LVL302
 9603 05a6 AC000000 		.4byte	.LVL325
 9604 05aa 0100     		.2byte	0x1
 9605 05ac 55       		.byte	0x55
 9606 05ad AC000000 		.4byte	.LVL325
 9607 05b1 B8000000 		.4byte	.LFE77
 9608 05b5 0100     		.2byte	0x1
 9609 05b7 50       		.byte	0x50
 9610 05b8 00000000 		.4byte	0
 9611 05bc 00000000 		.4byte	0
 9612              	.LLST29:
 9613 05c0 00000000 		.4byte	.LVL301
 9614 05c4 0B000000 		.4byte	.LVL303-1
 9615 05c8 0100     		.2byte	0x1
 9616 05ca 51       		.byte	0x51
 9617 05cb 0B000000 		.4byte	.LVL303-1
 9618 05cf B4000000 		.4byte	.LVL327
 9619 05d3 0100     		.2byte	0x1
 9620 05d5 54       		.byte	0x54
 9621 05d6 B4000000 		.4byte	.LVL327
 9622 05da B8000000 		.4byte	.LFE77
 9623 05de 0400     		.2byte	0x4
 9624 05e0 F3       		.byte	0xf3
 9625 05e1 01       		.uleb128 0x1
 9626 05e2 51       		.byte	0x51
 9627 05e3 9F       		.byte	0x9f
 9628 05e4 00000000 		.4byte	0
 9629 05e8 00000000 		.4byte	0
 9630              	.LLST30:
 9631 05ec 00000000 		.4byte	.LVL328
 9632 05f0 26000000 		.4byte	.LVL330
 9633 05f4 0100     		.2byte	0x1
 9634 05f6 50       		.byte	0x50
 9635 05f7 26000000 		.4byte	.LVL330
 9636 05fb 48000000 		.4byte	.LFE100
 9637 05ff 0400     		.2byte	0x4
 9638 0601 F3       		.byte	0xf3
 9639 0602 01       		.uleb128 0x1
 9640 0603 50       		.byte	0x50
 9641 0604 9F       		.byte	0x9f
 9642 0605 00000000 		.4byte	0
 9643 0609 00000000 		.4byte	0
 9644              	.LLST31:
 9645 060d 00000000 		.4byte	.LVL335
 9646 0611 26000000 		.4byte	.LVL337
 9647 0615 0100     		.2byte	0x1
ARM GAS  D:\Windows\AppData\Local\Temp\cc9YXq6z.s 			page 194


 9648 0617 50       		.byte	0x50
 9649 0618 26000000 		.4byte	.LVL337
 9650 061c 48000000 		.4byte	.LFE101
 9651 0620 0400     		.2byte	0x4
 9652 0622 F3       		.byte	0xf3
 9653 0623 01       		.uleb128 0x1
 9654 0624 50       		.byte	0x50
 9655 0625 9F       		.byte	0x9f
 9656 0626 00000000 		.4byte	0
 9657 062a 00000000 		.4byte	0
 9658              	.LLST32:
 9659 062e 00000000 		.4byte	.LVL342
 9660 0632 26000000 		.4byte	.LVL344
 9661 0636 0100     		.2byte	0x1
 9662 0638 50       		.byte	0x50
 9663 0639 26000000 		.4byte	.LVL344
 9664 063d 48000000 		.4byte	.LFE102
 9665 0641 0400     		.2byte	0x4
 9666 0643 F3       		.byte	0xf3
 9667 0644 01       		.uleb128 0x1
 9668 0645 50       		.byte	0x50
 9669 0646 9F       		.byte	0x9f
 9670 0647 00000000 		.4byte	0
 9671 064b 00000000 		.4byte	0
 9672              	.LLST33:
 9673 064f 00000000 		.4byte	.LVL349
 9674 0653 26000000 		.4byte	.LVL351
 9675 0657 0100     		.2byte	0x1
 9676 0659 50       		.byte	0x50
 9677 065a 26000000 		.4byte	.LVL351
 9678 065e 48000000 		.4byte	.LFE103
 9679 0662 0400     		.2byte	0x4
 9680 0664 F3       		.byte	0xf3
 9681 0665 01       		.uleb128 0x1
 9682 0666 50       		.byte	0x50
 9683 0667 9F       		.byte	0x9f
 9684 0668 00000000 		.4byte	0
 9685 066c 00000000 		.4byte	0
 9686              	.LLST34:
 9687 0670 00000000 		.4byte	.LVL356
 9688 0674 26000000 		.4byte	.LVL358
 9689 0678 0100     		.2byte	0x1
 9690 067a 50       		.byte	0x50
 9691 067b 26000000 		.4byte	.LVL358
 9692 067f 48000000 		.4byte	.LFE104
 9693 0683 0400     		.2byte	0x4
 9694 0685 F3       		.byte	0xf3
 9695 0686 01       		.uleb128 0x1
 9696 0687 50       		.byte	0x50
 9697 0688 9F       		.byte	0x9f
 9698 0689 00000000 		.4byte	0
 9699 068d 00000000 		.4byte	0
 9700              	.LLST35:
 9701 0691 00000000 		.4byte	.LVL368
 9702 0695 26000000 		.4byte	.LVL370
 9703 0699 0100     		.2byte	0x1
 9704 069b 50       		.byte	0x50
ARM GAS  D:\Windows\AppData\Local\Temp\cc9YXq6z.s 			page 195


 9705 069c 26000000 		.4byte	.LVL370
 9706 06a0 46000000 		.4byte	.LVL373
 9707 06a4 0400     		.2byte	0x4
 9708 06a6 F3       		.byte	0xf3
 9709 06a7 01       		.uleb128 0x1
 9710 06a8 50       		.byte	0x50
 9711 06a9 9F       		.byte	0x9f
 9712 06aa 46000000 		.4byte	.LVL373
 9713 06ae 56000000 		.4byte	.LVL374
 9714 06b2 0100     		.2byte	0x1
 9715 06b4 50       		.byte	0x50
 9716 06b5 56000000 		.4byte	.LVL374
 9717 06b9 B4000000 		.4byte	.LFE69
 9718 06bd 0400     		.2byte	0x4
 9719 06bf F3       		.byte	0xf3
 9720 06c0 01       		.uleb128 0x1
 9721 06c1 50       		.byte	0x50
 9722 06c2 9F       		.byte	0x9f
 9723 06c3 00000000 		.4byte	0
 9724 06c7 00000000 		.4byte	0
 9725              	.LLST36:
 9726 06cb 02000000 		.4byte	.LVL369
 9727 06cf 5C000000 		.4byte	.LVL375
 9728 06d3 0200     		.2byte	0x2
 9729 06d5 30       		.byte	0x30
 9730 06d6 9F       		.byte	0x9f
 9731 06d7 5C000000 		.4byte	.LVL375
 9732 06db 7A000000 		.4byte	.LVL380
 9733 06df 0100     		.2byte	0x1
 9734 06e1 53       		.byte	0x53
 9735 06e2 00000000 		.4byte	0
 9736 06e6 00000000 		.4byte	0
 9737              	.LLST37:
 9738 06ea 64000000 		.4byte	.LVL376
 9739 06ee 72000000 		.4byte	.LVL378
 9740 06f2 0100     		.2byte	0x1
 9741 06f4 52       		.byte	0x52
 9742 06f5 74000000 		.4byte	.LVL379
 9743 06f9 7A000000 		.4byte	.LVL380
 9744 06fd 0100     		.2byte	0x1
 9745 06ff 52       		.byte	0x52
 9746 0700 7A000000 		.4byte	.LVL380
 9747 0704 91000000 		.4byte	.LVL382-1
 9748 0708 0100     		.2byte	0x1
 9749 070a 53       		.byte	0x53
 9750 070b 00000000 		.4byte	0
 9751 070f 00000000 		.4byte	0
 9752              	.LLST38:
 9753 0713 00000000 		.4byte	.LVL387
 9754 0717 26000000 		.4byte	.LVL389
 9755 071b 0100     		.2byte	0x1
 9756 071d 50       		.byte	0x50
 9757 071e 26000000 		.4byte	.LVL389
 9758 0722 48000000 		.4byte	.LFE105
 9759 0726 0400     		.2byte	0x4
 9760 0728 F3       		.byte	0xf3
 9761 0729 01       		.uleb128 0x1
ARM GAS  D:\Windows\AppData\Local\Temp\cc9YXq6z.s 			page 196


 9762 072a 50       		.byte	0x50
 9763 072b 9F       		.byte	0x9f
 9764 072c 00000000 		.4byte	0
 9765 0730 00000000 		.4byte	0
 9766              	.LLST39:
 9767 0734 00000000 		.4byte	.LVL394
 9768 0738 26000000 		.4byte	.LVL396
 9769 073c 0100     		.2byte	0x1
 9770 073e 50       		.byte	0x50
 9771 073f 26000000 		.4byte	.LVL396
 9772 0743 48000000 		.4byte	.LFE106
 9773 0747 0400     		.2byte	0x4
 9774 0749 F3       		.byte	0xf3
 9775 074a 01       		.uleb128 0x1
 9776 074b 50       		.byte	0x50
 9777 074c 9F       		.byte	0x9f
 9778 074d 00000000 		.4byte	0
 9779 0751 00000000 		.4byte	0
 9780              	.LLST40:
 9781 0755 00000000 		.4byte	.LVL401
 9782 0759 26000000 		.4byte	.LVL403
 9783 075d 0100     		.2byte	0x1
 9784 075f 50       		.byte	0x50
 9785 0760 26000000 		.4byte	.LVL403
 9786 0764 48000000 		.4byte	.LFE107
 9787 0768 0400     		.2byte	0x4
 9788 076a F3       		.byte	0xf3
 9789 076b 01       		.uleb128 0x1
 9790 076c 50       		.byte	0x50
 9791 076d 9F       		.byte	0x9f
 9792 076e 00000000 		.4byte	0
 9793 0772 00000000 		.4byte	0
 9794              	.LLST41:
 9795 0776 00000000 		.4byte	.LVL408
 9796 077a 26000000 		.4byte	.LVL410
 9797 077e 0100     		.2byte	0x1
 9798 0780 50       		.byte	0x50
 9799 0781 26000000 		.4byte	.LVL410
 9800 0785 48000000 		.4byte	.LFE108
 9801 0789 0400     		.2byte	0x4
 9802 078b F3       		.byte	0xf3
 9803 078c 01       		.uleb128 0x1
 9804 078d 50       		.byte	0x50
 9805 078e 9F       		.byte	0x9f
 9806 078f 00000000 		.4byte	0
 9807 0793 00000000 		.4byte	0
 9808              	.LLST42:
 9809 0797 00000000 		.4byte	.LVL415
 9810 079b 26000000 		.4byte	.LVL417
 9811 079f 0100     		.2byte	0x1
 9812 07a1 50       		.byte	0x50
 9813 07a2 26000000 		.4byte	.LVL417
 9814 07a6 48000000 		.4byte	.LFE109
 9815 07aa 0400     		.2byte	0x4
 9816 07ac F3       		.byte	0xf3
 9817 07ad 01       		.uleb128 0x1
 9818 07ae 50       		.byte	0x50
ARM GAS  D:\Windows\AppData\Local\Temp\cc9YXq6z.s 			page 197


 9819 07af 9F       		.byte	0x9f
 9820 07b0 00000000 		.4byte	0
 9821 07b4 00000000 		.4byte	0
 9822              	.LLST43:
 9823 07b8 00000000 		.4byte	.LVL427
 9824 07bc 26000000 		.4byte	.LVL429
 9825 07c0 0100     		.2byte	0x1
 9826 07c2 50       		.byte	0x50
 9827 07c3 26000000 		.4byte	.LVL429
 9828 07c7 4A000000 		.4byte	.LVL432
 9829 07cb 0400     		.2byte	0x4
 9830 07cd F3       		.byte	0xf3
 9831 07ce 01       		.uleb128 0x1
 9832 07cf 50       		.byte	0x50
 9833 07d0 9F       		.byte	0x9f
 9834 07d1 4A000000 		.4byte	.LVL432
 9835 07d5 5A000000 		.4byte	.LVL433
 9836 07d9 0100     		.2byte	0x1
 9837 07db 50       		.byte	0x50
 9838 07dc 5A000000 		.4byte	.LVL433
 9839 07e0 C8000000 		.4byte	.LFE70
 9840 07e4 0400     		.2byte	0x4
 9841 07e6 F3       		.byte	0xf3
 9842 07e7 01       		.uleb128 0x1
 9843 07e8 50       		.byte	0x50
 9844 07e9 9F       		.byte	0x9f
 9845 07ea 00000000 		.4byte	0
 9846 07ee 00000000 		.4byte	0
 9847              	.LLST44:
 9848 07f2 02000000 		.4byte	.LVL428
 9849 07f6 60000000 		.4byte	.LVL434
 9850 07fa 0200     		.2byte	0x2
 9851 07fc 30       		.byte	0x30
 9852 07fd 9F       		.byte	0x9f
 9853 07fe 60000000 		.4byte	.LVL434
 9854 0802 82000000 		.4byte	.LVL439
 9855 0806 0100     		.2byte	0x1
 9856 0808 53       		.byte	0x53
 9857 0809 00000000 		.4byte	0
 9858 080d 00000000 		.4byte	0
 9859              	.LLST45:
 9860 0811 6A000000 		.4byte	.LVL435
 9861 0815 7A000000 		.4byte	.LVL437
 9862 0819 0100     		.2byte	0x1
 9863 081b 52       		.byte	0x52
 9864 081c 7C000000 		.4byte	.LVL438
 9865 0820 82000000 		.4byte	.LVL439
 9866 0824 0100     		.2byte	0x1
 9867 0826 52       		.byte	0x52
 9868 0827 82000000 		.4byte	.LVL439
 9869 082b 9D000000 		.4byte	.LVL441-1
 9870 082f 0100     		.2byte	0x1
 9871 0831 53       		.byte	0x53
 9872 0832 00000000 		.4byte	0
 9873 0836 00000000 		.4byte	0
 9874              	.LLST46:
 9875 083a 00000000 		.4byte	.LVL446
ARM GAS  D:\Windows\AppData\Local\Temp\cc9YXq6z.s 			page 198


 9876 083e 26000000 		.4byte	.LVL448
 9877 0842 0100     		.2byte	0x1
 9878 0844 50       		.byte	0x50
 9879 0845 26000000 		.4byte	.LVL448
 9880 0849 48000000 		.4byte	.LFE110
 9881 084d 0400     		.2byte	0x4
 9882 084f F3       		.byte	0xf3
 9883 0850 01       		.uleb128 0x1
 9884 0851 50       		.byte	0x50
 9885 0852 9F       		.byte	0x9f
 9886 0853 00000000 		.4byte	0
 9887 0857 00000000 		.4byte	0
 9888              	.LLST47:
 9889 085b 00000000 		.4byte	.LVL453
 9890 085f 26000000 		.4byte	.LVL455
 9891 0863 0100     		.2byte	0x1
 9892 0865 50       		.byte	0x50
 9893 0866 26000000 		.4byte	.LVL455
 9894 086a 48000000 		.4byte	.LFE111
 9895 086e 0400     		.2byte	0x4
 9896 0870 F3       		.byte	0xf3
 9897 0871 01       		.uleb128 0x1
 9898 0872 50       		.byte	0x50
 9899 0873 9F       		.byte	0x9f
 9900 0874 00000000 		.4byte	0
 9901 0878 00000000 		.4byte	0
 9902              	.LLST48:
 9903 087c 00000000 		.4byte	.LVL460
 9904 0880 26000000 		.4byte	.LVL462
 9905 0884 0100     		.2byte	0x1
 9906 0886 50       		.byte	0x50
 9907 0887 26000000 		.4byte	.LVL462
 9908 088b 48000000 		.4byte	.LFE112
 9909 088f 0400     		.2byte	0x4
 9910 0891 F3       		.byte	0xf3
 9911 0892 01       		.uleb128 0x1
 9912 0893 50       		.byte	0x50
 9913 0894 9F       		.byte	0x9f
 9914 0895 00000000 		.4byte	0
 9915 0899 00000000 		.4byte	0
 9916              	.LLST49:
 9917 089d 00000000 		.4byte	.LVL467
 9918 08a1 26000000 		.4byte	.LVL469
 9919 08a5 0100     		.2byte	0x1
 9920 08a7 50       		.byte	0x50
 9921 08a8 26000000 		.4byte	.LVL469
 9922 08ac 48000000 		.4byte	.LFE113
 9923 08b0 0400     		.2byte	0x4
 9924 08b2 F3       		.byte	0xf3
 9925 08b3 01       		.uleb128 0x1
 9926 08b4 50       		.byte	0x50
 9927 08b5 9F       		.byte	0x9f
 9928 08b6 00000000 		.4byte	0
 9929 08ba 00000000 		.4byte	0
 9930              	.LLST50:
 9931 08be 00000000 		.4byte	.LVL474
 9932 08c2 26000000 		.4byte	.LVL476
ARM GAS  D:\Windows\AppData\Local\Temp\cc9YXq6z.s 			page 199


 9933 08c6 0100     		.2byte	0x1
 9934 08c8 50       		.byte	0x50
 9935 08c9 26000000 		.4byte	.LVL476
 9936 08cd 48000000 		.4byte	.LFE114
 9937 08d1 0400     		.2byte	0x4
 9938 08d3 F3       		.byte	0xf3
 9939 08d4 01       		.uleb128 0x1
 9940 08d5 50       		.byte	0x50
 9941 08d6 9F       		.byte	0x9f
 9942 08d7 00000000 		.4byte	0
 9943 08db 00000000 		.4byte	0
 9944              	.LLST51:
 9945 08df 00000000 		.4byte	.LVL486
 9946 08e3 26000000 		.4byte	.LVL488
 9947 08e7 0100     		.2byte	0x1
 9948 08e9 50       		.byte	0x50
 9949 08ea 26000000 		.4byte	.LVL488
 9950 08ee 4A000000 		.4byte	.LVL491
 9951 08f2 0400     		.2byte	0x4
 9952 08f4 F3       		.byte	0xf3
 9953 08f5 01       		.uleb128 0x1
 9954 08f6 50       		.byte	0x50
 9955 08f7 9F       		.byte	0x9f
 9956 08f8 4A000000 		.4byte	.LVL491
 9957 08fc 5A000000 		.4byte	.LVL492
 9958 0900 0100     		.2byte	0x1
 9959 0902 50       		.byte	0x50
 9960 0903 5A000000 		.4byte	.LVL492
 9961 0907 C8000000 		.4byte	.LFE71
 9962 090b 0400     		.2byte	0x4
 9963 090d F3       		.byte	0xf3
 9964 090e 01       		.uleb128 0x1
 9965 090f 50       		.byte	0x50
 9966 0910 9F       		.byte	0x9f
 9967 0911 00000000 		.4byte	0
 9968 0915 00000000 		.4byte	0
 9969              	.LLST52:
 9970 0919 02000000 		.4byte	.LVL487
 9971 091d 60000000 		.4byte	.LVL493
 9972 0921 0200     		.2byte	0x2
 9973 0923 30       		.byte	0x30
 9974 0924 9F       		.byte	0x9f
 9975 0925 60000000 		.4byte	.LVL493
 9976 0929 82000000 		.4byte	.LVL498
 9977 092d 0100     		.2byte	0x1
 9978 092f 53       		.byte	0x53
 9979 0930 00000000 		.4byte	0
 9980 0934 00000000 		.4byte	0
 9981              	.LLST53:
 9982 0938 6A000000 		.4byte	.LVL494
 9983 093c 7A000000 		.4byte	.LVL496
 9984 0940 0100     		.2byte	0x1
 9985 0942 52       		.byte	0x52
 9986 0943 7C000000 		.4byte	.LVL497
 9987 0947 82000000 		.4byte	.LVL498
 9988 094b 0100     		.2byte	0x1
 9989 094d 52       		.byte	0x52
ARM GAS  D:\Windows\AppData\Local\Temp\cc9YXq6z.s 			page 200


 9990 094e 82000000 		.4byte	.LVL498
 9991 0952 9D000000 		.4byte	.LVL500-1
 9992 0956 0100     		.2byte	0x1
 9993 0958 53       		.byte	0x53
 9994 0959 00000000 		.4byte	0
 9995 095d 00000000 		.4byte	0
 9996              	.LLST54:
 9997 0961 00000000 		.4byte	.LVL505
 9998 0965 26000000 		.4byte	.LVL507
 9999 0969 0100     		.2byte	0x1
 10000 096b 50       		.byte	0x50
 10001 096c 26000000 		.4byte	.LVL507
 10002 0970 48000000 		.4byte	.LFE115
 10003 0974 0400     		.2byte	0x4
 10004 0976 F3       		.byte	0xf3
 10005 0977 01       		.uleb128 0x1
 10006 0978 50       		.byte	0x50
 10007 0979 9F       		.byte	0x9f
 10008 097a 00000000 		.4byte	0
 10009 097e 00000000 		.4byte	0
 10010              	.LLST55:
 10011 0982 00000000 		.4byte	.LVL512
 10012 0986 26000000 		.4byte	.LVL514
 10013 098a 0100     		.2byte	0x1
 10014 098c 50       		.byte	0x50
 10015 098d 26000000 		.4byte	.LVL514
 10016 0991 48000000 		.4byte	.LFE116
 10017 0995 0400     		.2byte	0x4
 10018 0997 F3       		.byte	0xf3
 10019 0998 01       		.uleb128 0x1
 10020 0999 50       		.byte	0x50
 10021 099a 9F       		.byte	0x9f
 10022 099b 00000000 		.4byte	0
 10023 099f 00000000 		.4byte	0
 10024              	.LLST56:
 10025 09a3 00000000 		.4byte	.LVL519
 10026 09a7 26000000 		.4byte	.LVL521
 10027 09ab 0100     		.2byte	0x1
 10028 09ad 50       		.byte	0x50
 10029 09ae 26000000 		.4byte	.LVL521
 10030 09b2 48000000 		.4byte	.LFE117
 10031 09b6 0400     		.2byte	0x4
 10032 09b8 F3       		.byte	0xf3
 10033 09b9 01       		.uleb128 0x1
 10034 09ba 50       		.byte	0x50
 10035 09bb 9F       		.byte	0x9f
 10036 09bc 00000000 		.4byte	0
 10037 09c0 00000000 		.4byte	0
 10038              	.LLST57:
 10039 09c4 00000000 		.4byte	.LVL526
 10040 09c8 26000000 		.4byte	.LVL528
 10041 09cc 0100     		.2byte	0x1
 10042 09ce 50       		.byte	0x50
 10043 09cf 26000000 		.4byte	.LVL528
 10044 09d3 48000000 		.4byte	.LFE118
 10045 09d7 0400     		.2byte	0x4
 10046 09d9 F3       		.byte	0xf3
ARM GAS  D:\Windows\AppData\Local\Temp\cc9YXq6z.s 			page 201


 10047 09da 01       		.uleb128 0x1
 10048 09db 50       		.byte	0x50
 10049 09dc 9F       		.byte	0x9f
 10050 09dd 00000000 		.4byte	0
 10051 09e1 00000000 		.4byte	0
 10052              	.LLST58:
 10053 09e5 00000000 		.4byte	.LVL533
 10054 09e9 26000000 		.4byte	.LVL535
 10055 09ed 0100     		.2byte	0x1
 10056 09ef 50       		.byte	0x50
 10057 09f0 26000000 		.4byte	.LVL535
 10058 09f4 48000000 		.4byte	.LFE119
 10059 09f8 0400     		.2byte	0x4
 10060 09fa F3       		.byte	0xf3
 10061 09fb 01       		.uleb128 0x1
 10062 09fc 50       		.byte	0x50
 10063 09fd 9F       		.byte	0x9f
 10064 09fe 00000000 		.4byte	0
 10065 0a02 00000000 		.4byte	0
 10066              	.LLST59:
 10067 0a06 00000000 		.4byte	.LVL545
 10068 0a0a 2C000000 		.4byte	.LVL547
 10069 0a0e 0100     		.2byte	0x1
 10070 0a10 50       		.byte	0x50
 10071 0a11 2C000000 		.4byte	.LVL547
 10072 0a15 50000000 		.4byte	.LVL550
 10073 0a19 0400     		.2byte	0x4
 10074 0a1b F3       		.byte	0xf3
 10075 0a1c 01       		.uleb128 0x1
 10076 0a1d 50       		.byte	0x50
 10077 0a1e 9F       		.byte	0x9f
 10078 0a1f 50000000 		.4byte	.LVL550
 10079 0a23 60000000 		.4byte	.LVL551
 10080 0a27 0100     		.2byte	0x1
 10081 0a29 50       		.byte	0x50
 10082 0a2a 60000000 		.4byte	.LVL551
 10083 0a2e D0000000 		.4byte	.LFE72
 10084 0a32 0400     		.2byte	0x4
 10085 0a34 F3       		.byte	0xf3
 10086 0a35 01       		.uleb128 0x1
 10087 0a36 50       		.byte	0x50
 10088 0a37 9F       		.byte	0x9f
 10089 0a38 00000000 		.4byte	0
 10090 0a3c 00000000 		.4byte	0
 10091              	.LLST60:
 10092 0a40 02000000 		.4byte	.LVL546
 10093 0a44 66000000 		.4byte	.LVL552
 10094 0a48 0200     		.2byte	0x2
 10095 0a4a 30       		.byte	0x30
 10096 0a4b 9F       		.byte	0x9f
 10097 0a4c 66000000 		.4byte	.LVL552
 10098 0a50 88000000 		.4byte	.LVL557
 10099 0a54 0100     		.2byte	0x1
 10100 0a56 53       		.byte	0x53
 10101 0a57 00000000 		.4byte	0
 10102 0a5b 00000000 		.4byte	0
 10103              	.LLST61:
ARM GAS  D:\Windows\AppData\Local\Temp\cc9YXq6z.s 			page 202


 10104 0a5f 70000000 		.4byte	.LVL553
 10105 0a63 80000000 		.4byte	.LVL555
 10106 0a67 0100     		.2byte	0x1
 10107 0a69 52       		.byte	0x52
 10108 0a6a 82000000 		.4byte	.LVL556
 10109 0a6e 88000000 		.4byte	.LVL557
 10110 0a72 0100     		.2byte	0x1
 10111 0a74 52       		.byte	0x52
 10112 0a75 88000000 		.4byte	.LVL557
 10113 0a79 A3000000 		.4byte	.LVL559-1
 10114 0a7d 0100     		.2byte	0x1
 10115 0a7f 53       		.byte	0x53
 10116 0a80 00000000 		.4byte	0
 10117 0a84 00000000 		.4byte	0
 10118              		.section	.debug_aranges,"",%progbits
 10119 0000 DC010000 		.4byte	0x1dc
 10120 0004 0200     		.2byte	0x2
 10121 0006 00000000 		.4byte	.Ldebug_info0
 10122 000a 04       		.byte	0x4
 10123 000b 00       		.byte	0
 10124 000c 0000     		.2byte	0
 10125 000e 0000     		.2byte	0
 10126 0010 00000000 		.4byte	.LFB75
 10127 0014 4E000000 		.4byte	.LFE75-.LFB75
 10128 0018 00000000 		.4byte	.LFB76
 10129 001c 4E000000 		.4byte	.LFE76-.LFB76
 10130 0020 00000000 		.4byte	.LFB67
 10131 0024 08010000 		.4byte	.LFE67-.LFB67
 10132 0028 00000000 		.4byte	.LFB78
 10133 002c 3C000000 		.4byte	.LFE78-.LFB78
 10134 0030 00000000 		.4byte	.LFB79
 10135 0034 3C000000 		.4byte	.LFE79-.LFB79
 10136 0038 00000000 		.4byte	.LFB80
 10137 003c 3C000000 		.4byte	.LFE80-.LFB80
 10138 0040 00000000 		.4byte	.LFB81
 10139 0044 3C000000 		.4byte	.LFE81-.LFB81
 10140 0048 00000000 		.4byte	.LFB82
 10141 004c 3C000000 		.4byte	.LFE82-.LFB82
 10142 0050 00000000 		.4byte	.LFB83
 10143 0054 3C000000 		.4byte	.LFE83-.LFB83
 10144 0058 00000000 		.4byte	.LFB84
 10145 005c 3C000000 		.4byte	.LFE84-.LFB84
 10146 0060 00000000 		.4byte	.LFB85
 10147 0064 3C000000 		.4byte	.LFE85-.LFB85
 10148 0068 00000000 		.4byte	.LFB86
 10149 006c 3C000000 		.4byte	.LFE86-.LFB86
 10150 0070 00000000 		.4byte	.LFB87
 10151 0074 3C000000 		.4byte	.LFE87-.LFB87
 10152 0078 00000000 		.4byte	.LFB88
 10153 007c 3C000000 		.4byte	.LFE88-.LFB88
 10154 0080 00000000 		.4byte	.LFB89
 10155 0084 3C000000 		.4byte	.LFE89-.LFB89
 10156 0088 00000000 		.4byte	.LFB90
 10157 008c 3C000000 		.4byte	.LFE90-.LFB90
 10158 0090 00000000 		.4byte	.LFB91
 10159 0094 3C000000 		.4byte	.LFE91-.LFB91
 10160 0098 00000000 		.4byte	.LFB92
ARM GAS  D:\Windows\AppData\Local\Temp\cc9YXq6z.s 			page 203


 10161 009c 3C000000 		.4byte	.LFE92-.LFB92
 10162 00a0 00000000 		.4byte	.LFB93
 10163 00a4 3C000000 		.4byte	.LFE93-.LFB93
 10164 00a8 00000000 		.4byte	.LFB94
 10165 00ac 3C000000 		.4byte	.LFE94-.LFB94
 10166 00b0 00000000 		.4byte	.LFB95
 10167 00b4 3C000000 		.4byte	.LFE95-.LFB95
 10168 00b8 00000000 		.4byte	.LFB96
 10169 00bc 3C000000 		.4byte	.LFE96-.LFB96
 10170 00c0 00000000 		.4byte	.LFB73
 10171 00c4 1C000000 		.4byte	.LFE73-.LFB73
 10172 00c8 00000000 		.4byte	.LFB74
 10173 00cc 1C000000 		.4byte	.LFE74-.LFB74
 10174 00d0 00000000 		.4byte	.LFB97
 10175 00d4 3C000000 		.4byte	.LFE97-.LFB97
 10176 00d8 00000000 		.4byte	.LFB98
 10177 00dc 3C000000 		.4byte	.LFE98-.LFB98
 10178 00e0 00000000 		.4byte	.LFB99
 10179 00e4 3C000000 		.4byte	.LFE99-.LFB99
 10180 00e8 00000000 		.4byte	.LFB68
 10181 00ec A0010000 		.4byte	.LFE68-.LFB68
 10182 00f0 00000000 		.4byte	.LFB77
 10183 00f4 B8000000 		.4byte	.LFE77-.LFB77
 10184 00f8 00000000 		.4byte	.LFB100
 10185 00fc 48000000 		.4byte	.LFE100-.LFB100
 10186 0100 00000000 		.4byte	.LFB101
 10187 0104 48000000 		.4byte	.LFE101-.LFB101
 10188 0108 00000000 		.4byte	.LFB102
 10189 010c 48000000 		.4byte	.LFE102-.LFB102
 10190 0110 00000000 		.4byte	.LFB103
 10191 0114 48000000 		.4byte	.LFE103-.LFB103
 10192 0118 00000000 		.4byte	.LFB104
 10193 011c 48000000 		.4byte	.LFE104-.LFB104
 10194 0120 00000000 		.4byte	.LFB63
 10195 0124 30000000 		.4byte	.LFE63-.LFB63
 10196 0128 00000000 		.4byte	.LFB69
 10197 012c B4000000 		.4byte	.LFE69-.LFB69
 10198 0130 00000000 		.4byte	.LFB105
 10199 0134 48000000 		.4byte	.LFE105-.LFB105
 10200 0138 00000000 		.4byte	.LFB106
 10201 013c 48000000 		.4byte	.LFE106-.LFB106
 10202 0140 00000000 		.4byte	.LFB107
 10203 0144 48000000 		.4byte	.LFE107-.LFB107
 10204 0148 00000000 		.4byte	.LFB108
 10205 014c 48000000 		.4byte	.LFE108-.LFB108
 10206 0150 00000000 		.4byte	.LFB109
 10207 0154 48000000 		.4byte	.LFE109-.LFB109
 10208 0158 00000000 		.4byte	.LFB64
 10209 015c 3C000000 		.4byte	.LFE64-.LFB64
 10210 0160 00000000 		.4byte	.LFB70
 10211 0164 C8000000 		.4byte	.LFE70-.LFB70
 10212 0168 00000000 		.4byte	.LFB110
 10213 016c 48000000 		.4byte	.LFE110-.LFB110
 10214 0170 00000000 		.4byte	.LFB111
 10215 0174 48000000 		.4byte	.LFE111-.LFB111
 10216 0178 00000000 		.4byte	.LFB112
 10217 017c 48000000 		.4byte	.LFE112-.LFB112
ARM GAS  D:\Windows\AppData\Local\Temp\cc9YXq6z.s 			page 204


 10218 0180 00000000 		.4byte	.LFB113
 10219 0184 48000000 		.4byte	.LFE113-.LFB113
 10220 0188 00000000 		.4byte	.LFB114
 10221 018c 48000000 		.4byte	.LFE114-.LFB114
 10222 0190 00000000 		.4byte	.LFB65
 10223 0194 3C000000 		.4byte	.LFE65-.LFB65
 10224 0198 00000000 		.4byte	.LFB71
 10225 019c C8000000 		.4byte	.LFE71-.LFB71
 10226 01a0 00000000 		.4byte	.LFB115
 10227 01a4 48000000 		.4byte	.LFE115-.LFB115
 10228 01a8 00000000 		.4byte	.LFB116
 10229 01ac 48000000 		.4byte	.LFE116-.LFB116
 10230 01b0 00000000 		.4byte	.LFB117
 10231 01b4 48000000 		.4byte	.LFE117-.LFB117
 10232 01b8 00000000 		.4byte	.LFB118
 10233 01bc 48000000 		.4byte	.LFE118-.LFB118
 10234 01c0 00000000 		.4byte	.LFB119
 10235 01c4 48000000 		.4byte	.LFE119-.LFB119
 10236 01c8 00000000 		.4byte	.LFB66
 10237 01cc 3C000000 		.4byte	.LFE66-.LFB66
 10238 01d0 00000000 		.4byte	.LFB72
 10239 01d4 D0000000 		.4byte	.LFE72-.LFB72
 10240 01d8 00000000 		.4byte	0
 10241 01dc 00000000 		.4byte	0
 10242              		.section	.debug_ranges,"",%progbits
 10243              	.Ldebug_ranges0:
 10244 0000 64000000 		.4byte	.LBB2
 10245 0004 72000000 		.4byte	.LBE2
 10246 0008 74000000 		.4byte	.LBB3
 10247 000c B4000000 		.4byte	.LBE3
 10248 0010 00000000 		.4byte	0
 10249 0014 00000000 		.4byte	0
 10250 0018 6A000000 		.4byte	.LBB4
 10251 001c 7A000000 		.4byte	.LBE4
 10252 0020 7C000000 		.4byte	.LBB5
 10253 0024 C8000000 		.4byte	.LBE5
 10254 0028 00000000 		.4byte	0
 10255 002c 00000000 		.4byte	0
 10256 0030 6A000000 		.4byte	.LBB6
 10257 0034 7A000000 		.4byte	.LBE6
 10258 0038 7C000000 		.4byte	.LBB7
 10259 003c C8000000 		.4byte	.LBE7
 10260 0040 00000000 		.4byte	0
 10261 0044 00000000 		.4byte	0
 10262 0048 70000000 		.4byte	.LBB8
 10263 004c 80000000 		.4byte	.LBE8
 10264 0050 82000000 		.4byte	.LBB9
 10265 0054 D0000000 		.4byte	.LBE9
 10266 0058 00000000 		.4byte	0
 10267 005c 00000000 		.4byte	0
 10268 0060 00000000 		.4byte	.LFB75
 10269 0064 4E000000 		.4byte	.LFE75
 10270 0068 00000000 		.4byte	.LFB76
 10271 006c 4E000000 		.4byte	.LFE76
 10272 0070 00000000 		.4byte	.LFB67
 10273 0074 08010000 		.4byte	.LFE67
 10274 0078 00000000 		.4byte	.LFB78
ARM GAS  D:\Windows\AppData\Local\Temp\cc9YXq6z.s 			page 205


 10275 007c 3C000000 		.4byte	.LFE78
 10276 0080 00000000 		.4byte	.LFB79
 10277 0084 3C000000 		.4byte	.LFE79
 10278 0088 00000000 		.4byte	.LFB80
 10279 008c 3C000000 		.4byte	.LFE80
 10280 0090 00000000 		.4byte	.LFB81
 10281 0094 3C000000 		.4byte	.LFE81
 10282 0098 00000000 		.4byte	.LFB82
 10283 009c 3C000000 		.4byte	.LFE82
 10284 00a0 00000000 		.4byte	.LFB83
 10285 00a4 3C000000 		.4byte	.LFE83
 10286 00a8 00000000 		.4byte	.LFB84
 10287 00ac 3C000000 		.4byte	.LFE84
 10288 00b0 00000000 		.4byte	.LFB85
 10289 00b4 3C000000 		.4byte	.LFE85
 10290 00b8 00000000 		.4byte	.LFB86
 10291 00bc 3C000000 		.4byte	.LFE86
 10292 00c0 00000000 		.4byte	.LFB87
 10293 00c4 3C000000 		.4byte	.LFE87
 10294 00c8 00000000 		.4byte	.LFB88
 10295 00cc 3C000000 		.4byte	.LFE88
 10296 00d0 00000000 		.4byte	.LFB89
 10297 00d4 3C000000 		.4byte	.LFE89
 10298 00d8 00000000 		.4byte	.LFB90
 10299 00dc 3C000000 		.4byte	.LFE90
 10300 00e0 00000000 		.4byte	.LFB91
 10301 00e4 3C000000 		.4byte	.LFE91
 10302 00e8 00000000 		.4byte	.LFB92
 10303 00ec 3C000000 		.4byte	.LFE92
 10304 00f0 00000000 		.4byte	.LFB93
 10305 00f4 3C000000 		.4byte	.LFE93
 10306 00f8 00000000 		.4byte	.LFB94
 10307 00fc 3C000000 		.4byte	.LFE94
 10308 0100 00000000 		.4byte	.LFB95
 10309 0104 3C000000 		.4byte	.LFE95
 10310 0108 00000000 		.4byte	.LFB96
 10311 010c 3C000000 		.4byte	.LFE96
 10312 0110 00000000 		.4byte	.LFB73
 10313 0114 1C000000 		.4byte	.LFE73
 10314 0118 00000000 		.4byte	.LFB74
 10315 011c 1C000000 		.4byte	.LFE74
 10316 0120 00000000 		.4byte	.LFB97
 10317 0124 3C000000 		.4byte	.LFE97
 10318 0128 00000000 		.4byte	.LFB98
 10319 012c 3C000000 		.4byte	.LFE98
 10320 0130 00000000 		.4byte	.LFB99
 10321 0134 3C000000 		.4byte	.LFE99
 10322 0138 00000000 		.4byte	.LFB68
 10323 013c A0010000 		.4byte	.LFE68
 10324 0140 00000000 		.4byte	.LFB77
 10325 0144 B8000000 		.4byte	.LFE77
 10326 0148 00000000 		.4byte	.LFB100
 10327 014c 48000000 		.4byte	.LFE100
 10328 0150 00000000 		.4byte	.LFB101
 10329 0154 48000000 		.4byte	.LFE101
 10330 0158 00000000 		.4byte	.LFB102
 10331 015c 48000000 		.4byte	.LFE102
ARM GAS  D:\Windows\AppData\Local\Temp\cc9YXq6z.s 			page 206


 10332 0160 00000000 		.4byte	.LFB103
 10333 0164 48000000 		.4byte	.LFE103
 10334 0168 00000000 		.4byte	.LFB104
 10335 016c 48000000 		.4byte	.LFE104
 10336 0170 00000000 		.4byte	.LFB63
 10337 0174 30000000 		.4byte	.LFE63
 10338 0178 00000000 		.4byte	.LFB69
 10339 017c B4000000 		.4byte	.LFE69
 10340 0180 00000000 		.4byte	.LFB105
 10341 0184 48000000 		.4byte	.LFE105
 10342 0188 00000000 		.4byte	.LFB106
 10343 018c 48000000 		.4byte	.LFE106
 10344 0190 00000000 		.4byte	.LFB107
 10345 0194 48000000 		.4byte	.LFE107
 10346 0198 00000000 		.4byte	.LFB108
 10347 019c 48000000 		.4byte	.LFE108
 10348 01a0 00000000 		.4byte	.LFB109
 10349 01a4 48000000 		.4byte	.LFE109
 10350 01a8 00000000 		.4byte	.LFB64
 10351 01ac 3C000000 		.4byte	.LFE64
 10352 01b0 00000000 		.4byte	.LFB70
 10353 01b4 C8000000 		.4byte	.LFE70
 10354 01b8 00000000 		.4byte	.LFB110
 10355 01bc 48000000 		.4byte	.LFE110
 10356 01c0 00000000 		.4byte	.LFB111
 10357 01c4 48000000 		.4byte	.LFE111
 10358 01c8 00000000 		.4byte	.LFB112
 10359 01cc 48000000 		.4byte	.LFE112
 10360 01d0 00000000 		.4byte	.LFB113
 10361 01d4 48000000 		.4byte	.LFE113
 10362 01d8 00000000 		.4byte	.LFB114
 10363 01dc 48000000 		.4byte	.LFE114
 10364 01e0 00000000 		.4byte	.LFB65
 10365 01e4 3C000000 		.4byte	.LFE65
 10366 01e8 00000000 		.4byte	.LFB71
 10367 01ec C8000000 		.4byte	.LFE71
 10368 01f0 00000000 		.4byte	.LFB115
 10369 01f4 48000000 		.4byte	.LFE115
 10370 01f8 00000000 		.4byte	.LFB116
 10371 01fc 48000000 		.4byte	.LFE116
 10372 0200 00000000 		.4byte	.LFB117
 10373 0204 48000000 		.4byte	.LFE117
 10374 0208 00000000 		.4byte	.LFB118
 10375 020c 48000000 		.4byte	.LFE118
 10376 0210 00000000 		.4byte	.LFB119
 10377 0214 48000000 		.4byte	.LFE119
 10378 0218 00000000 		.4byte	.LFB66
 10379 021c 3C000000 		.4byte	.LFE66
 10380 0220 00000000 		.4byte	.LFB72
 10381 0224 D0000000 		.4byte	.LFE72
 10382 0228 00000000 		.4byte	0
 10383 022c 00000000 		.4byte	0
 10384              		.section	.debug_line,"",%progbits
 10385              	.Ldebug_line0:
 10386 0000 9D080000 		.section	.debug_str,"MS",%progbits,1
 10386      02000002 
 10386      00000201 
ARM GAS  D:\Windows\AppData\Local\Temp\cc9YXq6z.s 			page 207


 10386      FB0E0D00 
 10386      01010101 
 10387              	.LASF49:
 10388 0000 6432325F 		.ascii	"d22_write\000"
 10388      77726974 
 10388      6500
 10389              	.LASF30:
 10390 000a 64365F77 		.ascii	"d6_write\000"
 10390      72697465 
 10390      00
 10391              	.LASF97:
 10392 0013 62335F61 		.ascii	"b3_arr\000"
 10392      727200
 10393              	.LASF66:
 10394 001a 6232355F 		.ascii	"b25_write\000"
 10394      77726974 
 10394      6500
 10395              	.LASF75:
 10396 0024 62335F63 		.ascii	"b3_crit_isr\000"
 10396      7269745F 
 10396      69737200 
 10397              	.LASF124:
 10398 0030 443A5C44 		.ascii	"D:\\Downloads\\FRUCD\\Node-Jaguar\\Node-Jaguar\\Nod"
 10398      6F776E6C 
 10398      6F616473 
 10398      5C465255 
 10398      43445C4E 
 10399 005e 652D4A61 		.ascii	"e-Jaguar.cydsn\000"
 10399      67756172 
 10399      2E637964 
 10399      736E00
 10400              	.LASF94:
 10401 006d 74616368 		.ascii	"tach_arr\000"
 10401      5F617272 
 10401      00
 10402              	.LASF80:
 10403 0076 63335F77 		.ascii	"c3_write\000"
 10403      72697465 
 10403      00
 10404              	.LASF104:
 10405 007f 62325F63 		.ascii	"b2_crit_led\000"
 10405      7269745F 
 10405      6C656400 
 10406              	.LASF55:
 10407 008b 6231325F 		.ascii	"b12_write\000"
 10407      77726974 
 10407      6500
 10408              	.LASF35:
 10409 0095 6431315F 		.ascii	"d11_write\000"
 10409      77726974 
 10409      6500
 10410              	.LASF78:
 10411 009f 63355F77 		.ascii	"c5_write\000"
 10411      72697465 
 10411      00
 10412              	.LASF1:
 10413 00a8 756E7369 		.ascii	"unsigned int\000"
ARM GAS  D:\Windows\AppData\Local\Temp\cc9YXq6z.s 			page 208


 10413      676E6564 
 10413      20696E74 
 10413      00
 10414              	.LASF8:
 10415 00b5 5F5F696E 		.ascii	"__int32_t\000"
 10415      7433325F 
 10415      7400
 10416              	.LASF117:
 10417 00bf 62315F63 		.ascii	"b1_crit_int_StartEx\000"
 10417      7269745F 
 10417      696E745F 
 10417      53746172 
 10417      74457800 
 10418              	.LASF22:
 10419 00d3 77726974 		.ascii	"write_all_stat\000"
 10419      655F616C 
 10419      6C5F7374 
 10419      617400
 10420              	.LASF32:
 10421 00e2 64385F77 		.ascii	"d8_write\000"
 10421      72697465 
 10421      00
 10422              	.LASF125:
 10423 00eb 6C65645F 		.ascii	"led_writetest\000"
 10423      77726974 
 10423      65746573 
 10423      7400
 10424              	.LASF57:
 10425 00f9 6231345F 		.ascii	"b14_write\000"
 10425      77726974 
 10425      6500
 10426              	.LASF37:
 10427 0103 6431335F 		.ascii	"d13_write\000"
 10427      77726974 
 10427      6500
 10428              	.LASF53:
 10429 010d 73746570 		.ascii	"steps\000"
 10429      7300
 10430              	.LASF39:
 10431 0113 6431355F 		.ascii	"d15_write\000"
 10431      77726974 
 10431      6500
 10432              	.LASF16:
 10433 011d 666C6F61 		.ascii	"float\000"
 10433      7400
 10434              	.LASF112:
 10435 0123 4C45445F 		.ascii	"LED_Driver2_MasterSendStop\000"
 10435      44726976 
 10435      6572325F 
 10435      4D617374 
 10435      65725365 
 10436              	.LASF101:
 10437 013e 62335F63 		.ascii	"b3_critical\000"
 10437      72697469 
 10437      63616C00 
 10438              	.LASF52:
 10439 014a 74616368 		.ascii	"tach_pct\000"
ARM GAS  D:\Windows\AppData\Local\Temp\cc9YXq6z.s 			page 209


 10439      5F706374 
 10439      00
 10440              	.LASF98:
 10441 0153 63315F61 		.ascii	"c1_arr\000"
 10441      727200
 10442              	.LASF0:
 10443 015a 6C6F6E67 		.ascii	"long long unsigned int\000"
 10443      206C6F6E 
 10443      6720756E 
 10443      7369676E 
 10443      65642069 
 10444              	.LASF72:
 10445 0171 6233335F 		.ascii	"b33_write\000"
 10445      77726974 
 10445      6500
 10446              	.LASF6:
 10447 017b 5F5F7569 		.ascii	"__uint16_t\000"
 10447      6E743136 
 10447      5F7400
 10448              	.LASF105:
 10449 0186 62335F63 		.ascii	"b3_crit_led\000"
 10449      7269745F 
 10449      6C656400 
 10450              	.LASF21:
 10451 0192 77726974 		.ascii	"write_all_tach\000"
 10451      655F616C 
 10451      6C5F7461 
 10451      636800
 10452              	.LASF25:
 10453 01a1 64315F77 		.ascii	"d1_write\000"
 10453      72697465 
 10453      00
 10454              	.LASF120:
 10455 01aa 62335F63 		.ascii	"b3_crit_int_StartEx\000"
 10455      7269745F 
 10455      696E745F 
 10455      53746172 
 10455      74457800 
 10456              	.LASF27:
 10457 01be 64335F77 		.ascii	"d3_write\000"
 10457      72697465 
 10457      00
 10458              	.LASF83:
 10459 01c7 63315F63 		.ascii	"c1_crit_isr\000"
 10459      7269745F 
 10459      69737200 
 10460              	.LASF41:
 10461 01d3 6431375F 		.ascii	"d17_write\000"
 10461      77726974 
 10461      6500
 10462              	.LASF92:
 10463 01dd 62797465 		.ascii	"byte07_2\000"
 10463      30375F32 
 10463      00
 10464              	.LASF96:
 10465 01e6 62325F61 		.ascii	"b2_arr\000"
 10465      727200
ARM GAS  D:\Windows\AppData\Local\Temp\cc9YXq6z.s 			page 210


 10466              	.LASF51:
 10467 01ed 4D54525F 		.ascii	"MTR_RPM\000"
 10467      52504D00 
 10468              	.LASF116:
 10469 01f5 62325F63 		.ascii	"b2_critical_timer_Start\000"
 10469      72697469 
 10469      63616C5F 
 10469      74696D65 
 10469      725F5374 
 10470              	.LASF74:
 10471 020d 6233355F 		.ascii	"b35_write\000"
 10471      77726974 
 10471      6500
 10472              	.LASF18:
 10473 0217 63686172 		.ascii	"char\000"
 10473      00
 10474              	.LASF63:
 10475 021c 6232325F 		.ascii	"b22_write\000"
 10475      77726974 
 10475      6500
 10476              	.LASF45:
 10477 0226 6C65645F 		.ascii	"led_on\000"
 10477      6F6E00
 10478              	.LASF118:
 10479 022d 62325F63 		.ascii	"b2_crit_int_StartEx\000"
 10479      7269745F 
 10479      696E745F 
 10479      53746172 
 10479      74457800 
 10480              	.LASF48:
 10481 0241 6432315F 		.ascii	"d21_write\000"
 10481      77726974 
 10481      6500
 10482              	.LASF29:
 10483 024b 64355F77 		.ascii	"d5_write\000"
 10483      72697465 
 10483      00
 10484              	.LASF100:
 10485 0254 62325F63 		.ascii	"b2_critical\000"
 10485      72697469 
 10485      63616C00 
 10486              	.LASF65:
 10487 0260 6232345F 		.ascii	"b24_write\000"
 10487      77726974 
 10487      6500
 10488              	.LASF12:
 10489 026a 75696E74 		.ascii	"uint8_t\000"
 10489      385F7400 
 10490              	.LASF43:
 10491 0272 6431395F 		.ascii	"d19_write\000"
 10491      77726974 
 10491      6500
 10492              	.LASF81:
 10493 027c 63325F77 		.ascii	"c2_write\000"
 10493      72697465 
 10493      00
 10494              	.LASF54:
ARM GAS  D:\Windows\AppData\Local\Temp\cc9YXq6z.s 			page 211


 10495 0285 6231315F 		.ascii	"b11_write\000"
 10495      77726974 
 10495      6500
 10496              	.LASF11:
 10497 028f 6C6F6E67 		.ascii	"long long int\000"
 10497      206C6F6E 
 10497      6720696E 
 10497      7400
 10498              	.LASF34:
 10499 029d 6431305F 		.ascii	"d10_write\000"
 10499      77726974 
 10499      6500
 10500              	.LASF114:
 10501 02a7 4C45445F 		.ascii	"LED_Driver2_Start\000"
 10501      44726976 
 10501      6572325F 
 10501      53746172 
 10501      7400
 10502              	.LASF61:
 10503 02b9 424D535F 		.ascii	"BMS_TEMP\000"
 10503      54454D50 
 10503      00
 10504              	.LASF102:
 10505 02c2 63315F63 		.ascii	"c1_critical\000"
 10505      72697469 
 10505      63616C00 
 10506              	.LASF23:
 10507 02ce 626F6F6C 		.ascii	"bool\000"
 10507      00
 10508              	.LASF126:
 10509 02d3 63315F63 		.ascii	"c1_crit_int_StartEx\000"
 10509      7269745F 
 10509      696E745F 
 10509      53746172 
 10509      74457800 
 10510              	.LASF19:
 10511 02e7 63796973 		.ascii	"cyisraddress\000"
 10511      72616464 
 10511      72657373 
 10511      00
 10512              	.LASF90:
 10513 02f4 62797465 		.ascii	"byte05_2\000"
 10513      30355F32 
 10513      00
 10514              	.LASF59:
 10515 02fd 62315F63 		.ascii	"b1_crit_isr\000"
 10515      7269745F 
 10515      69737200 
 10516              	.LASF31:
 10517 0309 64375F77 		.ascii	"d7_write\000"
 10517      72697465 
 10517      00
 10518              	.LASF106:
 10519 0312 63315F63 		.ascii	"c1_crit_led\000"
 10519      7269745F 
 10519      6C656400 
 10520              	.LASF79:
ARM GAS  D:\Windows\AppData\Local\Temp\cc9YXq6z.s 			page 212


 10521 031e 63345F77 		.ascii	"c4_write\000"
 10521      72697465 
 10521      00
 10522              	.LASF56:
 10523 0327 6231335F 		.ascii	"b13_write\000"
 10523      77726974 
 10523      6500
 10524              	.LASF107:
 10525 0331 4C45445F 		.ascii	"LED_Driver1_MasterSendStart\000"
 10525      44726976 
 10525      6572315F 
 10525      4D617374 
 10525      65725365 
 10526              	.LASF36:
 10527 034d 6431325F 		.ascii	"d12_write\000"
 10527      77726974 
 10527      6500
 10528              	.LASF13:
 10529 0357 75696E74 		.ascii	"uint16_t\000"
 10529      31365F74 
 10529      00
 10530              	.LASF58:
 10531 0360 6231355F 		.ascii	"b15_write\000"
 10531      77726974 
 10531      6500
 10532              	.LASF77:
 10533 036a 4D54525F 		.ascii	"MTR_CTRL_TEMP\000"
 10533      4354524C 
 10533      5F54454D 
 10533      5000
 10534              	.LASF46:
 10535 0378 6C65645F 		.ascii	"led_off\000"
 10535      6F666600 
 10536              	.LASF4:
 10537 0380 73686F72 		.ascii	"short int\000"
 10537      7420696E 
 10537      7400
 10538              	.LASF24:
 10539 038a 616C6C6F 		.ascii	"allon\000"
 10539      6E00
 10540              	.LASF9:
 10541 0390 6C6F6E67 		.ascii	"long int\000"
 10541      20696E74 
 10541      00
 10542              	.LASF44:
 10543 0399 6C65645F 		.ascii	"led_driver_init\000"
 10543      64726976 
 10543      65725F69 
 10543      6E697400 
 10544              	.LASF85:
 10545 03a9 49544D5F 		.ascii	"ITM_RxBuffer\000"
 10545      52784275 
 10545      66666572 
 10545      00
 10546              	.LASF123:
 10547 03b6 6C65645F 		.ascii	"led_manager.c\000"
 10547      6D616E61 
ARM GAS  D:\Windows\AppData\Local\Temp\cc9YXq6z.s 			page 213


 10547      6765722E 
 10547      6300
 10548              	.LASF33:
 10549 03c4 64395F77 		.ascii	"d9_write\000"
 10549      72697465 
 10549      00
 10550              	.LASF110:
 10551 03cd 4C45445F 		.ascii	"LED_Driver2_MasterWriteByte\000"
 10551      44726976 
 10551      6572325F 
 10551      4D617374 
 10551      65725772 
 10552              	.LASF95:
 10553 03e9 62315F61 		.ascii	"b1_arr\000"
 10553      727200
 10554              	.LASF69:
 10555 03f0 4D54525F 		.ascii	"MTR_TEMP\000"
 10555      54454D50 
 10555      00
 10556              	.LASF93:
 10557 03f9 62797465 		.ascii	"byte08_2\000"
 10557      30385F32 
 10557      00
 10558              	.LASF5:
 10559 0402 5F5F7569 		.ascii	"__uint8_t\000"
 10559      6E74385F 
 10559      7400
 10560              	.LASF71:
 10561 040c 6233325F 		.ascii	"b32_write\000"
 10561      77726974 
 10561      6500
 10562              	.LASF38:
 10563 0416 6431345F 		.ascii	"d14_write\000"
 10563      77726974 
 10563      6500
 10564              	.LASF99:
 10565 0420 62315F63 		.ascii	"b1_critical\000"
 10565      72697469 
 10565      63616C00 
 10566              	.LASF50:
 10567 042c 6C65645F 		.ascii	"led_write_tach\000"
 10567      77726974 
 10567      655F7461 
 10567      636800
 10568              	.LASF40:
 10569 043b 6431365F 		.ascii	"d16_write\000"
 10569      77726974 
 10569      6500
 10570              	.LASF20:
 10571 0445 73697A65 		.ascii	"sizetype\000"
 10571      74797065 
 10571      00
 10572              	.LASF121:
 10573 044e 63315F63 		.ascii	"c1_critical_timer_Start\000"
 10573      72697469 
 10573      63616C5F 
 10573      74696D65 
ARM GAS  D:\Windows\AppData\Local\Temp\cc9YXq6z.s 			page 214


 10573      725F5374 
 10574              	.LASF10:
 10575 0466 6C6F6E67 		.ascii	"long unsigned int\000"
 10575      20756E73 
 10575      69676E65 
 10575      6420696E 
 10575      7400
 10576              	.LASF67:
 10577 0478 62325F63 		.ascii	"b2_crit_isr\000"
 10577      7269745F 
 10577      69737200 
 10578              	.LASF14:
 10579 0484 696E7433 		.ascii	"int32_t\000"
 10579      325F7400 
 10580              	.LASF86:
 10581 048c 62797465 		.ascii	"byte05\000"
 10581      303500
 10582              	.LASF87:
 10583 0493 62797465 		.ascii	"byte06\000"
 10583      303600
 10584              	.LASF88:
 10585 049a 62797465 		.ascii	"byte07\000"
 10585      303700
 10586              	.LASF89:
 10587 04a1 62797465 		.ascii	"byte08\000"
 10587      303800
 10588              	.LASF108:
 10589 04a8 4C45445F 		.ascii	"LED_Driver1_MasterWriteByte\000"
 10589      44726976 
 10589      6572315F 
 10589      4D617374 
 10589      65725772 
 10590              	.LASF103:
 10591 04c4 62315F63 		.ascii	"b1_crit_led\000"
 10591      7269745F 
 10591      6C656400 
 10592              	.LASF73:
 10593 04d0 6233345F 		.ascii	"b34_write\000"
 10593      77726974 
 10593      6500
 10594              	.LASF109:
 10595 04da 4C45445F 		.ascii	"LED_Driver2_MasterSendStart\000"
 10595      44726976 
 10595      6572325F 
 10595      4D617374 
 10595      65725365 
 10596              	.LASF3:
 10597 04f6 756E7369 		.ascii	"unsigned char\000"
 10597      676E6564 
 10597      20636861 
 10597      7200
 10598              	.LASF122:
 10599 0504 474E5520 		.ascii	"GNU C 4.9.3 20150303 (release) [ARM/embedded-4_9-br"
 10599      4320342E 
 10599      392E3320 
 10599      32303135 
 10599      30333033 
ARM GAS  D:\Windows\AppData\Local\Temp\cc9YXq6z.s 			page 215


 10600 0537 616E6368 		.ascii	"anch revision 221220] -mcpu=cortex-m3 -mthumb -g -O"
 10600      20726576 
 10600      6973696F 
 10600      6E203232 
 10600      31323230 
 10601 056a 67202D66 		.ascii	"g -ffunction-sections -ffat-lto-objects\000"
 10601      66756E63 
 10601      74696F6E 
 10601      2D736563 
 10601      74696F6E 
 10602              	.LASF119:
 10603 0592 62335F63 		.ascii	"b3_critical_timer_Start\000"
 10603      72697469 
 10603      63616C5F 
 10603      74696D65 
 10603      725F5374 
 10604              	.LASF26:
 10605 05aa 64325F77 		.ascii	"d2_write\000"
 10605      72697465 
 10605      00
 10606              	.LASF62:
 10607 05b3 6232315F 		.ascii	"b21_write\000"
 10607      77726974 
 10607      6500
 10608              	.LASF47:
 10609 05bd 6432305F 		.ascii	"d20_write\000"
 10609      77726974 
 10609      6500
 10610              	.LASF28:
 10611 05c7 64345F77 		.ascii	"d4_write\000"
 10611      72697465 
 10611      00
 10612              	.LASF64:
 10613 05d0 6232335F 		.ascii	"b23_write\000"
 10613      77726974 
 10613      6500
 10614              	.LASF115:
 10615 05da 62315F63 		.ascii	"b1_critical_timer_Start\000"
 10615      72697469 
 10615      63616C5F 
 10615      74696D65 
 10615      725F5374 
 10616              	.LASF60:
 10617 05f2 6C65645F 		.ascii	"led_write_b1\000"
 10617      77726974 
 10617      655F6231 
 10617      00
 10618              	.LASF68:
 10619 05ff 6C65645F 		.ascii	"led_write_b2\000"
 10619      77726974 
 10619      655F6232 
 10619      00
 10620              	.LASF76:
 10621 060c 6C65645F 		.ascii	"led_write_b3\000"
 10621      77726974 
 10621      655F6233 
 10621      00
ARM GAS  D:\Windows\AppData\Local\Temp\cc9YXq6z.s 			page 216


 10622              	.LASF42:
 10623 0619 6431385F 		.ascii	"d18_write\000"
 10623      77726974 
 10623      6500
 10624              	.LASF2:
 10625 0623 7369676E 		.ascii	"signed char\000"
 10625      65642063 
 10625      68617200 
 10626              	.LASF82:
 10627 062f 63315F77 		.ascii	"c1_write\000"
 10627      72697465 
 10627      00
 10628              	.LASF7:
 10629 0638 73686F72 		.ascii	"short unsigned int\000"
 10629      7420756E 
 10629      7369676E 
 10629      65642069 
 10629      6E7400
 10630              	.LASF111:
 10631 064b 4C45445F 		.ascii	"LED_Driver1_MasterSendStop\000"
 10631      44726976 
 10631      6572315F 
 10631      4D617374 
 10631      65725365 
 10632              	.LASF113:
 10633 0666 4C45445F 		.ascii	"LED_Driver1_Start\000"
 10633      44726976 
 10633      6572315F 
 10633      53746172 
 10633      7400
 10634              	.LASF15:
 10635 0678 75696E74 		.ascii	"uint8\000"
 10635      3800
 10636              	.LASF17:
 10637 067e 646F7562 		.ascii	"double\000"
 10637      6C6500
 10638              	.LASF91:
 10639 0685 62797465 		.ascii	"byte06_2\000"
 10639      30365F32 
 10639      00
 10640              	.LASF84:
 10641 068e 6C65645F 		.ascii	"led_write_c1\000"
 10641      77726974 
 10641      655F6331 
 10641      00
 10642              	.LASF70:
 10643 069b 6233315F 		.ascii	"b31_write\000"
 10643      77726974 
 10643      6500
 10644              		.ident	"GCC: (GNU Tools for ARM Embedded Processors) 4.9.3 20150303 (release) [ARM/embedded-4_9-br
