ARM GAS  D:\Windows\AppData\Local\Temp\ccSV0DQf.s 			page 1


   1              		.syntax unified
   2              		.cpu cortex-m3
   3              		.fpu softvfp
   4              		.eabi_attribute 20, 1
   5              		.eabi_attribute 21, 1
   6              		.eabi_attribute 23, 3
   7              		.eabi_attribute 24, 1
   8              		.eabi_attribute 25, 1
   9              		.eabi_attribute 26, 1
  10              		.eabi_attribute 30, 1
  11              		.eabi_attribute 34, 1
  12              		.eabi_attribute 18, 4
  13              		.thumb
  14              		.file	"LED_Driver1_INT.c"
  15              		.text
  16              	.Ltext0:
  17              		.cfi_sections	.debug_frame
  18              		.section	.text.LED_Driver1_ISR,"ax",%progbits
  19              		.align	2
  20              		.global	LED_Driver1_ISR
  21              		.thumb
  22              		.thumb_func
  23              		.type	LED_Driver1_ISR, %function
  24              	LED_Driver1_ISR:
  25              	.LFB0:
  26              		.file 1 "Generated_Source\\PSoC5\\LED_Driver1_INT.c"
   1:Generated_Source\PSoC5/LED_Driver1_INT.c **** /*******************************************************************************
   2:Generated_Source\PSoC5/LED_Driver1_INT.c **** * File Name: LED_Driver1_INT.c
   3:Generated_Source\PSoC5/LED_Driver1_INT.c **** * Version 3.50
   4:Generated_Source\PSoC5/LED_Driver1_INT.c **** *
   5:Generated_Source\PSoC5/LED_Driver1_INT.c **** * Description:
   6:Generated_Source\PSoC5/LED_Driver1_INT.c **** *  This file provides the source code of Interrupt Service Routine (ISR)
   7:Generated_Source\PSoC5/LED_Driver1_INT.c **** *  for the I2C component.
   8:Generated_Source\PSoC5/LED_Driver1_INT.c **** *
   9:Generated_Source\PSoC5/LED_Driver1_INT.c **** ********************************************************************************
  10:Generated_Source\PSoC5/LED_Driver1_INT.c **** * Copyright 2008-2015, Cypress Semiconductor Corporation. All rights reserved.
  11:Generated_Source\PSoC5/LED_Driver1_INT.c **** * You may use this file only in accordance with the license, terms, conditions,
  12:Generated_Source\PSoC5/LED_Driver1_INT.c **** * disclaimers, and limitations in the end user license agreement accompanying
  13:Generated_Source\PSoC5/LED_Driver1_INT.c **** * the software package with which this file was provided.
  14:Generated_Source\PSoC5/LED_Driver1_INT.c **** *******************************************************************************/
  15:Generated_Source\PSoC5/LED_Driver1_INT.c **** 
  16:Generated_Source\PSoC5/LED_Driver1_INT.c **** #include "LED_Driver1_PVT.h"
  17:Generated_Source\PSoC5/LED_Driver1_INT.c **** #include "cyapicallbacks.h"
  18:Generated_Source\PSoC5/LED_Driver1_INT.c **** 
  19:Generated_Source\PSoC5/LED_Driver1_INT.c **** 
  20:Generated_Source\PSoC5/LED_Driver1_INT.c **** /*******************************************************************************
  21:Generated_Source\PSoC5/LED_Driver1_INT.c **** *  Place your includes, defines and code here.
  22:Generated_Source\PSoC5/LED_Driver1_INT.c **** ********************************************************************************/
  23:Generated_Source\PSoC5/LED_Driver1_INT.c **** /* `#START LED_Driver1_ISR_intc` */
  24:Generated_Source\PSoC5/LED_Driver1_INT.c **** 
  25:Generated_Source\PSoC5/LED_Driver1_INT.c **** /* `#END` */
  26:Generated_Source\PSoC5/LED_Driver1_INT.c **** 
  27:Generated_Source\PSoC5/LED_Driver1_INT.c **** 
  28:Generated_Source\PSoC5/LED_Driver1_INT.c **** /*******************************************************************************
  29:Generated_Source\PSoC5/LED_Driver1_INT.c **** * Function Name: LED_Driver1_ISR
  30:Generated_Source\PSoC5/LED_Driver1_INT.c **** ********************************************************************************
  31:Generated_Source\PSoC5/LED_Driver1_INT.c **** *
ARM GAS  D:\Windows\AppData\Local\Temp\ccSV0DQf.s 			page 2


  32:Generated_Source\PSoC5/LED_Driver1_INT.c **** * Summary:
  33:Generated_Source\PSoC5/LED_Driver1_INT.c **** *  The handler for the I2C interrupt. The slave and master operations are
  34:Generated_Source\PSoC5/LED_Driver1_INT.c **** *  handled here.
  35:Generated_Source\PSoC5/LED_Driver1_INT.c **** *
  36:Generated_Source\PSoC5/LED_Driver1_INT.c **** * Parameters:
  37:Generated_Source\PSoC5/LED_Driver1_INT.c **** *  None.
  38:Generated_Source\PSoC5/LED_Driver1_INT.c **** *
  39:Generated_Source\PSoC5/LED_Driver1_INT.c **** * Return:
  40:Generated_Source\PSoC5/LED_Driver1_INT.c **** *  None.
  41:Generated_Source\PSoC5/LED_Driver1_INT.c **** *
  42:Generated_Source\PSoC5/LED_Driver1_INT.c **** * Reentrant:
  43:Generated_Source\PSoC5/LED_Driver1_INT.c **** *  No.
  44:Generated_Source\PSoC5/LED_Driver1_INT.c **** *
  45:Generated_Source\PSoC5/LED_Driver1_INT.c **** *******************************************************************************/
  46:Generated_Source\PSoC5/LED_Driver1_INT.c **** CY_ISR(LED_Driver1_ISR)
  47:Generated_Source\PSoC5/LED_Driver1_INT.c **** {
  27              		.loc 1 47 0
  28              		.cfi_startproc
  29              		@ args = 0, pretend = 0, frame = 0
  30              		@ frame_needed = 0, uses_anonymous_args = 0
  31 0000 38B5     		push	{r3, r4, r5, lr}
  32              		.cfi_def_cfa_offset 16
  33              		.cfi_offset 3, -16
  34              		.cfi_offset 4, -12
  35              		.cfi_offset 5, -8
  36              		.cfi_offset 14, -4
  48:Generated_Source\PSoC5/LED_Driver1_INT.c **** #if (LED_Driver1_MODE_SLAVE_ENABLED)
  49:Generated_Source\PSoC5/LED_Driver1_INT.c ****    uint8  tmp8;
  50:Generated_Source\PSoC5/LED_Driver1_INT.c **** #endif  /* (LED_Driver1_MODE_SLAVE_ENABLED) */
  51:Generated_Source\PSoC5/LED_Driver1_INT.c **** 
  52:Generated_Source\PSoC5/LED_Driver1_INT.c ****     uint8  tmpCsr;
  53:Generated_Source\PSoC5/LED_Driver1_INT.c ****     
  54:Generated_Source\PSoC5/LED_Driver1_INT.c **** #ifdef LED_Driver1_ISR_ENTRY_CALLBACK
  55:Generated_Source\PSoC5/LED_Driver1_INT.c ****     LED_Driver1_ISR_EntryCallback();
  56:Generated_Source\PSoC5/LED_Driver1_INT.c **** #endif /* LED_Driver1_ISR_ENTRY_CALLBACK */
  57:Generated_Source\PSoC5/LED_Driver1_INT.c ****     
  58:Generated_Source\PSoC5/LED_Driver1_INT.c **** 
  59:Generated_Source\PSoC5/LED_Driver1_INT.c **** #if(LED_Driver1_TIMEOUT_FF_ENABLED)
  60:Generated_Source\PSoC5/LED_Driver1_INT.c ****     if(0u != LED_Driver1_TimeoutGetStatus())
  61:Generated_Source\PSoC5/LED_Driver1_INT.c ****     {
  62:Generated_Source\PSoC5/LED_Driver1_INT.c ****         LED_Driver1_TimeoutReset();
  63:Generated_Source\PSoC5/LED_Driver1_INT.c ****         LED_Driver1_state = LED_Driver1_SM_EXIT_IDLE;
  64:Generated_Source\PSoC5/LED_Driver1_INT.c ****         /* LED_Driver1_CSR_REG should be cleared after reset */
  65:Generated_Source\PSoC5/LED_Driver1_INT.c ****     }
  66:Generated_Source\PSoC5/LED_Driver1_INT.c **** #endif /* (LED_Driver1_TIMEOUT_FF_ENABLED) */
  67:Generated_Source\PSoC5/LED_Driver1_INT.c **** 
  68:Generated_Source\PSoC5/LED_Driver1_INT.c **** 
  69:Generated_Source\PSoC5/LED_Driver1_INT.c ****     tmpCsr = LED_Driver1_CSR_REG;      /* Make copy as interrupts clear */
  37              		.loc 1 69 0
  38 0002 AB4B     		ldr	r3, .L27
  39 0004 1C78     		ldrb	r4, [r3]	@ zero_extendqisi2
  40 0006 E4B2     		uxtb	r4, r4
  41              	.LVL0:
  70:Generated_Source\PSoC5/LED_Driver1_INT.c **** 
  71:Generated_Source\PSoC5/LED_Driver1_INT.c **** #if(LED_Driver1_MODE_MULTI_MASTER_SLAVE_ENABLED)
  72:Generated_Source\PSoC5/LED_Driver1_INT.c ****     if(LED_Driver1_CHECK_START_GEN(LED_Driver1_MCSR_REG))
  73:Generated_Source\PSoC5/LED_Driver1_INT.c ****     {
ARM GAS  D:\Windows\AppData\Local\Temp\ccSV0DQf.s 			page 3


  74:Generated_Source\PSoC5/LED_Driver1_INT.c ****         LED_Driver1_CLEAR_START_GEN;
  75:Generated_Source\PSoC5/LED_Driver1_INT.c **** 
  76:Generated_Source\PSoC5/LED_Driver1_INT.c ****         /* Set transfer complete and error flags */
  77:Generated_Source\PSoC5/LED_Driver1_INT.c ****         LED_Driver1_mstrStatus |= (LED_Driver1_MSTAT_ERR_XFER |
  78:Generated_Source\PSoC5/LED_Driver1_INT.c ****                                         LED_Driver1_GET_MSTAT_CMPLT);
  79:Generated_Source\PSoC5/LED_Driver1_INT.c **** 
  80:Generated_Source\PSoC5/LED_Driver1_INT.c ****         /* Slave was addressed */
  81:Generated_Source\PSoC5/LED_Driver1_INT.c ****         LED_Driver1_state = LED_Driver1_SM_SLAVE;
  82:Generated_Source\PSoC5/LED_Driver1_INT.c ****     }
  83:Generated_Source\PSoC5/LED_Driver1_INT.c **** #endif /* (LED_Driver1_MODE_MULTI_MASTER_SLAVE_ENABLED) */
  84:Generated_Source\PSoC5/LED_Driver1_INT.c **** 
  85:Generated_Source\PSoC5/LED_Driver1_INT.c **** 
  86:Generated_Source\PSoC5/LED_Driver1_INT.c **** #if(LED_Driver1_MODE_MULTI_MASTER_ENABLED)
  87:Generated_Source\PSoC5/LED_Driver1_INT.c ****     if(LED_Driver1_CHECK_LOST_ARB(tmpCsr))
  88:Generated_Source\PSoC5/LED_Driver1_INT.c ****     {
  89:Generated_Source\PSoC5/LED_Driver1_INT.c ****         /* Set errors */
  90:Generated_Source\PSoC5/LED_Driver1_INT.c ****         LED_Driver1_mstrStatus |= (LED_Driver1_MSTAT_ERR_XFER     |
  91:Generated_Source\PSoC5/LED_Driver1_INT.c ****                                         LED_Driver1_MSTAT_ERR_ARB_LOST |
  92:Generated_Source\PSoC5/LED_Driver1_INT.c ****                                         LED_Driver1_GET_MSTAT_CMPLT);
  93:Generated_Source\PSoC5/LED_Driver1_INT.c **** 
  94:Generated_Source\PSoC5/LED_Driver1_INT.c ****         LED_Driver1_DISABLE_INT_ON_STOP; /* Interrupt on Stop is enabled by write */
  95:Generated_Source\PSoC5/LED_Driver1_INT.c **** 
  96:Generated_Source\PSoC5/LED_Driver1_INT.c ****         #if(LED_Driver1_MODE_MULTI_MASTER_SLAVE_ENABLED)
  97:Generated_Source\PSoC5/LED_Driver1_INT.c ****             if(LED_Driver1_CHECK_ADDRESS_STS(tmpCsr))
  98:Generated_Source\PSoC5/LED_Driver1_INT.c ****             {
  99:Generated_Source\PSoC5/LED_Driver1_INT.c ****                 /* Slave was addressed */
 100:Generated_Source\PSoC5/LED_Driver1_INT.c ****                 LED_Driver1_state = LED_Driver1_SM_SLAVE;
 101:Generated_Source\PSoC5/LED_Driver1_INT.c ****             }
 102:Generated_Source\PSoC5/LED_Driver1_INT.c ****             else
 103:Generated_Source\PSoC5/LED_Driver1_INT.c ****             {
 104:Generated_Source\PSoC5/LED_Driver1_INT.c ****                 LED_Driver1_BUS_RELEASE;
 105:Generated_Source\PSoC5/LED_Driver1_INT.c **** 
 106:Generated_Source\PSoC5/LED_Driver1_INT.c ****                 LED_Driver1_state = LED_Driver1_SM_EXIT_IDLE;
 107:Generated_Source\PSoC5/LED_Driver1_INT.c ****             }
 108:Generated_Source\PSoC5/LED_Driver1_INT.c ****         #else
 109:Generated_Source\PSoC5/LED_Driver1_INT.c ****             LED_Driver1_BUS_RELEASE;
 110:Generated_Source\PSoC5/LED_Driver1_INT.c **** 
 111:Generated_Source\PSoC5/LED_Driver1_INT.c ****             LED_Driver1_state = LED_Driver1_SM_EXIT_IDLE;
 112:Generated_Source\PSoC5/LED_Driver1_INT.c **** 
 113:Generated_Source\PSoC5/LED_Driver1_INT.c ****         #endif /* (LED_Driver1_MODE_MULTI_MASTER_SLAVE_ENABLED) */
 114:Generated_Source\PSoC5/LED_Driver1_INT.c ****     }
 115:Generated_Source\PSoC5/LED_Driver1_INT.c **** #endif /* (LED_Driver1_MODE_MULTI_MASTER_ENABLED) */
 116:Generated_Source\PSoC5/LED_Driver1_INT.c **** 
 117:Generated_Source\PSoC5/LED_Driver1_INT.c ****     /* Check for master operation mode */
 118:Generated_Source\PSoC5/LED_Driver1_INT.c ****     if(LED_Driver1_CHECK_SM_MASTER)
  42              		.loc 1 118 0
  43 0008 AA4B     		ldr	r3, .L27+4
  44 000a 1B78     		ldrb	r3, [r3]	@ zero_extendqisi2
  45 000c 13F0400F 		tst	r3, #64
  46 0010 00F07881 		beq	.L2
 119:Generated_Source\PSoC5/LED_Driver1_INT.c ****     {
 120:Generated_Source\PSoC5/LED_Driver1_INT.c ****     #if(LED_Driver1_MODE_MASTER_ENABLED)
 121:Generated_Source\PSoC5/LED_Driver1_INT.c ****         if(LED_Driver1_CHECK_BYTE_COMPLETE(tmpCsr))
  47              		.loc 1 121 0
  48 0014 14F0010F 		tst	r4, #1
  49 0018 00F04081 		beq	.L3
 122:Generated_Source\PSoC5/LED_Driver1_INT.c ****         {
ARM GAS  D:\Windows\AppData\Local\Temp\ccSV0DQf.s 			page 4


 123:Generated_Source\PSoC5/LED_Driver1_INT.c ****             switch (LED_Driver1_state)
  50              		.loc 1 123 0
  51 001c A54B     		ldr	r3, .L27+4
  52 001e 1B78     		ldrb	r3, [r3]	@ zero_extendqisi2
  53 0020 453B     		subs	r3, r3, #69
  54 0022 052B     		cmp	r3, #5
  55 0024 00F23781 		bhi	.L4
  56 0028 DFE813F0 		tbh	[pc, r3, lsl #1]
  57              	.L6:
  58 002c 0600     		.2byte	(.L5-.L6)/2
  59 002e 9200     		.2byte	(.L7-.L6)/2
  60 0030 3501     		.2byte	(.L4-.L6)/2
  61 0032 3501     		.2byte	(.L4-.L6)/2
  62 0034 0600     		.2byte	(.L5-.L6)/2
  63 0036 F800     		.2byte	(.L8-.L6)/2
  64              		.p2align 1
  65              	.L5:
 124:Generated_Source\PSoC5/LED_Driver1_INT.c ****             {
 125:Generated_Source\PSoC5/LED_Driver1_INT.c ****             case LED_Driver1_SM_MSTR_WR_ADDR:  /* After address is sent, write data */
 126:Generated_Source\PSoC5/LED_Driver1_INT.c ****             case LED_Driver1_SM_MSTR_RD_ADDR:  /* After address is sent, read data */
 127:Generated_Source\PSoC5/LED_Driver1_INT.c **** 
 128:Generated_Source\PSoC5/LED_Driver1_INT.c ****                 tmpCsr &= ((uint8) ~LED_Driver1_CSR_STOP_STATUS); /* Clear Stop bit history on addr
  66              		.loc 1 128 0
  67 0038 04F0DF05 		and	r5, r4, #223
  68              	.LVL1:
 129:Generated_Source\PSoC5/LED_Driver1_INT.c **** 
 130:Generated_Source\PSoC5/LED_Driver1_INT.c ****                 if(LED_Driver1_CHECK_ADDR_ACK(tmpCsr))
  69              		.loc 1 130 0
  70 003c 04F00A04 		and	r4, r4, #10
  71 0040 082C     		cmp	r4, #8
  72 0042 50D1     		bne	.L9
 131:Generated_Source\PSoC5/LED_Driver1_INT.c ****                 {
 132:Generated_Source\PSoC5/LED_Driver1_INT.c ****                     /* Setup for transmit or receive of data */
 133:Generated_Source\PSoC5/LED_Driver1_INT.c ****                     if(LED_Driver1_state == LED_Driver1_SM_MSTR_WR_ADDR)   /* TRANSMIT data */
  73              		.loc 1 133 0
  74 0044 9B4B     		ldr	r3, .L27+4
  75 0046 1B78     		ldrb	r3, [r3]	@ zero_extendqisi2
  76 0048 DBB2     		uxtb	r3, r3
  77 004a 452B     		cmp	r3, #69
  78 004c 3DD1     		bne	.L10
 134:Generated_Source\PSoC5/LED_Driver1_INT.c ****                     {
 135:Generated_Source\PSoC5/LED_Driver1_INT.c ****                         /* Check if at least one byte to transfer */
 136:Generated_Source\PSoC5/LED_Driver1_INT.c ****                         if(LED_Driver1_mstrWrBufSize > 0u)
  79              		.loc 1 136 0
  80 004e 9A4B     		ldr	r3, .L27+8
  81 0050 1B78     		ldrb	r3, [r3]	@ zero_extendqisi2
  82 0052 13F0FF0F 		tst	r3, #255
  83 0056 16D0     		beq	.L11
 137:Generated_Source\PSoC5/LED_Driver1_INT.c ****                         {
 138:Generated_Source\PSoC5/LED_Driver1_INT.c ****                             /* Load the 1st data byte */
 139:Generated_Source\PSoC5/LED_Driver1_INT.c ****                             LED_Driver1_DATA_REG = LED_Driver1_mstrWrBufPtr[0u];
  84              		.loc 1 139 0
  85 0058 984B     		ldr	r3, .L27+12
  86 005a 1B68     		ldr	r3, [r3]
  87 005c 1B78     		ldrb	r3, [r3]	@ zero_extendqisi2
  88 005e DBB2     		uxtb	r3, r3
  89 0060 974A     		ldr	r2, .L27+16
ARM GAS  D:\Windows\AppData\Local\Temp\ccSV0DQf.s 			page 5


  90 0062 1370     		strb	r3, [r2]
 140:Generated_Source\PSoC5/LED_Driver1_INT.c ****                             LED_Driver1_TRANSMIT_DATA;
  91              		.loc 1 140 0
  92 0064 0622     		movs	r2, #6
  93 0066 974B     		ldr	r3, .L27+20
  94 0068 1A70     		strb	r2, [r3]
  95 006a FF22     		movs	r2, #255
  96 006c 9F33     		adds	r3, r3, #159
  97 006e 1A70     		strb	r2, [r3]
  98 0070 0022     		movs	r2, #0
  99 0072 4033     		adds	r3, r3, #64
 100 0074 1A70     		strb	r2, [r3]
 141:Generated_Source\PSoC5/LED_Driver1_INT.c ****                             LED_Driver1_mstrWrBufIndex = 1u;   /* Set index to 2nd element */
 101              		.loc 1 141 0
 102 0076 0122     		movs	r2, #1
 103 0078 934B     		ldr	r3, .L27+24
 104 007a 1A70     		strb	r2, [r3]
 142:Generated_Source\PSoC5/LED_Driver1_INT.c **** 
 143:Generated_Source\PSoC5/LED_Driver1_INT.c ****                             /* Set transmit state until done */
 144:Generated_Source\PSoC5/LED_Driver1_INT.c ****                             LED_Driver1_state = LED_Driver1_SM_MSTR_WR_DATA;
 105              		.loc 1 144 0
 106 007c 4622     		movs	r2, #70
 107 007e 8D4B     		ldr	r3, .L27+4
 108 0080 1A70     		strb	r2, [r3]
 128:Generated_Source\PSoC5/LED_Driver1_INT.c **** 
 109              		.loc 1 128 0
 110 0082 2C46     		mov	r4, r5
 111 0084 0AE1     		b	.L3
 112              	.L11:
 145:Generated_Source\PSoC5/LED_Driver1_INT.c ****                         }
 146:Generated_Source\PSoC5/LED_Driver1_INT.c ****                         /* End of buffer: complete writing */
 147:Generated_Source\PSoC5/LED_Driver1_INT.c ****                         else if(LED_Driver1_CHECK_NO_STOP(LED_Driver1_mstrControl))
 113              		.loc 1 147 0
 114 0086 914B     		ldr	r3, .L27+28
 115 0088 1B78     		ldrb	r3, [r3]	@ zero_extendqisi2
 116 008a 13F0020F 		tst	r3, #2
 117 008e 0CD0     		beq	.L12
 148:Generated_Source\PSoC5/LED_Driver1_INT.c ****                         {
 149:Generated_Source\PSoC5/LED_Driver1_INT.c ****                             /* Set write complete and master halted */
 150:Generated_Source\PSoC5/LED_Driver1_INT.c ****                             LED_Driver1_mstrStatus |= (LED_Driver1_MSTAT_XFER_HALT |
 118              		.loc 1 150 0
 119 0090 8F4A     		ldr	r2, .L27+32
 120 0092 1378     		ldrb	r3, [r2]	@ zero_extendqisi2
 121 0094 43F00A03 		orr	r3, r3, #10
 122 0098 1370     		strb	r3, [r2]
 151:Generated_Source\PSoC5/LED_Driver1_INT.c ****                                                             LED_Driver1_MSTAT_WR_CMPLT);
 152:Generated_Source\PSoC5/LED_Driver1_INT.c **** 
 153:Generated_Source\PSoC5/LED_Driver1_INT.c ****                             LED_Driver1_state = LED_Driver1_SM_MSTR_HALT; /* Expect ReStart */
 123              		.loc 1 153 0
 124 009a 6022     		movs	r2, #96
 125 009c 854B     		ldr	r3, .L27+4
 126 009e 1A70     		strb	r2, [r3]
 154:Generated_Source\PSoC5/LED_Driver1_INT.c ****                             LED_Driver1_DisableInt();
 127              		.loc 1 154 0
 128 00a0 0122     		movs	r2, #1
 129 00a2 8C4B     		ldr	r3, .L27+36
 130 00a4 1A60     		str	r2, [r3]
ARM GAS  D:\Windows\AppData\Local\Temp\ccSV0DQf.s 			page 6


 128:Generated_Source\PSoC5/LED_Driver1_INT.c **** 
 131              		.loc 1 128 0
 132 00a6 2C46     		mov	r4, r5
 133 00a8 F8E0     		b	.L3
 134              	.L12:
 155:Generated_Source\PSoC5/LED_Driver1_INT.c ****                         }
 156:Generated_Source\PSoC5/LED_Driver1_INT.c ****                         else
 157:Generated_Source\PSoC5/LED_Driver1_INT.c ****                         {
 158:Generated_Source\PSoC5/LED_Driver1_INT.c ****                             LED_Driver1_ENABLE_INT_ON_STOP; /* Enable interrupt on Stop, to catch i
 135              		.loc 1 158 0
 136 00aa 8B4A     		ldr	r2, .L27+40
 137 00ac 1378     		ldrb	r3, [r2]	@ zero_extendqisi2
 138 00ae 43F02003 		orr	r3, r3, #32
 139 00b2 1370     		strb	r3, [r2]
 159:Generated_Source\PSoC5/LED_Driver1_INT.c ****                             LED_Driver1_GENERATE_STOP;
 140              		.loc 1 159 0
 141 00b4 5222     		movs	r2, #82
 142 00b6 834B     		ldr	r3, .L27+20
 143 00b8 1A70     		strb	r2, [r3]
 144 00ba FF22     		movs	r2, #255
 145 00bc 9F33     		adds	r3, r3, #159
 146 00be 1A70     		strb	r2, [r3]
 147 00c0 0022     		movs	r2, #0
 148 00c2 4033     		adds	r3, r3, #64
 149 00c4 1A70     		strb	r2, [r3]
 128:Generated_Source\PSoC5/LED_Driver1_INT.c **** 
 150              		.loc 1 128 0
 151 00c6 2C46     		mov	r4, r5
 152 00c8 E8E0     		b	.L3
 153              	.L10:
 160:Generated_Source\PSoC5/LED_Driver1_INT.c ****                         }
 161:Generated_Source\PSoC5/LED_Driver1_INT.c ****                     }
 162:Generated_Source\PSoC5/LED_Driver1_INT.c ****                     else  /* Master receive data */
 163:Generated_Source\PSoC5/LED_Driver1_INT.c ****                     {
 164:Generated_Source\PSoC5/LED_Driver1_INT.c ****                         LED_Driver1_READY_TO_READ; /* Release bus to read data */
 154              		.loc 1 164 0
 155 00ca 0222     		movs	r2, #2
 156 00cc 7D4B     		ldr	r3, .L27+20
 157 00ce 1A70     		strb	r2, [r3]
 158 00d0 FF22     		movs	r2, #255
 159 00d2 9F33     		adds	r3, r3, #159
 160 00d4 1A70     		strb	r2, [r3]
 161 00d6 0022     		movs	r2, #0
 162 00d8 4033     		adds	r3, r3, #64
 163 00da 1A70     		strb	r2, [r3]
 165:Generated_Source\PSoC5/LED_Driver1_INT.c **** 
 166:Generated_Source\PSoC5/LED_Driver1_INT.c ****                         LED_Driver1_state  = LED_Driver1_SM_MSTR_RD_DATA;
 164              		.loc 1 166 0
 165 00dc 4A22     		movs	r2, #74
 166 00de 754B     		ldr	r3, .L27+4
 167 00e0 1A70     		strb	r2, [r3]
 128:Generated_Source\PSoC5/LED_Driver1_INT.c **** 
 168              		.loc 1 128 0
 169 00e2 2C46     		mov	r4, r5
 170 00e4 DAE0     		b	.L3
 171              	.L9:
 167:Generated_Source\PSoC5/LED_Driver1_INT.c ****                     }
ARM GAS  D:\Windows\AppData\Local\Temp\ccSV0DQf.s 			page 7


 168:Generated_Source\PSoC5/LED_Driver1_INT.c ****                 }
 169:Generated_Source\PSoC5/LED_Driver1_INT.c ****                 /* Address is NACKed */
 170:Generated_Source\PSoC5/LED_Driver1_INT.c ****                 else if(LED_Driver1_CHECK_ADDR_NAK(tmpCsr))
 172              		.loc 1 170 0
 173 00e6 0A2C     		cmp	r4, #10
 174 00e8 2DD1     		bne	.L13
 171:Generated_Source\PSoC5/LED_Driver1_INT.c ****                 {
 172:Generated_Source\PSoC5/LED_Driver1_INT.c ****                     /* Set Address NAK error */
 173:Generated_Source\PSoC5/LED_Driver1_INT.c ****                     LED_Driver1_mstrStatus |= (LED_Driver1_MSTAT_ERR_XFER |
 175              		.loc 1 173 0
 176 00ea 794A     		ldr	r2, .L27+32
 177 00ec 1378     		ldrb	r3, [r2]	@ zero_extendqisi2
 178 00ee 43F0A003 		orr	r3, r3, #160
 179 00f2 1370     		strb	r3, [r2]
 174:Generated_Source\PSoC5/LED_Driver1_INT.c ****                                                     LED_Driver1_MSTAT_ERR_ADDR_NAK);
 175:Generated_Source\PSoC5/LED_Driver1_INT.c **** 
 176:Generated_Source\PSoC5/LED_Driver1_INT.c ****                     if(LED_Driver1_CHECK_NO_STOP(LED_Driver1_mstrControl))
 180              		.loc 1 176 0
 181 00f4 754B     		ldr	r3, .L27+28
 182 00f6 1B78     		ldrb	r3, [r3]	@ zero_extendqisi2
 183 00f8 13F0020F 		tst	r3, #2
 184 00fc 13D0     		beq	.L14
 177:Generated_Source\PSoC5/LED_Driver1_INT.c ****                     {
 178:Generated_Source\PSoC5/LED_Driver1_INT.c ****                         LED_Driver1_mstrStatus |= (LED_Driver1_MSTAT_XFER_HALT |
 179:Generated_Source\PSoC5/LED_Driver1_INT.c ****                                                         LED_Driver1_GET_MSTAT_CMPLT);
 185              		.loc 1 179 0
 186 00fe 6D4B     		ldr	r3, .L27+4
 187 0100 1B78     		ldrb	r3, [r3]	@ zero_extendqisi2
 178:Generated_Source\PSoC5/LED_Driver1_INT.c ****                                                         LED_Driver1_GET_MSTAT_CMPLT);
 188              		.loc 1 178 0
 189 0102 13F0080F 		tst	r3, #8
 190 0106 01D0     		beq	.L24
 191 0108 0923     		movs	r3, #9
 192 010a 00E0     		b	.L15
 193              	.L24:
 194 010c 0A23     		movs	r3, #10
 195              	.L15:
 178:Generated_Source\PSoC5/LED_Driver1_INT.c ****                                                         LED_Driver1_GET_MSTAT_CMPLT);
 196              		.loc 1 178 0 is_stmt 0 discriminator 4
 197 010e 704A     		ldr	r2, .L27+32
 198 0110 1178     		ldrb	r1, [r2]	@ zero_extendqisi2
 199 0112 0B43     		orrs	r3, r3, r1
 200 0114 1370     		strb	r3, [r2]
 180:Generated_Source\PSoC5/LED_Driver1_INT.c **** 
 181:Generated_Source\PSoC5/LED_Driver1_INT.c ****                         LED_Driver1_state = LED_Driver1_SM_MSTR_HALT; /* Expect RESTART */
 201              		.loc 1 181 0 is_stmt 1 discriminator 4
 202 0116 6022     		movs	r2, #96
 203 0118 664B     		ldr	r3, .L27+4
 204 011a 1A70     		strb	r2, [r3]
 182:Generated_Source\PSoC5/LED_Driver1_INT.c ****                         LED_Driver1_DisableInt();
 205              		.loc 1 182 0 discriminator 4
 206 011c 0122     		movs	r2, #1
 207 011e 6D4B     		ldr	r3, .L27+36
 208 0120 1A60     		str	r2, [r3]
 128:Generated_Source\PSoC5/LED_Driver1_INT.c **** 
 209              		.loc 1 128 0 discriminator 4
 210 0122 2C46     		mov	r4, r5
ARM GAS  D:\Windows\AppData\Local\Temp\ccSV0DQf.s 			page 8


 211 0124 BAE0     		b	.L3
 212              	.L14:
 183:Generated_Source\PSoC5/LED_Driver1_INT.c ****                     }
 184:Generated_Source\PSoC5/LED_Driver1_INT.c ****                     else  /* Do normal Stop */
 185:Generated_Source\PSoC5/LED_Driver1_INT.c ****                     {
 186:Generated_Source\PSoC5/LED_Driver1_INT.c ****                         LED_Driver1_ENABLE_INT_ON_STOP; /* Enable interrupt on Stop, to catch it */
 213              		.loc 1 186 0
 214 0126 6C4A     		ldr	r2, .L27+40
 215 0128 1378     		ldrb	r3, [r2]	@ zero_extendqisi2
 216 012a 43F02003 		orr	r3, r3, #32
 217 012e 1370     		strb	r3, [r2]
 187:Generated_Source\PSoC5/LED_Driver1_INT.c ****                         LED_Driver1_GENERATE_STOP;
 218              		.loc 1 187 0
 219 0130 5222     		movs	r2, #82
 220 0132 644B     		ldr	r3, .L27+20
 221 0134 1A70     		strb	r2, [r3]
 222 0136 FF22     		movs	r2, #255
 223 0138 9F33     		adds	r3, r3, #159
 224 013a 1A70     		strb	r2, [r3]
 225 013c 0022     		movs	r2, #0
 226 013e 4033     		adds	r3, r3, #64
 227 0140 1A70     		strb	r2, [r3]
 128:Generated_Source\PSoC5/LED_Driver1_INT.c **** 
 228              		.loc 1 128 0
 229 0142 2C46     		mov	r4, r5
 230 0144 AAE0     		b	.L3
 231              	.L13:
 188:Generated_Source\PSoC5/LED_Driver1_INT.c ****                     }
 189:Generated_Source\PSoC5/LED_Driver1_INT.c ****                 }
 190:Generated_Source\PSoC5/LED_Driver1_INT.c ****                 else
 191:Generated_Source\PSoC5/LED_Driver1_INT.c ****                 {
 192:Generated_Source\PSoC5/LED_Driver1_INT.c ****                     /* Address phase is not set for some reason: error */
 193:Generated_Source\PSoC5/LED_Driver1_INT.c ****                     #if(LED_Driver1_TIMEOUT_ENABLED)
 194:Generated_Source\PSoC5/LED_Driver1_INT.c ****                         /* Exit interrupt to take chance for timeout timer to handle this case */
 195:Generated_Source\PSoC5/LED_Driver1_INT.c ****                         LED_Driver1_DisableInt();
 196:Generated_Source\PSoC5/LED_Driver1_INT.c ****                         LED_Driver1_ClearPendingInt();
 197:Generated_Source\PSoC5/LED_Driver1_INT.c ****                     #else
 198:Generated_Source\PSoC5/LED_Driver1_INT.c ****                         /* Block execution flow: unexpected condition */
 199:Generated_Source\PSoC5/LED_Driver1_INT.c ****                         CYASSERT(0u != 0u);
 232              		.loc 1 199 0 discriminator 1
 233 0146 0020     		movs	r0, #0
 234 0148 FFF7FEFF 		bl	CyHalt
 235              	.LVL2:
 128:Generated_Source\PSoC5/LED_Driver1_INT.c **** 
 236              		.loc 1 128 0 discriminator 1
 237 014c 2C46     		mov	r4, r5
 238 014e A5E0     		b	.L3
 239              	.LVL3:
 240              	.L7:
 200:Generated_Source\PSoC5/LED_Driver1_INT.c ****                     #endif /* (LED_Driver1_TIMEOUT_ENABLED) */
 201:Generated_Source\PSoC5/LED_Driver1_INT.c ****                 }
 202:Generated_Source\PSoC5/LED_Driver1_INT.c ****                 break;
 203:Generated_Source\PSoC5/LED_Driver1_INT.c **** 
 204:Generated_Source\PSoC5/LED_Driver1_INT.c ****             case LED_Driver1_SM_MSTR_WR_DATA:
 205:Generated_Source\PSoC5/LED_Driver1_INT.c **** 
 206:Generated_Source\PSoC5/LED_Driver1_INT.c ****                 if(LED_Driver1_CHECK_DATA_ACK(tmpCsr))
 241              		.loc 1 206 0
ARM GAS  D:\Windows\AppData\Local\Temp\ccSV0DQf.s 			page 9


 242 0150 14F0020F 		tst	r4, #2
 243 0154 3DD1     		bne	.L16
 207:Generated_Source\PSoC5/LED_Driver1_INT.c ****                 {
 208:Generated_Source\PSoC5/LED_Driver1_INT.c ****                     /* Check if end of buffer */
 209:Generated_Source\PSoC5/LED_Driver1_INT.c ****                     if(LED_Driver1_mstrWrBufIndex  < LED_Driver1_mstrWrBufSize)
 244              		.loc 1 209 0
 245 0156 5C4B     		ldr	r3, .L27+24
 246 0158 1B78     		ldrb	r3, [r3]	@ zero_extendqisi2
 247 015a 574A     		ldr	r2, .L27+8
 248 015c 1278     		ldrb	r2, [r2]	@ zero_extendqisi2
 249 015e DBB2     		uxtb	r3, r3
 250 0160 9342     		cmp	r3, r2
 251 0162 16D2     		bcs	.L17
 210:Generated_Source\PSoC5/LED_Driver1_INT.c ****                     {
 211:Generated_Source\PSoC5/LED_Driver1_INT.c ****                         LED_Driver1_DATA_REG =
 212:Generated_Source\PSoC5/LED_Driver1_INT.c ****                                                  LED_Driver1_mstrWrBufPtr[LED_Driver1_mstrWrBufInde
 252              		.loc 1 212 0
 253 0164 584A     		ldr	r2, .L27+24
 254 0166 1378     		ldrb	r3, [r2]	@ zero_extendqisi2
 255 0168 DBB2     		uxtb	r3, r3
 256 016a 5449     		ldr	r1, .L27+12
 257 016c 0968     		ldr	r1, [r1]
 258 016e CB5C     		ldrb	r3, [r1, r3]	@ zero_extendqisi2
 259 0170 DBB2     		uxtb	r3, r3
 211:Generated_Source\PSoC5/LED_Driver1_INT.c ****                                                  LED_Driver1_mstrWrBufPtr[LED_Driver1_mstrWrBufInde
 260              		.loc 1 211 0
 261 0172 5349     		ldr	r1, .L27+16
 262 0174 0B70     		strb	r3, [r1]
 213:Generated_Source\PSoC5/LED_Driver1_INT.c ****                         LED_Driver1_TRANSMIT_DATA;
 263              		.loc 1 213 0
 264 0176 0621     		movs	r1, #6
 265 0178 524B     		ldr	r3, .L27+20
 266 017a 1970     		strb	r1, [r3]
 267 017c FF21     		movs	r1, #255
 268 017e 9F33     		adds	r3, r3, #159
 269 0180 1970     		strb	r1, [r3]
 270 0182 0021     		movs	r1, #0
 271 0184 4033     		adds	r3, r3, #64
 272 0186 1970     		strb	r1, [r3]
 214:Generated_Source\PSoC5/LED_Driver1_INT.c ****                         LED_Driver1_mstrWrBufIndex++;
 273              		.loc 1 214 0
 274 0188 1378     		ldrb	r3, [r2]	@ zero_extendqisi2
 275 018a 0133     		adds	r3, r3, #1
 276 018c DBB2     		uxtb	r3, r3
 277 018e 1370     		strb	r3, [r2]
 278 0190 84E0     		b	.L3
 279              	.L17:
 215:Generated_Source\PSoC5/LED_Driver1_INT.c ****                     }
 216:Generated_Source\PSoC5/LED_Driver1_INT.c ****                     /* End of buffer: complete writing */
 217:Generated_Source\PSoC5/LED_Driver1_INT.c ****                     else if(LED_Driver1_CHECK_NO_STOP(LED_Driver1_mstrControl))
 280              		.loc 1 217 0
 281 0192 4E4B     		ldr	r3, .L27+28
 282 0194 1B78     		ldrb	r3, [r3]	@ zero_extendqisi2
 283 0196 13F0020F 		tst	r3, #2
 284 019a 0BD0     		beq	.L18
 218:Generated_Source\PSoC5/LED_Driver1_INT.c ****                     {
 219:Generated_Source\PSoC5/LED_Driver1_INT.c ****                         /* Set write complete and master halted */
ARM GAS  D:\Windows\AppData\Local\Temp\ccSV0DQf.s 			page 10


 220:Generated_Source\PSoC5/LED_Driver1_INT.c ****                         LED_Driver1_mstrStatus |= (LED_Driver1_MSTAT_XFER_HALT |
 285              		.loc 1 220 0
 286 019c 4C4A     		ldr	r2, .L27+32
 287 019e 1378     		ldrb	r3, [r2]	@ zero_extendqisi2
 288 01a0 43F00A03 		orr	r3, r3, #10
 289 01a4 1370     		strb	r3, [r2]
 221:Generated_Source\PSoC5/LED_Driver1_INT.c ****                                                         LED_Driver1_MSTAT_WR_CMPLT);
 222:Generated_Source\PSoC5/LED_Driver1_INT.c **** 
 223:Generated_Source\PSoC5/LED_Driver1_INT.c ****                         LED_Driver1_state = LED_Driver1_SM_MSTR_HALT;    /* Expect restart */
 290              		.loc 1 223 0
 291 01a6 6022     		movs	r2, #96
 292 01a8 424B     		ldr	r3, .L27+4
 293 01aa 1A70     		strb	r2, [r3]
 224:Generated_Source\PSoC5/LED_Driver1_INT.c ****                         LED_Driver1_DisableInt();
 294              		.loc 1 224 0
 295 01ac 0122     		movs	r2, #1
 296 01ae 494B     		ldr	r3, .L27+36
 297 01b0 1A60     		str	r2, [r3]
 298 01b2 73E0     		b	.L3
 299              	.L18:
 225:Generated_Source\PSoC5/LED_Driver1_INT.c ****                     }
 226:Generated_Source\PSoC5/LED_Driver1_INT.c ****                     else  /* Do normal Stop */
 227:Generated_Source\PSoC5/LED_Driver1_INT.c ****                     {
 228:Generated_Source\PSoC5/LED_Driver1_INT.c ****                         LED_Driver1_ENABLE_INT_ON_STOP;    /* Enable interrupt on Stop, to catch it
 300              		.loc 1 228 0
 301 01b4 484A     		ldr	r2, .L27+40
 302 01b6 1378     		ldrb	r3, [r2]	@ zero_extendqisi2
 303 01b8 43F02003 		orr	r3, r3, #32
 304 01bc 1370     		strb	r3, [r2]
 229:Generated_Source\PSoC5/LED_Driver1_INT.c ****                         LED_Driver1_GENERATE_STOP;
 305              		.loc 1 229 0
 306 01be 5222     		movs	r2, #82
 307 01c0 404B     		ldr	r3, .L27+20
 308 01c2 1A70     		strb	r2, [r3]
 309 01c4 FF22     		movs	r2, #255
 310 01c6 9F33     		adds	r3, r3, #159
 311 01c8 1A70     		strb	r2, [r3]
 312 01ca 0022     		movs	r2, #0
 313 01cc 4033     		adds	r3, r3, #64
 314 01ce 1A70     		strb	r2, [r3]
 315 01d0 64E0     		b	.L3
 316              	.L16:
 230:Generated_Source\PSoC5/LED_Driver1_INT.c ****                     }
 231:Generated_Source\PSoC5/LED_Driver1_INT.c ****                 }
 232:Generated_Source\PSoC5/LED_Driver1_INT.c ****                 /* Last byte NAKed: end writing */
 233:Generated_Source\PSoC5/LED_Driver1_INT.c ****                 else if(LED_Driver1_CHECK_NO_STOP(LED_Driver1_mstrControl))
 317              		.loc 1 233 0
 318 01d2 3E4B     		ldr	r3, .L27+28
 319 01d4 1B78     		ldrb	r3, [r3]	@ zero_extendqisi2
 320 01d6 13F0020F 		tst	r3, #2
 321 01da 0BD0     		beq	.L19
 234:Generated_Source\PSoC5/LED_Driver1_INT.c ****                 {
 235:Generated_Source\PSoC5/LED_Driver1_INT.c ****                     /* Set write complete, short transfer and master halted */
 236:Generated_Source\PSoC5/LED_Driver1_INT.c ****                     LED_Driver1_mstrStatus |= (LED_Driver1_MSTAT_ERR_XFER       |
 322              		.loc 1 236 0
 323 01dc 3C4A     		ldr	r2, .L27+32
 324 01de 1378     		ldrb	r3, [r2]	@ zero_extendqisi2
ARM GAS  D:\Windows\AppData\Local\Temp\ccSV0DQf.s 			page 11


 325 01e0 43F09A03 		orr	r3, r3, #154
 326 01e4 1370     		strb	r3, [r2]
 237:Generated_Source\PSoC5/LED_Driver1_INT.c ****                                                     LED_Driver1_MSTAT_ERR_SHORT_XFER |
 238:Generated_Source\PSoC5/LED_Driver1_INT.c ****                                                     LED_Driver1_MSTAT_XFER_HALT      |
 239:Generated_Source\PSoC5/LED_Driver1_INT.c ****                                                     LED_Driver1_MSTAT_WR_CMPLT);
 240:Generated_Source\PSoC5/LED_Driver1_INT.c **** 
 241:Generated_Source\PSoC5/LED_Driver1_INT.c ****                     LED_Driver1_state = LED_Driver1_SM_MSTR_HALT;    /* Expect ReStart */
 327              		.loc 1 241 0
 328 01e6 6022     		movs	r2, #96
 329 01e8 324B     		ldr	r3, .L27+4
 330 01ea 1A70     		strb	r2, [r3]
 242:Generated_Source\PSoC5/LED_Driver1_INT.c ****                     LED_Driver1_DisableInt();
 331              		.loc 1 242 0
 332 01ec 0122     		movs	r2, #1
 333 01ee 394B     		ldr	r3, .L27+36
 334 01f0 1A60     		str	r2, [r3]
 335 01f2 53E0     		b	.L3
 336              	.L19:
 243:Generated_Source\PSoC5/LED_Driver1_INT.c ****                 }
 244:Generated_Source\PSoC5/LED_Driver1_INT.c ****                 else  /* Do normal Stop */
 245:Generated_Source\PSoC5/LED_Driver1_INT.c ****                 {
 246:Generated_Source\PSoC5/LED_Driver1_INT.c ****                     LED_Driver1_ENABLE_INT_ON_STOP;    /* Enable interrupt on Stop, to catch it */
 337              		.loc 1 246 0
 338 01f4 384A     		ldr	r2, .L27+40
 339 01f6 1378     		ldrb	r3, [r2]	@ zero_extendqisi2
 340 01f8 43F02003 		orr	r3, r3, #32
 341 01fc 1370     		strb	r3, [r2]
 247:Generated_Source\PSoC5/LED_Driver1_INT.c ****                     LED_Driver1_GENERATE_STOP;
 342              		.loc 1 247 0
 343 01fe 5222     		movs	r2, #82
 344 0200 304B     		ldr	r3, .L27+20
 345 0202 1A70     		strb	r2, [r3]
 346 0204 FF22     		movs	r2, #255
 347 0206 9F33     		adds	r3, r3, #159
 348 0208 1A70     		strb	r2, [r3]
 349 020a 0022     		movs	r2, #0
 350 020c 4033     		adds	r3, r3, #64
 351 020e 1A70     		strb	r2, [r3]
 248:Generated_Source\PSoC5/LED_Driver1_INT.c **** 
 249:Generated_Source\PSoC5/LED_Driver1_INT.c ****                     /* Set short transfer and error flag */
 250:Generated_Source\PSoC5/LED_Driver1_INT.c ****                     LED_Driver1_mstrStatus |= (LED_Driver1_MSTAT_ERR_SHORT_XFER |
 352              		.loc 1 250 0
 353 0210 2F4A     		ldr	r2, .L27+32
 354 0212 1378     		ldrb	r3, [r2]	@ zero_extendqisi2
 355 0214 43F09003 		orr	r3, r3, #144
 356 0218 1370     		strb	r3, [r2]
 357 021a 3FE0     		b	.L3
 358              	.L8:
 251:Generated_Source\PSoC5/LED_Driver1_INT.c ****                                                     LED_Driver1_MSTAT_ERR_XFER);
 252:Generated_Source\PSoC5/LED_Driver1_INT.c ****                 }
 253:Generated_Source\PSoC5/LED_Driver1_INT.c **** 
 254:Generated_Source\PSoC5/LED_Driver1_INT.c ****                 break;
 255:Generated_Source\PSoC5/LED_Driver1_INT.c **** 
 256:Generated_Source\PSoC5/LED_Driver1_INT.c ****             case LED_Driver1_SM_MSTR_RD_DATA:
 257:Generated_Source\PSoC5/LED_Driver1_INT.c **** 
 258:Generated_Source\PSoC5/LED_Driver1_INT.c ****                 LED_Driver1_mstrRdBufPtr[LED_Driver1_mstrRdBufIndex] = LED_Driver1_DATA_REG;
 359              		.loc 1 258 0
ARM GAS  D:\Windows\AppData\Local\Temp\ccSV0DQf.s 			page 12


 360 021c 2F4A     		ldr	r2, .L27+44
 361 021e 1378     		ldrb	r3, [r2]	@ zero_extendqisi2
 362 0220 DBB2     		uxtb	r3, r3
 363 0222 2F49     		ldr	r1, .L27+48
 364 0224 0868     		ldr	r0, [r1]
 365 0226 2649     		ldr	r1, .L27+16
 366 0228 0978     		ldrb	r1, [r1]	@ zero_extendqisi2
 367 022a C9B2     		uxtb	r1, r1
 368 022c C154     		strb	r1, [r0, r3]
 259:Generated_Source\PSoC5/LED_Driver1_INT.c ****                 LED_Driver1_mstrRdBufIndex++;
 369              		.loc 1 259 0
 370 022e 1378     		ldrb	r3, [r2]	@ zero_extendqisi2
 371 0230 0133     		adds	r3, r3, #1
 372 0232 DBB2     		uxtb	r3, r3
 373 0234 1370     		strb	r3, [r2]
 260:Generated_Source\PSoC5/LED_Driver1_INT.c **** 
 261:Generated_Source\PSoC5/LED_Driver1_INT.c ****                 /* Check if end of buffer */
 262:Generated_Source\PSoC5/LED_Driver1_INT.c ****                 if(LED_Driver1_mstrRdBufIndex < LED_Driver1_mstrRdBufSize)
 374              		.loc 1 262 0
 375 0236 1378     		ldrb	r3, [r2]	@ zero_extendqisi2
 376 0238 2A4A     		ldr	r2, .L27+52
 377 023a 1278     		ldrb	r2, [r2]	@ zero_extendqisi2
 378 023c DBB2     		uxtb	r3, r3
 379 023e 9342     		cmp	r3, r2
 380 0240 09D2     		bcs	.L20
 263:Generated_Source\PSoC5/LED_Driver1_INT.c ****                 {
 264:Generated_Source\PSoC5/LED_Driver1_INT.c ****                     LED_Driver1_ACK_AND_RECEIVE;       /* ACK and receive byte */
 381              		.loc 1 264 0
 382 0242 0222     		movs	r2, #2
 383 0244 1F4B     		ldr	r3, .L27+20
 384 0246 1A70     		strb	r2, [r3]
 385 0248 FF22     		movs	r2, #255
 386 024a 9F33     		adds	r3, r3, #159
 387 024c 1A70     		strb	r2, [r3]
 388 024e 0022     		movs	r2, #0
 389 0250 4033     		adds	r3, r3, #64
 390 0252 1A70     		strb	r2, [r3]
 391 0254 22E0     		b	.L3
 392              	.L20:
 265:Generated_Source\PSoC5/LED_Driver1_INT.c ****                 }
 266:Generated_Source\PSoC5/LED_Driver1_INT.c ****                 /* End of buffer: complete reading */
 267:Generated_Source\PSoC5/LED_Driver1_INT.c ****                 else if(LED_Driver1_CHECK_NO_STOP(LED_Driver1_mstrControl))
 393              		.loc 1 267 0
 394 0256 1D4B     		ldr	r3, .L27+28
 395 0258 1B78     		ldrb	r3, [r3]	@ zero_extendqisi2
 396 025a 13F0020F 		tst	r3, #2
 397 025e 0BD0     		beq	.L21
 268:Generated_Source\PSoC5/LED_Driver1_INT.c ****                 {
 269:Generated_Source\PSoC5/LED_Driver1_INT.c ****                     /* Set read complete and master halted */
 270:Generated_Source\PSoC5/LED_Driver1_INT.c ****                     LED_Driver1_mstrStatus |= (LED_Driver1_MSTAT_XFER_HALT |
 398              		.loc 1 270 0
 399 0260 1B4A     		ldr	r2, .L27+32
 400 0262 1378     		ldrb	r3, [r2]	@ zero_extendqisi2
 401 0264 43F00903 		orr	r3, r3, #9
 402 0268 1370     		strb	r3, [r2]
 271:Generated_Source\PSoC5/LED_Driver1_INT.c ****                                                     LED_Driver1_MSTAT_RD_CMPLT);
 272:Generated_Source\PSoC5/LED_Driver1_INT.c **** 
ARM GAS  D:\Windows\AppData\Local\Temp\ccSV0DQf.s 			page 13


 273:Generated_Source\PSoC5/LED_Driver1_INT.c ****                     LED_Driver1_state = LED_Driver1_SM_MSTR_HALT;    /* Expect ReStart */
 403              		.loc 1 273 0
 404 026a 6022     		movs	r2, #96
 405 026c 114B     		ldr	r3, .L27+4
 406 026e 1A70     		strb	r2, [r3]
 274:Generated_Source\PSoC5/LED_Driver1_INT.c ****                     LED_Driver1_DisableInt();
 407              		.loc 1 274 0
 408 0270 0122     		movs	r2, #1
 409 0272 184B     		ldr	r3, .L27+36
 410 0274 1A60     		str	r2, [r3]
 411 0276 11E0     		b	.L3
 412              	.L21:
 275:Generated_Source\PSoC5/LED_Driver1_INT.c ****                 }
 276:Generated_Source\PSoC5/LED_Driver1_INT.c ****                 else
 277:Generated_Source\PSoC5/LED_Driver1_INT.c ****                 {
 278:Generated_Source\PSoC5/LED_Driver1_INT.c ****                     LED_Driver1_ENABLE_INT_ON_STOP;
 413              		.loc 1 278 0
 414 0278 174A     		ldr	r2, .L27+40
 415 027a 1378     		ldrb	r3, [r2]	@ zero_extendqisi2
 416 027c 43F02003 		orr	r3, r3, #32
 417 0280 1370     		strb	r3, [r2]
 279:Generated_Source\PSoC5/LED_Driver1_INT.c ****                     LED_Driver1_NAK_AND_RECEIVE;       /* NACK and TRY to generate Stop */
 418              		.loc 1 279 0
 419 0282 1222     		movs	r2, #18
 420 0284 0F4B     		ldr	r3, .L27+20
 421 0286 1A70     		strb	r2, [r3]
 422 0288 FF22     		movs	r2, #255
 423 028a 9F33     		adds	r3, r3, #159
 424 028c 1A70     		strb	r2, [r3]
 425 028e 0022     		movs	r2, #0
 426 0290 4033     		adds	r3, r3, #64
 427 0292 1A70     		strb	r2, [r3]
 428 0294 02E0     		b	.L3
 429              	.L4:
 280:Generated_Source\PSoC5/LED_Driver1_INT.c ****                 }
 281:Generated_Source\PSoC5/LED_Driver1_INT.c ****                 break;
 282:Generated_Source\PSoC5/LED_Driver1_INT.c **** 
 283:Generated_Source\PSoC5/LED_Driver1_INT.c ****             default: /* This is an invalid state and should not occur */
 284:Generated_Source\PSoC5/LED_Driver1_INT.c **** 
 285:Generated_Source\PSoC5/LED_Driver1_INT.c ****             #if(LED_Driver1_TIMEOUT_ENABLED)
 286:Generated_Source\PSoC5/LED_Driver1_INT.c ****                 /* Exit interrupt to take chance for timeout timer to handles this case */
 287:Generated_Source\PSoC5/LED_Driver1_INT.c ****                 LED_Driver1_DisableInt();
 288:Generated_Source\PSoC5/LED_Driver1_INT.c ****                 LED_Driver1_ClearPendingInt();
 289:Generated_Source\PSoC5/LED_Driver1_INT.c ****             #else
 290:Generated_Source\PSoC5/LED_Driver1_INT.c ****                 /* Block execution flow: unexpected condition */
 291:Generated_Source\PSoC5/LED_Driver1_INT.c ****                 CYASSERT(0u != 0u);
 430              		.loc 1 291 0 discriminator 1
 431 0296 0020     		movs	r0, #0
 432 0298 FFF7FEFF 		bl	CyHalt
 433              	.LVL4:
 434              	.L3:
 292:Generated_Source\PSoC5/LED_Driver1_INT.c ****             #endif /* (LED_Driver1_TIMEOUT_ENABLED) */
 293:Generated_Source\PSoC5/LED_Driver1_INT.c **** 
 294:Generated_Source\PSoC5/LED_Driver1_INT.c ****                 break;
 295:Generated_Source\PSoC5/LED_Driver1_INT.c ****             }
 296:Generated_Source\PSoC5/LED_Driver1_INT.c ****         }
 297:Generated_Source\PSoC5/LED_Driver1_INT.c **** 
ARM GAS  D:\Windows\AppData\Local\Temp\ccSV0DQf.s 			page 14


 298:Generated_Source\PSoC5/LED_Driver1_INT.c ****         /* Catches Stop: end of transaction */
 299:Generated_Source\PSoC5/LED_Driver1_INT.c ****         if(LED_Driver1_CHECK_STOP_STS(tmpCsr))
 435              		.loc 1 299 0
 436 029c 14F0200F 		tst	r4, #32
 437 02a0 38D0     		beq	.L1
 300:Generated_Source\PSoC5/LED_Driver1_INT.c ****         {
 301:Generated_Source\PSoC5/LED_Driver1_INT.c ****             LED_Driver1_mstrStatus |= LED_Driver1_GET_MSTAT_CMPLT;
 438              		.loc 1 301 0
 439 02a2 044B     		ldr	r3, .L27+4
 440 02a4 1B78     		ldrb	r3, [r3]	@ zero_extendqisi2
 441 02a6 13F0080F 		tst	r3, #8
 442 02aa 1DD0     		beq	.L25
 443 02ac 0123     		movs	r3, #1
 444 02ae 1CE0     		b	.L23
 445              	.L28:
 446              		.align	2
 447              	.L27:
 448 02b0 6B650040 		.word	1073767787
 449 02b4 00000000 		.word	LED_Driver1_state
 450 02b8 00000000 		.word	LED_Driver1_mstrWrBufSize
 451 02bc 00000000 		.word	LED_Driver1_mstrWrBufPtr
 452 02c0 04650040 		.word	1073767684
 453 02c4 75640040 		.word	1073767541
 454 02c8 00000000 		.word	LED_Driver1_mstrWrBufIndex
 455 02cc 00000000 		.word	LED_Driver1_mstrControl
 456 02d0 00000000 		.word	LED_Driver1_mstrStatus
 457 02d4 80E100E0 		.word	-536813184
 458 02d8 8B650040 		.word	1073767819
 459 02dc 00000000 		.word	LED_Driver1_mstrRdBufIndex
 460 02e0 00000000 		.word	LED_Driver1_mstrRdBufPtr
 461 02e4 00000000 		.word	LED_Driver1_mstrRdBufSize
 462              	.L25:
 463 02e8 0223     		movs	r3, #2
 464              	.L23:
 465              		.loc 1 301 0 is_stmt 0 discriminator 4
 466 02ea 0B4A     		ldr	r2, .L29
 467 02ec 1178     		ldrb	r1, [r2]	@ zero_extendqisi2
 468 02ee 0B43     		orrs	r3, r3, r1
 469 02f0 1370     		strb	r3, [r2]
 302:Generated_Source\PSoC5/LED_Driver1_INT.c **** 
 303:Generated_Source\PSoC5/LED_Driver1_INT.c ****             LED_Driver1_DISABLE_INT_ON_STOP;
 470              		.loc 1 303 0 is_stmt 1 discriminator 4
 471 02f2 0A4A     		ldr	r2, .L29+4
 472 02f4 1378     		ldrb	r3, [r2]	@ zero_extendqisi2
 473 02f6 03F0DF03 		and	r3, r3, #223
 474 02fa 1370     		strb	r3, [r2]
 304:Generated_Source\PSoC5/LED_Driver1_INT.c ****             LED_Driver1_state = LED_Driver1_SM_IDLE;
 475              		.loc 1 304 0 discriminator 4
 476 02fc 1022     		movs	r2, #16
 477 02fe 084B     		ldr	r3, .L29+8
 478 0300 1A70     		strb	r2, [r3]
 479 0302 38BD     		pop	{r3, r4, r5, pc}
 480              	.LVL5:
 481              	.L2:
 305:Generated_Source\PSoC5/LED_Driver1_INT.c ****         }
 306:Generated_Source\PSoC5/LED_Driver1_INT.c ****     #endif /* (LED_Driver1_MODE_MASTER_ENABLED) */
 307:Generated_Source\PSoC5/LED_Driver1_INT.c ****     }
ARM GAS  D:\Windows\AppData\Local\Temp\ccSV0DQf.s 			page 15


 308:Generated_Source\PSoC5/LED_Driver1_INT.c ****     else if(LED_Driver1_CHECK_SM_SLAVE)
 482              		.loc 1 308 0
 483 0304 064B     		ldr	r3, .L29+8
 484 0306 1B78     		ldrb	r3, [r3]	@ zero_extendqisi2
 485 0308 13F0100F 		tst	r3, #16
 486 030c 02D1     		bne	.L1
 309:Generated_Source\PSoC5/LED_Driver1_INT.c ****     {
 310:Generated_Source\PSoC5/LED_Driver1_INT.c ****     #if(LED_Driver1_MODE_SLAVE_ENABLED)
 311:Generated_Source\PSoC5/LED_Driver1_INT.c **** 
 312:Generated_Source\PSoC5/LED_Driver1_INT.c ****         if((LED_Driver1_CHECK_STOP_STS(tmpCsr)) || /* Stop || Restart */
 313:Generated_Source\PSoC5/LED_Driver1_INT.c ****            (LED_Driver1_CHECK_BYTE_COMPLETE(tmpCsr) && LED_Driver1_CHECK_ADDRESS_STS(tmpCsr)))
 314:Generated_Source\PSoC5/LED_Driver1_INT.c ****         {
 315:Generated_Source\PSoC5/LED_Driver1_INT.c ****             /* Catch end of master write transaction: use interrupt on Stop */
 316:Generated_Source\PSoC5/LED_Driver1_INT.c ****             /* The Stop bit history on address phase does not have correct state */
 317:Generated_Source\PSoC5/LED_Driver1_INT.c ****             if(LED_Driver1_SM_SL_WR_DATA == LED_Driver1_state)
 318:Generated_Source\PSoC5/LED_Driver1_INT.c ****             {
 319:Generated_Source\PSoC5/LED_Driver1_INT.c ****                 LED_Driver1_DISABLE_INT_ON_STOP;
 320:Generated_Source\PSoC5/LED_Driver1_INT.c **** 
 321:Generated_Source\PSoC5/LED_Driver1_INT.c ****                 LED_Driver1_slStatus &= ((uint8) ~LED_Driver1_SSTAT_WR_BUSY);
 322:Generated_Source\PSoC5/LED_Driver1_INT.c ****                 LED_Driver1_slStatus |= ((uint8)  LED_Driver1_SSTAT_WR_CMPLT);
 323:Generated_Source\PSoC5/LED_Driver1_INT.c **** 
 324:Generated_Source\PSoC5/LED_Driver1_INT.c ****                 LED_Driver1_state = LED_Driver1_SM_IDLE;
 325:Generated_Source\PSoC5/LED_Driver1_INT.c ****             }
 326:Generated_Source\PSoC5/LED_Driver1_INT.c ****         }
 327:Generated_Source\PSoC5/LED_Driver1_INT.c **** 
 328:Generated_Source\PSoC5/LED_Driver1_INT.c ****         if(LED_Driver1_CHECK_BYTE_COMPLETE(tmpCsr))
 329:Generated_Source\PSoC5/LED_Driver1_INT.c ****         {
 330:Generated_Source\PSoC5/LED_Driver1_INT.c ****             /* The address only issued after Start or ReStart: so check the address
 331:Generated_Source\PSoC5/LED_Driver1_INT.c ****                to catch these events:
 332:Generated_Source\PSoC5/LED_Driver1_INT.c ****                 FF : sets an address phase with a byte_complete interrupt trigger.
 333:Generated_Source\PSoC5/LED_Driver1_INT.c ****                 UDB: sets an address phase immediately after Start or ReStart. */
 334:Generated_Source\PSoC5/LED_Driver1_INT.c ****             if(LED_Driver1_CHECK_ADDRESS_STS(tmpCsr))
 335:Generated_Source\PSoC5/LED_Driver1_INT.c ****             {
 336:Generated_Source\PSoC5/LED_Driver1_INT.c ****             /* Check for software address detection */
 337:Generated_Source\PSoC5/LED_Driver1_INT.c ****             #if(LED_Driver1_SW_ADRR_DECODE)
 338:Generated_Source\PSoC5/LED_Driver1_INT.c ****                 tmp8 = LED_Driver1_GET_SLAVE_ADDR(LED_Driver1_DATA_REG);
 339:Generated_Source\PSoC5/LED_Driver1_INT.c **** 
 340:Generated_Source\PSoC5/LED_Driver1_INT.c ****                 if(tmp8 == LED_Driver1_slAddress)   /* Check for address match */
 341:Generated_Source\PSoC5/LED_Driver1_INT.c ****                 {
 342:Generated_Source\PSoC5/LED_Driver1_INT.c ****                     if(0u != (LED_Driver1_DATA_REG & LED_Driver1_READ_FLAG))
 343:Generated_Source\PSoC5/LED_Driver1_INT.c ****                     {
 344:Generated_Source\PSoC5/LED_Driver1_INT.c ****                         /* Place code to prepare read buffer here                  */
 345:Generated_Source\PSoC5/LED_Driver1_INT.c ****                         /* `#START LED_Driver1_SW_PREPARE_READ_BUF_interrupt` */
 346:Generated_Source\PSoC5/LED_Driver1_INT.c **** 
 347:Generated_Source\PSoC5/LED_Driver1_INT.c ****                         /* `#END` */
 348:Generated_Source\PSoC5/LED_Driver1_INT.c **** 
 349:Generated_Source\PSoC5/LED_Driver1_INT.c ****                     #ifdef LED_Driver1_SW_PREPARE_READ_BUF_CALLBACK
 350:Generated_Source\PSoC5/LED_Driver1_INT.c ****                         LED_Driver1_SwPrepareReadBuf_Callback();
 351:Generated_Source\PSoC5/LED_Driver1_INT.c ****                     #endif /* LED_Driver1_SW_PREPARE_READ_BUF_CALLBACK */
 352:Generated_Source\PSoC5/LED_Driver1_INT.c ****                         
 353:Generated_Source\PSoC5/LED_Driver1_INT.c ****                         /* Prepare next operation to read, get data and place in data register */
 354:Generated_Source\PSoC5/LED_Driver1_INT.c ****                         if(LED_Driver1_slRdBufIndex < LED_Driver1_slRdBufSize)
 355:Generated_Source\PSoC5/LED_Driver1_INT.c ****                         {
 356:Generated_Source\PSoC5/LED_Driver1_INT.c ****                             /* Load first data byte from array */
 357:Generated_Source\PSoC5/LED_Driver1_INT.c ****                             LED_Driver1_DATA_REG = LED_Driver1_slRdBufPtr[LED_Driver1_slRdBufIndex]
 358:Generated_Source\PSoC5/LED_Driver1_INT.c ****                             LED_Driver1_ACK_AND_TRANSMIT;
 359:Generated_Source\PSoC5/LED_Driver1_INT.c ****                             LED_Driver1_slRdBufIndex++;
ARM GAS  D:\Windows\AppData\Local\Temp\ccSV0DQf.s 			page 16


 360:Generated_Source\PSoC5/LED_Driver1_INT.c **** 
 361:Generated_Source\PSoC5/LED_Driver1_INT.c ****                             LED_Driver1_slStatus |= LED_Driver1_SSTAT_RD_BUSY;
 362:Generated_Source\PSoC5/LED_Driver1_INT.c ****                         }
 363:Generated_Source\PSoC5/LED_Driver1_INT.c ****                         else    /* Overflow: provide 0xFF on bus */
 364:Generated_Source\PSoC5/LED_Driver1_INT.c ****                         {
 365:Generated_Source\PSoC5/LED_Driver1_INT.c ****                             LED_Driver1_DATA_REG = LED_Driver1_OVERFLOW_RETURN;
 366:Generated_Source\PSoC5/LED_Driver1_INT.c ****                             LED_Driver1_ACK_AND_TRANSMIT;
 367:Generated_Source\PSoC5/LED_Driver1_INT.c **** 
 368:Generated_Source\PSoC5/LED_Driver1_INT.c ****                             LED_Driver1_slStatus  |= (LED_Driver1_SSTAT_RD_BUSY |
 369:Generated_Source\PSoC5/LED_Driver1_INT.c ****                                                            LED_Driver1_SSTAT_RD_ERR_OVFL);
 370:Generated_Source\PSoC5/LED_Driver1_INT.c ****                         }
 371:Generated_Source\PSoC5/LED_Driver1_INT.c **** 
 372:Generated_Source\PSoC5/LED_Driver1_INT.c ****                         LED_Driver1_state = LED_Driver1_SM_SL_RD_DATA;
 373:Generated_Source\PSoC5/LED_Driver1_INT.c ****                     }
 374:Generated_Source\PSoC5/LED_Driver1_INT.c ****                     else  /* Write transaction: receive 1st byte */
 375:Generated_Source\PSoC5/LED_Driver1_INT.c ****                     {
 376:Generated_Source\PSoC5/LED_Driver1_INT.c ****                         LED_Driver1_ACK_AND_RECEIVE;
 377:Generated_Source\PSoC5/LED_Driver1_INT.c ****                         LED_Driver1_state = LED_Driver1_SM_SL_WR_DATA;
 378:Generated_Source\PSoC5/LED_Driver1_INT.c **** 
 379:Generated_Source\PSoC5/LED_Driver1_INT.c ****                         LED_Driver1_slStatus |= LED_Driver1_SSTAT_WR_BUSY;
 380:Generated_Source\PSoC5/LED_Driver1_INT.c ****                         LED_Driver1_ENABLE_INT_ON_STOP;
 381:Generated_Source\PSoC5/LED_Driver1_INT.c ****                     }
 382:Generated_Source\PSoC5/LED_Driver1_INT.c ****                 }
 383:Generated_Source\PSoC5/LED_Driver1_INT.c ****                 else
 384:Generated_Source\PSoC5/LED_Driver1_INT.c ****                 {
 385:Generated_Source\PSoC5/LED_Driver1_INT.c ****                     /*     Place code to compare for additional address here    */
 386:Generated_Source\PSoC5/LED_Driver1_INT.c ****                     /* `#START LED_Driver1_SW_ADDR_COMPARE_interruptStart` */
 387:Generated_Source\PSoC5/LED_Driver1_INT.c **** 
 388:Generated_Source\PSoC5/LED_Driver1_INT.c ****                     /* `#END` */
 389:Generated_Source\PSoC5/LED_Driver1_INT.c **** 
 390:Generated_Source\PSoC5/LED_Driver1_INT.c ****                 #ifdef LED_Driver1_SW_ADDR_COMPARE_ENTRY_CALLBACK
 391:Generated_Source\PSoC5/LED_Driver1_INT.c ****                     LED_Driver1_SwAddrCompare_EntryCallback();
 392:Generated_Source\PSoC5/LED_Driver1_INT.c ****                 #endif /* LED_Driver1_SW_ADDR_COMPARE_ENTRY_CALLBACK */
 393:Generated_Source\PSoC5/LED_Driver1_INT.c ****                     
 394:Generated_Source\PSoC5/LED_Driver1_INT.c ****                     LED_Driver1_NAK_AND_RECEIVE;   /* NACK address */
 395:Generated_Source\PSoC5/LED_Driver1_INT.c **** 
 396:Generated_Source\PSoC5/LED_Driver1_INT.c ****                     /* Place code to end of condition for NACK generation here */
 397:Generated_Source\PSoC5/LED_Driver1_INT.c ****                     /* `#START LED_Driver1_SW_ADDR_COMPARE_interruptEnd`  */
 398:Generated_Source\PSoC5/LED_Driver1_INT.c **** 
 399:Generated_Source\PSoC5/LED_Driver1_INT.c ****                     /* `#END` */
 400:Generated_Source\PSoC5/LED_Driver1_INT.c **** 
 401:Generated_Source\PSoC5/LED_Driver1_INT.c ****                 #ifdef LED_Driver1_SW_ADDR_COMPARE_EXIT_CALLBACK
 402:Generated_Source\PSoC5/LED_Driver1_INT.c ****                     LED_Driver1_SwAddrCompare_ExitCallback();
 403:Generated_Source\PSoC5/LED_Driver1_INT.c ****                 #endif /* LED_Driver1_SW_ADDR_COMPARE_EXIT_CALLBACK */
 404:Generated_Source\PSoC5/LED_Driver1_INT.c ****                 }
 405:Generated_Source\PSoC5/LED_Driver1_INT.c **** 
 406:Generated_Source\PSoC5/LED_Driver1_INT.c ****             #else /* (LED_Driver1_HW_ADRR_DECODE) */
 407:Generated_Source\PSoC5/LED_Driver1_INT.c **** 
 408:Generated_Source\PSoC5/LED_Driver1_INT.c ****                 if(0u != (LED_Driver1_DATA_REG & LED_Driver1_READ_FLAG))
 409:Generated_Source\PSoC5/LED_Driver1_INT.c ****                 {
 410:Generated_Source\PSoC5/LED_Driver1_INT.c ****                     /* Place code to prepare read buffer here                  */
 411:Generated_Source\PSoC5/LED_Driver1_INT.c ****                     /* `#START LED_Driver1_HW_PREPARE_READ_BUF_interrupt` */
 412:Generated_Source\PSoC5/LED_Driver1_INT.c **** 
 413:Generated_Source\PSoC5/LED_Driver1_INT.c ****                     /* `#END` */
 414:Generated_Source\PSoC5/LED_Driver1_INT.c ****                     
 415:Generated_Source\PSoC5/LED_Driver1_INT.c ****                 #ifdef LED_Driver1_HW_PREPARE_READ_BUF_CALLBACK
 416:Generated_Source\PSoC5/LED_Driver1_INT.c ****                     LED_Driver1_HwPrepareReadBuf_Callback();
ARM GAS  D:\Windows\AppData\Local\Temp\ccSV0DQf.s 			page 17


 417:Generated_Source\PSoC5/LED_Driver1_INT.c ****                 #endif /* LED_Driver1_HW_PREPARE_READ_BUF_CALLBACK */
 418:Generated_Source\PSoC5/LED_Driver1_INT.c **** 
 419:Generated_Source\PSoC5/LED_Driver1_INT.c ****                     /* Prepare next operation to read, get data and place in data register */
 420:Generated_Source\PSoC5/LED_Driver1_INT.c ****                     if(LED_Driver1_slRdBufIndex < LED_Driver1_slRdBufSize)
 421:Generated_Source\PSoC5/LED_Driver1_INT.c ****                     {
 422:Generated_Source\PSoC5/LED_Driver1_INT.c ****                         /* Load first data byte from array */
 423:Generated_Source\PSoC5/LED_Driver1_INT.c ****                         LED_Driver1_DATA_REG = LED_Driver1_slRdBufPtr[LED_Driver1_slRdBufIndex];
 424:Generated_Source\PSoC5/LED_Driver1_INT.c ****                         LED_Driver1_ACK_AND_TRANSMIT;
 425:Generated_Source\PSoC5/LED_Driver1_INT.c ****                         LED_Driver1_slRdBufIndex++;
 426:Generated_Source\PSoC5/LED_Driver1_INT.c **** 
 427:Generated_Source\PSoC5/LED_Driver1_INT.c ****                         LED_Driver1_slStatus |= LED_Driver1_SSTAT_RD_BUSY;
 428:Generated_Source\PSoC5/LED_Driver1_INT.c ****                     }
 429:Generated_Source\PSoC5/LED_Driver1_INT.c ****                     else    /* Overflow: provide 0xFF on bus */
 430:Generated_Source\PSoC5/LED_Driver1_INT.c ****                     {
 431:Generated_Source\PSoC5/LED_Driver1_INT.c ****                         LED_Driver1_DATA_REG = LED_Driver1_OVERFLOW_RETURN;
 432:Generated_Source\PSoC5/LED_Driver1_INT.c ****                         LED_Driver1_ACK_AND_TRANSMIT;
 433:Generated_Source\PSoC5/LED_Driver1_INT.c **** 
 434:Generated_Source\PSoC5/LED_Driver1_INT.c ****                         LED_Driver1_slStatus  |= (LED_Driver1_SSTAT_RD_BUSY |
 435:Generated_Source\PSoC5/LED_Driver1_INT.c ****                                                        LED_Driver1_SSTAT_RD_ERR_OVFL);
 436:Generated_Source\PSoC5/LED_Driver1_INT.c ****                     }
 437:Generated_Source\PSoC5/LED_Driver1_INT.c **** 
 438:Generated_Source\PSoC5/LED_Driver1_INT.c ****                     LED_Driver1_state = LED_Driver1_SM_SL_RD_DATA;
 439:Generated_Source\PSoC5/LED_Driver1_INT.c ****                 }
 440:Generated_Source\PSoC5/LED_Driver1_INT.c ****                 else  /* Write transaction: receive 1st byte */
 441:Generated_Source\PSoC5/LED_Driver1_INT.c ****                 {
 442:Generated_Source\PSoC5/LED_Driver1_INT.c ****                     LED_Driver1_ACK_AND_RECEIVE;
 443:Generated_Source\PSoC5/LED_Driver1_INT.c ****                     LED_Driver1_state = LED_Driver1_SM_SL_WR_DATA;
 444:Generated_Source\PSoC5/LED_Driver1_INT.c **** 
 445:Generated_Source\PSoC5/LED_Driver1_INT.c ****                     LED_Driver1_slStatus |= LED_Driver1_SSTAT_WR_BUSY;
 446:Generated_Source\PSoC5/LED_Driver1_INT.c ****                     LED_Driver1_ENABLE_INT_ON_STOP;
 447:Generated_Source\PSoC5/LED_Driver1_INT.c ****                 }
 448:Generated_Source\PSoC5/LED_Driver1_INT.c **** 
 449:Generated_Source\PSoC5/LED_Driver1_INT.c ****             #endif /* (LED_Driver1_SW_ADRR_DECODE) */
 450:Generated_Source\PSoC5/LED_Driver1_INT.c ****             }
 451:Generated_Source\PSoC5/LED_Driver1_INT.c ****             /* Data states */
 452:Generated_Source\PSoC5/LED_Driver1_INT.c ****             /* Data master writes into slave */
 453:Generated_Source\PSoC5/LED_Driver1_INT.c ****             else if(LED_Driver1_state == LED_Driver1_SM_SL_WR_DATA)
 454:Generated_Source\PSoC5/LED_Driver1_INT.c ****             {
 455:Generated_Source\PSoC5/LED_Driver1_INT.c ****                 if(LED_Driver1_slWrBufIndex < LED_Driver1_slWrBufSize)
 456:Generated_Source\PSoC5/LED_Driver1_INT.c ****                 {
 457:Generated_Source\PSoC5/LED_Driver1_INT.c ****                     tmp8 = LED_Driver1_DATA_REG;
 458:Generated_Source\PSoC5/LED_Driver1_INT.c ****                     LED_Driver1_ACK_AND_RECEIVE;
 459:Generated_Source\PSoC5/LED_Driver1_INT.c ****                     LED_Driver1_slWrBufPtr[LED_Driver1_slWrBufIndex] = tmp8;
 460:Generated_Source\PSoC5/LED_Driver1_INT.c ****                     LED_Driver1_slWrBufIndex++;
 461:Generated_Source\PSoC5/LED_Driver1_INT.c ****                 }
 462:Generated_Source\PSoC5/LED_Driver1_INT.c ****                 else  /* of array: complete write, send NACK */
 463:Generated_Source\PSoC5/LED_Driver1_INT.c ****                 {
 464:Generated_Source\PSoC5/LED_Driver1_INT.c ****                     LED_Driver1_NAK_AND_RECEIVE;
 465:Generated_Source\PSoC5/LED_Driver1_INT.c **** 
 466:Generated_Source\PSoC5/LED_Driver1_INT.c ****                     LED_Driver1_slStatus |= LED_Driver1_SSTAT_WR_ERR_OVFL;
 467:Generated_Source\PSoC5/LED_Driver1_INT.c ****                 }
 468:Generated_Source\PSoC5/LED_Driver1_INT.c ****             }
 469:Generated_Source\PSoC5/LED_Driver1_INT.c ****             /* Data master reads from slave */
 470:Generated_Source\PSoC5/LED_Driver1_INT.c ****             else if(LED_Driver1_state == LED_Driver1_SM_SL_RD_DATA)
 471:Generated_Source\PSoC5/LED_Driver1_INT.c ****             {
 472:Generated_Source\PSoC5/LED_Driver1_INT.c ****                 if(LED_Driver1_CHECK_DATA_ACK(tmpCsr))
 473:Generated_Source\PSoC5/LED_Driver1_INT.c ****                 {
ARM GAS  D:\Windows\AppData\Local\Temp\ccSV0DQf.s 			page 18


 474:Generated_Source\PSoC5/LED_Driver1_INT.c ****                     if(LED_Driver1_slRdBufIndex < LED_Driver1_slRdBufSize)
 475:Generated_Source\PSoC5/LED_Driver1_INT.c ****                     {
 476:Generated_Source\PSoC5/LED_Driver1_INT.c ****                          /* Get data from array */
 477:Generated_Source\PSoC5/LED_Driver1_INT.c ****                         LED_Driver1_DATA_REG = LED_Driver1_slRdBufPtr[LED_Driver1_slRdBufIndex];
 478:Generated_Source\PSoC5/LED_Driver1_INT.c ****                         LED_Driver1_TRANSMIT_DATA;
 479:Generated_Source\PSoC5/LED_Driver1_INT.c ****                         LED_Driver1_slRdBufIndex++;
 480:Generated_Source\PSoC5/LED_Driver1_INT.c ****                     }
 481:Generated_Source\PSoC5/LED_Driver1_INT.c ****                     else   /* Overflow: provide 0xFF on bus */
 482:Generated_Source\PSoC5/LED_Driver1_INT.c ****                     {
 483:Generated_Source\PSoC5/LED_Driver1_INT.c ****                         LED_Driver1_DATA_REG = LED_Driver1_OVERFLOW_RETURN;
 484:Generated_Source\PSoC5/LED_Driver1_INT.c ****                         LED_Driver1_TRANSMIT_DATA;
 485:Generated_Source\PSoC5/LED_Driver1_INT.c **** 
 486:Generated_Source\PSoC5/LED_Driver1_INT.c ****                         LED_Driver1_slStatus |= LED_Driver1_SSTAT_RD_ERR_OVFL;
 487:Generated_Source\PSoC5/LED_Driver1_INT.c ****                     }
 488:Generated_Source\PSoC5/LED_Driver1_INT.c ****                 }
 489:Generated_Source\PSoC5/LED_Driver1_INT.c ****                 else  /* Last byte was NACKed: read complete */
 490:Generated_Source\PSoC5/LED_Driver1_INT.c ****                 {
 491:Generated_Source\PSoC5/LED_Driver1_INT.c ****                     /* Only NACK appears on bus */
 492:Generated_Source\PSoC5/LED_Driver1_INT.c ****                     LED_Driver1_DATA_REG = LED_Driver1_OVERFLOW_RETURN;
 493:Generated_Source\PSoC5/LED_Driver1_INT.c ****                     LED_Driver1_NAK_AND_TRANSMIT;
 494:Generated_Source\PSoC5/LED_Driver1_INT.c **** 
 495:Generated_Source\PSoC5/LED_Driver1_INT.c ****                     LED_Driver1_slStatus &= ((uint8) ~LED_Driver1_SSTAT_RD_BUSY);
 496:Generated_Source\PSoC5/LED_Driver1_INT.c ****                     LED_Driver1_slStatus |= ((uint8)  LED_Driver1_SSTAT_RD_CMPLT);
 497:Generated_Source\PSoC5/LED_Driver1_INT.c **** 
 498:Generated_Source\PSoC5/LED_Driver1_INT.c ****                     LED_Driver1_state = LED_Driver1_SM_IDLE;
 499:Generated_Source\PSoC5/LED_Driver1_INT.c ****                 }
 500:Generated_Source\PSoC5/LED_Driver1_INT.c ****             }
 501:Generated_Source\PSoC5/LED_Driver1_INT.c ****             else
 502:Generated_Source\PSoC5/LED_Driver1_INT.c ****             {
 503:Generated_Source\PSoC5/LED_Driver1_INT.c ****             #if(LED_Driver1_TIMEOUT_ENABLED)
 504:Generated_Source\PSoC5/LED_Driver1_INT.c ****                 /* Exit interrupt to take chance for timeout timer to handle this case */
 505:Generated_Source\PSoC5/LED_Driver1_INT.c ****                 LED_Driver1_DisableInt();
 506:Generated_Source\PSoC5/LED_Driver1_INT.c ****                 LED_Driver1_ClearPendingInt();
 507:Generated_Source\PSoC5/LED_Driver1_INT.c ****             #else
 508:Generated_Source\PSoC5/LED_Driver1_INT.c ****                 /* Block execution flow: unexpected condition */
 509:Generated_Source\PSoC5/LED_Driver1_INT.c ****                 CYASSERT(0u != 0u);
 510:Generated_Source\PSoC5/LED_Driver1_INT.c ****             #endif /* (LED_Driver1_TIMEOUT_ENABLED) */
 511:Generated_Source\PSoC5/LED_Driver1_INT.c ****             }
 512:Generated_Source\PSoC5/LED_Driver1_INT.c ****         }
 513:Generated_Source\PSoC5/LED_Driver1_INT.c ****     #endif /* (LED_Driver1_MODE_SLAVE_ENABLED) */
 514:Generated_Source\PSoC5/LED_Driver1_INT.c ****     }
 515:Generated_Source\PSoC5/LED_Driver1_INT.c ****     else
 516:Generated_Source\PSoC5/LED_Driver1_INT.c ****     {
 517:Generated_Source\PSoC5/LED_Driver1_INT.c ****         /* The FSM skips master and slave processing: return to IDLE */
 518:Generated_Source\PSoC5/LED_Driver1_INT.c ****         LED_Driver1_state = LED_Driver1_SM_IDLE;
 487              		.loc 1 518 0
 488 030e 1022     		movs	r2, #16
 489 0310 034B     		ldr	r3, .L29+8
 490 0312 1A70     		strb	r2, [r3]
 491              	.L1:
 492 0314 38BD     		pop	{r3, r4, r5, pc}
 493              	.LVL6:
 494              	.L30:
 495 0316 00BF     		.align	2
 496              	.L29:
 497 0318 00000000 		.word	LED_Driver1_mstrStatus
 498 031c 8B650040 		.word	1073767819
ARM GAS  D:\Windows\AppData\Local\Temp\ccSV0DQf.s 			page 19


 499 0320 00000000 		.word	LED_Driver1_state
 500              		.cfi_endproc
 501              	.LFE0:
 502              		.size	LED_Driver1_ISR, .-LED_Driver1_ISR
 503              		.text
 504              	.Letext0:
 505              		.file 2 "Generated_Source\\PSoC5\\cytypes.h"
 506              		.file 3 "Generated_Source\\PSoC5\\LED_Driver1_PVT.h"
 507              		.file 4 "Generated_Source\\PSoC5\\CyLib.h"