ARM GAS  D:\Windows\AppData\Local\Temp\cc9YXq6z.s 			page 1


   1              		.syntax unified
   2              		.cpu cortex-m3
   3              		.fpu softvfp
   4              		.eabi_attribute 20, 1
   5              		.eabi_attribute 21, 1
   6              		.eabi_attribute 23, 3
   7              		.eabi_attribute 24, 1
   8              		.eabi_attribute 25, 1
   9              		.eabi_attribute 26, 1
  10              		.eabi_attribute 30, 1
  11              		.eabi_attribute 34, 1
  12              		.eabi_attribute 18, 4
  13              		.thumb
  14              		.file	"led_manager.c"
  15              		.text
  16              	.Ltext0:
  17              		.cfi_sections	.debug_frame
  18              		.section	.text.write_all_tach,"ax",%progbits
  19              		.align	2
  20              		.global	write_all_tach
  21              		.thumb
  22              		.thumb_func
  23              		.type	write_all_tach, %function
  24              	write_all_tach:
  25              	.LFB75:
  26              		.file 1 "led_manager.c"
   1:led_manager.c **** /*	Recieves CAN information for motor RPM, BMS temp, motor temp, motor controller temp 
   2:led_manager.c **** 	and SoC and displatys on LED's.
   3:led_manager.c **** 
   4:led_manager.c **** 	tach = RPM
   5:led_manager.c **** 	b1 = BMS temp
   6:led_manager.c **** 	b2 = motor temp
   7:led_manager.c **** 	b3 = motor controller temp
   8:led_manager.c **** 	c1 = SoC
   9:led_manager.c **** */
  10:led_manager.c **** 
  11:led_manager.c **** 
  12:led_manager.c **** #include "led_manager.h"
  13:led_manager.c **** 
  14:led_manager.c **** //byte of LED address which holds which led's are on/off
  15:led_manager.c **** uint8_t byte05 = 0x00;
  16:led_manager.c **** uint8_t byte06 = 0x00;
  17:led_manager.c **** uint8_t byte07 = 0x00;
  18:led_manager.c **** uint8_t byte08 = 0x00;
  19:led_manager.c **** 
  20:led_manager.c **** uint8_t byte05_2 = 0x00;
  21:led_manager.c **** uint8_t byte06_2 = 0x00;
  22:led_manager.c **** uint8_t byte07_2 = 0x00;
  23:led_manager.c **** uint8_t byte08_2 = 0x00;
  24:led_manager.c **** 
  25:led_manager.c **** int tach_arr[22] = {0,0,0,0,0,0,0,0,0,0,0,0,0,0,0,0,0,0,0,0,0,0};
  26:led_manager.c **** int b1_arr[5] = {0,0,0,0,0};
  27:led_manager.c **** int b2_arr[5] = {0,0,0,0,0};
  28:led_manager.c **** int b3_arr[5] = {0,0,0,0,0};
  29:led_manager.c **** int c1_arr[5] = {0,0,0,0,0};
  30:led_manager.c **** 
  31:led_manager.c **** int b1_critical = 0;
ARM GAS  D:\Windows\AppData\Local\Temp\cc9YXq6z.s 			page 2


  32:led_manager.c **** int b2_critical = 0;
  33:led_manager.c **** int b3_critical = 0;
  34:led_manager.c **** int c1_critical = 0;
  35:led_manager.c **** 
  36:led_manager.c **** int b1_crit_led = 0;	//led status to toggle them on/off when monitor reaches critical
  37:led_manager.c **** int b2_crit_led = 0;
  38:led_manager.c **** int b3_crit_led = 0;
  39:led_manager.c **** int c1_crit_led = 0;
  40:led_manager.c **** 
  41:led_manager.c **** CY_ISR(b1_crit_isr) {
  42:led_manager.c **** 	b1_crit_led = b1_crit_led == 0 ? 1:0;
  43:led_manager.c **** 	b11_write(b1_crit_led);
  44:led_manager.c **** 	b12_write(b1_crit_led);
  45:led_manager.c **** 	b13_write(b1_crit_led);
  46:led_manager.c **** 	b14_write(b1_crit_led);
  47:led_manager.c **** 	b15_write(b1_crit_led);
  48:led_manager.c **** 
  49:led_manager.c **** }
  50:led_manager.c **** CY_ISR(b2_crit_isr) {
  51:led_manager.c **** 	b2_crit_led = b2_crit_led == 0 ? 1:0;
  52:led_manager.c **** 	b21_write(b2_crit_led);
  53:led_manager.c **** 	b22_write(b2_crit_led);
  54:led_manager.c **** 	b23_write(b2_crit_led);
  55:led_manager.c **** 	b24_write(b2_crit_led);
  56:led_manager.c **** 	b25_write(b2_crit_led);
  57:led_manager.c **** 
  58:led_manager.c **** }
  59:led_manager.c **** CY_ISR(b3_crit_isr) {
  60:led_manager.c **** 	b3_crit_led = b3_crit_led == 0 ? 1:0;
  61:led_manager.c **** 	b31_write(b3_crit_led);
  62:led_manager.c **** 	b32_write(b3_crit_led);
  63:led_manager.c **** 	b33_write(b3_crit_led);
  64:led_manager.c **** 	b34_write(b3_crit_led);
  65:led_manager.c **** 	b35_write(b3_crit_led);
  66:led_manager.c **** 
  67:led_manager.c **** }
  68:led_manager.c **** CY_ISR(c1_crit_isr) {
  69:led_manager.c **** 	c1_crit_led = c1_crit_led == 0 ? 1:0;
  70:led_manager.c **** 	c1_write(c1_crit_led);
  71:led_manager.c **** 	c2_write(c1_crit_led);
  72:led_manager.c **** 	c3_write(c1_crit_led);
  73:led_manager.c **** 	c4_write(c1_crit_led);
  74:led_manager.c **** 	c5_write(c1_crit_led);
  75:led_manager.c **** }
  76:led_manager.c **** 
  77:led_manager.c **** 
  78:led_manager.c **** void led_driver_init() {
  79:led_manager.c **** 	LED_Driver1_Start();
  80:led_manager.c **** 	LED_Driver2_Start();
  81:led_manager.c **** 
  82:led_manager.c **** 	//tach settings
  83:led_manager.c **** 	LED_Driver1_MasterSendStart(LED_ADDR, 0);
  84:led_manager.c **** 	LED_Driver1_MasterWriteByte(0x00);				//move to 0x00 addr
  85:led_manager.c **** 	LED_Driver1_MasterWriteByte(serial_setting);	//0x00 addr
  86:led_manager.c **** 	LED_Driver1_MasterWriteByte(fade_setting);		//x01
  87:led_manager.c **** 	LED_Driver1_MasterWriteByte(RLED_curr);			//x02
  88:led_manager.c **** 	LED_Driver1_MasterWriteByte(GLED_curr);			//x03
ARM GAS  D:\Windows\AppData\Local\Temp\cc9YXq6z.s 			page 3


  89:led_manager.c **** 	LED_Driver1_MasterWriteByte(BLED_curr);			//x04
  90:led_manager.c **** 	LED_Driver1_MasterSendStop();
  91:led_manager.c **** 	LED_Driver1_MasterSendStart(LED_ADDR, 0);
  92:led_manager.c **** 	LED_Driver1_MasterWriteByte(0x09);
  93:led_manager.c **** 	LED_Driver1_MasterWriteByte(output_setting);	//x09 addr
  94:led_manager.c **** 	LED_Driver1_MasterWriteByte(output_setting);	//x0A
  95:led_manager.c **** 	LED_Driver1_MasterWriteByte(output_setting);	//x0B
  96:led_manager.c **** 	LED_Driver1_MasterWriteByte(output_setting);	//x0C
  97:led_manager.c **** 	LED_Driver1_MasterWriteByte(output_setting);	//x0D
  98:led_manager.c **** 	LED_Driver1_MasterWriteByte(output_setting);	//x0E
  99:led_manager.c **** 	LED_Driver1_MasterWriteByte(fade_fn);			//x0F	LEDR
 100:led_manager.c **** 	LED_Driver1_MasterWriteByte(fade_fn);			//x10	LEDG
 101:led_manager.c **** 	LED_Driver1_MasterWriteByte(fade_fn);			//x11	LEDB
 102:led_manager.c **** 	LED_Driver1_MasterSendStop();
 103:led_manager.c **** 	
 104:led_manager.c **** 	//monitor settings
 105:led_manager.c **** 	LED_Driver2_MasterSendStart(LED_ADDR, 0);		//set mode
 106:led_manager.c **** 	LED_Driver2_MasterWriteByte(0x00);				//move to 0x00 addr
 107:led_manager.c **** 	LED_Driver2_MasterWriteByte(serial_setting);	//0x00 addr
 108:led_manager.c **** 	LED_Driver2_MasterWriteByte(fade_setting);		//x01
 109:led_manager.c **** 	LED_Driver2_MasterWriteByte(RLED_curr);			//x02
 110:led_manager.c **** 	LED_Driver2_MasterWriteByte(GLED_curr);			//x03
 111:led_manager.c **** 	LED_Driver2_MasterWriteByte(BLED_curr);			//x04
 112:led_manager.c **** 	LED_Driver2_MasterSendStop();
 113:led_manager.c **** 	LED_Driver2_MasterSendStart(LED_ADDR, 0);		//set output setting PWM
 114:led_manager.c **** 	LED_Driver2_MasterWriteByte(0x09);
 115:led_manager.c **** 	LED_Driver2_MasterWriteByte(output_setting);	//x09 addr
 116:led_manager.c **** 	LED_Driver2_MasterWriteByte(output_setting);	//x0A
 117:led_manager.c **** 	LED_Driver2_MasterWriteByte(output_setting);	//x0B
 118:led_manager.c **** 	LED_Driver2_MasterWriteByte(output_setting);	//x0C
 119:led_manager.c **** 	LED_Driver2_MasterWriteByte(output_setting);	//x0D
 120:led_manager.c **** 	LED_Driver2_MasterWriteByte(output_setting);	//x0E
 121:led_manager.c **** 	LED_Driver2_MasterWriteByte(fade_fn);			//x0F	LEDR
 122:led_manager.c **** 	LED_Driver2_MasterWriteByte(fade_fn);			//x10	LEDG
 123:led_manager.c **** 	LED_Driver2_MasterWriteByte(fade_fn);			//x11	LEDB
 124:led_manager.c **** 	LED_Driver2_MasterSendStop();
 125:led_manager.c **** 	
 126:led_manager.c **** 	write_all_tach(0);
 127:led_manager.c **** 	write_all_stat(0);
 128:led_manager.c **** } //led_driver_init()
 129:led_manager.c **** 
 130:led_manager.c **** 
 131:led_manager.c **** //calculates and writes RPM to tach led bar based on the maxed RPM
 132:led_manager.c **** void led_write_tach(uint16_t MTR_RPM) {
 133:led_manager.c **** 	int tach_pct = MTR_RPM / MAX_RPM;	//tach percent
 134:led_manager.c **** 	int steps = 0;
 135:led_manager.c **** 	
 136:led_manager.c **** 	//using TACH_MAX_STEPS = 20 leds, 5% per step
 137:led_manager.c **** 	if(tach_pct <= 5)
 138:led_manager.c **** 		steps = 2;	//first step lights up first 2 led's
 139:led_manager.c **** 	else if(tach_pct > 5 && tach_pct <= 10)
 140:led_manager.c **** 		steps = 3;
 141:led_manager.c **** 	else if(tach_pct > 10 && tach_pct <= 15)
 142:led_manager.c **** 		steps = 4;
 143:led_manager.c **** 	else if(tach_pct > 15 && tach_pct <= 20)
 144:led_manager.c **** 		steps = 5;
 145:led_manager.c **** 	else if(tach_pct > 20 && tach_pct <= 25)
ARM GAS  D:\Windows\AppData\Local\Temp\cc9YXq6z.s 			page 4


 146:led_manager.c **** 		steps = 6;
 147:led_manager.c **** 	else if(tach_pct > 25 && tach_pct <= 30)
 148:led_manager.c **** 		steps = 7;
 149:led_manager.c **** 	else if(tach_pct > 30 && tach_pct <= 35)
 150:led_manager.c **** 		steps = 8;
 151:led_manager.c **** 	else if(tach_pct > 35 && tach_pct <= 40)
 152:led_manager.c **** 		steps = 9;
 153:led_manager.c **** 	else if(tach_pct > 40 && tach_pct <= 45)
 154:led_manager.c **** 		steps = 10;
 155:led_manager.c **** 	else if(tach_pct > 45 && tach_pct <= 50)
 156:led_manager.c **** 		steps = 11;
 157:led_manager.c **** 	else if(tach_pct > 50 && tach_pct <= 55)
 158:led_manager.c **** 		steps = 12;
 159:led_manager.c **** 	else if(tach_pct > 55 && tach_pct <= 60)
 160:led_manager.c **** 		steps = 13;
 161:led_manager.c **** 	else if(tach_pct > 60 && tach_pct <= 65)
 162:led_manager.c **** 		steps = 14;
 163:led_manager.c **** 	else if(tach_pct > 65 && tach_pct <= 70)
 164:led_manager.c **** 		steps = 15;
 165:led_manager.c **** 	else if(tach_pct > 70 && tach_pct <= 75)
 166:led_manager.c **** 		steps = 16;
 167:led_manager.c **** 	else if(tach_pct > 75 && tach_pct <= 80)
 168:led_manager.c **** 		steps = 17;
 169:led_manager.c **** 	else if(tach_pct > 80 && tach_pct <= 85)
 170:led_manager.c **** 		steps = 18;
 171:led_manager.c **** 	else if(tach_pct > 85 && tach_pct <= 90)
 172:led_manager.c **** 		steps = 19;
 173:led_manager.c **** 	else if(tach_pct > 90 && tach_pct <= 95)
 174:led_manager.c **** 		steps = 20;
 175:led_manager.c **** 	else //(tach_pct > 95 && tach_pct <= 100)
 176:led_manager.c **** 		steps = 21;
 177:led_manager.c **** 	
 178:led_manager.c **** 	int i;
 179:led_manager.c **** 	for(i=0; i<steps; i++)
 180:led_manager.c **** 		tach_arr[i] = 1;	//on leds
 181:led_manager.c **** 	for(i=steps; i<TACH_MAX_STEPS+2; i++)	//+2 to get d22
 182:led_manager.c **** 		tach_arr[i] = 0;	//off leds
 183:led_manager.c **** 	
 184:led_manager.c **** 	d1_write(tach_arr[0]);
 185:led_manager.c **** 	d2_write(tach_arr[1]);
 186:led_manager.c **** 	d3_write(tach_arr[2]);
 187:led_manager.c **** 	d4_write(tach_arr[3]);
 188:led_manager.c **** 	d5_write(tach_arr[4]);
 189:led_manager.c **** 	d6_write(tach_arr[5]);
 190:led_manager.c **** 	d7_write(tach_arr[6]);
 191:led_manager.c **** 	d8_write(tach_arr[7]);
 192:led_manager.c **** 	d9_write(tach_arr[8]);
 193:led_manager.c **** 	d10_write(tach_arr[9]);
 194:led_manager.c **** 	d11_write(tach_arr[10]);
 195:led_manager.c **** 	d12_write(tach_arr[11]);
 196:led_manager.c **** 	d13_write(tach_arr[12]);
 197:led_manager.c **** 	d14_write(tach_arr[13]);
 198:led_manager.c **** 	d15_write(tach_arr[14]);
 199:led_manager.c **** 	d16_write(tach_arr[15]);
 200:led_manager.c **** 	d17_write(tach_arr[16]);
 201:led_manager.c **** 	d18_write(tach_arr[17]);
 202:led_manager.c **** 	d19_write(tach_arr[18]);
ARM GAS  D:\Windows\AppData\Local\Temp\cc9YXq6z.s 			page 5


 203:led_manager.c **** 	d20_write(tach_arr[19]);
 204:led_manager.c **** 	d21_write(tach_arr[20]);
 205:led_manager.c **** 	d22_write(tach_arr[21]);
 206:led_manager.c **** } //led_write_tach
 207:led_manager.c **** 
 208:led_manager.c **** void led_write_b1(uint8_t BMS_TEMP) {	//left vertical bar, 5 leds
 209:led_manager.c **** 	int steps = 0;
 210:led_manager.c **** 	if (BMS_TEMP <= 0x40)
 211:led_manager.c **** 		steps = 1;
 212:led_manager.c **** 	else if (BMS_TEMP > 0x40 && BMS_TEMP <= 0x45)
 213:led_manager.c **** 		steps = 2;
 214:led_manager.c **** 	else if (BMS_TEMP > 0x45 && BMS_TEMP <= 0x50)
 215:led_manager.c **** 		steps = 3;
 216:led_manager.c **** 	else if (BMS_TEMP > 0x50 && BMS_TEMP <= 0x55)
 217:led_manager.c **** 		steps = 4;
 218:led_manager.c **** 	else if (BMS_TEMP > 0x55 && BMS_TEMP < 0x60)
 219:led_manager.c **** 		steps = 5;
 220:led_manager.c **** 	else {	//(BMS_TEMP >= 60)
 221:led_manager.c **** 		if(!b1_critical) {	//start blinking
 222:led_manager.c **** 			b1_critical_timer_Start();
 223:led_manager.c **** 			b1_crit_int_StartEx(b1_crit_isr);
 224:led_manager.c **** 			b1_critical = 1;
 225:led_manager.c **** 		} //if
 226:led_manager.c **** 	} //else
 227:led_manager.c **** 	
 228:led_manager.c **** 	if(!b1_critical) {
 229:led_manager.c **** 		int i;
 230:led_manager.c **** 		for(i=0; i<steps; i++)
 231:led_manager.c **** 			b1_arr[i] = 1;	//on leds
 232:led_manager.c **** 		for(i=steps; i<5; i++)
 233:led_manager.c **** 			b1_arr[i] = 0;	//off leds
 234:led_manager.c **** 		
 235:led_manager.c **** 		b11_write(b1_arr[0]);
 236:led_manager.c **** 		b12_write(b1_arr[1]);
 237:led_manager.c **** 		b13_write(b1_arr[2]);
 238:led_manager.c **** 		b14_write(b1_arr[3]);
 239:led_manager.c **** 		b15_write(b1_arr[4]);
 240:led_manager.c **** 	} //if
 241:led_manager.c **** }	//led_write_b1()
 242:led_manager.c **** 
 243:led_manager.c **** void led_write_b2(uint8_t MTR_TEMP) {	//center vertical bar, 5 leds
 244:led_manager.c **** 	int steps = 0;
 245:led_manager.c **** 	if (MTR_TEMP <= 40)
 246:led_manager.c **** 		steps = 1;
 247:led_manager.c **** 	else if (MTR_TEMP > 40 && MTR_TEMP <= 45)
 248:led_manager.c **** 		steps = 2;
 249:led_manager.c **** 	else if (MTR_TEMP > 45 && MTR_TEMP <= 50)
 250:led_manager.c **** 		steps = 3;
 251:led_manager.c **** 	else if (MTR_TEMP > 50 && MTR_TEMP <= 55)
 252:led_manager.c **** 		steps = 4;
 253:led_manager.c **** 	else if (MTR_TEMP > 55 && MTR_TEMP <= 60)
 254:led_manager.c **** 		steps = 5;
 255:led_manager.c **** 	else {	//(MTR_TEMP >= 60)
 256:led_manager.c **** 		if(!b2_critical) {	//start blinking
 257:led_manager.c **** 			b2_critical_timer_Start();
 258:led_manager.c **** 			b2_crit_int_StartEx(b2_crit_isr);
 259:led_manager.c **** 			b2_critical = 1;
ARM GAS  D:\Windows\AppData\Local\Temp\cc9YXq6z.s 			page 6


 260:led_manager.c **** 		} //if
 261:led_manager.c **** 	} //else
 262:led_manager.c **** 	
 263:led_manager.c **** 	if (!b2_critical) {
 264:led_manager.c **** 		int i;
 265:led_manager.c **** 		for(i=0; i<steps; i++)
 266:led_manager.c **** 			b2_arr[i] = 1;	//on leds
 267:led_manager.c **** 		for(i=steps; i<5; i++)
 268:led_manager.c **** 			b2_arr[i] = 0;	//off leds
 269:led_manager.c **** 		
 270:led_manager.c **** 		b21_write(b2_arr[0]);
 271:led_manager.c **** 		b22_write(b2_arr[1]);
 272:led_manager.c **** 		b23_write(b2_arr[2]);
 273:led_manager.c **** 		b24_write(b2_arr[3]);
 274:led_manager.c **** 		b25_write(b2_arr[4]);	
 275:led_manager.c **** 	} //if
 276:led_manager.c **** } //led_write_b2()
 277:led_manager.c **** 
 278:led_manager.c **** void led_write_b3(uint8_t MTR_CTRL_TEMP) {	//right vertical bar, 5 leds
 279:led_manager.c **** 	int steps = 0;
 280:led_manager.c **** 	if (MTR_CTRL_TEMP <= 40)
 281:led_manager.c **** 		steps = 1;
 282:led_manager.c **** 	else if (MTR_CTRL_TEMP > 40 && MTR_CTRL_TEMP <= 45)
 283:led_manager.c **** 		steps = 2;
 284:led_manager.c **** 	else if (MTR_CTRL_TEMP > 45 && MTR_CTRL_TEMP <= 50)
 285:led_manager.c **** 		steps = 3;
 286:led_manager.c **** 	else if (MTR_CTRL_TEMP > 50 && MTR_CTRL_TEMP <= 55)
 287:led_manager.c **** 		steps = 4;
 288:led_manager.c **** 	else if (MTR_CTRL_TEMP > 55 && MTR_CTRL_TEMP <= 59)
 289:led_manager.c **** 		steps = 5;
 290:led_manager.c **** 	else {	//(MTR_CTRL_TEMP >= 59)
 291:led_manager.c **** 		if(!b3_critical) {	//start blinking
 292:led_manager.c **** 			b3_critical_timer_Start();
 293:led_manager.c **** 			b3_crit_int_StartEx(b3_crit_isr);
 294:led_manager.c **** 			b3_critical = 1;
 295:led_manager.c **** 		} //if
 296:led_manager.c **** 	} 	//else
 297:led_manager.c **** 	
 298:led_manager.c **** 	if(!b3_critical) {
 299:led_manager.c **** 		int i;
 300:led_manager.c **** 		for(i=0; i<steps; i++)
 301:led_manager.c **** 			b3_arr[i] = 1;	//on leds
 302:led_manager.c **** 		for(i=steps; i<5; i++)
 303:led_manager.c **** 			b3_arr[i] = 0;	//off leds
 304:led_manager.c **** 		
 305:led_manager.c **** 		b31_write(b3_arr[0]);
 306:led_manager.c **** 		b32_write(b3_arr[1]);
 307:led_manager.c **** 		b33_write(b3_arr[2]);
 308:led_manager.c **** 		b34_write(b3_arr[3]);
 309:led_manager.c **** 		b35_write(b3_arr[4]);
 310:led_manager.c **** 	} //if
 311:led_manager.c **** } //led_write_b3()
 312:led_manager.c **** 
 313:led_manager.c **** void led_write_c1(uint8_t SoC) {	//horizontal bar, 5 leds
 314:led_manager.c **** 	int steps = 0;
 315:led_manager.c **** 	if (SoC > 80 && SoC < 100)
 316:led_manager.c **** 		steps = 5;
ARM GAS  D:\Windows\AppData\Local\Temp\cc9YXq6z.s 			page 7


 317:led_manager.c **** 	else if (SoC > 60  && SoC < 80)
 318:led_manager.c **** 		steps = 4;
 319:led_manager.c **** 	else if (SoC > 40 && SoC < 60)
 320:led_manager.c **** 		steps = 3;
 321:led_manager.c **** 	else if (SoC > 20 && SoC < 40)
 322:led_manager.c **** 		steps = 2;
 323:led_manager.c **** 	else if (SoC > 10 && SoC < 20)
 324:led_manager.c **** 		steps = 1;
 325:led_manager.c **** 	else {	//(SoC <= 10)
 326:led_manager.c **** 		if(!c1_critical) {	//start blinking
 327:led_manager.c **** 			c1_critical_timer_Start();
 328:led_manager.c **** 			c1_crit_int_StartEx(c1_crit_isr);
 329:led_manager.c **** 			c1_critical = 1;
 330:led_manager.c **** 		} //if
 331:led_manager.c **** 	} //else
 332:led_manager.c **** 	
 333:led_manager.c **** 	if(!c1_critical) {
 334:led_manager.c **** 		int i;
 335:led_manager.c **** 		for(i=0; i<steps; i++)
 336:led_manager.c **** 			c1_arr[i] = 1;	//on leds
 337:led_manager.c **** 		for(i=steps; i<5; i++)
 338:led_manager.c **** 			c1_arr[i] = 0;	//off leds
 339:led_manager.c **** 		
 340:led_manager.c **** 		c1_write(c1_arr[0]);
 341:led_manager.c **** 		c2_write(c1_arr[1]);
 342:led_manager.c **** 		c3_write(c1_arr[2]);
 343:led_manager.c **** 		c4_write(c1_arr[3]);
 344:led_manager.c **** 		c5_write(c1_arr[4]);
 345:led_manager.c **** 	} //if
 346:led_manager.c **** } //led_write_c3()
 347:led_manager.c **** 
 348:led_manager.c **** 
 349:led_manager.c **** //test stuff
 350:led_manager.c **** void led_on() {
 351:led_manager.c **** 	d1_write(1);
 352:led_manager.c **** 	//d2_write(1);
 353:led_manager.c **** 	//d3_write(1);
 354:led_manager.c **** 	//d4_write(1);
 355:led_manager.c **** 	//d5_write(1);
 356:led_manager.c **** 	//d6_write(1);
 357:led_manager.c **** 	//d7_write(1);
 358:led_manager.c **** 	//d8_write(1);
 359:led_manager.c **** 	//d9_write(1);
 360:led_manager.c **** 	//d10_write(1);
 361:led_manager.c **** 	//d11_write(1);
 362:led_manager.c **** 	//d12_write(1);
 363:led_manager.c **** 	//d13_write(1);
 364:led_manager.c **** 	d14_write(1);
 365:led_manager.c **** 	d15_write(1);
 366:led_manager.c **** 	//d16_write(1);
 367:led_manager.c **** 	//d17_write(1);
 368:led_manager.c **** 	//d18_write(1);
 369:led_manager.c **** 	d19_write(1);
 370:led_manager.c **** 	//d20_write(1);
 371:led_manager.c **** 	//d21_write(1);
 372:led_manager.c **** 	//d22_write(1);
 373:led_manager.c **** 	
ARM GAS  D:\Windows\AppData\Local\Temp\cc9YXq6z.s 			page 8


 374:led_manager.c **** 	/*
 375:led_manager.c **** 	b11_write(1);
 376:led_manager.c **** 	b12_write(1);
 377:led_manager.c **** 	b13_write(1);
 378:led_manager.c **** 	b14_write(1);
 379:led_manager.c **** 	b15_write(1);
 380:led_manager.c **** 	
 381:led_manager.c **** 	b21_write(1);
 382:led_manager.c **** 	b22_write(1);
 383:led_manager.c **** 	b23_write(1);
 384:led_manager.c **** 	b24_write(1);
 385:led_manager.c **** 	b25_write(1);
 386:led_manager.c **** 	
 387:led_manager.c **** 	b31_write(1);
 388:led_manager.c **** 	b32_write(1);
 389:led_manager.c **** 	b33_write(1);
 390:led_manager.c **** 	b34_write(1);
 391:led_manager.c **** 	b35_write(1);
 392:led_manager.c **** 	*/
 393:led_manager.c **** 	/*
 394:led_manager.c **** 	c1_write(1);
 395:led_manager.c **** 	c2_write(1);
 396:led_manager.c **** 	c3_write(1);
 397:led_manager.c **** 	c4_write(1);
 398:led_manager.c **** 	c5_write(1);
 399:led_manager.c **** 	*/
 400:led_manager.c **** }
 401:led_manager.c **** void led_off() {
 402:led_manager.c **** 	d1_write(0);
 403:led_manager.c **** 	//d2_write(0);
 404:led_manager.c **** 	//d3_write(0);
 405:led_manager.c **** 	//d4_write(0);
 406:led_manager.c **** 	//d5_write(0);
 407:led_manager.c **** 	//d6_write(0);
 408:led_manager.c **** 	//d7_write(0);
 409:led_manager.c **** 	//d8_write(0);
 410:led_manager.c **** 	//d9_write(0);
 411:led_manager.c **** 	//d10_write(0);
 412:led_manager.c **** 	//d11_write(0);
 413:led_manager.c **** 	//d12_write(0);
 414:led_manager.c **** 	//d13_write(0);
 415:led_manager.c **** 	d14_write(0);
 416:led_manager.c **** 	d15_write(0);
 417:led_manager.c **** 	//d16_write(0);
 418:led_manager.c **** 	//d17_write(0);
 419:led_manager.c **** 	//d18_write(0);
 420:led_manager.c **** 	d19_write(0);
 421:led_manager.c **** 	//d20_write(0);
 422:led_manager.c **** 	//d21_write(0);
 423:led_manager.c **** 	//d22_write(0);
 424:led_manager.c **** 	/*
 425:led_manager.c **** 	b11_write(0);
 426:led_manager.c **** 	b12_write(0);
 427:led_manager.c **** 	b13_write(0);
 428:led_manager.c **** 	b14_write(0);
 429:led_manager.c **** 	b15_write(0);
 430:led_manager.c **** 	
ARM GAS  D:\Windows\AppData\Local\Temp\cc9YXq6z.s 			page 9


 431:led_manager.c **** 	b21_write(0);
 432:led_manager.c **** 	b22_write(0);
 433:led_manager.c **** 	b23_write(0);
 434:led_manager.c **** 	b24_write(0);
 435:led_manager.c **** 	b25_write(0);
 436:led_manager.c **** 	
 437:led_manager.c **** 	b31_write(0);
 438:led_manager.c **** 	b32_write(0);
 439:led_manager.c **** 	b33_write(0);
 440:led_manager.c **** 	b34_write(0);
 441:led_manager.c **** 	b35_write(0);
 442:led_manager.c **** 	*/
 443:led_manager.c **** 	/*
 444:led_manager.c **** 	c1_write(0);
 445:led_manager.c **** 	c2_write(0);
 446:led_manager.c **** 	c3_write(0);
 447:led_manager.c **** 	c4_write(0);
 448:led_manager.c **** 	c5_write(0);
 449:led_manager.c **** 	*/
 450:led_manager.c **** }
 451:led_manager.c **** void write_all_tach(int bool) {
  27              		.loc 1 451 0
  28              		.cfi_startproc
  29              		@ args = 0, pretend = 0, frame = 0
  30              		@ frame_needed = 0, uses_anonymous_args = 0
  31              	.LVL0:
  32 0000 10B5     		push	{r4, lr}
  33              		.cfi_def_cfa_offset 8
  34              		.cfi_offset 4, -8
  35              		.cfi_offset 14, -4
  36 0002 0446     		mov	r4, r0
  37              	.LVL1:
 452:led_manager.c **** 	uint8_t allon = 0x77;
 453:led_manager.c **** 	
 454:led_manager.c **** 	LED_Driver1_MasterSendStart(LED_ADDR, 0);
  38              		.loc 1 454 0
  39 0004 4020     		movs	r0, #64
  40              	.LVL2:
  41 0006 0021     		movs	r1, #0
  42 0008 FFF7FEFF 		bl	LED_Driver1_MasterSendStart
  43              	.LVL3:
 455:led_manager.c **** 	LED_Driver1_MasterWriteByte(LED05);
  44              		.loc 1 455 0
  45 000c 0520     		movs	r0, #5
  46 000e FFF7FEFF 		bl	LED_Driver1_MasterWriteByte
  47              	.LVL4:
 456:led_manager.c **** 	if(bool == 1) {
  48              		.loc 1 456 0
  49 0012 012C     		cmp	r4, #1
  50 0014 0CD1     		bne	.L2
 457:led_manager.c **** 		LED_Driver1_MasterWriteByte(allon);			//0x05 addr
  51              		.loc 1 457 0
  52 0016 7720     		movs	r0, #119
  53 0018 FFF7FEFF 		bl	LED_Driver1_MasterWriteByte
  54              	.LVL5:
 458:led_manager.c **** 		LED_Driver1_MasterWriteByte(allon);			//0x06 addr
  55              		.loc 1 458 0
ARM GAS  D:\Windows\AppData\Local\Temp\cc9YXq6z.s 			page 10


  56 001c 7720     		movs	r0, #119
  57 001e FFF7FEFF 		bl	LED_Driver1_MasterWriteByte
  58              	.LVL6:
 459:led_manager.c **** 		LED_Driver1_MasterWriteByte(allon);			//0x07 addr
  59              		.loc 1 459 0
  60 0022 7720     		movs	r0, #119
  61 0024 FFF7FEFF 		bl	LED_Driver1_MasterWriteByte
  62              	.LVL7:
 460:led_manager.c **** 		LED_Driver1_MasterWriteByte(allon);			//0x08 addr
  63              		.loc 1 460 0
  64 0028 7720     		movs	r0, #119
  65 002a FFF7FEFF 		bl	LED_Driver1_MasterWriteByte
  66              	.LVL8:
  67 002e 0BE0     		b	.L3
  68              	.L2:
 461:led_manager.c **** 	}
 462:led_manager.c **** 	else {
 463:led_manager.c **** 		LED_Driver1_MasterWriteByte(0x00);
  69              		.loc 1 463 0
  70 0030 0020     		movs	r0, #0
  71 0032 FFF7FEFF 		bl	LED_Driver1_MasterWriteByte
  72              	.LVL9:
 464:led_manager.c **** 		LED_Driver1_MasterWriteByte(0x00);
  73              		.loc 1 464 0
  74 0036 0020     		movs	r0, #0
  75 0038 FFF7FEFF 		bl	LED_Driver1_MasterWriteByte
  76              	.LVL10:
 465:led_manager.c **** 		LED_Driver1_MasterWriteByte(0x00);
  77              		.loc 1 465 0
  78 003c 0020     		movs	r0, #0
  79 003e FFF7FEFF 		bl	LED_Driver1_MasterWriteByte
  80              	.LVL11:
 466:led_manager.c **** 		LED_Driver1_MasterWriteByte(0x00);
  81              		.loc 1 466 0
  82 0042 0020     		movs	r0, #0
  83 0044 FFF7FEFF 		bl	LED_Driver1_MasterWriteByte
  84              	.LVL12:
  85              	.L3:
 467:led_manager.c **** 	}
 468:led_manager.c **** 	LED_Driver1_MasterSendStop();
  86              		.loc 1 468 0
  87 0048 FFF7FEFF 		bl	LED_Driver1_MasterSendStop
  88              	.LVL13:
  89 004c 10BD     		pop	{r4, pc}
  90              		.cfi_endproc
  91              	.LFE75:
  92              		.size	write_all_tach, .-write_all_tach
  93 004e 00BF     		.section	.text.write_all_stat,"ax",%progbits
  94              		.align	2
  95              		.global	write_all_stat
  96              		.thumb
  97              		.thumb_func
  98              		.type	write_all_stat, %function
  99              	write_all_stat:
 100              	.LFB76:
 469:led_manager.c **** }
 470:led_manager.c **** void write_all_stat(int bool) {
ARM GAS  D:\Windows\AppData\Local\Temp\cc9YXq6z.s 			page 11


 101              		.loc 1 470 0
 102              		.cfi_startproc
 103              		@ args = 0, pretend = 0, frame = 0
 104              		@ frame_needed = 0, uses_anonymous_args = 0
 105              	.LVL14:
 106 0000 10B5     		push	{r4, lr}
 107              		.cfi_def_cfa_offset 8
 108              		.cfi_offset 4, -8
 109              		.cfi_offset 14, -4
 110 0002 0446     		mov	r4, r0
 111              	.LVL15:
 471:led_manager.c **** 	uint8_t allon = 0x77;
 472:led_manager.c **** 	
 473:led_manager.c **** 	LED_Driver2_MasterSendStart(LED_ADDR, 0);
 112              		.loc 1 473 0
 113 0004 4020     		movs	r0, #64
 114              	.LVL16:
 115 0006 0021     		movs	r1, #0
 116 0008 FFF7FEFF 		bl	LED_Driver2_MasterSendStart
 117              	.LVL17:
 474:led_manager.c **** 	LED_Driver2_MasterWriteByte(LED05);	
 118              		.loc 1 474 0
 119 000c 0520     		movs	r0, #5
 120 000e FFF7FEFF 		bl	LED_Driver2_MasterWriteByte
 121              	.LVL18:
 475:led_manager.c **** 	if(bool == 1) {
 122              		.loc 1 475 0
 123 0012 012C     		cmp	r4, #1
 124 0014 0CD1     		bne	.L6
 476:led_manager.c **** 		LED_Driver2_MasterWriteByte(allon);			//0x05 addr
 125              		.loc 1 476 0
 126 0016 7720     		movs	r0, #119
 127 0018 FFF7FEFF 		bl	LED_Driver2_MasterWriteByte
 128              	.LVL19:
 477:led_manager.c **** 		LED_Driver2_MasterWriteByte(allon);			//0x06 addr
 129              		.loc 1 477 0
 130 001c 7720     		movs	r0, #119
 131 001e FFF7FEFF 		bl	LED_Driver2_MasterWriteByte
 132              	.LVL20:
 478:led_manager.c **** 		LED_Driver2_MasterWriteByte(allon);			//0x07 addr
 133              		.loc 1 478 0
 134 0022 7720     		movs	r0, #119
 135 0024 FFF7FEFF 		bl	LED_Driver2_MasterWriteByte
 136              	.LVL21:
 479:led_manager.c **** 		LED_Driver2_MasterWriteByte(allon);			//0x08 addr
 137              		.loc 1 479 0
 138 0028 7720     		movs	r0, #119
 139 002a FFF7FEFF 		bl	LED_Driver2_MasterWriteByte
 140              	.LVL22:
 141 002e 0BE0     		b	.L7
 142              	.L6:
 480:led_manager.c **** 	}
 481:led_manager.c **** 	else {
 482:led_manager.c **** 		LED_Driver2_MasterWriteByte(0x00);
 143              		.loc 1 482 0
 144 0030 0020     		movs	r0, #0
 145 0032 FFF7FEFF 		bl	LED_Driver2_MasterWriteByte
ARM GAS  D:\Windows\AppData\Local\Temp\cc9YXq6z.s 			page 12


 146              	.LVL23:
 483:led_manager.c **** 		LED_Driver2_MasterWriteByte(0x00);
 147              		.loc 1 483 0
 148 0036 0020     		movs	r0, #0
 149 0038 FFF7FEFF 		bl	LED_Driver2_MasterWriteByte
 150              	.LVL24:
 484:led_manager.c **** 		LED_Driver2_MasterWriteByte(0x00);
 151              		.loc 1 484 0
 152 003c 0020     		movs	r0, #0
 153 003e FFF7FEFF 		bl	LED_Driver2_MasterWriteByte
 154              	.LVL25:
 485:led_manager.c **** 		LED_Driver2_MasterWriteByte(0x00);
 155              		.loc 1 485 0
 156 0042 0020     		movs	r0, #0
 157 0044 FFF7FEFF 		bl	LED_Driver2_MasterWriteByte
 158              	.LVL26:
 159              	.L7:
 486:led_manager.c **** 	}
 487:led_manager.c **** 	LED_Driver2_MasterSendStop();
 160              		.loc 1 487 0
 161 0048 FFF7FEFF 		bl	LED_Driver2_MasterSendStop
 162              	.LVL27:
 163 004c 10BD     		pop	{r4, pc}
 164              		.cfi_endproc
 165              	.LFE76:
 166              		.size	write_all_stat, .-write_all_stat
 167 004e 00BF     		.section	.text.led_driver_init,"ax",%progbits
 168              		.align	2
 169              		.global	led_driver_init
 170              		.thumb
 171              		.thumb_func
 172              		.type	led_driver_init, %function
 173              	led_driver_init:
 174              	.LFB67:
  78:led_manager.c **** 	LED_Driver1_Start();
 175              		.loc 1 78 0
 176              		.cfi_startproc
 177              		@ args = 0, pretend = 0, frame = 0
 178              		@ frame_needed = 0, uses_anonymous_args = 0
 179 0000 08B5     		push	{r3, lr}
 180              		.cfi_def_cfa_offset 8
 181              		.cfi_offset 3, -8
 182              		.cfi_offset 14, -4
  79:led_manager.c **** 	LED_Driver2_Start();
 183              		.loc 1 79 0
 184 0002 FFF7FEFF 		bl	LED_Driver1_Start
 185              	.LVL28:
  80:led_manager.c **** 
 186              		.loc 1 80 0
 187 0006 FFF7FEFF 		bl	LED_Driver2_Start
 188              	.LVL29:
  83:led_manager.c **** 	LED_Driver1_MasterWriteByte(0x00);				//move to 0x00 addr
 189              		.loc 1 83 0
 190 000a 4020     		movs	r0, #64
 191 000c 0021     		movs	r1, #0
 192 000e FFF7FEFF 		bl	LED_Driver1_MasterSendStart
 193              	.LVL30:
ARM GAS  D:\Windows\AppData\Local\Temp\cc9YXq6z.s 			page 13


  84:led_manager.c **** 	LED_Driver1_MasterWriteByte(serial_setting);	//0x00 addr
 194              		.loc 1 84 0
 195 0012 0020     		movs	r0, #0
 196 0014 FFF7FEFF 		bl	LED_Driver1_MasterWriteByte
 197              	.LVL31:
  85:led_manager.c **** 	LED_Driver1_MasterWriteByte(fade_setting);		//x01
 198              		.loc 1 85 0
 199 0018 0020     		movs	r0, #0
 200 001a FFF7FEFF 		bl	LED_Driver1_MasterWriteByte
 201              	.LVL32:
  86:led_manager.c **** 	LED_Driver1_MasterWriteByte(RLED_curr);			//x02
 202              		.loc 1 86 0
 203 001e 0020     		movs	r0, #0
 204 0020 FFF7FEFF 		bl	LED_Driver1_MasterWriteByte
 205              	.LVL33:
  87:led_manager.c **** 	LED_Driver1_MasterWriteByte(GLED_curr);			//x03
 206              		.loc 1 87 0
 207 0024 1F20     		movs	r0, #31
 208 0026 FFF7FEFF 		bl	LED_Driver1_MasterWriteByte
 209              	.LVL34:
  88:led_manager.c **** 	LED_Driver1_MasterWriteByte(BLED_curr);			//x04
 210              		.loc 1 88 0
 211 002a 1F20     		movs	r0, #31
 212 002c FFF7FEFF 		bl	LED_Driver1_MasterWriteByte
 213              	.LVL35:
  89:led_manager.c **** 	LED_Driver1_MasterSendStop();
 214              		.loc 1 89 0
 215 0030 1F20     		movs	r0, #31
 216 0032 FFF7FEFF 		bl	LED_Driver1_MasterWriteByte
 217              	.LVL36:
  90:led_manager.c **** 	LED_Driver1_MasterSendStart(LED_ADDR, 0);
 218              		.loc 1 90 0
 219 0036 FFF7FEFF 		bl	LED_Driver1_MasterSendStop
 220              	.LVL37:
  91:led_manager.c **** 	LED_Driver1_MasterWriteByte(0x09);
 221              		.loc 1 91 0
 222 003a 4020     		movs	r0, #64
 223 003c 0021     		movs	r1, #0
 224 003e FFF7FEFF 		bl	LED_Driver1_MasterSendStart
 225              	.LVL38:
  92:led_manager.c **** 	LED_Driver1_MasterWriteByte(output_setting);	//x09 addr
 226              		.loc 1 92 0
 227 0042 0920     		movs	r0, #9
 228 0044 FFF7FEFF 		bl	LED_Driver1_MasterWriteByte
 229              	.LVL39:
  93:led_manager.c **** 	LED_Driver1_MasterWriteByte(output_setting);	//x0A
 230              		.loc 1 93 0
 231 0048 5520     		movs	r0, #85
 232 004a FFF7FEFF 		bl	LED_Driver1_MasterWriteByte
 233              	.LVL40:
  94:led_manager.c **** 	LED_Driver1_MasterWriteByte(output_setting);	//x0B
 234              		.loc 1 94 0
 235 004e 5520     		movs	r0, #85
 236 0050 FFF7FEFF 		bl	LED_Driver1_MasterWriteByte
 237              	.LVL41:
  95:led_manager.c **** 	LED_Driver1_MasterWriteByte(output_setting);	//x0C
 238              		.loc 1 95 0
ARM GAS  D:\Windows\AppData\Local\Temp\cc9YXq6z.s 			page 14


 239 0054 5520     		movs	r0, #85
 240 0056 FFF7FEFF 		bl	LED_Driver1_MasterWriteByte
 241              	.LVL42:
  96:led_manager.c **** 	LED_Driver1_MasterWriteByte(output_setting);	//x0D
 242              		.loc 1 96 0
 243 005a 5520     		movs	r0, #85
 244 005c FFF7FEFF 		bl	LED_Driver1_MasterWriteByte
 245              	.LVL43:
  97:led_manager.c **** 	LED_Driver1_MasterWriteByte(output_setting);	//x0E
 246              		.loc 1 97 0
 247 0060 5520     		movs	r0, #85
 248 0062 FFF7FEFF 		bl	LED_Driver1_MasterWriteByte
 249              	.LVL44:
  98:led_manager.c **** 	LED_Driver1_MasterWriteByte(fade_fn);			//x0F	LEDR
 250              		.loc 1 98 0
 251 0066 5520     		movs	r0, #85
 252 0068 FFF7FEFF 		bl	LED_Driver1_MasterWriteByte
 253              	.LVL45:
  99:led_manager.c **** 	LED_Driver1_MasterWriteByte(fade_fn);			//x10	LEDG
 254              		.loc 1 99 0
 255 006c FF20     		movs	r0, #255
 256 006e FFF7FEFF 		bl	LED_Driver1_MasterWriteByte
 257              	.LVL46:
 100:led_manager.c **** 	LED_Driver1_MasterWriteByte(fade_fn);			//x11	LEDB
 258              		.loc 1 100 0
 259 0072 FF20     		movs	r0, #255
 260 0074 FFF7FEFF 		bl	LED_Driver1_MasterWriteByte
 261              	.LVL47:
 101:led_manager.c **** 	LED_Driver1_MasterSendStop();
 262              		.loc 1 101 0
 263 0078 FF20     		movs	r0, #255
 264 007a FFF7FEFF 		bl	LED_Driver1_MasterWriteByte
 265              	.LVL48:
 102:led_manager.c **** 	
 266              		.loc 1 102 0
 267 007e FFF7FEFF 		bl	LED_Driver1_MasterSendStop
 268              	.LVL49:
 105:led_manager.c **** 	LED_Driver2_MasterWriteByte(0x00);				//move to 0x00 addr
 269              		.loc 1 105 0
 270 0082 4020     		movs	r0, #64
 271 0084 0021     		movs	r1, #0
 272 0086 FFF7FEFF 		bl	LED_Driver2_MasterSendStart
 273              	.LVL50:
 106:led_manager.c **** 	LED_Driver2_MasterWriteByte(serial_setting);	//0x00 addr
 274              		.loc 1 106 0
 275 008a 0020     		movs	r0, #0
 276 008c FFF7FEFF 		bl	LED_Driver2_MasterWriteByte
 277              	.LVL51:
 107:led_manager.c **** 	LED_Driver2_MasterWriteByte(fade_setting);		//x01
 278              		.loc 1 107 0
 279 0090 0020     		movs	r0, #0
 280 0092 FFF7FEFF 		bl	LED_Driver2_MasterWriteByte
 281              	.LVL52:
 108:led_manager.c **** 	LED_Driver2_MasterWriteByte(RLED_curr);			//x02
 282              		.loc 1 108 0
 283 0096 0020     		movs	r0, #0
 284 0098 FFF7FEFF 		bl	LED_Driver2_MasterWriteByte
ARM GAS  D:\Windows\AppData\Local\Temp\cc9YXq6z.s 			page 15


 285              	.LVL53:
 109:led_manager.c **** 	LED_Driver2_MasterWriteByte(GLED_curr);			//x03
 286              		.loc 1 109 0
 287 009c 1F20     		movs	r0, #31
 288 009e FFF7FEFF 		bl	LED_Driver2_MasterWriteByte
 289              	.LVL54:
 110:led_manager.c **** 	LED_Driver2_MasterWriteByte(BLED_curr);			//x04
 290              		.loc 1 110 0
 291 00a2 1F20     		movs	r0, #31
 292 00a4 FFF7FEFF 		bl	LED_Driver2_MasterWriteByte
 293              	.LVL55:
 111:led_manager.c **** 	LED_Driver2_MasterSendStop();
 294              		.loc 1 111 0
 295 00a8 1F20     		movs	r0, #31
 296 00aa FFF7FEFF 		bl	LED_Driver2_MasterWriteByte
 297              	.LVL56:
 112:led_manager.c **** 	LED_Driver2_MasterSendStart(LED_ADDR, 0);		//set output setting PWM
 298              		.loc 1 112 0
 299 00ae FFF7FEFF 		bl	LED_Driver2_MasterSendStop
 300              	.LVL57:
 113:led_manager.c **** 	LED_Driver2_MasterWriteByte(0x09);
 301              		.loc 1 113 0
 302 00b2 4020     		movs	r0, #64
 303 00b4 0021     		movs	r1, #0
 304 00b6 FFF7FEFF 		bl	LED_Driver2_MasterSendStart
 305              	.LVL58:
 114:led_manager.c **** 	LED_Driver2_MasterWriteByte(output_setting);	//x09 addr
 306              		.loc 1 114 0
 307 00ba 0920     		movs	r0, #9
 308 00bc FFF7FEFF 		bl	LED_Driver2_MasterWriteByte
 309              	.LVL59:
 115:led_manager.c **** 	LED_Driver2_MasterWriteByte(output_setting);	//x0A
 310              		.loc 1 115 0
 311 00c0 5520     		movs	r0, #85
 312 00c2 FFF7FEFF 		bl	LED_Driver2_MasterWriteByte
 313              	.LVL60:
 116:led_manager.c **** 	LED_Driver2_MasterWriteByte(output_setting);	//x0B
 314              		.loc 1 116 0
 315 00c6 5520     		movs	r0, #85
 316 00c8 FFF7FEFF 		bl	LED_Driver2_MasterWriteByte
 317              	.LVL61:
 117:led_manager.c **** 	LED_Driver2_MasterWriteByte(output_setting);	//x0C
 318              		.loc 1 117 0
 319 00cc 5520     		movs	r0, #85
 320 00ce FFF7FEFF 		bl	LED_Driver2_MasterWriteByte
 321              	.LVL62:
 118:led_manager.c **** 	LED_Driver2_MasterWriteByte(output_setting);	//x0D
 322              		.loc 1 118 0
 323 00d2 5520     		movs	r0, #85
 324 00d4 FFF7FEFF 		bl	LED_Driver2_MasterWriteByte
 325              	.LVL63:
 119:led_manager.c **** 	LED_Driver2_MasterWriteByte(output_setting);	//x0E
 326              		.loc 1 119 0
 327 00d8 5520     		movs	r0, #85
 328 00da FFF7FEFF 		bl	LED_Driver2_MasterWriteByte
 329              	.LVL64:
 120:led_manager.c **** 	LED_Driver2_MasterWriteByte(fade_fn);			//x0F	LEDR
ARM GAS  D:\Windows\AppData\Local\Temp\cc9YXq6z.s 			page 16


 330              		.loc 1 120 0
 331 00de 5520     		movs	r0, #85
 332 00e0 FFF7FEFF 		bl	LED_Driver2_MasterWriteByte
 333              	.LVL65:
 121:led_manager.c **** 	LED_Driver2_MasterWriteByte(fade_fn);			//x10	LEDG
 334              		.loc 1 121 0
 335 00e4 FF20     		movs	r0, #255
 336 00e6 FFF7FEFF 		bl	LED_Driver2_MasterWriteByte
 337              	.LVL66:
 122:led_manager.c **** 	LED_Driver2_MasterWriteByte(fade_fn);			//x11	LEDB
 338              		.loc 1 122 0
 339 00ea FF20     		movs	r0, #255
 340 00ec FFF7FEFF 		bl	LED_Driver2_MasterWriteByte
 341              	.LVL67:
 123:led_manager.c **** 	LED_Driver2_MasterSendStop();
 342              		.loc 1 123 0
 343 00f0 FF20     		movs	r0, #255
 344 00f2 FFF7FEFF 		bl	LED_Driver2_MasterWriteByte
 345              	.LVL68:
 124:led_manager.c **** 	
 346              		.loc 1 124 0
 347 00f6 FFF7FEFF 		bl	LED_Driver2_MasterSendStop
 348              	.LVL69:
 126:led_manager.c **** 	write_all_stat(0);
 349              		.loc 1 126 0
 350 00fa 0020     		movs	r0, #0
 351 00fc FFF7FEFF 		bl	write_all_tach
 352              	.LVL70:
 127:led_manager.c **** } //led_driver_init()
 353              		.loc 1 127 0
 354 0100 0020     		movs	r0, #0
 355 0102 FFF7FEFF 		bl	write_all_stat
 356              	.LVL71:
 357 0106 08BD     		pop	{r3, pc}
 358              		.cfi_endproc
 359              	.LFE67:
 360              		.size	led_driver_init, .-led_driver_init
 361              		.section	.text.d1_write,"ax",%progbits
 362              		.align	2
 363              		.global	d1_write
 364              		.thumb
 365              		.thumb_func
 366              		.type	d1_write, %function
 367              	d1_write:
 368              	.LFB78:
 488:led_manager.c **** }
 489:led_manager.c **** int led_writetest(int i, int* arr) {
 490:led_manager.c **** 	d1_write(arr[0]);
 491:led_manager.c **** 	d2_write(arr[1]);
 492:led_manager.c **** 	d3_write(arr[2]);
 493:led_manager.c **** 	d4_write(arr[3]);
 494:led_manager.c **** 	d5_write(arr[4]);
 495:led_manager.c **** 	d6_write(arr[5]);
 496:led_manager.c **** 	d7_write(arr[6]);
 497:led_manager.c **** 	d8_write(arr[7]);
 498:led_manager.c **** 	d9_write(arr[8]);
 499:led_manager.c **** 	d10_write(arr[9]);
ARM GAS  D:\Windows\AppData\Local\Temp\cc9YXq6z.s 			page 17


 500:led_manager.c **** 	d11_write(arr[10]);
 501:led_manager.c **** 	d12_write(arr[11]);
 502:led_manager.c **** 	d13_write(arr[12]);
 503:led_manager.c **** 	d14_write(arr[13]);
 504:led_manager.c **** 	d15_write(arr[14]);
 505:led_manager.c **** 	d16_write(arr[15]);
 506:led_manager.c **** 	d17_write(arr[16]);
 507:led_manager.c **** 	d18_write(arr[17]);
 508:led_manager.c **** 	d19_write(arr[18]);
 509:led_manager.c **** 	d20_write(arr[19]);
 510:led_manager.c **** 	d21_write(arr[20]);
 511:led_manager.c **** 	d22_write(arr[21]);
 512:led_manager.c **** 	
 513:led_manager.c **** 	arr[i] = 0;
 514:led_manager.c **** 	arr[(i+5) % 22] = 1;
 515:led_manager.c **** 	i++;
 516:led_manager.c **** 	if(i > 21)
 517:led_manager.c **** 		i=0;
 518:led_manager.c **** 	return i;
 519:led_manager.c **** }
 520:led_manager.c **** 
 521:led_manager.c **** //tach
 522:led_manager.c **** void d1_write(int bool) {
 369              		.loc 1 522 0
 370              		.cfi_startproc
 371              		@ args = 0, pretend = 0, frame = 0
 372              		@ frame_needed = 0, uses_anonymous_args = 0
 373              	.LVL72:
 374 0000 08B5     		push	{r3, lr}
 375              		.cfi_def_cfa_offset 8
 376              		.cfi_offset 3, -8
 377              		.cfi_offset 14, -4
 378              	.LVL73:
 523:led_manager.c **** 	uint8_t bit = 0x01;
 524:led_manager.c **** 	if(bool == 1) 	//led on
 379              		.loc 1 524 0
 380 0002 0128     		cmp	r0, #1
 381 0004 05D1     		bne	.L12
 525:led_manager.c **** 		byte05 = byte05 | bit;
 382              		.loc 1 525 0
 383 0006 0C4A     		ldr	r2, .L15
 384 0008 1378     		ldrb	r3, [r2]	@ zero_extendqisi2
 385 000a 43F00103 		orr	r3, r3, #1
 386 000e 1370     		strb	r3, [r2]
 387 0010 04E0     		b	.L13
 388              	.L12:
 526:led_manager.c **** 	else			//led off
 527:led_manager.c **** 		byte05 = byte05 & ~bit;
 389              		.loc 1 527 0
 390 0012 094A     		ldr	r2, .L15
 391 0014 1378     		ldrb	r3, [r2]	@ zero_extendqisi2
 392 0016 23F00103 		bic	r3, r3, #1
 393 001a 1370     		strb	r3, [r2]
 394              	.L13:
 528:led_manager.c **** 	
 529:led_manager.c **** 	LED_Driver1_MasterSendStart(LED_ADDR, 0);	// 0 = send write command, 1 = send read command
 395              		.loc 1 529 0
ARM GAS  D:\Windows\AppData\Local\Temp\cc9YXq6z.s 			page 18


 396 001c 4020     		movs	r0, #64
 397              	.LVL74:
 398 001e 0021     		movs	r1, #0
 399 0020 FFF7FEFF 		bl	LED_Driver1_MasterSendStart
 400              	.LVL75:
 530:led_manager.c **** 	LED_Driver1_MasterWriteByte(LED05);		//move to LED addr
 401              		.loc 1 530 0
 402 0024 0520     		movs	r0, #5
 403 0026 FFF7FEFF 		bl	LED_Driver1_MasterWriteByte
 404              	.LVL76:
 531:led_manager.c **** 	LED_Driver1_MasterWriteByte(byte05);	//write byte to addr
 405              		.loc 1 531 0
 406 002a 034B     		ldr	r3, .L15
 407 002c 1878     		ldrb	r0, [r3]	@ zero_extendqisi2
 408 002e FFF7FEFF 		bl	LED_Driver1_MasterWriteByte
 409              	.LVL77:
 532:led_manager.c **** 	LED_Driver1_MasterSendStop();
 410              		.loc 1 532 0
 411 0032 FFF7FEFF 		bl	LED_Driver1_MasterSendStop
 412              	.LVL78:
 413 0036 08BD     		pop	{r3, pc}
 414              	.L16:
 415              		.align	2
 416              	.L15:
 417 0038 00000000 		.word	.LANCHOR0
 418              		.cfi_endproc
 419              	.LFE78:
 420              		.size	d1_write, .-d1_write
 421              		.section	.text.d2_write,"ax",%progbits
 422              		.align	2
 423              		.global	d2_write
 424              		.thumb
 425              		.thumb_func
 426              		.type	d2_write, %function
 427              	d2_write:
 428              	.LFB79:
 533:led_manager.c **** }
 534:led_manager.c **** void d2_write(int bool) {
 429              		.loc 1 534 0
 430              		.cfi_startproc
 431              		@ args = 0, pretend = 0, frame = 0
 432              		@ frame_needed = 0, uses_anonymous_args = 0
 433              	.LVL79:
 434 0000 08B5     		push	{r3, lr}
 435              		.cfi_def_cfa_offset 8
 436              		.cfi_offset 3, -8
 437              		.cfi_offset 14, -4
 438              	.LVL80:
 535:led_manager.c **** 	uint8_t bit = 0x10;
 536:led_manager.c **** 	if(bool == 1) 	//led on
 439              		.loc 1 536 0
 440 0002 0128     		cmp	r0, #1
 441 0004 05D1     		bne	.L18
 537:led_manager.c **** 		byte05 = byte05 | bit;
 442              		.loc 1 537 0
 443 0006 0C4A     		ldr	r2, .L21
 444 0008 1378     		ldrb	r3, [r2]	@ zero_extendqisi2
ARM GAS  D:\Windows\AppData\Local\Temp\cc9YXq6z.s 			page 19


 445 000a 43F01003 		orr	r3, r3, #16
 446 000e 1370     		strb	r3, [r2]
 447 0010 04E0     		b	.L19
 448              	.L18:
 538:led_manager.c **** 	else			//led off
 539:led_manager.c **** 		byte05 = byte05 & ~bit;
 449              		.loc 1 539 0
 450 0012 094A     		ldr	r2, .L21
 451 0014 1378     		ldrb	r3, [r2]	@ zero_extendqisi2
 452 0016 23F01003 		bic	r3, r3, #16
 453 001a 1370     		strb	r3, [r2]
 454              	.L19:
 540:led_manager.c **** 	
 541:led_manager.c **** 	LED_Driver1_MasterSendStart(LED_ADDR, 0);	
 455              		.loc 1 541 0
 456 001c 4020     		movs	r0, #64
 457              	.LVL81:
 458 001e 0021     		movs	r1, #0
 459 0020 FFF7FEFF 		bl	LED_Driver1_MasterSendStart
 460              	.LVL82:
 542:led_manager.c **** 	LED_Driver1_MasterWriteByte(LED05);		//move to LED addr
 461              		.loc 1 542 0
 462 0024 0520     		movs	r0, #5
 463 0026 FFF7FEFF 		bl	LED_Driver1_MasterWriteByte
 464              	.LVL83:
 543:led_manager.c **** 	LED_Driver1_MasterWriteByte(byte05);	//write byte to addr
 465              		.loc 1 543 0
 466 002a 034B     		ldr	r3, .L21
 467 002c 1878     		ldrb	r0, [r3]	@ zero_extendqisi2
 468 002e FFF7FEFF 		bl	LED_Driver1_MasterWriteByte
 469              	.LVL84:
 544:led_manager.c **** 	LED_Driver1_MasterSendStop();
 470              		.loc 1 544 0
 471 0032 FFF7FEFF 		bl	LED_Driver1_MasterSendStop
 472              	.LVL85:
 473 0036 08BD     		pop	{r3, pc}
 474              	.L22:
 475              		.align	2
 476              	.L21:
 477 0038 00000000 		.word	.LANCHOR0
 478              		.cfi_endproc
 479              	.LFE79:
 480              		.size	d2_write, .-d2_write
 481              		.section	.text.d3_write,"ax",%progbits
 482              		.align	2
 483              		.global	d3_write
 484              		.thumb
 485              		.thumb_func
 486              		.type	d3_write, %function
 487              	d3_write:
 488              	.LFB80:
 545:led_manager.c **** }
 546:led_manager.c **** void d3_write(int bool) {
 489              		.loc 1 546 0
 490              		.cfi_startproc
 491              		@ args = 0, pretend = 0, frame = 0
 492              		@ frame_needed = 0, uses_anonymous_args = 0
ARM GAS  D:\Windows\AppData\Local\Temp\cc9YXq6z.s 			page 20


 493              	.LVL86:
 494 0000 08B5     		push	{r3, lr}
 495              		.cfi_def_cfa_offset 8
 496              		.cfi_offset 3, -8
 497              		.cfi_offset 14, -4
 498              	.LVL87:
 547:led_manager.c **** 	uint8_t bit = 0x01;
 548:led_manager.c **** 	if(bool == 1) 	//led on
 499              		.loc 1 548 0
 500 0002 0128     		cmp	r0, #1
 501 0004 05D1     		bne	.L24
 549:led_manager.c **** 		byte06 = byte06 | bit;
 502              		.loc 1 549 0
 503 0006 0C4A     		ldr	r2, .L27
 504 0008 5378     		ldrb	r3, [r2, #1]	@ zero_extendqisi2
 505 000a 43F00103 		orr	r3, r3, #1
 506 000e 5370     		strb	r3, [r2, #1]
 507 0010 04E0     		b	.L25
 508              	.L24:
 550:led_manager.c **** 	else			//led off
 551:led_manager.c **** 		byte06 = byte06 & ~bit;
 509              		.loc 1 551 0
 510 0012 094A     		ldr	r2, .L27
 511 0014 5378     		ldrb	r3, [r2, #1]	@ zero_extendqisi2
 512 0016 23F00103 		bic	r3, r3, #1
 513 001a 5370     		strb	r3, [r2, #1]
 514              	.L25:
 552:led_manager.c **** 	
 553:led_manager.c **** 	LED_Driver1_MasterSendStart(LED_ADDR, 0);
 515              		.loc 1 553 0
 516 001c 4020     		movs	r0, #64
 517              	.LVL88:
 518 001e 0021     		movs	r1, #0
 519 0020 FFF7FEFF 		bl	LED_Driver1_MasterSendStart
 520              	.LVL89:
 554:led_manager.c **** 	LED_Driver1_MasterWriteByte(LED06);		//move to LED addr
 521              		.loc 1 554 0
 522 0024 0620     		movs	r0, #6
 523 0026 FFF7FEFF 		bl	LED_Driver1_MasterWriteByte
 524              	.LVL90:
 555:led_manager.c **** 	LED_Driver1_MasterWriteByte(byte06);	//write byte to addr
 525              		.loc 1 555 0
 526 002a 034B     		ldr	r3, .L27
 527 002c 5878     		ldrb	r0, [r3, #1]	@ zero_extendqisi2
 528 002e FFF7FEFF 		bl	LED_Driver1_MasterWriteByte
 529              	.LVL91:
 556:led_manager.c **** 	LED_Driver1_MasterSendStop();
 530              		.loc 1 556 0
 531 0032 FFF7FEFF 		bl	LED_Driver1_MasterSendStop
 532              	.LVL92:
 533 0036 08BD     		pop	{r3, pc}
 534              	.L28:
 535              		.align	2
 536              	.L27:
 537 0038 00000000 		.word	.LANCHOR0
 538              		.cfi_endproc
 539              	.LFE80:
ARM GAS  D:\Windows\AppData\Local\Temp\cc9YXq6z.s 			page 21


 540              		.size	d3_write, .-d3_write
 541              		.section	.text.d4_write,"ax",%progbits
 542              		.align	2
 543              		.global	d4_write
 544              		.thumb
 545              		.thumb_func
 546              		.type	d4_write, %function
 547              	d4_write:
 548              	.LFB81:
 557:led_manager.c **** }
 558:led_manager.c **** void d4_write(int bool) {
 549              		.loc 1 558 0
 550              		.cfi_startproc
 551              		@ args = 0, pretend = 0, frame = 0
 552              		@ frame_needed = 0, uses_anonymous_args = 0
 553              	.LVL93:
 554 0000 08B5     		push	{r3, lr}
 555              		.cfi_def_cfa_offset 8
 556              		.cfi_offset 3, -8
 557              		.cfi_offset 14, -4
 558              	.LVL94:
 559:led_manager.c **** 	uint8_t bit = 0x10;
 560:led_manager.c **** 	if(bool == 1) 	//led on
 559              		.loc 1 560 0
 560 0002 0128     		cmp	r0, #1
 561 0004 05D1     		bne	.L30
 561:led_manager.c **** 		byte06 = byte06 | bit;
 562              		.loc 1 561 0
 563 0006 0C4A     		ldr	r2, .L33
 564 0008 5378     		ldrb	r3, [r2, #1]	@ zero_extendqisi2
 565 000a 43F01003 		orr	r3, r3, #16
 566 000e 5370     		strb	r3, [r2, #1]
 567 0010 04E0     		b	.L31
 568              	.L30:
 562:led_manager.c **** 	else			//led off
 563:led_manager.c **** 		byte06 = byte06 & ~bit;
 569              		.loc 1 563 0
 570 0012 094A     		ldr	r2, .L33
 571 0014 5378     		ldrb	r3, [r2, #1]	@ zero_extendqisi2
 572 0016 23F01003 		bic	r3, r3, #16
 573 001a 5370     		strb	r3, [r2, #1]
 574              	.L31:
 564:led_manager.c **** 	
 565:led_manager.c **** 	LED_Driver1_MasterSendStart(LED_ADDR, 0);
 575              		.loc 1 565 0
 576 001c 4020     		movs	r0, #64
 577              	.LVL95:
 578 001e 0021     		movs	r1, #0
 579 0020 FFF7FEFF 		bl	LED_Driver1_MasterSendStart
 580              	.LVL96:
 566:led_manager.c **** 	LED_Driver1_MasterWriteByte(LED06);		//move to LED addr
 581              		.loc 1 566 0
 582 0024 0620     		movs	r0, #6
 583 0026 FFF7FEFF 		bl	LED_Driver1_MasterWriteByte
 584              	.LVL97:
 567:led_manager.c **** 	LED_Driver1_MasterWriteByte(byte06);	//write byte to addr
 585              		.loc 1 567 0
ARM GAS  D:\Windows\AppData\Local\Temp\cc9YXq6z.s 			page 22


 586 002a 034B     		ldr	r3, .L33
 587 002c 5878     		ldrb	r0, [r3, #1]	@ zero_extendqisi2
 588 002e FFF7FEFF 		bl	LED_Driver1_MasterWriteByte
 589              	.LVL98:
 568:led_manager.c **** 	LED_Driver1_MasterSendStop();
 590              		.loc 1 568 0
 591 0032 FFF7FEFF 		bl	LED_Driver1_MasterSendStop
 592              	.LVL99:
 593 0036 08BD     		pop	{r3, pc}
 594              	.L34:
 595              		.align	2
 596              	.L33:
 597 0038 00000000 		.word	.LANCHOR0
 598              		.cfi_endproc
 599              	.LFE81:
 600              		.size	d4_write, .-d4_write
 601              		.section	.text.d5_write,"ax",%progbits
 602              		.align	2
 603              		.global	d5_write
 604              		.thumb
 605              		.thumb_func
 606              		.type	d5_write, %function
 607              	d5_write:
 608              	.LFB82:
 569:led_manager.c **** }
 570:led_manager.c **** void d5_write(int bool) {
 609              		.loc 1 570 0
 610              		.cfi_startproc
 611              		@ args = 0, pretend = 0, frame = 0
 612              		@ frame_needed = 0, uses_anonymous_args = 0
 613              	.LVL100:
 614 0000 08B5     		push	{r3, lr}
 615              		.cfi_def_cfa_offset 8
 616              		.cfi_offset 3, -8
 617              		.cfi_offset 14, -4
 618              	.LVL101:
 571:led_manager.c **** 	uint8_t bit = 0x01;
 572:led_manager.c **** 	if(bool == 1) 	//led on
 619              		.loc 1 572 0
 620 0002 0128     		cmp	r0, #1
 621 0004 05D1     		bne	.L36
 573:led_manager.c **** 		byte07 = byte07 | bit;
 622              		.loc 1 573 0
 623 0006 0C4A     		ldr	r2, .L39
 624 0008 9378     		ldrb	r3, [r2, #2]	@ zero_extendqisi2
 625 000a 43F00103 		orr	r3, r3, #1
 626 000e 9370     		strb	r3, [r2, #2]
 627 0010 04E0     		b	.L37
 628              	.L36:
 574:led_manager.c **** 	else			//led off
 575:led_manager.c **** 		byte07 = byte07 & ~bit;
 629              		.loc 1 575 0
 630 0012 094A     		ldr	r2, .L39
 631 0014 9378     		ldrb	r3, [r2, #2]	@ zero_extendqisi2
 632 0016 23F00103 		bic	r3, r3, #1
 633 001a 9370     		strb	r3, [r2, #2]
 634              	.L37:
ARM GAS  D:\Windows\AppData\Local\Temp\cc9YXq6z.s 			page 23


 576:led_manager.c **** 	
 577:led_manager.c **** 	LED_Driver1_MasterSendStart(LED_ADDR, 0);
 635              		.loc 1 577 0
 636 001c 4020     		movs	r0, #64
 637              	.LVL102:
 638 001e 0021     		movs	r1, #0
 639 0020 FFF7FEFF 		bl	LED_Driver1_MasterSendStart
 640              	.LVL103:
 578:led_manager.c **** 	LED_Driver1_MasterWriteByte(LED07);		//move to LED addr
 641              		.loc 1 578 0
 642 0024 0720     		movs	r0, #7
 643 0026 FFF7FEFF 		bl	LED_Driver1_MasterWriteByte
 644              	.LVL104:
 579:led_manager.c **** 	LED_Driver1_MasterWriteByte(byte07);	//write byte to addr
 645              		.loc 1 579 0
 646 002a 034B     		ldr	r3, .L39
 647 002c 9878     		ldrb	r0, [r3, #2]	@ zero_extendqisi2
 648 002e FFF7FEFF 		bl	LED_Driver1_MasterWriteByte
 649              	.LVL105:
 580:led_manager.c **** 	LED_Driver1_MasterSendStop();
 650              		.loc 1 580 0
 651 0032 FFF7FEFF 		bl	LED_Driver1_MasterSendStop
 652              	.LVL106:
 653 0036 08BD     		pop	{r3, pc}
 654              	.L40:
 655              		.align	2
 656              	.L39:
 657 0038 00000000 		.word	.LANCHOR0
 658              		.cfi_endproc
 659              	.LFE82:
 660              		.size	d5_write, .-d5_write
 661              		.section	.text.d6_write,"ax",%progbits
 662              		.align	2
 663              		.global	d6_write
 664              		.thumb
 665              		.thumb_func
 666              		.type	d6_write, %function
 667              	d6_write:
 668              	.LFB83:
 581:led_manager.c **** }
 582:led_manager.c **** void d6_write(int bool) {
 669              		.loc 1 582 0
 670              		.cfi_startproc
 671              		@ args = 0, pretend = 0, frame = 0
 672              		@ frame_needed = 0, uses_anonymous_args = 0
 673              	.LVL107:
 674 0000 08B5     		push	{r3, lr}
 675              		.cfi_def_cfa_offset 8
 676              		.cfi_offset 3, -8
 677              		.cfi_offset 14, -4
 678              	.LVL108:
 583:led_manager.c **** 	uint8_t bit = 0x10;
 584:led_manager.c **** 	if(bool == 1) 	//led on
 679              		.loc 1 584 0
 680 0002 0128     		cmp	r0, #1
 681 0004 05D1     		bne	.L42
 585:led_manager.c **** 		byte07 = byte07 | bit;
ARM GAS  D:\Windows\AppData\Local\Temp\cc9YXq6z.s 			page 24


 682              		.loc 1 585 0
 683 0006 0C4A     		ldr	r2, .L45
 684 0008 9378     		ldrb	r3, [r2, #2]	@ zero_extendqisi2
 685 000a 43F01003 		orr	r3, r3, #16
 686 000e 9370     		strb	r3, [r2, #2]
 687 0010 04E0     		b	.L43
 688              	.L42:
 586:led_manager.c **** 	else			//led off
 587:led_manager.c **** 		byte07 = byte07 & ~bit;
 689              		.loc 1 587 0
 690 0012 094A     		ldr	r2, .L45
 691 0014 9378     		ldrb	r3, [r2, #2]	@ zero_extendqisi2
 692 0016 23F01003 		bic	r3, r3, #16
 693 001a 9370     		strb	r3, [r2, #2]
 694              	.L43:
 588:led_manager.c **** 	
 589:led_manager.c **** 	LED_Driver1_MasterSendStart(LED_ADDR, 0);
 695              		.loc 1 589 0
 696 001c 4020     		movs	r0, #64
 697              	.LVL109:
 698 001e 0021     		movs	r1, #0
 699 0020 FFF7FEFF 		bl	LED_Driver1_MasterSendStart
 700              	.LVL110:
 590:led_manager.c **** 	LED_Driver1_MasterWriteByte(LED07);		//move to LED addr
 701              		.loc 1 590 0
 702 0024 0720     		movs	r0, #7
 703 0026 FFF7FEFF 		bl	LED_Driver1_MasterWriteByte
 704              	.LVL111:
 591:led_manager.c **** 	LED_Driver1_MasterWriteByte(byte07);	//write byte to addr
 705              		.loc 1 591 0
 706 002a 034B     		ldr	r3, .L45
 707 002c 9878     		ldrb	r0, [r3, #2]	@ zero_extendqisi2
 708 002e FFF7FEFF 		bl	LED_Driver1_MasterWriteByte
 709              	.LVL112:
 592:led_manager.c **** 	LED_Driver1_MasterSendStop();
 710              		.loc 1 592 0
 711 0032 FFF7FEFF 		bl	LED_Driver1_MasterSendStop
 712              	.LVL113:
 713 0036 08BD     		pop	{r3, pc}
 714              	.L46:
 715              		.align	2
 716              	.L45:
 717 0038 00000000 		.word	.LANCHOR0
 718              		.cfi_endproc
 719              	.LFE83:
 720              		.size	d6_write, .-d6_write
 721              		.section	.text.d7_write,"ax",%progbits
 722              		.align	2
 723              		.global	d7_write
 724              		.thumb
 725              		.thumb_func
 726              		.type	d7_write, %function
 727              	d7_write:
 728              	.LFB84:
 593:led_manager.c **** }
 594:led_manager.c **** void d7_write(int bool) {
 729              		.loc 1 594 0
ARM GAS  D:\Windows\AppData\Local\Temp\cc9YXq6z.s 			page 25


 730              		.cfi_startproc
 731              		@ args = 0, pretend = 0, frame = 0
 732              		@ frame_needed = 0, uses_anonymous_args = 0
 733              	.LVL114:
 734 0000 08B5     		push	{r3, lr}
 735              		.cfi_def_cfa_offset 8
 736              		.cfi_offset 3, -8
 737              		.cfi_offset 14, -4
 738              	.LVL115:
 595:led_manager.c **** 	uint8_t bit = 0x01;
 596:led_manager.c **** 	if(bool == 1) 	//led on
 739              		.loc 1 596 0
 740 0002 0128     		cmp	r0, #1
 741 0004 05D1     		bne	.L48
 597:led_manager.c **** 		byte08 = byte08 | bit;
 742              		.loc 1 597 0
 743 0006 0C4A     		ldr	r2, .L51
 744 0008 D378     		ldrb	r3, [r2, #3]	@ zero_extendqisi2
 745 000a 43F00103 		orr	r3, r3, #1
 746 000e D370     		strb	r3, [r2, #3]
 747 0010 04E0     		b	.L49
 748              	.L48:
 598:led_manager.c **** 	else			//led off
 599:led_manager.c **** 		byte08 = byte08 & ~bit;
 749              		.loc 1 599 0
 750 0012 094A     		ldr	r2, .L51
 751 0014 D378     		ldrb	r3, [r2, #3]	@ zero_extendqisi2
 752 0016 23F00103 		bic	r3, r3, #1
 753 001a D370     		strb	r3, [r2, #3]
 754              	.L49:
 600:led_manager.c **** 	
 601:led_manager.c **** 	LED_Driver1_MasterSendStart(LED_ADDR, 0);
 755              		.loc 1 601 0
 756 001c 4020     		movs	r0, #64
 757              	.LVL116:
 758 001e 0021     		movs	r1, #0
 759 0020 FFF7FEFF 		bl	LED_Driver1_MasterSendStart
 760              	.LVL117:
 602:led_manager.c **** 	LED_Driver1_MasterWriteByte(LED08);		//move to LED addr
 761              		.loc 1 602 0
 762 0024 0820     		movs	r0, #8
 763 0026 FFF7FEFF 		bl	LED_Driver1_MasterWriteByte
 764              	.LVL118:
 603:led_manager.c **** 	LED_Driver1_MasterWriteByte(byte08);	//write byte to addr
 765              		.loc 1 603 0
 766 002a 034B     		ldr	r3, .L51
 767 002c D878     		ldrb	r0, [r3, #3]	@ zero_extendqisi2
 768 002e FFF7FEFF 		bl	LED_Driver1_MasterWriteByte
 769              	.LVL119:
 604:led_manager.c **** 	LED_Driver1_MasterSendStop();
 770              		.loc 1 604 0
 771 0032 FFF7FEFF 		bl	LED_Driver1_MasterSendStop
 772              	.LVL120:
 773 0036 08BD     		pop	{r3, pc}
 774              	.L52:
 775              		.align	2
 776              	.L51:
ARM GAS  D:\Windows\AppData\Local\Temp\cc9YXq6z.s 			page 26


 777 0038 00000000 		.word	.LANCHOR0
 778              		.cfi_endproc
 779              	.LFE84:
 780              		.size	d7_write, .-d7_write
 781              		.section	.text.d8_write,"ax",%progbits
 782              		.align	2
 783              		.global	d8_write
 784              		.thumb
 785              		.thumb_func
 786              		.type	d8_write, %function
 787              	d8_write:
 788              	.LFB85:
 605:led_manager.c **** }
 606:led_manager.c **** void d8_write(int bool) {
 789              		.loc 1 606 0
 790              		.cfi_startproc
 791              		@ args = 0, pretend = 0, frame = 0
 792              		@ frame_needed = 0, uses_anonymous_args = 0
 793              	.LVL121:
 794 0000 08B5     		push	{r3, lr}
 795              		.cfi_def_cfa_offset 8
 796              		.cfi_offset 3, -8
 797              		.cfi_offset 14, -4
 798              	.LVL122:
 607:led_manager.c **** 	uint8_t bit = 0x10;
 608:led_manager.c **** 	if(bool == 1) 	//led on
 799              		.loc 1 608 0
 800 0002 0128     		cmp	r0, #1
 801 0004 05D1     		bne	.L54
 609:led_manager.c **** 		byte08 = byte08 | bit;
 802              		.loc 1 609 0
 803 0006 0C4A     		ldr	r2, .L57
 804 0008 D378     		ldrb	r3, [r2, #3]	@ zero_extendqisi2
 805 000a 43F01003 		orr	r3, r3, #16
 806 000e D370     		strb	r3, [r2, #3]
 807 0010 04E0     		b	.L55
 808              	.L54:
 610:led_manager.c **** 	else			//led off
 611:led_manager.c **** 		byte08 = byte08 & ~bit;
 809              		.loc 1 611 0
 810 0012 094A     		ldr	r2, .L57
 811 0014 D378     		ldrb	r3, [r2, #3]	@ zero_extendqisi2
 812 0016 23F01003 		bic	r3, r3, #16
 813 001a D370     		strb	r3, [r2, #3]
 814              	.L55:
 612:led_manager.c **** 	
 613:led_manager.c **** 	LED_Driver1_MasterSendStart(LED_ADDR, 0);
 815              		.loc 1 613 0
 816 001c 4020     		movs	r0, #64
 817              	.LVL123:
 818 001e 0021     		movs	r1, #0
 819 0020 FFF7FEFF 		bl	LED_Driver1_MasterSendStart
 820              	.LVL124:
 614:led_manager.c **** 	LED_Driver1_MasterWriteByte(LED08);		//move to LED addr
 821              		.loc 1 614 0
 822 0024 0820     		movs	r0, #8
 823 0026 FFF7FEFF 		bl	LED_Driver1_MasterWriteByte
ARM GAS  D:\Windows\AppData\Local\Temp\cc9YXq6z.s 			page 27


 824              	.LVL125:
 615:led_manager.c **** 	LED_Driver1_MasterWriteByte(byte08);	//write byte to addr
 825              		.loc 1 615 0
 826 002a 034B     		ldr	r3, .L57
 827 002c D878     		ldrb	r0, [r3, #3]	@ zero_extendqisi2
 828 002e FFF7FEFF 		bl	LED_Driver1_MasterWriteByte
 829              	.LVL126:
 616:led_manager.c **** 	LED_Driver1_MasterSendStop();
 830              		.loc 1 616 0
 831 0032 FFF7FEFF 		bl	LED_Driver1_MasterSendStop
 832              	.LVL127:
 833 0036 08BD     		pop	{r3, pc}
 834              	.L58:
 835              		.align	2
 836              	.L57:
 837 0038 00000000 		.word	.LANCHOR0
 838              		.cfi_endproc
 839              	.LFE85:
 840              		.size	d8_write, .-d8_write
 841              		.section	.text.d9_write,"ax",%progbits
 842              		.align	2
 843              		.global	d9_write
 844              		.thumb
 845              		.thumb_func
 846              		.type	d9_write, %function
 847              	d9_write:
 848              	.LFB86:
 617:led_manager.c **** }
 618:led_manager.c **** void d9_write(int bool) {
 849              		.loc 1 618 0
 850              		.cfi_startproc
 851              		@ args = 0, pretend = 0, frame = 0
 852              		@ frame_needed = 0, uses_anonymous_args = 0
 853              	.LVL128:
 854 0000 08B5     		push	{r3, lr}
 855              		.cfi_def_cfa_offset 8
 856              		.cfi_offset 3, -8
 857              		.cfi_offset 14, -4
 858              	.LVL129:
 619:led_manager.c **** 	uint8_t bit = 0x02;
 620:led_manager.c **** 	if(bool == 1) 	//led on
 859              		.loc 1 620 0
 860 0002 0128     		cmp	r0, #1
 861 0004 05D1     		bne	.L60
 621:led_manager.c **** 		byte05 = byte05 | bit;
 862              		.loc 1 621 0
 863 0006 0C4A     		ldr	r2, .L63
 864 0008 1378     		ldrb	r3, [r2]	@ zero_extendqisi2
 865 000a 43F00203 		orr	r3, r3, #2
 866 000e 1370     		strb	r3, [r2]
 867 0010 04E0     		b	.L61
 868              	.L60:
 622:led_manager.c **** 	else			//led off
 623:led_manager.c **** 		byte05 = byte05 & ~bit;
 869              		.loc 1 623 0
 870 0012 094A     		ldr	r2, .L63
 871 0014 1378     		ldrb	r3, [r2]	@ zero_extendqisi2
ARM GAS  D:\Windows\AppData\Local\Temp\cc9YXq6z.s 			page 28


 872 0016 23F00203 		bic	r3, r3, #2
 873 001a 1370     		strb	r3, [r2]
 874              	.L61:
 624:led_manager.c **** 	
 625:led_manager.c **** 	LED_Driver1_MasterSendStart(LED_ADDR, 0);
 875              		.loc 1 625 0
 876 001c 4020     		movs	r0, #64
 877              	.LVL130:
 878 001e 0021     		movs	r1, #0
 879 0020 FFF7FEFF 		bl	LED_Driver1_MasterSendStart
 880              	.LVL131:
 626:led_manager.c **** 	LED_Driver1_MasterWriteByte(LED05);		//move to LED addr
 881              		.loc 1 626 0
 882 0024 0520     		movs	r0, #5
 883 0026 FFF7FEFF 		bl	LED_Driver1_MasterWriteByte
 884              	.LVL132:
 627:led_manager.c **** 	LED_Driver1_MasterWriteByte(byte05);	//write byte to addr
 885              		.loc 1 627 0
 886 002a 034B     		ldr	r3, .L63
 887 002c 1878     		ldrb	r0, [r3]	@ zero_extendqisi2
 888 002e FFF7FEFF 		bl	LED_Driver1_MasterWriteByte
 889              	.LVL133:
 628:led_manager.c **** 	LED_Driver1_MasterSendStop();
 890              		.loc 1 628 0
 891 0032 FFF7FEFF 		bl	LED_Driver1_MasterSendStop
 892              	.LVL134:
 893 0036 08BD     		pop	{r3, pc}
 894              	.L64:
 895              		.align	2
 896              	.L63:
 897 0038 00000000 		.word	.LANCHOR0
 898              		.cfi_endproc
 899              	.LFE86:
 900              		.size	d9_write, .-d9_write
 901              		.section	.text.d10_write,"ax",%progbits
 902              		.align	2
 903              		.global	d10_write
 904              		.thumb
 905              		.thumb_func
 906              		.type	d10_write, %function
 907              	d10_write:
 908              	.LFB87:
 629:led_manager.c **** }
 630:led_manager.c **** void d10_write(int bool) {
 909              		.loc 1 630 0
 910              		.cfi_startproc
 911              		@ args = 0, pretend = 0, frame = 0
 912              		@ frame_needed = 0, uses_anonymous_args = 0
 913              	.LVL135:
 914 0000 08B5     		push	{r3, lr}
 915              		.cfi_def_cfa_offset 8
 916              		.cfi_offset 3, -8
 917              		.cfi_offset 14, -4
 918              	.LVL136:
 631:led_manager.c **** 	uint8_t bit = 0x20;
 632:led_manager.c **** 	if(bool == 1) 	//led on
 919              		.loc 1 632 0
ARM GAS  D:\Windows\AppData\Local\Temp\cc9YXq6z.s 			page 29


 920 0002 0128     		cmp	r0, #1
 921 0004 05D1     		bne	.L66
 633:led_manager.c **** 		byte05 = byte05 | bit;
 922              		.loc 1 633 0
 923 0006 0C4A     		ldr	r2, .L69
 924 0008 1378     		ldrb	r3, [r2]	@ zero_extendqisi2
 925 000a 43F02003 		orr	r3, r3, #32
 926 000e 1370     		strb	r3, [r2]
 927 0010 04E0     		b	.L67
 928              	.L66:
 634:led_manager.c **** 	else			//led off
 635:led_manager.c **** 		byte05 = byte05 & ~bit;
 929              		.loc 1 635 0
 930 0012 094A     		ldr	r2, .L69
 931 0014 1378     		ldrb	r3, [r2]	@ zero_extendqisi2
 932 0016 23F02003 		bic	r3, r3, #32
 933 001a 1370     		strb	r3, [r2]
 934              	.L67:
 636:led_manager.c **** 	
 637:led_manager.c **** 	LED_Driver1_MasterSendStart(LED_ADDR, 0);
 935              		.loc 1 637 0
 936 001c 4020     		movs	r0, #64
 937              	.LVL137:
 938 001e 0021     		movs	r1, #0
 939 0020 FFF7FEFF 		bl	LED_Driver1_MasterSendStart
 940              	.LVL138:
 638:led_manager.c **** 	LED_Driver1_MasterWriteByte(LED05);		//move to LED addr
 941              		.loc 1 638 0
 942 0024 0520     		movs	r0, #5
 943 0026 FFF7FEFF 		bl	LED_Driver1_MasterWriteByte
 944              	.LVL139:
 639:led_manager.c **** 	LED_Driver1_MasterWriteByte(byte05);	//write byte to addr
 945              		.loc 1 639 0
 946 002a 034B     		ldr	r3, .L69
 947 002c 1878     		ldrb	r0, [r3]	@ zero_extendqisi2
 948 002e FFF7FEFF 		bl	LED_Driver1_MasterWriteByte
 949              	.LVL140:
 640:led_manager.c **** 	LED_Driver1_MasterSendStop();
 950              		.loc 1 640 0
 951 0032 FFF7FEFF 		bl	LED_Driver1_MasterSendStop
 952              	.LVL141:
 953 0036 08BD     		pop	{r3, pc}
 954              	.L70:
 955              		.align	2
 956              	.L69:
 957 0038 00000000 		.word	.LANCHOR0
 958              		.cfi_endproc
 959              	.LFE87:
 960              		.size	d10_write, .-d10_write
 961              		.section	.text.d11_write,"ax",%progbits
 962              		.align	2
 963              		.global	d11_write
 964              		.thumb
 965              		.thumb_func
 966              		.type	d11_write, %function
 967              	d11_write:
 968              	.LFB88:
ARM GAS  D:\Windows\AppData\Local\Temp\cc9YXq6z.s 			page 30


 641:led_manager.c **** }
 642:led_manager.c **** void d11_write(int bool) {
 969              		.loc 1 642 0
 970              		.cfi_startproc
 971              		@ args = 0, pretend = 0, frame = 0
 972              		@ frame_needed = 0, uses_anonymous_args = 0
 973              	.LVL142:
 974 0000 08B5     		push	{r3, lr}
 975              		.cfi_def_cfa_offset 8
 976              		.cfi_offset 3, -8
 977              		.cfi_offset 14, -4
 978              	.LVL143:
 643:led_manager.c **** 	uint8_t bit = 0x02;
 644:led_manager.c **** 	if(bool == 1) 	//led on
 979              		.loc 1 644 0
 980 0002 0128     		cmp	r0, #1
 981 0004 05D1     		bne	.L72
 645:led_manager.c **** 		byte06 = byte06 | bit;
 982              		.loc 1 645 0
 983 0006 0C4A     		ldr	r2, .L75
 984 0008 5378     		ldrb	r3, [r2, #1]	@ zero_extendqisi2
 985 000a 43F00203 		orr	r3, r3, #2
 986 000e 5370     		strb	r3, [r2, #1]
 987 0010 04E0     		b	.L73
 988              	.L72:
 646:led_manager.c **** 	else			//led off
 647:led_manager.c **** 		byte06 = byte06 & ~bit;
 989              		.loc 1 647 0
 990 0012 094A     		ldr	r2, .L75
 991 0014 5378     		ldrb	r3, [r2, #1]	@ zero_extendqisi2
 992 0016 23F00203 		bic	r3, r3, #2
 993 001a 5370     		strb	r3, [r2, #1]
 994              	.L73:
 648:led_manager.c **** 	
 649:led_manager.c **** 	LED_Driver1_MasterSendStart(LED_ADDR, 0);
 995              		.loc 1 649 0
 996 001c 4020     		movs	r0, #64
 997              	.LVL144:
 998 001e 0021     		movs	r1, #0
 999 0020 FFF7FEFF 		bl	LED_Driver1_MasterSendStart
 1000              	.LVL145:
 650:led_manager.c **** 	LED_Driver1_MasterWriteByte(LED06);		//move to LED addr
 1001              		.loc 1 650 0
 1002 0024 0620     		movs	r0, #6
 1003 0026 FFF7FEFF 		bl	LED_Driver1_MasterWriteByte
 1004              	.LVL146:
 651:led_manager.c **** 	LED_Driver1_MasterWriteByte(byte06);	//write byte to addr
 1005              		.loc 1 651 0
 1006 002a 034B     		ldr	r3, .L75
 1007 002c 5878     		ldrb	r0, [r3, #1]	@ zero_extendqisi2
 1008 002e FFF7FEFF 		bl	LED_Driver1_MasterWriteByte
 1009              	.LVL147:
 652:led_manager.c **** 	LED_Driver1_MasterSendStop();
 1010              		.loc 1 652 0
 1011 0032 FFF7FEFF 		bl	LED_Driver1_MasterSendStop
 1012              	.LVL148:
 1013 0036 08BD     		pop	{r3, pc}
ARM GAS  D:\Windows\AppData\Local\Temp\cc9YXq6z.s 			page 31


 1014              	.L76:
 1015              		.align	2
 1016              	.L75:
 1017 0038 00000000 		.word	.LANCHOR0
 1018              		.cfi_endproc
 1019              	.LFE88:
 1020              		.size	d11_write, .-d11_write
 1021              		.section	.text.d12_write,"ax",%progbits
 1022              		.align	2
 1023              		.global	d12_write
 1024              		.thumb
 1025              		.thumb_func
 1026              		.type	d12_write, %function
 1027              	d12_write:
 1028              	.LFB89:
 653:led_manager.c **** }
 654:led_manager.c **** void d12_write(int bool) {
 1029              		.loc 1 654 0
 1030              		.cfi_startproc
 1031              		@ args = 0, pretend = 0, frame = 0
 1032              		@ frame_needed = 0, uses_anonymous_args = 0
 1033              	.LVL149:
 1034 0000 08B5     		push	{r3, lr}
 1035              		.cfi_def_cfa_offset 8
 1036              		.cfi_offset 3, -8
 1037              		.cfi_offset 14, -4
 1038              	.LVL150:
 655:led_manager.c **** 	uint8_t bit = 0x20;
 656:led_manager.c **** 	if(bool == 1) 	//led on
 1039              		.loc 1 656 0
 1040 0002 0128     		cmp	r0, #1
 1041 0004 05D1     		bne	.L78
 657:led_manager.c **** 		byte06 = byte06 | bit;
 1042              		.loc 1 657 0
 1043 0006 0C4A     		ldr	r2, .L81
 1044 0008 5378     		ldrb	r3, [r2, #1]	@ zero_extendqisi2
 1045 000a 43F02003 		orr	r3, r3, #32
 1046 000e 5370     		strb	r3, [r2, #1]
 1047 0010 04E0     		b	.L79
 1048              	.L78:
 658:led_manager.c **** 	else			//led off
 659:led_manager.c **** 		byte06 = byte06 & ~bit;
 1049              		.loc 1 659 0
 1050 0012 094A     		ldr	r2, .L81
 1051 0014 5378     		ldrb	r3, [r2, #1]	@ zero_extendqisi2
 1052 0016 23F02003 		bic	r3, r3, #32
 1053 001a 5370     		strb	r3, [r2, #1]
 1054              	.L79:
 660:led_manager.c **** 	
 661:led_manager.c **** 	LED_Driver1_MasterSendStart(LED_ADDR, 0);
 1055              		.loc 1 661 0
 1056 001c 4020     		movs	r0, #64
 1057              	.LVL151:
 1058 001e 0021     		movs	r1, #0
 1059 0020 FFF7FEFF 		bl	LED_Driver1_MasterSendStart
 1060              	.LVL152:
 662:led_manager.c **** 	LED_Driver1_MasterWriteByte(LED06);		//move to LED addr
ARM GAS  D:\Windows\AppData\Local\Temp\cc9YXq6z.s 			page 32


 1061              		.loc 1 662 0
 1062 0024 0620     		movs	r0, #6
 1063 0026 FFF7FEFF 		bl	LED_Driver1_MasterWriteByte
 1064              	.LVL153:
 663:led_manager.c **** 	LED_Driver1_MasterWriteByte(byte06);	//write byte to addr
 1065              		.loc 1 663 0
 1066 002a 034B     		ldr	r3, .L81
 1067 002c 5878     		ldrb	r0, [r3, #1]	@ zero_extendqisi2
 1068 002e FFF7FEFF 		bl	LED_Driver1_MasterWriteByte
 1069              	.LVL154:
 664:led_manager.c **** 	LED_Driver1_MasterSendStop();
 1070              		.loc 1 664 0
 1071 0032 FFF7FEFF 		bl	LED_Driver1_MasterSendStop
 1072              	.LVL155:
 1073 0036 08BD     		pop	{r3, pc}
 1074              	.L82:
 1075              		.align	2
 1076              	.L81:
 1077 0038 00000000 		.word	.LANCHOR0
 1078              		.cfi_endproc
 1079              	.LFE89:
 1080              		.size	d12_write, .-d12_write
 1081              		.section	.text.d13_write,"ax",%progbits
 1082              		.align	2
 1083              		.global	d13_write
 1084              		.thumb
 1085              		.thumb_func
 1086              		.type	d13_write, %function
 1087              	d13_write:
 1088              	.LFB90:
 665:led_manager.c **** }
 666:led_manager.c **** void d13_write(int bool) {
 1089              		.loc 1 666 0
 1090              		.cfi_startproc
 1091              		@ args = 0, pretend = 0, frame = 0
 1092              		@ frame_needed = 0, uses_anonymous_args = 0
 1093              	.LVL156:
 1094 0000 08B5     		push	{r3, lr}
 1095              		.cfi_def_cfa_offset 8
 1096              		.cfi_offset 3, -8
 1097              		.cfi_offset 14, -4
 1098              	.LVL157:
 667:led_manager.c **** 	uint8_t bit = 0x02;
 668:led_manager.c **** 	if(bool == 1) 	//led on
 1099              		.loc 1 668 0
 1100 0002 0128     		cmp	r0, #1
 1101 0004 05D1     		bne	.L84
 669:led_manager.c **** 		byte07 = byte07 | bit;
 1102              		.loc 1 669 0
 1103 0006 0C4A     		ldr	r2, .L87
 1104 0008 9378     		ldrb	r3, [r2, #2]	@ zero_extendqisi2
 1105 000a 43F00203 		orr	r3, r3, #2
 1106 000e 9370     		strb	r3, [r2, #2]
 1107 0010 04E0     		b	.L85
 1108              	.L84:
 670:led_manager.c **** 	else			//led off
 671:led_manager.c **** 		byte07 = byte07 & ~bit;
ARM GAS  D:\Windows\AppData\Local\Temp\cc9YXq6z.s 			page 33


 1109              		.loc 1 671 0
 1110 0012 094A     		ldr	r2, .L87
 1111 0014 9378     		ldrb	r3, [r2, #2]	@ zero_extendqisi2
 1112 0016 23F00203 		bic	r3, r3, #2
 1113 001a 9370     		strb	r3, [r2, #2]
 1114              	.L85:
 672:led_manager.c **** 	
 673:led_manager.c **** 	LED_Driver1_MasterSendStart(LED_ADDR, 0);
 1115              		.loc 1 673 0
 1116 001c 4020     		movs	r0, #64
 1117              	.LVL158:
 1118 001e 0021     		movs	r1, #0
 1119 0020 FFF7FEFF 		bl	LED_Driver1_MasterSendStart
 1120              	.LVL159:
 674:led_manager.c **** 	LED_Driver1_MasterWriteByte(LED07);		//move to LED addr
 1121              		.loc 1 674 0
 1122 0024 0720     		movs	r0, #7
 1123 0026 FFF7FEFF 		bl	LED_Driver1_MasterWriteByte
 1124              	.LVL160:
 675:led_manager.c **** 	LED_Driver1_MasterWriteByte(byte07);	//write byte to addr
 1125              		.loc 1 675 0
 1126 002a 034B     		ldr	r3, .L87
 1127 002c 9878     		ldrb	r0, [r3, #2]	@ zero_extendqisi2
 1128 002e FFF7FEFF 		bl	LED_Driver1_MasterWriteByte
 1129              	.LVL161:
 676:led_manager.c **** 	LED_Driver1_MasterSendStop();
 1130              		.loc 1 676 0
 1131 0032 FFF7FEFF 		bl	LED_Driver1_MasterSendStop
 1132              	.LVL162:
 1133 0036 08BD     		pop	{r3, pc}
 1134              	.L88:
 1135              		.align	2
 1136              	.L87:
 1137 0038 00000000 		.word	.LANCHOR0
 1138              		.cfi_endproc
 1139              	.LFE90:
 1140              		.size	d13_write, .-d13_write
 1141              		.section	.text.d14_write,"ax",%progbits
 1142              		.align	2
 1143              		.global	d14_write
 1144              		.thumb
 1145              		.thumb_func
 1146              		.type	d14_write, %function
 1147              	d14_write:
 1148              	.LFB91:
 677:led_manager.c **** }
 678:led_manager.c **** void d14_write(int bool) {
 1149              		.loc 1 678 0
 1150              		.cfi_startproc
 1151              		@ args = 0, pretend = 0, frame = 0
 1152              		@ frame_needed = 0, uses_anonymous_args = 0
 1153              	.LVL163:
 1154 0000 08B5     		push	{r3, lr}
 1155              		.cfi_def_cfa_offset 8
 1156              		.cfi_offset 3, -8
 1157              		.cfi_offset 14, -4
 1158              	.LVL164:
ARM GAS  D:\Windows\AppData\Local\Temp\cc9YXq6z.s 			page 34


 679:led_manager.c **** 	uint8_t bit = 0x20;
 680:led_manager.c **** 	if(bool == 1) 	//led on
 1159              		.loc 1 680 0
 1160 0002 0128     		cmp	r0, #1
 1161 0004 05D1     		bne	.L90
 681:led_manager.c **** 		byte07 = byte07 | bit;
 1162              		.loc 1 681 0
 1163 0006 0C4A     		ldr	r2, .L93
 1164 0008 9378     		ldrb	r3, [r2, #2]	@ zero_extendqisi2
 1165 000a 43F02003 		orr	r3, r3, #32
 1166 000e 9370     		strb	r3, [r2, #2]
 1167 0010 04E0     		b	.L91
 1168              	.L90:
 682:led_manager.c **** 	else			//led off
 683:led_manager.c **** 		byte07 = byte07 & ~bit;
 1169              		.loc 1 683 0
 1170 0012 094A     		ldr	r2, .L93
 1171 0014 9378     		ldrb	r3, [r2, #2]	@ zero_extendqisi2
 1172 0016 23F02003 		bic	r3, r3, #32
 1173 001a 9370     		strb	r3, [r2, #2]
 1174              	.L91:
 684:led_manager.c **** 	
 685:led_manager.c **** 	LED_Driver1_MasterSendStart(LED_ADDR, 0);
 1175              		.loc 1 685 0
 1176 001c 4020     		movs	r0, #64
 1177              	.LVL165:
 1178 001e 0021     		movs	r1, #0
 1179 0020 FFF7FEFF 		bl	LED_Driver1_MasterSendStart
 1180              	.LVL166:
 686:led_manager.c **** 	LED_Driver1_MasterWriteByte(LED07);		//move to LED addr
 1181              		.loc 1 686 0
 1182 0024 0720     		movs	r0, #7
 1183 0026 FFF7FEFF 		bl	LED_Driver1_MasterWriteByte
 1184              	.LVL167:
 687:led_manager.c **** 	LED_Driver1_MasterWriteByte(byte07);	//write byte to addr
 1185              		.loc 1 687 0
 1186 002a 034B     		ldr	r3, .L93
 1187 002c 9878     		ldrb	r0, [r3, #2]	@ zero_extendqisi2
 1188 002e FFF7FEFF 		bl	LED_Driver1_MasterWriteByte
 1189              	.LVL168:
 688:led_manager.c **** 	LED_Driver1_MasterSendStop();
 1190              		.loc 1 688 0
 1191 0032 FFF7FEFF 		bl	LED_Driver1_MasterSendStop
 1192              	.LVL169:
 1193 0036 08BD     		pop	{r3, pc}
 1194              	.L94:
 1195              		.align	2
 1196              	.L93:
 1197 0038 00000000 		.word	.LANCHOR0
 1198              		.cfi_endproc
 1199              	.LFE91:
 1200              		.size	d14_write, .-d14_write
 1201              		.section	.text.d15_write,"ax",%progbits
 1202              		.align	2
 1203              		.global	d15_write
 1204              		.thumb
 1205              		.thumb_func
ARM GAS  D:\Windows\AppData\Local\Temp\cc9YXq6z.s 			page 35


 1206              		.type	d15_write, %function
 1207              	d15_write:
 1208              	.LFB92:
 689:led_manager.c **** }
 690:led_manager.c **** void d15_write(int bool) {
 1209              		.loc 1 690 0
 1210              		.cfi_startproc
 1211              		@ args = 0, pretend = 0, frame = 0
 1212              		@ frame_needed = 0, uses_anonymous_args = 0
 1213              	.LVL170:
 1214 0000 08B5     		push	{r3, lr}
 1215              		.cfi_def_cfa_offset 8
 1216              		.cfi_offset 3, -8
 1217              		.cfi_offset 14, -4
 1218              	.LVL171:
 691:led_manager.c **** 	uint8_t bit = 0x02;
 692:led_manager.c **** 	if(bool == 1) 	//led on
 1219              		.loc 1 692 0
 1220 0002 0128     		cmp	r0, #1
 1221 0004 05D1     		bne	.L96
 693:led_manager.c **** 		byte08 = byte08 | bit;
 1222              		.loc 1 693 0
 1223 0006 0C4A     		ldr	r2, .L99
 1224 0008 D378     		ldrb	r3, [r2, #3]	@ zero_extendqisi2
 1225 000a 43F00203 		orr	r3, r3, #2
 1226 000e D370     		strb	r3, [r2, #3]
 1227 0010 04E0     		b	.L97
 1228              	.L96:
 694:led_manager.c **** 	else			//led off
 695:led_manager.c **** 		byte08 = byte08 & ~bit;
 1229              		.loc 1 695 0
 1230 0012 094A     		ldr	r2, .L99
 1231 0014 D378     		ldrb	r3, [r2, #3]	@ zero_extendqisi2
 1232 0016 23F00203 		bic	r3, r3, #2
 1233 001a D370     		strb	r3, [r2, #3]
 1234              	.L97:
 696:led_manager.c **** 	
 697:led_manager.c **** 	LED_Driver1_MasterSendStart(LED_ADDR, 0);
 1235              		.loc 1 697 0
 1236 001c 4020     		movs	r0, #64
 1237              	.LVL172:
 1238 001e 0021     		movs	r1, #0
 1239 0020 FFF7FEFF 		bl	LED_Driver1_MasterSendStart
 1240              	.LVL173:
 698:led_manager.c **** 	LED_Driver1_MasterWriteByte(LED08);		//move to LED addr
 1241              		.loc 1 698 0
 1242 0024 0820     		movs	r0, #8
 1243 0026 FFF7FEFF 		bl	LED_Driver1_MasterWriteByte
 1244              	.LVL174:
 699:led_manager.c **** 	LED_Driver1_MasterWriteByte(byte08);	//write byte to addr
 1245              		.loc 1 699 0
 1246 002a 034B     		ldr	r3, .L99
 1247 002c D878     		ldrb	r0, [r3, #3]	@ zero_extendqisi2
 1248 002e FFF7FEFF 		bl	LED_Driver1_MasterWriteByte
 1249              	.LVL175:
 700:led_manager.c **** 	LED_Driver1_MasterSendStop();
 1250              		.loc 1 700 0
ARM GAS  D:\Windows\AppData\Local\Temp\cc9YXq6z.s 			page 36


 1251 0032 FFF7FEFF 		bl	LED_Driver1_MasterSendStop
 1252              	.LVL176:
 1253 0036 08BD     		pop	{r3, pc}
 1254              	.L100:
 1255              		.align	2
 1256              	.L99:
 1257 0038 00000000 		.word	.LANCHOR0
 1258              		.cfi_endproc
 1259              	.LFE92:
 1260              		.size	d15_write, .-d15_write
 1261              		.section	.text.d16_write,"ax",%progbits
 1262              		.align	2
 1263              		.global	d16_write
 1264              		.thumb
 1265              		.thumb_func
 1266              		.type	d16_write, %function
 1267              	d16_write:
 1268              	.LFB93:
 701:led_manager.c **** }
 702:led_manager.c **** void d16_write(int bool) {
 1269              		.loc 1 702 0
 1270              		.cfi_startproc
 1271              		@ args = 0, pretend = 0, frame = 0
 1272              		@ frame_needed = 0, uses_anonymous_args = 0
 1273              	.LVL177:
 1274 0000 08B5     		push	{r3, lr}
 1275              		.cfi_def_cfa_offset 8
 1276              		.cfi_offset 3, -8
 1277              		.cfi_offset 14, -4
 1278              	.LVL178:
 703:led_manager.c **** 	uint8_t bit = 0x20;
 704:led_manager.c **** 	if(bool == 1) 	//led on
 1279              		.loc 1 704 0
 1280 0002 0128     		cmp	r0, #1
 1281 0004 05D1     		bne	.L102
 705:led_manager.c **** 		byte08 = byte08 | bit;
 1282              		.loc 1 705 0
 1283 0006 0C4A     		ldr	r2, .L105
 1284 0008 D378     		ldrb	r3, [r2, #3]	@ zero_extendqisi2
 1285 000a 43F02003 		orr	r3, r3, #32
 1286 000e D370     		strb	r3, [r2, #3]
 1287 0010 04E0     		b	.L103
 1288              	.L102:
 706:led_manager.c **** 	else			//led off
 707:led_manager.c **** 		byte08 = byte08 & ~bit;
 1289              		.loc 1 707 0
 1290 0012 094A     		ldr	r2, .L105
 1291 0014 D378     		ldrb	r3, [r2, #3]	@ zero_extendqisi2
 1292 0016 23F02003 		bic	r3, r3, #32
 1293 001a D370     		strb	r3, [r2, #3]
 1294              	.L103:
 708:led_manager.c **** 	
 709:led_manager.c **** 	LED_Driver1_MasterSendStart(LED_ADDR, 0);
 1295              		.loc 1 709 0
 1296 001c 4020     		movs	r0, #64
 1297              	.LVL179:
 1298 001e 0021     		movs	r1, #0
ARM GAS  D:\Windows\AppData\Local\Temp\cc9YXq6z.s 			page 37


 1299 0020 FFF7FEFF 		bl	LED_Driver1_MasterSendStart
 1300              	.LVL180:
 710:led_manager.c **** 	LED_Driver1_MasterWriteByte(LED08);		//move to LED addr
 1301              		.loc 1 710 0
 1302 0024 0820     		movs	r0, #8
 1303 0026 FFF7FEFF 		bl	LED_Driver1_MasterWriteByte
 1304              	.LVL181:
 711:led_manager.c **** 	LED_Driver1_MasterWriteByte(byte08);	//write byte to addr
 1305              		.loc 1 711 0
 1306 002a 034B     		ldr	r3, .L105
 1307 002c D878     		ldrb	r0, [r3, #3]	@ zero_extendqisi2
 1308 002e FFF7FEFF 		bl	LED_Driver1_MasterWriteByte
 1309              	.LVL182:
 712:led_manager.c **** 	LED_Driver1_MasterSendStop();
 1310              		.loc 1 712 0
 1311 0032 FFF7FEFF 		bl	LED_Driver1_MasterSendStop
 1312              	.LVL183:
 1313 0036 08BD     		pop	{r3, pc}
 1314              	.L106:
 1315              		.align	2
 1316              	.L105:
 1317 0038 00000000 		.word	.LANCHOR0
 1318              		.cfi_endproc
 1319              	.LFE93:
 1320              		.size	d16_write, .-d16_write
 1321              		.section	.text.d17_write,"ax",%progbits
 1322              		.align	2
 1323              		.global	d17_write
 1324              		.thumb
 1325              		.thumb_func
 1326              		.type	d17_write, %function
 1327              	d17_write:
 1328              	.LFB94:
 713:led_manager.c **** }
 714:led_manager.c **** void d17_write(int bool) {
 1329              		.loc 1 714 0
 1330              		.cfi_startproc
 1331              		@ args = 0, pretend = 0, frame = 0
 1332              		@ frame_needed = 0, uses_anonymous_args = 0
 1333              	.LVL184:
 1334 0000 08B5     		push	{r3, lr}
 1335              		.cfi_def_cfa_offset 8
 1336              		.cfi_offset 3, -8
 1337              		.cfi_offset 14, -4
 1338              	.LVL185:
 715:led_manager.c **** 	uint8_t bit = 0x04;
 716:led_manager.c **** 	if(bool == 1) 	//led on
 1339              		.loc 1 716 0
 1340 0002 0128     		cmp	r0, #1
 1341 0004 05D1     		bne	.L108
 717:led_manager.c **** 		byte05 = byte05 | bit;
 1342              		.loc 1 717 0
 1343 0006 0C4A     		ldr	r2, .L111
 1344 0008 1378     		ldrb	r3, [r2]	@ zero_extendqisi2
 1345 000a 43F00403 		orr	r3, r3, #4
 1346 000e 1370     		strb	r3, [r2]
 1347 0010 04E0     		b	.L109
ARM GAS  D:\Windows\AppData\Local\Temp\cc9YXq6z.s 			page 38


 1348              	.L108:
 718:led_manager.c **** 	else			//led off
 719:led_manager.c **** 		byte05 = byte05 & ~bit;
 1349              		.loc 1 719 0
 1350 0012 094A     		ldr	r2, .L111
 1351 0014 1378     		ldrb	r3, [r2]	@ zero_extendqisi2
 1352 0016 23F00403 		bic	r3, r3, #4
 1353 001a 1370     		strb	r3, [r2]
 1354              	.L109:
 720:led_manager.c **** 	
 721:led_manager.c **** 	LED_Driver1_MasterSendStart(LED_ADDR, 0);
 1355              		.loc 1 721 0
 1356 001c 4020     		movs	r0, #64
 1357              	.LVL186:
 1358 001e 0021     		movs	r1, #0
 1359 0020 FFF7FEFF 		bl	LED_Driver1_MasterSendStart
 1360              	.LVL187:
 722:led_manager.c **** 	LED_Driver1_MasterWriteByte(LED05);		//move to LED addr
 1361              		.loc 1 722 0
 1362 0024 0520     		movs	r0, #5
 1363 0026 FFF7FEFF 		bl	LED_Driver1_MasterWriteByte
 1364              	.LVL188:
 723:led_manager.c **** 	LED_Driver1_MasterWriteByte(byte05);	//write byte to addr
 1365              		.loc 1 723 0
 1366 002a 034B     		ldr	r3, .L111
 1367 002c 1878     		ldrb	r0, [r3]	@ zero_extendqisi2
 1368 002e FFF7FEFF 		bl	LED_Driver1_MasterWriteByte
 1369              	.LVL189:
 724:led_manager.c **** 	LED_Driver1_MasterSendStop();
 1370              		.loc 1 724 0
 1371 0032 FFF7FEFF 		bl	LED_Driver1_MasterSendStop
 1372              	.LVL190:
 1373 0036 08BD     		pop	{r3, pc}
 1374              	.L112:
 1375              		.align	2
 1376              	.L111:
 1377 0038 00000000 		.word	.LANCHOR0
 1378              		.cfi_endproc
 1379              	.LFE94:
 1380              		.size	d17_write, .-d17_write
 1381              		.section	.text.d18_write,"ax",%progbits
 1382              		.align	2
 1383              		.global	d18_write
 1384              		.thumb
 1385              		.thumb_func
 1386              		.type	d18_write, %function
 1387              	d18_write:
 1388              	.LFB95:
 725:led_manager.c **** }
 726:led_manager.c **** void d18_write(int bool) {
 1389              		.loc 1 726 0
 1390              		.cfi_startproc
 1391              		@ args = 0, pretend = 0, frame = 0
 1392              		@ frame_needed = 0, uses_anonymous_args = 0
 1393              	.LVL191:
 1394 0000 08B5     		push	{r3, lr}
 1395              		.cfi_def_cfa_offset 8
ARM GAS  D:\Windows\AppData\Local\Temp\cc9YXq6z.s 			page 39


 1396              		.cfi_offset 3, -8
 1397              		.cfi_offset 14, -4
 1398              	.LVL192:
 727:led_manager.c **** 	uint8_t bit = 0x40;
 728:led_manager.c **** 	if(bool == 1) 	//led on
 1399              		.loc 1 728 0
 1400 0002 0128     		cmp	r0, #1
 1401 0004 05D1     		bne	.L114
 729:led_manager.c **** 		byte05 = byte05 | bit;
 1402              		.loc 1 729 0
 1403 0006 0C4A     		ldr	r2, .L117
 1404 0008 1378     		ldrb	r3, [r2]	@ zero_extendqisi2
 1405 000a 43F04003 		orr	r3, r3, #64
 1406 000e 1370     		strb	r3, [r2]
 1407 0010 04E0     		b	.L115
 1408              	.L114:
 730:led_manager.c **** 	else			//led off
 731:led_manager.c **** 		byte05 = byte05 & ~bit;
 1409              		.loc 1 731 0
 1410 0012 094A     		ldr	r2, .L117
 1411 0014 1378     		ldrb	r3, [r2]	@ zero_extendqisi2
 1412 0016 23F04003 		bic	r3, r3, #64
 1413 001a 1370     		strb	r3, [r2]
 1414              	.L115:
 732:led_manager.c **** 	
 733:led_manager.c **** 	LED_Driver1_MasterSendStart(LED_ADDR, 0);
 1415              		.loc 1 733 0
 1416 001c 4020     		movs	r0, #64
 1417              	.LVL193:
 1418 001e 0021     		movs	r1, #0
 1419 0020 FFF7FEFF 		bl	LED_Driver1_MasterSendStart
 1420              	.LVL194:
 734:led_manager.c **** 	LED_Driver1_MasterWriteByte(LED05);		//move to LED addr
 1421              		.loc 1 734 0
 1422 0024 0520     		movs	r0, #5
 1423 0026 FFF7FEFF 		bl	LED_Driver1_MasterWriteByte
 1424              	.LVL195:
 735:led_manager.c **** 	LED_Driver1_MasterWriteByte(byte05);	//write byte to addr
 1425              		.loc 1 735 0
 1426 002a 034B     		ldr	r3, .L117
 1427 002c 1878     		ldrb	r0, [r3]	@ zero_extendqisi2
 1428 002e FFF7FEFF 		bl	LED_Driver1_MasterWriteByte
 1429              	.LVL196:
 736:led_manager.c **** 	LED_Driver1_MasterSendStop();
 1430              		.loc 1 736 0
 1431 0032 FFF7FEFF 		bl	LED_Driver1_MasterSendStop
 1432              	.LVL197:
 1433 0036 08BD     		pop	{r3, pc}
 1434              	.L118:
 1435              		.align	2
 1436              	.L117:
 1437 0038 00000000 		.word	.LANCHOR0
 1438              		.cfi_endproc
 1439              	.LFE95:
 1440              		.size	d18_write, .-d18_write
 1441              		.section	.text.d19_write,"ax",%progbits
 1442              		.align	2
ARM GAS  D:\Windows\AppData\Local\Temp\cc9YXq6z.s 			page 40


 1443              		.global	d19_write
 1444              		.thumb
 1445              		.thumb_func
 1446              		.type	d19_write, %function
 1447              	d19_write:
 1448              	.LFB96:
 737:led_manager.c **** }
 738:led_manager.c **** void d19_write(int bool) {
 1449              		.loc 1 738 0
 1450              		.cfi_startproc
 1451              		@ args = 0, pretend = 0, frame = 0
 1452              		@ frame_needed = 0, uses_anonymous_args = 0
 1453              	.LVL198:
 1454 0000 08B5     		push	{r3, lr}
 1455              		.cfi_def_cfa_offset 8
 1456              		.cfi_offset 3, -8
 1457              		.cfi_offset 14, -4
 1458              	.LVL199:
 739:led_manager.c **** 	uint8_t bit = 0x04;
 740:led_manager.c **** 	if(bool == 1) 	//led on
 1459              		.loc 1 740 0
 1460 0002 0128     		cmp	r0, #1
 1461 0004 05D1     		bne	.L120
 741:led_manager.c **** 		byte06 = byte06 | bit;
 1462              		.loc 1 741 0
 1463 0006 0C4A     		ldr	r2, .L123
 1464 0008 5378     		ldrb	r3, [r2, #1]	@ zero_extendqisi2
 1465 000a 43F00403 		orr	r3, r3, #4
 1466 000e 5370     		strb	r3, [r2, #1]
 1467 0010 04E0     		b	.L121
 1468              	.L120:
 742:led_manager.c **** 	else			//led off
 743:led_manager.c **** 		byte06 = byte06 & ~bit;
 1469              		.loc 1 743 0
 1470 0012 094A     		ldr	r2, .L123
 1471 0014 5378     		ldrb	r3, [r2, #1]	@ zero_extendqisi2
 1472 0016 23F00403 		bic	r3, r3, #4
 1473 001a 5370     		strb	r3, [r2, #1]
 1474              	.L121:
 744:led_manager.c **** 	
 745:led_manager.c **** 	LED_Driver1_MasterSendStart(LED_ADDR, 0);
 1475              		.loc 1 745 0
 1476 001c 4020     		movs	r0, #64
 1477              	.LVL200:
 1478 001e 0021     		movs	r1, #0
 1479 0020 FFF7FEFF 		bl	LED_Driver1_MasterSendStart
 1480              	.LVL201:
 746:led_manager.c **** 	LED_Driver1_MasterWriteByte(LED06);		//move to LED addr
 1481              		.loc 1 746 0
 1482 0024 0620     		movs	r0, #6
 1483 0026 FFF7FEFF 		bl	LED_Driver1_MasterWriteByte
 1484              	.LVL202:
 747:led_manager.c **** 	LED_Driver1_MasterWriteByte(byte06);	//write byte to addr
 1485              		.loc 1 747 0
 1486 002a 034B     		ldr	r3, .L123
 1487 002c 5878     		ldrb	r0, [r3, #1]	@ zero_extendqisi2
 1488 002e FFF7FEFF 		bl	LED_Driver1_MasterWriteByte
ARM GAS  D:\Windows\AppData\Local\Temp\cc9YXq6z.s 			page 41


 1489              	.LVL203:
 748:led_manager.c **** 	LED_Driver1_MasterSendStop();
 1490              		.loc 1 748 0
 1491 0032 FFF7FEFF 		bl	LED_Driver1_MasterSendStop
 1492              	.LVL204:
 1493 0036 08BD     		pop	{r3, pc}
 1494              	.L124:
 1495              		.align	2
 1496              	.L123:
 1497 0038 00000000 		.word	.LANCHOR0
 1498              		.cfi_endproc
 1499              	.LFE96:
 1500              		.size	d19_write, .-d19_write
 1501              		.section	.text.led_on,"ax",%progbits
 1502              		.align	2
 1503              		.global	led_on
 1504              		.thumb
 1505              		.thumb_func
 1506              		.type	led_on, %function
 1507              	led_on:
 1508              	.LFB73:
 350:led_manager.c **** 	d1_write(1);
 1509              		.loc 1 350 0
 1510              		.cfi_startproc
 1511              		@ args = 0, pretend = 0, frame = 0
 1512              		@ frame_needed = 0, uses_anonymous_args = 0
 1513 0000 08B5     		push	{r3, lr}
 1514              		.cfi_def_cfa_offset 8
 1515              		.cfi_offset 3, -8
 1516              		.cfi_offset 14, -4
 351:led_manager.c **** 	//d2_write(1);
 1517              		.loc 1 351 0
 1518 0002 0120     		movs	r0, #1
 1519 0004 FFF7FEFF 		bl	d1_write
 1520              	.LVL205:
 364:led_manager.c **** 	d15_write(1);
 1521              		.loc 1 364 0
 1522 0008 0120     		movs	r0, #1
 1523 000a FFF7FEFF 		bl	d14_write
 1524              	.LVL206:
 365:led_manager.c **** 	//d16_write(1);
 1525              		.loc 1 365 0
 1526 000e 0120     		movs	r0, #1
 1527 0010 FFF7FEFF 		bl	d15_write
 1528              	.LVL207:
 369:led_manager.c **** 	//d20_write(1);
 1529              		.loc 1 369 0
 1530 0014 0120     		movs	r0, #1
 1531 0016 FFF7FEFF 		bl	d19_write
 1532              	.LVL208:
 1533 001a 08BD     		pop	{r3, pc}
 1534              		.cfi_endproc
 1535              	.LFE73:
 1536              		.size	led_on, .-led_on
 1537              		.section	.text.led_off,"ax",%progbits
 1538              		.align	2
 1539              		.global	led_off
ARM GAS  D:\Windows\AppData\Local\Temp\cc9YXq6z.s 			page 42


 1540              		.thumb
 1541              		.thumb_func
 1542              		.type	led_off, %function
 1543              	led_off:
 1544              	.LFB74:
 401:led_manager.c **** 	d1_write(0);
 1545              		.loc 1 401 0
 1546              		.cfi_startproc
 1547              		@ args = 0, pretend = 0, frame = 0
 1548              		@ frame_needed = 0, uses_anonymous_args = 0
 1549 0000 08B5     		push	{r3, lr}
 1550              		.cfi_def_cfa_offset 8
 1551              		.cfi_offset 3, -8
 1552              		.cfi_offset 14, -4
 402:led_manager.c **** 	//d2_write(0);
 1553              		.loc 1 402 0
 1554 0002 0020     		movs	r0, #0
 1555 0004 FFF7FEFF 		bl	d1_write
 1556              	.LVL209:
 415:led_manager.c **** 	d15_write(0);
 1557              		.loc 1 415 0
 1558 0008 0020     		movs	r0, #0
 1559 000a FFF7FEFF 		bl	d14_write
 1560              	.LVL210:
 416:led_manager.c **** 	//d16_write(0);
 1561              		.loc 1 416 0
 1562 000e 0020     		movs	r0, #0
 1563 0010 FFF7FEFF 		bl	d15_write
 1564              	.LVL211:
 420:led_manager.c **** 	//d20_write(0);
 1565              		.loc 1 420 0
 1566 0014 0020     		movs	r0, #0
 1567 0016 FFF7FEFF 		bl	d19_write
 1568              	.LVL212:
 1569 001a 08BD     		pop	{r3, pc}
 1570              		.cfi_endproc
 1571              	.LFE74:
 1572              		.size	led_off, .-led_off
 1573              		.section	.text.d20_write,"ax",%progbits
 1574              		.align	2
 1575              		.global	d20_write
 1576              		.thumb
 1577              		.thumb_func
 1578              		.type	d20_write, %function
 1579              	d20_write:
 1580              	.LFB97:
 749:led_manager.c **** }
 750:led_manager.c **** void d20_write(int bool) {
 1581              		.loc 1 750 0
 1582              		.cfi_startproc
 1583              		@ args = 0, pretend = 0, frame = 0
 1584              		@ frame_needed = 0, uses_anonymous_args = 0
 1585              	.LVL213:
 1586 0000 08B5     		push	{r3, lr}
 1587              		.cfi_def_cfa_offset 8
 1588              		.cfi_offset 3, -8
 1589              		.cfi_offset 14, -4
ARM GAS  D:\Windows\AppData\Local\Temp\cc9YXq6z.s 			page 43


 1590              	.LVL214:
 751:led_manager.c **** 	uint8_t bit = 0x40;
 752:led_manager.c **** 	if(bool == 1) 	//led on
 1591              		.loc 1 752 0
 1592 0002 0128     		cmp	r0, #1
 1593 0004 05D1     		bne	.L130
 753:led_manager.c **** 		byte06 = byte06 | bit;
 1594              		.loc 1 753 0
 1595 0006 0C4A     		ldr	r2, .L133
 1596 0008 5378     		ldrb	r3, [r2, #1]	@ zero_extendqisi2
 1597 000a 43F04003 		orr	r3, r3, #64
 1598 000e 5370     		strb	r3, [r2, #1]
 1599 0010 04E0     		b	.L131
 1600              	.L130:
 754:led_manager.c **** 	else			//led off
 755:led_manager.c **** 		byte06 = byte06 & ~bit;
 1601              		.loc 1 755 0
 1602 0012 094A     		ldr	r2, .L133
 1603 0014 5378     		ldrb	r3, [r2, #1]	@ zero_extendqisi2
 1604 0016 23F04003 		bic	r3, r3, #64
 1605 001a 5370     		strb	r3, [r2, #1]
 1606              	.L131:
 756:led_manager.c **** 	
 757:led_manager.c **** 	LED_Driver1_MasterSendStart(LED_ADDR, 0);
 1607              		.loc 1 757 0
 1608 001c 4020     		movs	r0, #64
 1609              	.LVL215:
 1610 001e 0021     		movs	r1, #0
 1611 0020 FFF7FEFF 		bl	LED_Driver1_MasterSendStart
 1612              	.LVL216:
 758:led_manager.c **** 	LED_Driver1_MasterWriteByte(LED06);		//move to LED addr
 1613              		.loc 1 758 0
 1614 0024 0620     		movs	r0, #6
 1615 0026 FFF7FEFF 		bl	LED_Driver1_MasterWriteByte
 1616              	.LVL217:
 759:led_manager.c **** 	LED_Driver1_MasterWriteByte(byte06);	//write byte to addr
 1617              		.loc 1 759 0
 1618 002a 034B     		ldr	r3, .L133
 1619 002c 5878     		ldrb	r0, [r3, #1]	@ zero_extendqisi2
 1620 002e FFF7FEFF 		bl	LED_Driver1_MasterWriteByte
 1621              	.LVL218:
 760:led_manager.c **** 	LED_Driver1_MasterSendStop();
 1622              		.loc 1 760 0
 1623 0032 FFF7FEFF 		bl	LED_Driver1_MasterSendStop
 1624              	.LVL219:
 1625 0036 08BD     		pop	{r3, pc}
 1626              	.L134:
 1627              		.align	2
 1628              	.L133:
 1629 0038 00000000 		.word	.LANCHOR0
 1630              		.cfi_endproc
 1631              	.LFE97:
 1632              		.size	d20_write, .-d20_write
 1633              		.section	.text.d21_write,"ax",%progbits
 1634              		.align	2
 1635              		.global	d21_write
 1636              		.thumb
ARM GAS  D:\Windows\AppData\Local\Temp\cc9YXq6z.s 			page 44


 1637              		.thumb_func
 1638              		.type	d21_write, %function
 1639              	d21_write:
 1640              	.LFB98:
 761:led_manager.c **** }
 762:led_manager.c **** void d21_write(int bool) {
 1641              		.loc 1 762 0
 1642              		.cfi_startproc
 1643              		@ args = 0, pretend = 0, frame = 0
 1644              		@ frame_needed = 0, uses_anonymous_args = 0
 1645              	.LVL220:
 1646 0000 08B5     		push	{r3, lr}
 1647              		.cfi_def_cfa_offset 8
 1648              		.cfi_offset 3, -8
 1649              		.cfi_offset 14, -4
 1650              	.LVL221:
 763:led_manager.c **** 	uint8_t bit = 0x04;
 764:led_manager.c **** 	if(bool == 1) 	//led on
 1651              		.loc 1 764 0
 1652 0002 0128     		cmp	r0, #1
 1653 0004 05D1     		bne	.L136
 765:led_manager.c **** 		byte07 = byte07 | bit;
 1654              		.loc 1 765 0
 1655 0006 0C4A     		ldr	r2, .L139
 1656 0008 9378     		ldrb	r3, [r2, #2]	@ zero_extendqisi2
 1657 000a 43F00403 		orr	r3, r3, #4
 1658 000e 9370     		strb	r3, [r2, #2]
 1659 0010 04E0     		b	.L137
 1660              	.L136:
 766:led_manager.c **** 	else			//led off
 767:led_manager.c **** 		byte07 = byte07 & ~bit;
 1661              		.loc 1 767 0
 1662 0012 094A     		ldr	r2, .L139
 1663 0014 9378     		ldrb	r3, [r2, #2]	@ zero_extendqisi2
 1664 0016 23F00403 		bic	r3, r3, #4
 1665 001a 9370     		strb	r3, [r2, #2]
 1666              	.L137:
 768:led_manager.c **** 	
 769:led_manager.c **** 	LED_Driver1_MasterSendStart(LED_ADDR, 0);
 1667              		.loc 1 769 0
 1668 001c 4020     		movs	r0, #64
 1669              	.LVL222:
 1670 001e 0021     		movs	r1, #0
 1671 0020 FFF7FEFF 		bl	LED_Driver1_MasterSendStart
 1672              	.LVL223:
 770:led_manager.c **** 	LED_Driver1_MasterWriteByte(LED07);		//move to LED addr
 1673              		.loc 1 770 0
 1674 0024 0720     		movs	r0, #7
 1675 0026 FFF7FEFF 		bl	LED_Driver1_MasterWriteByte
 1676              	.LVL224:
 771:led_manager.c **** 	LED_Driver1_MasterWriteByte(byte07);	//write byte to addr
 1677              		.loc 1 771 0
 1678 002a 034B     		ldr	r3, .L139
 1679 002c 9878     		ldrb	r0, [r3, #2]	@ zero_extendqisi2
 1680 002e FFF7FEFF 		bl	LED_Driver1_MasterWriteByte
 1681              	.LVL225:
 772:led_manager.c **** 	LED_Driver1_MasterSendStop();
ARM GAS  D:\Windows\AppData\Local\Temp\cc9YXq6z.s 			page 45


 1682              		.loc 1 772 0
 1683 0032 FFF7FEFF 		bl	LED_Driver1_MasterSendStop
 1684              	.LVL226:
 1685 0036 08BD     		pop	{r3, pc}
 1686              	.L140:
 1687              		.align	2
 1688              	.L139:
 1689 0038 00000000 		.word	.LANCHOR0
 1690              		.cfi_endproc
 1691              	.LFE98:
 1692              		.size	d21_write, .-d21_write
 1693              		.section	.text.d22_write,"ax",%progbits
 1694              		.align	2
 1695              		.global	d22_write
 1696              		.thumb
 1697              		.thumb_func
 1698              		.type	d22_write, %function
 1699              	d22_write:
 1700              	.LFB99:
 773:led_manager.c **** }
 774:led_manager.c **** void d22_write(int bool) {
 1701              		.loc 1 774 0
 1702              		.cfi_startproc
 1703              		@ args = 0, pretend = 0, frame = 0
 1704              		@ frame_needed = 0, uses_anonymous_args = 0
 1705              	.LVL227:
 1706 0000 08B5     		push	{r3, lr}
 1707              		.cfi_def_cfa_offset 8
 1708              		.cfi_offset 3, -8
 1709              		.cfi_offset 14, -4
 1710              	.LVL228:
 775:led_manager.c **** 	uint8_t bit = 0x40;
 776:led_manager.c **** 	if(bool == 1) 	//led on
 1711              		.loc 1 776 0
 1712 0002 0128     		cmp	r0, #1
 1713 0004 05D1     		bne	.L142
 777:led_manager.c **** 		byte07 = byte07 | bit;
 1714              		.loc 1 777 0
 1715 0006 0C4A     		ldr	r2, .L145
 1716 0008 9378     		ldrb	r3, [r2, #2]	@ zero_extendqisi2
 1717 000a 43F04003 		orr	r3, r3, #64
 1718 000e 9370     		strb	r3, [r2, #2]
 1719 0010 04E0     		b	.L143
 1720              	.L142:
 778:led_manager.c **** 	else			//led off
 779:led_manager.c **** 		byte07 = byte07 & ~bit;
 1721              		.loc 1 779 0
 1722 0012 094A     		ldr	r2, .L145
 1723 0014 9378     		ldrb	r3, [r2, #2]	@ zero_extendqisi2
 1724 0016 23F04003 		bic	r3, r3, #64
 1725 001a 9370     		strb	r3, [r2, #2]
 1726              	.L143:
 780:led_manager.c **** 	
 781:led_manager.c **** 	LED_Driver1_MasterSendStart(LED_ADDR, 0);
 1727              		.loc 1 781 0
 1728 001c 4020     		movs	r0, #64
 1729              	.LVL229:
ARM GAS  D:\Windows\AppData\Local\Temp\cc9YXq6z.s 			page 46


 1730 001e 0021     		movs	r1, #0
 1731 0020 FFF7FEFF 		bl	LED_Driver1_MasterSendStart
 1732              	.LVL230:
 782:led_manager.c **** 	LED_Driver1_MasterWriteByte(LED07);		//move to LED addr
 1733              		.loc 1 782 0
 1734 0024 0720     		movs	r0, #7
 1735 0026 FFF7FEFF 		bl	LED_Driver1_MasterWriteByte
 1736              	.LVL231:
 783:led_manager.c **** 	LED_Driver1_MasterWriteByte(byte07);	//write byte to addr
 1737              		.loc 1 783 0
 1738 002a 034B     		ldr	r3, .L145
 1739 002c 9878     		ldrb	r0, [r3, #2]	@ zero_extendqisi2
 1740 002e FFF7FEFF 		bl	LED_Driver1_MasterWriteByte
 1741              	.LVL232:
 784:led_manager.c **** 	LED_Driver1_MasterSendStop();
 1742              		.loc 1 784 0
 1743 0032 FFF7FEFF 		bl	LED_Driver1_MasterSendStop
 1744              	.LVL233:
 1745 0036 08BD     		pop	{r3, pc}
 1746              	.L146:
 1747              		.align	2
 1748              	.L145:
 1749 0038 00000000 		.word	.LANCHOR0
 1750              		.cfi_endproc
 1751              	.LFE99:
 1752              		.size	d22_write, .-d22_write
 1753              		.section	.text.led_write_tach,"ax",%progbits
 1754              		.align	2
 1755              		.global	led_write_tach
 1756              		.thumb
 1757              		.thumb_func
 1758              		.type	led_write_tach, %function
 1759              	led_write_tach:
 1760              	.LFB68:
 132:led_manager.c **** 	int tach_pct = MTR_RPM / MAX_RPM;	//tach percent
 1761              		.loc 1 132 0
 1762              		.cfi_startproc
 1763              		@ args = 0, pretend = 0, frame = 0
 1764              		@ frame_needed = 0, uses_anonymous_args = 0
 1765              	.LVL234:
 133:led_manager.c **** 	int steps = 0;
 1766              		.loc 1 133 0
 1767 0000 654B     		ldr	r3, .L173
 1768 0002 A3FB0023 		umull	r2, r3, r3, r0
 1769 0006 DB09     		lsrs	r3, r3, #7
 1770              	.LVL235:
 137:led_manager.c **** 		steps = 2;	//first step lights up first 2 led's
 1771              		.loc 1 137 0
 1772 0008 052B     		cmp	r3, #5
 1773 000a 47DD     		ble	.L153
 139:led_manager.c **** 		steps = 3;
 1774              		.loc 1 139 0
 1775 000c 9A1F     		subs	r2, r3, #6
 1776 000e 042A     		cmp	r2, #4
 1777 0010 46D9     		bls	.L154
 141:led_manager.c **** 		steps = 4;
 1778              		.loc 1 141 0
ARM GAS  D:\Windows\AppData\Local\Temp\cc9YXq6z.s 			page 47


 1779 0012 A3F10B02 		sub	r2, r3, #11
 1780 0016 042A     		cmp	r2, #4
 1781 0018 44D9     		bls	.L155
 143:led_manager.c **** 		steps = 5;
 1782              		.loc 1 143 0
 1783 001a A3F11002 		sub	r2, r3, #16
 1784 001e 042A     		cmp	r2, #4
 1785 0020 42D9     		bls	.L156
 145:led_manager.c **** 		steps = 6;
 1786              		.loc 1 145 0
 1787 0022 A3F11502 		sub	r2, r3, #21
 1788 0026 042A     		cmp	r2, #4
 1789 0028 40D9     		bls	.L157
 147:led_manager.c **** 		steps = 7;
 1790              		.loc 1 147 0
 1791 002a A3F11A02 		sub	r2, r3, #26
 1792 002e 042A     		cmp	r2, #4
 1793 0030 3ED9     		bls	.L158
 149:led_manager.c **** 		steps = 8;
 1794              		.loc 1 149 0
 1795 0032 A3F11F02 		sub	r2, r3, #31
 1796 0036 042A     		cmp	r2, #4
 1797 0038 3CD9     		bls	.L159
 151:led_manager.c **** 		steps = 9;
 1798              		.loc 1 151 0
 1799 003a A3F12402 		sub	r2, r3, #36
 1800 003e 042A     		cmp	r2, #4
 1801 0040 3AD9     		bls	.L160
 153:led_manager.c **** 		steps = 10;
 1802              		.loc 1 153 0
 1803 0042 A3F12902 		sub	r2, r3, #41
 1804 0046 042A     		cmp	r2, #4
 1805 0048 38D9     		bls	.L161
 155:led_manager.c **** 		steps = 11;
 1806              		.loc 1 155 0
 1807 004a A3F12E02 		sub	r2, r3, #46
 1808 004e 042A     		cmp	r2, #4
 1809 0050 36D9     		bls	.L162
 157:led_manager.c **** 		steps = 12;
 1810              		.loc 1 157 0
 1811 0052 A3F13302 		sub	r2, r3, #51
 1812 0056 042A     		cmp	r2, #4
 1813 0058 34D9     		bls	.L163
 159:led_manager.c **** 		steps = 13;
 1814              		.loc 1 159 0
 1815 005a A3F13802 		sub	r2, r3, #56
 1816 005e 042A     		cmp	r2, #4
 1817 0060 32D9     		bls	.L164
 161:led_manager.c **** 		steps = 14;
 1818              		.loc 1 161 0
 1819 0062 A3F13D02 		sub	r2, r3, #61
 1820 0066 042A     		cmp	r2, #4
 1821 0068 30D9     		bls	.L165
 163:led_manager.c **** 		steps = 15;
 1822              		.loc 1 163 0
 1823 006a A3F14202 		sub	r2, r3, #66
 1824 006e 042A     		cmp	r2, #4
ARM GAS  D:\Windows\AppData\Local\Temp\cc9YXq6z.s 			page 48


 1825 0070 2ED9     		bls	.L166
 165:led_manager.c **** 		steps = 16;
 1826              		.loc 1 165 0
 1827 0072 A3F14702 		sub	r2, r3, #71
 1828 0076 042A     		cmp	r2, #4
 1829 0078 2CD9     		bls	.L167
 167:led_manager.c **** 		steps = 17;
 1830              		.loc 1 167 0
 1831 007a A3F14C02 		sub	r2, r3, #76
 1832 007e 042A     		cmp	r2, #4
 1833 0080 2AD9     		bls	.L168
 169:led_manager.c **** 		steps = 18;
 1834              		.loc 1 169 0
 1835 0082 A3F15102 		sub	r2, r3, #81
 1836 0086 042A     		cmp	r2, #4
 1837 0088 28D9     		bls	.L169
 171:led_manager.c **** 		steps = 19;
 1838              		.loc 1 171 0
 1839 008a A3F15602 		sub	r2, r3, #86
 1840 008e 042A     		cmp	r2, #4
 1841 0090 26D9     		bls	.L170
 173:led_manager.c **** 		steps = 20;
 1842              		.loc 1 173 0
 1843 0092 5B3B     		subs	r3, r3, #91
 1844              	.LVL236:
 1845 0094 042B     		cmp	r3, #4
 1846 0096 25D8     		bhi	.L171
 174:led_manager.c **** 	else //(tach_pct > 95 && tach_pct <= 100)
 1847              		.loc 1 174 0
 1848 0098 1423     		movs	r3, #20
 1849              	.LVL237:
 1850 009a 24E0     		b	.L148
 1851              	.LVL238:
 1852              	.L153:
 138:led_manager.c **** 	else if(tach_pct > 5 && tach_pct <= 10)
 1853              		.loc 1 138 0
 1854 009c 0223     		movs	r3, #2
 1855              	.LVL239:
 1856 009e 22E0     		b	.L148
 1857              	.LVL240:
 1858              	.L154:
 140:led_manager.c **** 	else if(tach_pct > 10 && tach_pct <= 15)
 1859              		.loc 1 140 0
 1860 00a0 0323     		movs	r3, #3
 1861              	.LVL241:
 1862 00a2 20E0     		b	.L148
 1863              	.LVL242:
 1864              	.L155:
 142:led_manager.c **** 	else if(tach_pct > 15 && tach_pct <= 20)
 1865              		.loc 1 142 0
 1866 00a4 0423     		movs	r3, #4
 1867              	.LVL243:
 1868 00a6 1EE0     		b	.L148
 1869              	.LVL244:
 1870              	.L156:
 144:led_manager.c **** 	else if(tach_pct > 20 && tach_pct <= 25)
 1871              		.loc 1 144 0
ARM GAS  D:\Windows\AppData\Local\Temp\cc9YXq6z.s 			page 49


 1872 00a8 0523     		movs	r3, #5
 1873              	.LVL245:
 1874 00aa 1CE0     		b	.L148
 1875              	.LVL246:
 1876              	.L157:
 146:led_manager.c **** 	else if(tach_pct > 25 && tach_pct <= 30)
 1877              		.loc 1 146 0
 1878 00ac 0623     		movs	r3, #6
 1879              	.LVL247:
 1880 00ae 1AE0     		b	.L148
 1881              	.LVL248:
 1882              	.L158:
 148:led_manager.c **** 	else if(tach_pct > 30 && tach_pct <= 35)
 1883              		.loc 1 148 0
 1884 00b0 0723     		movs	r3, #7
 1885              	.LVL249:
 1886 00b2 18E0     		b	.L148
 1887              	.LVL250:
 1888              	.L159:
 150:led_manager.c **** 	else if(tach_pct > 35 && tach_pct <= 40)
 1889              		.loc 1 150 0
 1890 00b4 0823     		movs	r3, #8
 1891              	.LVL251:
 1892 00b6 16E0     		b	.L148
 1893              	.LVL252:
 1894              	.L160:
 152:led_manager.c **** 	else if(tach_pct > 40 && tach_pct <= 45)
 1895              		.loc 1 152 0
 1896 00b8 0923     		movs	r3, #9
 1897              	.LVL253:
 1898 00ba 14E0     		b	.L148
 1899              	.LVL254:
 1900              	.L161:
 154:led_manager.c **** 	else if(tach_pct > 45 && tach_pct <= 50)
 1901              		.loc 1 154 0
 1902 00bc 0A23     		movs	r3, #10
 1903              	.LVL255:
 1904 00be 12E0     		b	.L148
 1905              	.LVL256:
 1906              	.L162:
 156:led_manager.c **** 	else if(tach_pct > 50 && tach_pct <= 55)
 1907              		.loc 1 156 0
 1908 00c0 0B23     		movs	r3, #11
 1909              	.LVL257:
 1910 00c2 10E0     		b	.L148
 1911              	.LVL258:
 1912              	.L163:
 158:led_manager.c **** 	else if(tach_pct > 55 && tach_pct <= 60)
 1913              		.loc 1 158 0
 1914 00c4 0C23     		movs	r3, #12
 1915              	.LVL259:
 1916 00c6 0EE0     		b	.L148
 1917              	.LVL260:
 1918              	.L164:
 160:led_manager.c **** 	else if(tach_pct > 60 && tach_pct <= 65)
 1919              		.loc 1 160 0
 1920 00c8 0D23     		movs	r3, #13
ARM GAS  D:\Windows\AppData\Local\Temp\cc9YXq6z.s 			page 50


 1921              	.LVL261:
 1922 00ca 0CE0     		b	.L148
 1923              	.LVL262:
 1924              	.L165:
 162:led_manager.c **** 	else if(tach_pct > 65 && tach_pct <= 70)
 1925              		.loc 1 162 0
 1926 00cc 0E23     		movs	r3, #14
 1927              	.LVL263:
 1928 00ce 0AE0     		b	.L148
 1929              	.LVL264:
 1930              	.L166:
 164:led_manager.c **** 	else if(tach_pct > 70 && tach_pct <= 75)
 1931              		.loc 1 164 0
 1932 00d0 0F23     		movs	r3, #15
 1933              	.LVL265:
 1934 00d2 08E0     		b	.L148
 1935              	.LVL266:
 1936              	.L167:
 166:led_manager.c **** 	else if(tach_pct > 75 && tach_pct <= 80)
 1937              		.loc 1 166 0
 1938 00d4 1023     		movs	r3, #16
 1939              	.LVL267:
 1940 00d6 06E0     		b	.L148
 1941              	.LVL268:
 1942              	.L168:
 168:led_manager.c **** 	else if(tach_pct > 80 && tach_pct <= 85)
 1943              		.loc 1 168 0
 1944 00d8 1123     		movs	r3, #17
 1945              	.LVL269:
 1946 00da 04E0     		b	.L148
 1947              	.LVL270:
 1948              	.L169:
 170:led_manager.c **** 	else if(tach_pct > 85 && tach_pct <= 90)
 1949              		.loc 1 170 0
 1950 00dc 1223     		movs	r3, #18
 1951              	.LVL271:
 1952 00de 02E0     		b	.L148
 1953              	.LVL272:
 1954              	.L170:
 172:led_manager.c **** 	else if(tach_pct > 90 && tach_pct <= 95)
 1955              		.loc 1 172 0
 1956 00e0 1323     		movs	r3, #19
 1957              	.LVL273:
 1958 00e2 00E0     		b	.L148
 1959              	.L171:
 176:led_manager.c **** 	
 1960              		.loc 1 176 0
 1961 00e4 1523     		movs	r3, #21
 1962              	.LVL274:
 1963              	.L148:
 179:led_manager.c **** 		tach_arr[i] = 1;	//on leds
 1964              		.loc 1 179 0
 1965 00e6 0022     		movs	r2, #0
 1966 00e8 05E0     		b	.L149
 1967              	.LVL275:
 1968              	.L150:
 180:led_manager.c **** 	for(i=steps; i<TACH_MAX_STEPS+2; i++)	//+2 to get d22
ARM GAS  D:\Windows\AppData\Local\Temp\cc9YXq6z.s 			page 51


 1969              		.loc 1 180 0 discriminator 3
 1970 00ea 2C49     		ldr	r1, .L173+4
 1971 00ec 01EB8201 		add	r1, r1, r2, lsl #2
 1972 00f0 0120     		movs	r0, #1
 1973 00f2 4860     		str	r0, [r1, #4]
 179:led_manager.c **** 		tach_arr[i] = 1;	//on leds
 1974              		.loc 1 179 0 discriminator 3
 1975 00f4 0244     		add	r2, r2, r0
 1976              	.LVL276:
 1977              	.L149:
 179:led_manager.c **** 		tach_arr[i] = 1;	//on leds
 1978              		.loc 1 179 0 is_stmt 0 discriminator 1
 1979 00f6 9A42     		cmp	r2, r3
 1980 00f8 F7DB     		blt	.L150
 1981 00fa 05E0     		b	.L151
 1982              	.LVL277:
 1983              	.L152:
 182:led_manager.c **** 	
 1984              		.loc 1 182 0 is_stmt 1 discriminator 3
 1985 00fc 274A     		ldr	r2, .L173+4
 1986 00fe 02EB8302 		add	r2, r2, r3, lsl #2
 1987 0102 0021     		movs	r1, #0
 1988 0104 5160     		str	r1, [r2, #4]
 181:led_manager.c **** 		tach_arr[i] = 0;	//off leds
 1989              		.loc 1 181 0 discriminator 3
 1990 0106 0133     		adds	r3, r3, #1
 1991              	.LVL278:
 1992              	.L151:
 181:led_manager.c **** 		tach_arr[i] = 0;	//off leds
 1993              		.loc 1 181 0 is_stmt 0 discriminator 1
 1994 0108 152B     		cmp	r3, #21
 1995 010a F7DD     		ble	.L152
 132:led_manager.c **** 	int tach_pct = MTR_RPM / MAX_RPM;	//tach percent
 1996              		.loc 1 132 0 is_stmt 1
 1997 010c 10B5     		push	{r4, lr}
 1998              		.cfi_def_cfa_offset 8
 1999              		.cfi_offset 4, -8
 2000              		.cfi_offset 14, -4
 184:led_manager.c **** 	d2_write(tach_arr[1]);
 2001              		.loc 1 184 0
 2002 010e 234C     		ldr	r4, .L173+4
 2003 0110 6068     		ldr	r0, [r4, #4]
 2004 0112 FFF7FEFF 		bl	d1_write
 2005              	.LVL279:
 185:led_manager.c **** 	d3_write(tach_arr[2]);
 2006              		.loc 1 185 0
 2007 0116 A068     		ldr	r0, [r4, #8]
 2008 0118 FFF7FEFF 		bl	d2_write
 2009              	.LVL280:
 186:led_manager.c **** 	d4_write(tach_arr[3]);
 2010              		.loc 1 186 0
 2011 011c E068     		ldr	r0, [r4, #12]
 2012 011e FFF7FEFF 		bl	d3_write
 2013              	.LVL281:
 187:led_manager.c **** 	d5_write(tach_arr[4]);
 2014              		.loc 1 187 0
 2015 0122 2069     		ldr	r0, [r4, #16]
ARM GAS  D:\Windows\AppData\Local\Temp\cc9YXq6z.s 			page 52


 2016 0124 FFF7FEFF 		bl	d4_write
 2017              	.LVL282:
 188:led_manager.c **** 	d6_write(tach_arr[5]);
 2018              		.loc 1 188 0
 2019 0128 6069     		ldr	r0, [r4, #20]
 2020 012a FFF7FEFF 		bl	d5_write
 2021              	.LVL283:
 189:led_manager.c **** 	d7_write(tach_arr[6]);
 2022              		.loc 1 189 0
 2023 012e A069     		ldr	r0, [r4, #24]
 2024 0130 FFF7FEFF 		bl	d6_write
 2025              	.LVL284:
 190:led_manager.c **** 	d8_write(tach_arr[7]);
 2026              		.loc 1 190 0
 2027 0134 E069     		ldr	r0, [r4, #28]
 2028 0136 FFF7FEFF 		bl	d7_write
 2029              	.LVL285:
 191:led_manager.c **** 	d9_write(tach_arr[8]);
 2030              		.loc 1 191 0
 2031 013a 206A     		ldr	r0, [r4, #32]
 2032 013c FFF7FEFF 		bl	d8_write
 2033              	.LVL286:
 192:led_manager.c **** 	d10_write(tach_arr[9]);
 2034              		.loc 1 192 0
 2035 0140 606A     		ldr	r0, [r4, #36]
 2036 0142 FFF7FEFF 		bl	d9_write
 2037              	.LVL287:
 193:led_manager.c **** 	d11_write(tach_arr[10]);
 2038              		.loc 1 193 0
 2039 0146 A06A     		ldr	r0, [r4, #40]
 2040 0148 FFF7FEFF 		bl	d10_write
 2041              	.LVL288:
 194:led_manager.c **** 	d12_write(tach_arr[11]);
 2042              		.loc 1 194 0
 2043 014c E06A     		ldr	r0, [r4, #44]
 2044 014e FFF7FEFF 		bl	d11_write
 2045              	.LVL289:
 195:led_manager.c **** 	d13_write(tach_arr[12]);
 2046              		.loc 1 195 0
 2047 0152 206B     		ldr	r0, [r4, #48]
 2048 0154 FFF7FEFF 		bl	d12_write
 2049              	.LVL290:
 196:led_manager.c **** 	d14_write(tach_arr[13]);
 2050              		.loc 1 196 0
 2051 0158 606B     		ldr	r0, [r4, #52]
 2052 015a FFF7FEFF 		bl	d13_write
 2053              	.LVL291:
 197:led_manager.c **** 	d15_write(tach_arr[14]);
 2054              		.loc 1 197 0
 2055 015e A06B     		ldr	r0, [r4, #56]
 2056 0160 FFF7FEFF 		bl	d14_write
 2057              	.LVL292:
 198:led_manager.c **** 	d16_write(tach_arr[15]);
 2058              		.loc 1 198 0
 2059 0164 E06B     		ldr	r0, [r4, #60]
 2060 0166 FFF7FEFF 		bl	d15_write
 2061              	.LVL293:
ARM GAS  D:\Windows\AppData\Local\Temp\cc9YXq6z.s 			page 53


 199:led_manager.c **** 	d17_write(tach_arr[16]);
 2062              		.loc 1 199 0
 2063 016a 206C     		ldr	r0, [r4, #64]
 2064 016c FFF7FEFF 		bl	d16_write
 2065              	.LVL294:
 200:led_manager.c **** 	d18_write(tach_arr[17]);
 2066              		.loc 1 200 0
 2067 0170 606C     		ldr	r0, [r4, #68]
 2068 0172 FFF7FEFF 		bl	d17_write
 2069              	.LVL295:
 201:led_manager.c **** 	d19_write(tach_arr[18]);
 2070              		.loc 1 201 0
 2071 0176 A06C     		ldr	r0, [r4, #72]
 2072 0178 FFF7FEFF 		bl	d18_write
 2073              	.LVL296:
 202:led_manager.c **** 	d20_write(tach_arr[19]);
 2074              		.loc 1 202 0
 2075 017c E06C     		ldr	r0, [r4, #76]
 2076 017e FFF7FEFF 		bl	d19_write
 2077              	.LVL297:
 203:led_manager.c **** 	d21_write(tach_arr[20]);
 2078              		.loc 1 203 0
 2079 0182 206D     		ldr	r0, [r4, #80]
 2080 0184 FFF7FEFF 		bl	d20_write
 2081              	.LVL298:
 204:led_manager.c **** 	d22_write(tach_arr[21]);
 2082              		.loc 1 204 0
 2083 0188 606D     		ldr	r0, [r4, #84]
 2084 018a FFF7FEFF 		bl	d21_write
 2085              	.LVL299:
 205:led_manager.c **** } //led_write_tach
 2086              		.loc 1 205 0
 2087 018e A06D     		ldr	r0, [r4, #88]
 2088 0190 FFF7FEFF 		bl	d22_write
 2089              	.LVL300:
 2090 0194 10BD     		pop	{r4, pc}
 2091              	.L174:
 2092 0196 00BF     		.align	2
 2093              	.L173:
 2094 0198 F1197605 		.word	91625969
 2095 019c 00000000 		.word	.LANCHOR0
 2096              		.cfi_endproc
 2097              	.LFE68:
 2098              		.size	led_write_tach, .-led_write_tach
 2099              		.section	.text.led_writetest,"ax",%progbits
 2100              		.align	2
 2101              		.global	led_writetest
 2102              		.thumb
 2103              		.thumb_func
 2104              		.type	led_writetest, %function
 2105              	led_writetest:
 2106              	.LFB77:
 489:led_manager.c **** 	d1_write(arr[0]);
 2107              		.loc 1 489 0
 2108              		.cfi_startproc
 2109              		@ args = 0, pretend = 0, frame = 0
 2110              		@ frame_needed = 0, uses_anonymous_args = 0
ARM GAS  D:\Windows\AppData\Local\Temp\cc9YXq6z.s 			page 54


 2111              	.LVL301:
 2112 0000 38B5     		push	{r3, r4, r5, lr}
 2113              		.cfi_def_cfa_offset 16
 2114              		.cfi_offset 3, -16
 2115              		.cfi_offset 4, -12
 2116              		.cfi_offset 5, -8
 2117              		.cfi_offset 14, -4
 2118 0002 0546     		mov	r5, r0
 2119 0004 0C46     		mov	r4, r1
 490:led_manager.c **** 	d2_write(arr[1]);
 2120              		.loc 1 490 0
 2121 0006 0868     		ldr	r0, [r1]
 2122              	.LVL302:
 2123 0008 FFF7FEFF 		bl	d1_write
 2124              	.LVL303:
 491:led_manager.c **** 	d3_write(arr[2]);
 2125              		.loc 1 491 0
 2126 000c 6068     		ldr	r0, [r4, #4]
 2127 000e FFF7FEFF 		bl	d2_write
 2128              	.LVL304:
 492:led_manager.c **** 	d4_write(arr[3]);
 2129              		.loc 1 492 0
 2130 0012 A068     		ldr	r0, [r4, #8]
 2131 0014 FFF7FEFF 		bl	d3_write
 2132              	.LVL305:
 493:led_manager.c **** 	d5_write(arr[4]);
 2133              		.loc 1 493 0
 2134 0018 E068     		ldr	r0, [r4, #12]
 2135 001a FFF7FEFF 		bl	d4_write
 2136              	.LVL306:
 494:led_manager.c **** 	d6_write(arr[5]);
 2137              		.loc 1 494 0
 2138 001e 2069     		ldr	r0, [r4, #16]
 2139 0020 FFF7FEFF 		bl	d5_write
 2140              	.LVL307:
 495:led_manager.c **** 	d7_write(arr[6]);
 2141              		.loc 1 495 0
 2142 0024 6069     		ldr	r0, [r4, #20]
 2143 0026 FFF7FEFF 		bl	d6_write
 2144              	.LVL308:
 496:led_manager.c **** 	d8_write(arr[7]);
 2145              		.loc 1 496 0
 2146 002a A069     		ldr	r0, [r4, #24]
 2147 002c FFF7FEFF 		bl	d7_write
 2148              	.LVL309:
 497:led_manager.c **** 	d9_write(arr[8]);
 2149              		.loc 1 497 0
 2150 0030 E069     		ldr	r0, [r4, #28]
 2151 0032 FFF7FEFF 		bl	d8_write
 2152              	.LVL310:
 498:led_manager.c **** 	d10_write(arr[9]);
 2153              		.loc 1 498 0
 2154 0036 206A     		ldr	r0, [r4, #32]
 2155 0038 FFF7FEFF 		bl	d9_write
 2156              	.LVL311:
 499:led_manager.c **** 	d11_write(arr[10]);
 2157              		.loc 1 499 0
ARM GAS  D:\Windows\AppData\Local\Temp\cc9YXq6z.s 			page 55


 2158 003c 606A     		ldr	r0, [r4, #36]
 2159 003e FFF7FEFF 		bl	d10_write
 2160              	.LVL312:
 500:led_manager.c **** 	d12_write(arr[11]);
 2161              		.loc 1 500 0
 2162 0042 A06A     		ldr	r0, [r4, #40]
 2163 0044 FFF7FEFF 		bl	d11_write
 2164              	.LVL313:
 501:led_manager.c **** 	d13_write(arr[12]);
 2165              		.loc 1 501 0
 2166 0048 E06A     		ldr	r0, [r4, #44]
 2167 004a FFF7FEFF 		bl	d12_write
 2168              	.LVL314:
 502:led_manager.c **** 	d14_write(arr[13]);
 2169              		.loc 1 502 0
 2170 004e 206B     		ldr	r0, [r4, #48]
 2171 0050 FFF7FEFF 		bl	d13_write
 2172              	.LVL315:
 503:led_manager.c **** 	d15_write(arr[14]);
 2173              		.loc 1 503 0
 2174 0054 606B     		ldr	r0, [r4, #52]
 2175 0056 FFF7FEFF 		bl	d14_write
 2176              	.LVL316:
 504:led_manager.c **** 	d16_write(arr[15]);
 2177              		.loc 1 504 0
 2178 005a A06B     		ldr	r0, [r4, #56]
 2179 005c FFF7FEFF 		bl	d15_write
 2180              	.LVL317:
 505:led_manager.c **** 	d17_write(arr[16]);
 2181              		.loc 1 505 0
 2182 0060 E06B     		ldr	r0, [r4, #60]
 2183 0062 FFF7FEFF 		bl	d16_write
 2184              	.LVL318:
 506:led_manager.c **** 	d18_write(arr[17]);
 2185              		.loc 1 506 0
 2186 0066 206C     		ldr	r0, [r4, #64]
 2187 0068 FFF7FEFF 		bl	d17_write
 2188              	.LVL319:
 507:led_manager.c **** 	d19_write(arr[18]);
 2189              		.loc 1 507 0
 2190 006c 606C     		ldr	r0, [r4, #68]
 2191 006e FFF7FEFF 		bl	d18_write
 2192              	.LVL320:
 508:led_manager.c **** 	d20_write(arr[19]);
 2193              		.loc 1 508 0
 2194 0072 A06C     		ldr	r0, [r4, #72]
 2195 0074 FFF7FEFF 		bl	d19_write
 2196              	.LVL321:
 509:led_manager.c **** 	d21_write(arr[20]);
 2197              		.loc 1 509 0
 2198 0078 E06C     		ldr	r0, [r4, #76]
 2199 007a FFF7FEFF 		bl	d20_write
 2200              	.LVL322:
 510:led_manager.c **** 	d22_write(arr[21]);
 2201              		.loc 1 510 0
 2202 007e 206D     		ldr	r0, [r4, #80]
 2203 0080 FFF7FEFF 		bl	d21_write
ARM GAS  D:\Windows\AppData\Local\Temp\cc9YXq6z.s 			page 56


 2204              	.LVL323:
 511:led_manager.c **** 	
 2205              		.loc 1 511 0
 2206 0084 606D     		ldr	r0, [r4, #84]
 2207 0086 FFF7FEFF 		bl	d22_write
 2208              	.LVL324:
 513:led_manager.c **** 	arr[(i+5) % 22] = 1;
 2209              		.loc 1 513 0
 2210 008a 0023     		movs	r3, #0
 2211 008c 44F82530 		str	r3, [r4, r5, lsl #2]
 514:led_manager.c **** 	i++;
 2212              		.loc 1 514 0
 2213 0090 6A1D     		adds	r2, r5, #5
 2214 0092 084B     		ldr	r3, .L179
 2215 0094 83FB0231 		smull	r3, r1, r3, r2
 2216 0098 D317     		asrs	r3, r2, #31
 2217 009a C3EBA103 		rsb	r3, r3, r1, asr #2
 2218 009e 1621     		movs	r1, #22
 2219 00a0 01FB1323 		mls	r3, r1, r3, r2
 2220 00a4 0122     		movs	r2, #1
 2221 00a6 44F82320 		str	r2, [r4, r3, lsl #2]
 515:led_manager.c **** 	if(i > 21)
 2222              		.loc 1 515 0
 2223 00aa A818     		adds	r0, r5, r2
 2224              	.LVL325:
 516:led_manager.c **** 		i=0;
 2225              		.loc 1 516 0
 2226 00ac 1528     		cmp	r0, #21
 2227 00ae 00DD     		ble	.L176
 517:led_manager.c **** 	return i;
 2228              		.loc 1 517 0
 2229 00b0 0020     		movs	r0, #0
 2230              	.LVL326:
 2231              	.L176:
 519:led_manager.c **** 
 2232              		.loc 1 519 0
 2233 00b2 38BD     		pop	{r3, r4, r5, pc}
 2234              	.LVL327:
 2235              	.L180:
 2236              		.align	2
 2237              	.L179:
 2238 00b4 E9A28B2E 		.word	780903145
 2239              		.cfi_endproc
 2240              	.LFE77:
 2241              		.size	led_writetest, .-led_writetest
 2242              		.section	.text.b11_write,"ax",%progbits
 2243              		.align	2
 2244              		.global	b11_write
 2245              		.thumb
 2246              		.thumb_func
 2247              		.type	b11_write, %function
 2248              	b11_write:
 2249              	.LFB100:
 785:led_manager.c **** }
 786:led_manager.c **** 
 787:led_manager.c **** //side bars
 788:led_manager.c **** //left vertical bar
ARM GAS  D:\Windows\AppData\Local\Temp\cc9YXq6z.s 			page 57


 789:led_manager.c **** void b11_write(int bool) {
 2250              		.loc 1 789 0
 2251              		.cfi_startproc
 2252              		@ args = 0, pretend = 0, frame = 0
 2253              		@ frame_needed = 0, uses_anonymous_args = 0
 2254              	.LVL328:
 2255 0000 08B5     		push	{r3, lr}
 2256              		.cfi_def_cfa_offset 8
 2257              		.cfi_offset 3, -8
 2258              		.cfi_offset 14, -4
 2259              	.LVL329:
 790:led_manager.c **** 	uint8_t bit = 0x01;
 791:led_manager.c **** 	if(bool == 1) 	//led on
 2260              		.loc 1 791 0
 2261 0002 0128     		cmp	r0, #1
 2262 0004 07D1     		bne	.L182
 792:led_manager.c **** 		byte05_2 = byte05_2 | bit;
 2263              		.loc 1 792 0
 2264 0006 0F4A     		ldr	r2, .L185
 2265 0008 92F85C30 		ldrb	r3, [r2, #92]	@ zero_extendqisi2
 2266 000c 43F00103 		orr	r3, r3, #1
 2267 0010 82F85C30 		strb	r3, [r2, #92]
 2268 0014 06E0     		b	.L183
 2269              	.L182:
 793:led_manager.c **** 	else			//led off
 794:led_manager.c **** 		byte05_2 = byte05_2 & ~bit;
 2270              		.loc 1 794 0
 2271 0016 0B4A     		ldr	r2, .L185
 2272 0018 92F85C30 		ldrb	r3, [r2, #92]	@ zero_extendqisi2
 2273 001c 23F00103 		bic	r3, r3, #1
 2274 0020 82F85C30 		strb	r3, [r2, #92]
 2275              	.L183:
 795:led_manager.c **** 	
 796:led_manager.c **** 	LED_Driver2_MasterSendStart(LED_ADDR, 0);	// 0 = send write command, 1 = send read command
 2276              		.loc 1 796 0
 2277 0024 4020     		movs	r0, #64
 2278              	.LVL330:
 2279 0026 0021     		movs	r1, #0
 2280 0028 FFF7FEFF 		bl	LED_Driver2_MasterSendStart
 2281              	.LVL331:
 797:led_manager.c **** 	LED_Driver2_MasterWriteByte(LED05);		//move to LED addr
 2282              		.loc 1 797 0
 2283 002c 0520     		movs	r0, #5
 2284 002e FFF7FEFF 		bl	LED_Driver2_MasterWriteByte
 2285              	.LVL332:
 798:led_manager.c **** 	LED_Driver2_MasterWriteByte(byte05_2);	//write byte to addr
 2286              		.loc 1 798 0
 2287 0032 044B     		ldr	r3, .L185
 2288 0034 93F85C00 		ldrb	r0, [r3, #92]	@ zero_extendqisi2
 2289 0038 FFF7FEFF 		bl	LED_Driver2_MasterWriteByte
 2290              	.LVL333:
 799:led_manager.c **** 	LED_Driver2_MasterSendStop();
 2291              		.loc 1 799 0
 2292 003c FFF7FEFF 		bl	LED_Driver2_MasterSendStop
 2293              	.LVL334:
 2294 0040 08BD     		pop	{r3, pc}
 2295              	.L186:
ARM GAS  D:\Windows\AppData\Local\Temp\cc9YXq6z.s 			page 58


 2296 0042 00BF     		.align	2
 2297              	.L185:
 2298 0044 00000000 		.word	.LANCHOR0
 2299              		.cfi_endproc
 2300              	.LFE100:
 2301              		.size	b11_write, .-b11_write
 2302              		.section	.text.b12_write,"ax",%progbits
 2303              		.align	2
 2304              		.global	b12_write
 2305              		.thumb
 2306              		.thumb_func
 2307              		.type	b12_write, %function
 2308              	b12_write:
 2309              	.LFB101:
 800:led_manager.c **** }
 801:led_manager.c **** void b12_write(int bool) {
 2310              		.loc 1 801 0
 2311              		.cfi_startproc
 2312              		@ args = 0, pretend = 0, frame = 0
 2313              		@ frame_needed = 0, uses_anonymous_args = 0
 2314              	.LVL335:
 2315 0000 08B5     		push	{r3, lr}
 2316              		.cfi_def_cfa_offset 8
 2317              		.cfi_offset 3, -8
 2318              		.cfi_offset 14, -4
 2319              	.LVL336:
 802:led_manager.c **** 	uint8_t bit = 0x10;
 803:led_manager.c **** 	if(bool == 1) 	//led on
 2320              		.loc 1 803 0
 2321 0002 0128     		cmp	r0, #1
 2322 0004 07D1     		bne	.L188
 804:led_manager.c **** 		byte05_2 = byte05_2 | bit;
 2323              		.loc 1 804 0
 2324 0006 0F4A     		ldr	r2, .L191
 2325 0008 92F85C30 		ldrb	r3, [r2, #92]	@ zero_extendqisi2
 2326 000c 43F01003 		orr	r3, r3, #16
 2327 0010 82F85C30 		strb	r3, [r2, #92]
 2328 0014 06E0     		b	.L189
 2329              	.L188:
 805:led_manager.c **** 	else			//led off
 806:led_manager.c **** 		byte05_2 = byte05_2 & ~bit;
 2330              		.loc 1 806 0
 2331 0016 0B4A     		ldr	r2, .L191
 2332 0018 92F85C30 		ldrb	r3, [r2, #92]	@ zero_extendqisi2
 2333 001c 23F01003 		bic	r3, r3, #16
 2334 0020 82F85C30 		strb	r3, [r2, #92]
 2335              	.L189:
 807:led_manager.c **** 	
 808:led_manager.c **** 	LED_Driver2_MasterSendStart(LED_ADDR, 0);	
 2336              		.loc 1 808 0
 2337 0024 4020     		movs	r0, #64
 2338              	.LVL337:
 2339 0026 0021     		movs	r1, #0
 2340 0028 FFF7FEFF 		bl	LED_Driver2_MasterSendStart
 2341              	.LVL338:
 809:led_manager.c **** 	LED_Driver2_MasterWriteByte(LED05);		//move to LED addr
 2342              		.loc 1 809 0
ARM GAS  D:\Windows\AppData\Local\Temp\cc9YXq6z.s 			page 59


 2343 002c 0520     		movs	r0, #5
 2344 002e FFF7FEFF 		bl	LED_Driver2_MasterWriteByte
 2345              	.LVL339:
 810:led_manager.c **** 	LED_Driver2_MasterWriteByte(byte05_2);	//write byte to addr
 2346              		.loc 1 810 0
 2347 0032 044B     		ldr	r3, .L191
 2348 0034 93F85C00 		ldrb	r0, [r3, #92]	@ zero_extendqisi2
 2349 0038 FFF7FEFF 		bl	LED_Driver2_MasterWriteByte
 2350              	.LVL340:
 811:led_manager.c **** 	LED_Driver2_MasterSendStop();
 2351              		.loc 1 811 0
 2352 003c FFF7FEFF 		bl	LED_Driver2_MasterSendStop
 2353              	.LVL341:
 2354 0040 08BD     		pop	{r3, pc}
 2355              	.L192:
 2356 0042 00BF     		.align	2
 2357              	.L191:
 2358 0044 00000000 		.word	.LANCHOR0
 2359              		.cfi_endproc
 2360              	.LFE101:
 2361              		.size	b12_write, .-b12_write
 2362              		.section	.text.b13_write,"ax",%progbits
 2363              		.align	2
 2364              		.global	b13_write
 2365              		.thumb
 2366              		.thumb_func
 2367              		.type	b13_write, %function
 2368              	b13_write:
 2369              	.LFB102:
 812:led_manager.c **** }
 813:led_manager.c **** void b13_write(int bool) {
 2370              		.loc 1 813 0
 2371              		.cfi_startproc
 2372              		@ args = 0, pretend = 0, frame = 0
 2373              		@ frame_needed = 0, uses_anonymous_args = 0
 2374              	.LVL342:
 2375 0000 08B5     		push	{r3, lr}
 2376              		.cfi_def_cfa_offset 8
 2377              		.cfi_offset 3, -8
 2378              		.cfi_offset 14, -4
 2379              	.LVL343:
 814:led_manager.c **** 	uint8_t bit = 0x01;
 815:led_manager.c **** 	if(bool == 1) 	//led on
 2380              		.loc 1 815 0
 2381 0002 0128     		cmp	r0, #1
 2382 0004 07D1     		bne	.L194
 816:led_manager.c **** 		byte06_2 = byte06_2 | bit;
 2383              		.loc 1 816 0
 2384 0006 0F4A     		ldr	r2, .L197
 2385 0008 92F85D30 		ldrb	r3, [r2, #93]	@ zero_extendqisi2
 2386 000c 43F00103 		orr	r3, r3, #1
 2387 0010 82F85D30 		strb	r3, [r2, #93]
 2388 0014 06E0     		b	.L195
 2389              	.L194:
 817:led_manager.c **** 	else			//led off
 818:led_manager.c **** 		byte06_2 = byte06_2 & ~bit;
 2390              		.loc 1 818 0
ARM GAS  D:\Windows\AppData\Local\Temp\cc9YXq6z.s 			page 60


 2391 0016 0B4A     		ldr	r2, .L197
 2392 0018 92F85D30 		ldrb	r3, [r2, #93]	@ zero_extendqisi2
 2393 001c 23F00103 		bic	r3, r3, #1
 2394 0020 82F85D30 		strb	r3, [r2, #93]
 2395              	.L195:
 819:led_manager.c **** 	
 820:led_manager.c **** 	LED_Driver2_MasterSendStart(LED_ADDR, 0);
 2396              		.loc 1 820 0
 2397 0024 4020     		movs	r0, #64
 2398              	.LVL344:
 2399 0026 0021     		movs	r1, #0
 2400 0028 FFF7FEFF 		bl	LED_Driver2_MasterSendStart
 2401              	.LVL345:
 821:led_manager.c **** 	LED_Driver2_MasterWriteByte(LED06);		//move to LED addr
 2402              		.loc 1 821 0
 2403 002c 0620     		movs	r0, #6
 2404 002e FFF7FEFF 		bl	LED_Driver2_MasterWriteByte
 2405              	.LVL346:
 822:led_manager.c **** 	LED_Driver2_MasterWriteByte(byte06_2);	//write byte to addr
 2406              		.loc 1 822 0
 2407 0032 044B     		ldr	r3, .L197
 2408 0034 93F85D00 		ldrb	r0, [r3, #93]	@ zero_extendqisi2
 2409 0038 FFF7FEFF 		bl	LED_Driver2_MasterWriteByte
 2410              	.LVL347:
 823:led_manager.c **** 	LED_Driver2_MasterSendStop();
 2411              		.loc 1 823 0
 2412 003c FFF7FEFF 		bl	LED_Driver2_MasterSendStop
 2413              	.LVL348:
 2414 0040 08BD     		pop	{r3, pc}
 2415              	.L198:
 2416 0042 00BF     		.align	2
 2417              	.L197:
 2418 0044 00000000 		.word	.LANCHOR0
 2419              		.cfi_endproc
 2420              	.LFE102:
 2421              		.size	b13_write, .-b13_write
 2422              		.section	.text.b14_write,"ax",%progbits
 2423              		.align	2
 2424              		.global	b14_write
 2425              		.thumb
 2426              		.thumb_func
 2427              		.type	b14_write, %function
 2428              	b14_write:
 2429              	.LFB103:
 824:led_manager.c **** }
 825:led_manager.c **** void b14_write(int bool) {
 2430              		.loc 1 825 0
 2431              		.cfi_startproc
 2432              		@ args = 0, pretend = 0, frame = 0
 2433              		@ frame_needed = 0, uses_anonymous_args = 0
 2434              	.LVL349:
 2435 0000 08B5     		push	{r3, lr}
 2436              		.cfi_def_cfa_offset 8
 2437              		.cfi_offset 3, -8
 2438              		.cfi_offset 14, -4
 2439              	.LVL350:
 826:led_manager.c **** 	uint8_t bit = 0x10;
ARM GAS  D:\Windows\AppData\Local\Temp\cc9YXq6z.s 			page 61


 827:led_manager.c **** 	if(bool == 1) 	//led on
 2440              		.loc 1 827 0
 2441 0002 0128     		cmp	r0, #1
 2442 0004 07D1     		bne	.L200
 828:led_manager.c **** 		byte06_2 = byte06_2 | bit;
 2443              		.loc 1 828 0
 2444 0006 0F4A     		ldr	r2, .L203
 2445 0008 92F85D30 		ldrb	r3, [r2, #93]	@ zero_extendqisi2
 2446 000c 43F01003 		orr	r3, r3, #16
 2447 0010 82F85D30 		strb	r3, [r2, #93]
 2448 0014 06E0     		b	.L201
 2449              	.L200:
 829:led_manager.c **** 	else			//led off
 830:led_manager.c **** 		byte06_2 = byte06_2 & ~bit;
 2450              		.loc 1 830 0
 2451 0016 0B4A     		ldr	r2, .L203
 2452 0018 92F85D30 		ldrb	r3, [r2, #93]	@ zero_extendqisi2
 2453 001c 23F01003 		bic	r3, r3, #16
 2454 0020 82F85D30 		strb	r3, [r2, #93]
 2455              	.L201:
 831:led_manager.c **** 	
 832:led_manager.c **** 	LED_Driver2_MasterSendStart(LED_ADDR, 0);
 2456              		.loc 1 832 0
 2457 0024 4020     		movs	r0, #64
 2458              	.LVL351:
 2459 0026 0021     		movs	r1, #0
 2460 0028 FFF7FEFF 		bl	LED_Driver2_MasterSendStart
 2461              	.LVL352:
 833:led_manager.c **** 	LED_Driver2_MasterWriteByte(LED06);		//move to LED addr
 2462              		.loc 1 833 0
 2463 002c 0620     		movs	r0, #6
 2464 002e FFF7FEFF 		bl	LED_Driver2_MasterWriteByte
 2465              	.LVL353:
 834:led_manager.c **** 	LED_Driver2_MasterWriteByte(byte06_2);	//write byte to addr
 2466              		.loc 1 834 0
 2467 0032 044B     		ldr	r3, .L203
 2468 0034 93F85D00 		ldrb	r0, [r3, #93]	@ zero_extendqisi2
 2469 0038 FFF7FEFF 		bl	LED_Driver2_MasterWriteByte
 2470              	.LVL354:
 835:led_manager.c **** 	LED_Driver2_MasterSendStop();
 2471              		.loc 1 835 0
 2472 003c FFF7FEFF 		bl	LED_Driver2_MasterSendStop
 2473              	.LVL355:
 2474 0040 08BD     		pop	{r3, pc}
 2475              	.L204:
 2476 0042 00BF     		.align	2
 2477              	.L203:
 2478 0044 00000000 		.word	.LANCHOR0
 2479              		.cfi_endproc
 2480              	.LFE103:
 2481              		.size	b14_write, .-b14_write
 2482              		.section	.text.b15_write,"ax",%progbits
 2483              		.align	2
 2484              		.global	b15_write
 2485              		.thumb
 2486              		.thumb_func
 2487              		.type	b15_write, %function
ARM GAS  D:\Windows\AppData\Local\Temp\cc9YXq6z.s 			page 62


 2488              	b15_write:
 2489              	.LFB104:
 836:led_manager.c **** }
 837:led_manager.c **** void b15_write(int bool) {
 2490              		.loc 1 837 0
 2491              		.cfi_startproc
 2492              		@ args = 0, pretend = 0, frame = 0
 2493              		@ frame_needed = 0, uses_anonymous_args = 0
 2494              	.LVL356:
 2495 0000 08B5     		push	{r3, lr}
 2496              		.cfi_def_cfa_offset 8
 2497              		.cfi_offset 3, -8
 2498              		.cfi_offset 14, -4
 2499              	.LVL357:
 838:led_manager.c **** 	uint8_t bit = 0x01;
 839:led_manager.c **** 	if(bool == 1) 	//led on
 2500              		.loc 1 839 0
 2501 0002 0128     		cmp	r0, #1
 2502 0004 07D1     		bne	.L206
 840:led_manager.c **** 		byte07_2 = byte07_2 | bit;
 2503              		.loc 1 840 0
 2504 0006 0F4A     		ldr	r2, .L209
 2505 0008 92F85E30 		ldrb	r3, [r2, #94]	@ zero_extendqisi2
 2506 000c 43F00103 		orr	r3, r3, #1
 2507 0010 82F85E30 		strb	r3, [r2, #94]
 2508 0014 06E0     		b	.L207
 2509              	.L206:
 841:led_manager.c **** 	else			//led off
 842:led_manager.c **** 		byte07_2 = byte07_2 & ~bit;
 2510              		.loc 1 842 0
 2511 0016 0B4A     		ldr	r2, .L209
 2512 0018 92F85E30 		ldrb	r3, [r2, #94]	@ zero_extendqisi2
 2513 001c 23F00103 		bic	r3, r3, #1
 2514 0020 82F85E30 		strb	r3, [r2, #94]
 2515              	.L207:
 843:led_manager.c **** 	
 844:led_manager.c **** 	LED_Driver2_MasterSendStart(LED_ADDR, 0);
 2516              		.loc 1 844 0
 2517 0024 4020     		movs	r0, #64
 2518              	.LVL358:
 2519 0026 0021     		movs	r1, #0
 2520 0028 FFF7FEFF 		bl	LED_Driver2_MasterSendStart
 2521              	.LVL359:
 845:led_manager.c **** 	LED_Driver2_MasterWriteByte(LED07);		//move to LED addr
 2522              		.loc 1 845 0
 2523 002c 0720     		movs	r0, #7
 2524 002e FFF7FEFF 		bl	LED_Driver2_MasterWriteByte
 2525              	.LVL360:
 846:led_manager.c **** 	LED_Driver2_MasterWriteByte(byte07_2);	//write byte to addr
 2526              		.loc 1 846 0
 2527 0032 044B     		ldr	r3, .L209
 2528 0034 93F85E00 		ldrb	r0, [r3, #94]	@ zero_extendqisi2
 2529 0038 FFF7FEFF 		bl	LED_Driver2_MasterWriteByte
 2530              	.LVL361:
 847:led_manager.c **** 	LED_Driver2_MasterSendStop();
 2531              		.loc 1 847 0
 2532 003c FFF7FEFF 		bl	LED_Driver2_MasterSendStop
ARM GAS  D:\Windows\AppData\Local\Temp\cc9YXq6z.s 			page 63


 2533              	.LVL362:
 2534 0040 08BD     		pop	{r3, pc}
 2535              	.L210:
 2536 0042 00BF     		.align	2
 2537              	.L209:
 2538 0044 00000000 		.word	.LANCHOR0
 2539              		.cfi_endproc
 2540              	.LFE104:
 2541              		.size	b15_write, .-b15_write
 2542              		.section	.text.b1_crit_isr,"ax",%progbits
 2543              		.align	2
 2544              		.global	b1_crit_isr
 2545              		.thumb
 2546              		.thumb_func
 2547              		.type	b1_crit_isr, %function
 2548              	b1_crit_isr:
 2549              	.LFB63:
  41:led_manager.c **** 	b1_crit_led = b1_crit_led == 0 ? 1:0;
 2550              		.loc 1 41 0
 2551              		.cfi_startproc
 2552              		@ args = 0, pretend = 0, frame = 0
 2553              		@ frame_needed = 0, uses_anonymous_args = 0
 2554 0000 10B5     		push	{r4, lr}
 2555              		.cfi_def_cfa_offset 8
 2556              		.cfi_offset 4, -8
 2557              		.cfi_offset 14, -4
  42:led_manager.c **** 	b11_write(b1_crit_led);
 2558              		.loc 1 42 0
 2559 0002 0A4C     		ldr	r4, .L213
 2560 0004 206E     		ldr	r0, [r4, #96]
 2561 0006 B0FA80F0 		clz	r0, r0
 2562 000a 4009     		lsrs	r0, r0, #5
 2563 000c 2066     		str	r0, [r4, #96]
  43:led_manager.c **** 	b12_write(b1_crit_led);
 2564              		.loc 1 43 0
 2565 000e FFF7FEFF 		bl	b11_write
 2566              	.LVL363:
  44:led_manager.c **** 	b13_write(b1_crit_led);
 2567              		.loc 1 44 0
 2568 0012 206E     		ldr	r0, [r4, #96]
 2569 0014 FFF7FEFF 		bl	b12_write
 2570              	.LVL364:
  45:led_manager.c **** 	b14_write(b1_crit_led);
 2571              		.loc 1 45 0
 2572 0018 206E     		ldr	r0, [r4, #96]
 2573 001a FFF7FEFF 		bl	b13_write
 2574              	.LVL365:
  46:led_manager.c **** 	b15_write(b1_crit_led);
 2575              		.loc 1 46 0
 2576 001e 206E     		ldr	r0, [r4, #96]
 2577 0020 FFF7FEFF 		bl	b14_write
 2578              	.LVL366:
  47:led_manager.c **** 
 2579              		.loc 1 47 0
 2580 0024 206E     		ldr	r0, [r4, #96]
 2581 0026 FFF7FEFF 		bl	b15_write
 2582              	.LVL367:
ARM GAS  D:\Windows\AppData\Local\Temp\cc9YXq6z.s 			page 64


 2583 002a 10BD     		pop	{r4, pc}
 2584              	.L214:
 2585              		.align	2
 2586              	.L213:
 2587 002c 00000000 		.word	.LANCHOR0
 2588              		.cfi_endproc
 2589              	.LFE63:
 2590              		.size	b1_crit_isr, .-b1_crit_isr
 2591              		.section	.text.led_write_b1,"ax",%progbits
 2592              		.align	2
 2593              		.global	led_write_b1
 2594              		.thumb
 2595              		.thumb_func
 2596              		.type	led_write_b1, %function
 2597              	led_write_b1:
 2598              	.LFB69:
 208:led_manager.c **** 	int steps = 0;
 2599              		.loc 1 208 0
 2600              		.cfi_startproc
 2601              		@ args = 0, pretend = 0, frame = 0
 2602              		@ frame_needed = 0, uses_anonymous_args = 0
 2603              	.LVL368:
 2604 0000 10B5     		push	{r4, lr}
 2605              		.cfi_def_cfa_offset 8
 2606              		.cfi_offset 4, -8
 2607              		.cfi_offset 14, -4
 2608              	.LVL369:
 210:led_manager.c **** 		steps = 1;
 2609              		.loc 1 210 0
 2610 0002 4028     		cmp	r0, #64
 2611 0004 1FD9     		bls	.L222
 212:led_manager.c **** 		steps = 2;
 2612              		.loc 1 212 0
 2613 0006 A0F14103 		sub	r3, r0, #65
 2614 000a DBB2     		uxtb	r3, r3
 2615 000c 042B     		cmp	r3, #4
 2616 000e 1CD9     		bls	.L223
 214:led_manager.c **** 		steps = 3;
 2617              		.loc 1 214 0
 2618 0010 A0F14603 		sub	r3, r0, #70
 2619 0014 DBB2     		uxtb	r3, r3
 2620 0016 0A2B     		cmp	r3, #10
 2621 0018 19D9     		bls	.L224
 216:led_manager.c **** 		steps = 4;
 2622              		.loc 1 216 0
 2623 001a A0F15103 		sub	r3, r0, #81
 2624 001e DBB2     		uxtb	r3, r3
 2625 0020 042B     		cmp	r3, #4
 2626 0022 16D9     		bls	.L225
 218:led_manager.c **** 		steps = 5;
 2627              		.loc 1 218 0
 2628 0024 5638     		subs	r0, r0, #86
 2629              	.LVL370:
 2630 0026 C0B2     		uxtb	r0, r0
 2631 0028 0928     		cmp	r0, #9
 2632 002a 14D9     		bls	.L226
 221:led_manager.c **** 			b1_critical_timer_Start();
ARM GAS  D:\Windows\AppData\Local\Temp\cc9YXq6z.s 			page 65


 2633              		.loc 1 221 0
 2634 002c 1F4B     		ldr	r3, .L230
 2635 002e 5B6E     		ldr	r3, [r3, #100]
 2636 0030 9BB9     		cbnz	r3, .L227
 222:led_manager.c **** 			b1_crit_int_StartEx(b1_crit_isr);
 2637              		.loc 1 222 0
 2638 0032 FFF7FEFF 		bl	b1_critical_timer_Start
 2639              	.LVL371:
 223:led_manager.c **** 			b1_critical = 1;
 2640              		.loc 1 223 0
 2641 0036 1E48     		ldr	r0, .L230+4
 2642 0038 FFF7FEFF 		bl	b1_crit_int_StartEx
 2643              	.LVL372:
 224:led_manager.c **** 		} //if
 2644              		.loc 1 224 0
 2645 003c 0122     		movs	r2, #1
 2646 003e 1B4B     		ldr	r3, .L230
 2647 0040 5A66     		str	r2, [r3, #100]
 209:led_manager.c **** 	if (BMS_TEMP <= 0x40)
 2648              		.loc 1 209 0
 2649 0042 0023     		movs	r3, #0
 2650 0044 0AE0     		b	.L216
 2651              	.LVL373:
 2652              	.L222:
 211:led_manager.c **** 	else if (BMS_TEMP > 0x40 && BMS_TEMP <= 0x45)
 2653              		.loc 1 211 0
 2654 0046 0123     		movs	r3, #1
 2655 0048 08E0     		b	.L216
 2656              	.L223:
 213:led_manager.c **** 	else if (BMS_TEMP > 0x45 && BMS_TEMP <= 0x50)
 2657              		.loc 1 213 0
 2658 004a 0223     		movs	r3, #2
 2659 004c 06E0     		b	.L216
 2660              	.L224:
 215:led_manager.c **** 	else if (BMS_TEMP > 0x50 && BMS_TEMP <= 0x55)
 2661              		.loc 1 215 0
 2662 004e 0323     		movs	r3, #3
 2663 0050 04E0     		b	.L216
 2664              	.L225:
 217:led_manager.c **** 	else if (BMS_TEMP > 0x55 && BMS_TEMP < 0x60)
 2665              		.loc 1 217 0
 2666 0052 0423     		movs	r3, #4
 2667 0054 02E0     		b	.L216
 2668              	.LVL374:
 2669              	.L226:
 219:led_manager.c **** 	else {	//(BMS_TEMP >= 60)
 2670              		.loc 1 219 0
 2671 0056 0523     		movs	r3, #5
 2672 0058 00E0     		b	.L216
 2673              	.L227:
 209:led_manager.c **** 	if (BMS_TEMP <= 0x40)
 2674              		.loc 1 209 0
 2675 005a 0023     		movs	r3, #0
 2676              	.L216:
 2677              	.LVL375:
 228:led_manager.c **** 		int i;
 2678              		.loc 1 228 0
ARM GAS  D:\Windows\AppData\Local\Temp\cc9YXq6z.s 			page 66


 2679 005c 134A     		ldr	r2, .L230
 2680 005e 526E     		ldr	r2, [r2, #100]
 2681 0060 3AB1     		cbz	r2, .L228
 2682 0062 10BD     		pop	{r4, pc}
 2683              	.LVL376:
 2684              	.L219:
 2685              	.LBB2:
 231:led_manager.c **** 		for(i=steps; i<5; i++)
 2686              		.loc 1 231 0 discriminator 3
 2687 0064 1149     		ldr	r1, .L230
 2688 0066 01EB8201 		add	r1, r1, r2, lsl #2
 2689 006a 0120     		movs	r0, #1
 2690 006c 8866     		str	r0, [r1, #104]
 230:led_manager.c **** 			b1_arr[i] = 1;	//on leds
 2691              		.loc 1 230 0 discriminator 3
 2692 006e 0244     		add	r2, r2, r0
 2693              	.LVL377:
 2694 0070 00E0     		b	.L217
 2695              	.LVL378:
 2696              	.L228:
 2697              	.LBE2:
 2698 0072 0022     		movs	r2, #0
 2699              	.L217:
 2700              	.LVL379:
 2701              	.LBB3:
 230:led_manager.c **** 			b1_arr[i] = 1;	//on leds
 2702              		.loc 1 230 0 is_stmt 0 discriminator 1
 2703 0074 9A42     		cmp	r2, r3
 2704 0076 F5DB     		blt	.L219
 2705 0078 05E0     		b	.L220
 2706              	.LVL380:
 2707              	.L221:
 233:led_manager.c **** 		
 2708              		.loc 1 233 0 is_stmt 1 discriminator 3
 2709 007a 0C4A     		ldr	r2, .L230
 2710 007c 02EB8302 		add	r2, r2, r3, lsl #2
 2711 0080 0021     		movs	r1, #0
 2712 0082 9166     		str	r1, [r2, #104]
 232:led_manager.c **** 			b1_arr[i] = 0;	//off leds
 2713              		.loc 1 232 0 discriminator 3
 2714 0084 0133     		adds	r3, r3, #1
 2715              	.LVL381:
 2716              	.L220:
 232:led_manager.c **** 			b1_arr[i] = 0;	//off leds
 2717              		.loc 1 232 0 is_stmt 0 discriminator 1
 2718 0086 042B     		cmp	r3, #4
 2719 0088 F7DD     		ble	.L221
 235:led_manager.c **** 		b12_write(b1_arr[1]);
 2720              		.loc 1 235 0 is_stmt 1
 2721 008a 084C     		ldr	r4, .L230
 2722 008c A06E     		ldr	r0, [r4, #104]
 2723 008e FFF7FEFF 		bl	b11_write
 2724              	.LVL382:
 236:led_manager.c **** 		b13_write(b1_arr[2]);
 2725              		.loc 1 236 0
 2726 0092 E06E     		ldr	r0, [r4, #108]
 2727 0094 FFF7FEFF 		bl	b12_write
ARM GAS  D:\Windows\AppData\Local\Temp\cc9YXq6z.s 			page 67


 2728              	.LVL383:
 237:led_manager.c **** 		b14_write(b1_arr[3]);
 2729              		.loc 1 237 0
 2730 0098 206F     		ldr	r0, [r4, #112]
 2731 009a FFF7FEFF 		bl	b13_write
 2732              	.LVL384:
 238:led_manager.c **** 		b15_write(b1_arr[4]);
 2733              		.loc 1 238 0
 2734 009e 606F     		ldr	r0, [r4, #116]
 2735 00a0 FFF7FEFF 		bl	b14_write
 2736              	.LVL385:
 239:led_manager.c **** 	} //if
 2737              		.loc 1 239 0
 2738 00a4 A06F     		ldr	r0, [r4, #120]
 2739 00a6 FFF7FEFF 		bl	b15_write
 2740              	.LVL386:
 2741 00aa 10BD     		pop	{r4, pc}
 2742              	.L231:
 2743              		.align	2
 2744              	.L230:
 2745 00ac 00000000 		.word	.LANCHOR0
 2746 00b0 00000000 		.word	b1_crit_isr
 2747              	.LBE3:
 2748              		.cfi_endproc
 2749              	.LFE69:
 2750              		.size	led_write_b1, .-led_write_b1
 2751              		.section	.text.b21_write,"ax",%progbits
 2752              		.align	2
 2753              		.global	b21_write
 2754              		.thumb
 2755              		.thumb_func
 2756              		.type	b21_write, %function
 2757              	b21_write:
 2758              	.LFB105:
 848:led_manager.c **** }
 849:led_manager.c **** 
 850:led_manager.c **** //center vertical bar
 851:led_manager.c **** void b21_write(int bool) {
 2759              		.loc 1 851 0
 2760              		.cfi_startproc
 2761              		@ args = 0, pretend = 0, frame = 0
 2762              		@ frame_needed = 0, uses_anonymous_args = 0
 2763              	.LVL387:
 2764 0000 08B5     		push	{r3, lr}
 2765              		.cfi_def_cfa_offset 8
 2766              		.cfi_offset 3, -8
 2767              		.cfi_offset 14, -4
 2768              	.LVL388:
 852:led_manager.c **** 	uint8_t bit = 0x10;
 853:led_manager.c **** 	if(bool == 1) 	//led on
 2769              		.loc 1 853 0
 2770 0002 0128     		cmp	r0, #1
 2771 0004 07D1     		bne	.L233
 854:led_manager.c **** 		byte07_2 = byte07_2 | bit;
 2772              		.loc 1 854 0
 2773 0006 0F4A     		ldr	r2, .L236
 2774 0008 92F85E30 		ldrb	r3, [r2, #94]	@ zero_extendqisi2
ARM GAS  D:\Windows\AppData\Local\Temp\cc9YXq6z.s 			page 68


 2775 000c 43F01003 		orr	r3, r3, #16
 2776 0010 82F85E30 		strb	r3, [r2, #94]
 2777 0014 06E0     		b	.L234
 2778              	.L233:
 855:led_manager.c **** 	else			//led off
 856:led_manager.c **** 		byte07_2 = byte07_2 & ~bit;
 2779              		.loc 1 856 0
 2780 0016 0B4A     		ldr	r2, .L236
 2781 0018 92F85E30 		ldrb	r3, [r2, #94]	@ zero_extendqisi2
 2782 001c 23F01003 		bic	r3, r3, #16
 2783 0020 82F85E30 		strb	r3, [r2, #94]
 2784              	.L234:
 857:led_manager.c **** 	
 858:led_manager.c **** 	LED_Driver2_MasterSendStart(LED_ADDR, 0);
 2785              		.loc 1 858 0
 2786 0024 4020     		movs	r0, #64
 2787              	.LVL389:
 2788 0026 0021     		movs	r1, #0
 2789 0028 FFF7FEFF 		bl	LED_Driver2_MasterSendStart
 2790              	.LVL390:
 859:led_manager.c **** 	LED_Driver2_MasterWriteByte(LED07);		//move to LED addr
 2791              		.loc 1 859 0
 2792 002c 0720     		movs	r0, #7
 2793 002e FFF7FEFF 		bl	LED_Driver2_MasterWriteByte
 2794              	.LVL391:
 860:led_manager.c **** 	LED_Driver2_MasterWriteByte(byte07_2);	//write byte to addr
 2795              		.loc 1 860 0
 2796 0032 044B     		ldr	r3, .L236
 2797 0034 93F85E00 		ldrb	r0, [r3, #94]	@ zero_extendqisi2
 2798 0038 FFF7FEFF 		bl	LED_Driver2_MasterWriteByte
 2799              	.LVL392:
 861:led_manager.c **** 	LED_Driver2_MasterSendStop();
 2800              		.loc 1 861 0
 2801 003c FFF7FEFF 		bl	LED_Driver2_MasterSendStop
 2802              	.LVL393:
 2803 0040 08BD     		pop	{r3, pc}
 2804              	.L237:
 2805 0042 00BF     		.align	2
 2806              	.L236:
 2807 0044 00000000 		.word	.LANCHOR0
 2808              		.cfi_endproc
 2809              	.LFE105:
 2810              		.size	b21_write, .-b21_write
 2811              		.section	.text.b22_write,"ax",%progbits
 2812              		.align	2
 2813              		.global	b22_write
 2814              		.thumb
 2815              		.thumb_func
 2816              		.type	b22_write, %function
 2817              	b22_write:
 2818              	.LFB106:
 862:led_manager.c **** }
 863:led_manager.c **** void b22_write(int bool) {
 2819              		.loc 1 863 0
 2820              		.cfi_startproc
 2821              		@ args = 0, pretend = 0, frame = 0
 2822              		@ frame_needed = 0, uses_anonymous_args = 0
ARM GAS  D:\Windows\AppData\Local\Temp\cc9YXq6z.s 			page 69


 2823              	.LVL394:
 2824 0000 08B5     		push	{r3, lr}
 2825              		.cfi_def_cfa_offset 8
 2826              		.cfi_offset 3, -8
 2827              		.cfi_offset 14, -4
 2828              	.LVL395:
 864:led_manager.c **** 	uint8_t bit = 0x01;
 865:led_manager.c **** 	if(bool == 1) 	//led on
 2829              		.loc 1 865 0
 2830 0002 0128     		cmp	r0, #1
 2831 0004 07D1     		bne	.L239
 866:led_manager.c **** 		byte08_2 = byte08_2 | bit;
 2832              		.loc 1 866 0
 2833 0006 0F4A     		ldr	r2, .L242
 2834 0008 92F87C30 		ldrb	r3, [r2, #124]	@ zero_extendqisi2
 2835 000c 43F00103 		orr	r3, r3, #1
 2836 0010 82F87C30 		strb	r3, [r2, #124]
 2837 0014 06E0     		b	.L240
 2838              	.L239:
 867:led_manager.c **** 	else			//led off
 868:led_manager.c **** 		byte08_2 = byte08_2 & ~bit;
 2839              		.loc 1 868 0
 2840 0016 0B4A     		ldr	r2, .L242
 2841 0018 92F87C30 		ldrb	r3, [r2, #124]	@ zero_extendqisi2
 2842 001c 23F00103 		bic	r3, r3, #1
 2843 0020 82F87C30 		strb	r3, [r2, #124]
 2844              	.L240:
 869:led_manager.c **** 	
 870:led_manager.c **** 	LED_Driver2_MasterSendStart(LED_ADDR, 0);
 2845              		.loc 1 870 0
 2846 0024 4020     		movs	r0, #64
 2847              	.LVL396:
 2848 0026 0021     		movs	r1, #0
 2849 0028 FFF7FEFF 		bl	LED_Driver2_MasterSendStart
 2850              	.LVL397:
 871:led_manager.c **** 	LED_Driver2_MasterWriteByte(LED08);		//move to LED addr
 2851              		.loc 1 871 0
 2852 002c 0820     		movs	r0, #8
 2853 002e FFF7FEFF 		bl	LED_Driver2_MasterWriteByte
 2854              	.LVL398:
 872:led_manager.c **** 	LED_Driver2_MasterWriteByte(byte08_2);	//write byte to addr
 2855              		.loc 1 872 0
 2856 0032 044B     		ldr	r3, .L242
 2857 0034 93F87C00 		ldrb	r0, [r3, #124]	@ zero_extendqisi2
 2858 0038 FFF7FEFF 		bl	LED_Driver2_MasterWriteByte
 2859              	.LVL399:
 873:led_manager.c **** 	LED_Driver2_MasterSendStop();
 2860              		.loc 1 873 0
 2861 003c FFF7FEFF 		bl	LED_Driver2_MasterSendStop
 2862              	.LVL400:
 2863 0040 08BD     		pop	{r3, pc}
 2864              	.L243:
 2865 0042 00BF     		.align	2
 2866              	.L242:
 2867 0044 00000000 		.word	.LANCHOR0
 2868              		.cfi_endproc
 2869              	.LFE106:
ARM GAS  D:\Windows\AppData\Local\Temp\cc9YXq6z.s 			page 70


 2870              		.size	b22_write, .-b22_write
 2871              		.section	.text.b23_write,"ax",%progbits
 2872              		.align	2
 2873              		.global	b23_write
 2874              		.thumb
 2875              		.thumb_func
 2876              		.type	b23_write, %function
 2877              	b23_write:
 2878              	.LFB107:
 874:led_manager.c **** }
 875:led_manager.c **** void b23_write(int bool) {
 2879              		.loc 1 875 0
 2880              		.cfi_startproc
 2881              		@ args = 0, pretend = 0, frame = 0
 2882              		@ frame_needed = 0, uses_anonymous_args = 0
 2883              	.LVL401:
 2884 0000 08B5     		push	{r3, lr}
 2885              		.cfi_def_cfa_offset 8
 2886              		.cfi_offset 3, -8
 2887              		.cfi_offset 14, -4
 2888              	.LVL402:
 876:led_manager.c **** 	uint8_t bit = 0x10;
 877:led_manager.c **** 	if(bool == 1) 	//led on
 2889              		.loc 1 877 0
 2890 0002 0128     		cmp	r0, #1
 2891 0004 07D1     		bne	.L245
 878:led_manager.c **** 		byte08_2 = byte08_2 | bit;
 2892              		.loc 1 878 0
 2893 0006 0F4A     		ldr	r2, .L248
 2894 0008 92F87C30 		ldrb	r3, [r2, #124]	@ zero_extendqisi2
 2895 000c 43F01003 		orr	r3, r3, #16
 2896 0010 82F87C30 		strb	r3, [r2, #124]
 2897 0014 06E0     		b	.L246
 2898              	.L245:
 879:led_manager.c **** 	else			//led off
 880:led_manager.c **** 		byte08_2 = byte08_2 & ~bit;
 2899              		.loc 1 880 0
 2900 0016 0B4A     		ldr	r2, .L248
 2901 0018 92F87C30 		ldrb	r3, [r2, #124]	@ zero_extendqisi2
 2902 001c 23F01003 		bic	r3, r3, #16
 2903 0020 82F87C30 		strb	r3, [r2, #124]
 2904              	.L246:
 881:led_manager.c **** 	
 882:led_manager.c **** 	LED_Driver2_MasterSendStart(LED_ADDR, 0);
 2905              		.loc 1 882 0
 2906 0024 4020     		movs	r0, #64
 2907              	.LVL403:
 2908 0026 0021     		movs	r1, #0
 2909 0028 FFF7FEFF 		bl	LED_Driver2_MasterSendStart
 2910              	.LVL404:
 883:led_manager.c **** 	LED_Driver2_MasterWriteByte(LED08);		//move to LED addr
 2911              		.loc 1 883 0
 2912 002c 0820     		movs	r0, #8
 2913 002e FFF7FEFF 		bl	LED_Driver2_MasterWriteByte
 2914              	.LVL405:
 884:led_manager.c **** 	LED_Driver2_MasterWriteByte(byte08_2);	//write byte to addr
 2915              		.loc 1 884 0
ARM GAS  D:\Windows\AppData\Local\Temp\cc9YXq6z.s 			page 71


 2916 0032 044B     		ldr	r3, .L248
 2917 0034 93F87C00 		ldrb	r0, [r3, #124]	@ zero_extendqisi2
 2918 0038 FFF7FEFF 		bl	LED_Driver2_MasterWriteByte
 2919              	.LVL406:
 885:led_manager.c **** 	LED_Driver2_MasterSendStop();
 2920              		.loc 1 885 0
 2921 003c FFF7FEFF 		bl	LED_Driver2_MasterSendStop
 2922              	.LVL407:
 2923 0040 08BD     		pop	{r3, pc}
 2924              	.L249:
 2925 0042 00BF     		.align	2
 2926              	.L248:
 2927 0044 00000000 		.word	.LANCHOR0
 2928              		.cfi_endproc
 2929              	.LFE107:
 2930              		.size	b23_write, .-b23_write
 2931              		.section	.text.b24_write,"ax",%progbits
 2932              		.align	2
 2933              		.global	b24_write
 2934              		.thumb
 2935              		.thumb_func
 2936              		.type	b24_write, %function
 2937              	b24_write:
 2938              	.LFB108:
 886:led_manager.c **** }
 887:led_manager.c **** void b24_write(int bool) {
 2939              		.loc 1 887 0
 2940              		.cfi_startproc
 2941              		@ args = 0, pretend = 0, frame = 0
 2942              		@ frame_needed = 0, uses_anonymous_args = 0
 2943              	.LVL408:
 2944 0000 08B5     		push	{r3, lr}
 2945              		.cfi_def_cfa_offset 8
 2946              		.cfi_offset 3, -8
 2947              		.cfi_offset 14, -4
 2948              	.LVL409:
 888:led_manager.c **** 	uint8_t bit = 0x02;
 889:led_manager.c **** 	if(bool == 1) 	//led on
 2949              		.loc 1 889 0
 2950 0002 0128     		cmp	r0, #1
 2951 0004 07D1     		bne	.L251
 890:led_manager.c **** 		byte05_2 = byte05_2 | bit;
 2952              		.loc 1 890 0
 2953 0006 0F4A     		ldr	r2, .L254
 2954 0008 92F85C30 		ldrb	r3, [r2, #92]	@ zero_extendqisi2
 2955 000c 43F00203 		orr	r3, r3, #2
 2956 0010 82F85C30 		strb	r3, [r2, #92]
 2957 0014 06E0     		b	.L252
 2958              	.L251:
 891:led_manager.c **** 	else			//led off
 892:led_manager.c **** 		byte05_2 = byte05_2 & ~bit;
 2959              		.loc 1 892 0
 2960 0016 0B4A     		ldr	r2, .L254
 2961 0018 92F85C30 		ldrb	r3, [r2, #92]	@ zero_extendqisi2
 2962 001c 23F00203 		bic	r3, r3, #2
 2963 0020 82F85C30 		strb	r3, [r2, #92]
 2964              	.L252:
ARM GAS  D:\Windows\AppData\Local\Temp\cc9YXq6z.s 			page 72


 893:led_manager.c **** 	
 894:led_manager.c **** 	LED_Driver2_MasterSendStart(LED_ADDR, 0);	// 0 = send write command, 1 = send read command
 2965              		.loc 1 894 0
 2966 0024 4020     		movs	r0, #64
 2967              	.LVL410:
 2968 0026 0021     		movs	r1, #0
 2969 0028 FFF7FEFF 		bl	LED_Driver2_MasterSendStart
 2970              	.LVL411:
 895:led_manager.c **** 	LED_Driver2_MasterWriteByte(LED05);		//move to LED addr
 2971              		.loc 1 895 0
 2972 002c 0520     		movs	r0, #5
 2973 002e FFF7FEFF 		bl	LED_Driver2_MasterWriteByte
 2974              	.LVL412:
 896:led_manager.c **** 	LED_Driver2_MasterWriteByte(byte05_2);	//write byte to addr
 2975              		.loc 1 896 0
 2976 0032 044B     		ldr	r3, .L254
 2977 0034 93F85C00 		ldrb	r0, [r3, #92]	@ zero_extendqisi2
 2978 0038 FFF7FEFF 		bl	LED_Driver2_MasterWriteByte
 2979              	.LVL413:
 897:led_manager.c **** 	LED_Driver2_MasterSendStop();
 2980              		.loc 1 897 0
 2981 003c FFF7FEFF 		bl	LED_Driver2_MasterSendStop
 2982              	.LVL414:
 2983 0040 08BD     		pop	{r3, pc}
 2984              	.L255:
 2985 0042 00BF     		.align	2
 2986              	.L254:
 2987 0044 00000000 		.word	.LANCHOR0
 2988              		.cfi_endproc
 2989              	.LFE108:
 2990              		.size	b24_write, .-b24_write
 2991              		.section	.text.b25_write,"ax",%progbits
 2992              		.align	2
 2993              		.global	b25_write
 2994              		.thumb
 2995              		.thumb_func
 2996              		.type	b25_write, %function
 2997              	b25_write:
 2998              	.LFB109:
 898:led_manager.c **** }
 899:led_manager.c **** void b25_write(int bool) {
 2999              		.loc 1 899 0
 3000              		.cfi_startproc
 3001              		@ args = 0, pretend = 0, frame = 0
 3002              		@ frame_needed = 0, uses_anonymous_args = 0
 3003              	.LVL415:
 3004 0000 08B5     		push	{r3, lr}
 3005              		.cfi_def_cfa_offset 8
 3006              		.cfi_offset 3, -8
 3007              		.cfi_offset 14, -4
 3008              	.LVL416:
 900:led_manager.c **** 	uint8_t bit = 0x20;
 901:led_manager.c **** 	if(bool == 1) 	//led on
 3009              		.loc 1 901 0
 3010 0002 0128     		cmp	r0, #1
 3011 0004 07D1     		bne	.L257
 902:led_manager.c **** 		byte05_2 = byte05_2 | bit;
ARM GAS  D:\Windows\AppData\Local\Temp\cc9YXq6z.s 			page 73


 3012              		.loc 1 902 0
 3013 0006 0F4A     		ldr	r2, .L260
 3014 0008 92F85C30 		ldrb	r3, [r2, #92]	@ zero_extendqisi2
 3015 000c 43F02003 		orr	r3, r3, #32
 3016 0010 82F85C30 		strb	r3, [r2, #92]
 3017 0014 06E0     		b	.L258
 3018              	.L257:
 903:led_manager.c **** 	else			//led off
 904:led_manager.c **** 		byte05_2 = byte05_2 & ~bit;
 3019              		.loc 1 904 0
 3020 0016 0B4A     		ldr	r2, .L260
 3021 0018 92F85C30 		ldrb	r3, [r2, #92]	@ zero_extendqisi2
 3022 001c 23F02003 		bic	r3, r3, #32
 3023 0020 82F85C30 		strb	r3, [r2, #92]
 3024              	.L258:
 905:led_manager.c **** 	
 906:led_manager.c **** 	LED_Driver2_MasterSendStart(LED_ADDR, 0);	// 0 = send write command, 1 = send read command
 3025              		.loc 1 906 0
 3026 0024 4020     		movs	r0, #64
 3027              	.LVL417:
 3028 0026 0021     		movs	r1, #0
 3029 0028 FFF7FEFF 		bl	LED_Driver2_MasterSendStart
 3030              	.LVL418:
 907:led_manager.c **** 	LED_Driver2_MasterWriteByte(LED05);		//move to LED addr
 3031              		.loc 1 907 0
 3032 002c 0520     		movs	r0, #5
 3033 002e FFF7FEFF 		bl	LED_Driver2_MasterWriteByte
 3034              	.LVL419:
 908:led_manager.c **** 	LED_Driver2_MasterWriteByte(byte05_2);	//write byte to addr
 3035              		.loc 1 908 0
 3036 0032 044B     		ldr	r3, .L260
 3037 0034 93F85C00 		ldrb	r0, [r3, #92]	@ zero_extendqisi2
 3038 0038 FFF7FEFF 		bl	LED_Driver2_MasterWriteByte
 3039              	.LVL420:
 909:led_manager.c **** 	LED_Driver2_MasterSendStop();
 3040              		.loc 1 909 0
 3041 003c FFF7FEFF 		bl	LED_Driver2_MasterSendStop
 3042              	.LVL421:
 3043 0040 08BD     		pop	{r3, pc}
 3044              	.L261:
 3045 0042 00BF     		.align	2
 3046              	.L260:
 3047 0044 00000000 		.word	.LANCHOR0
 3048              		.cfi_endproc
 3049              	.LFE109:
 3050              		.size	b25_write, .-b25_write
 3051              		.section	.text.b2_crit_isr,"ax",%progbits
 3052              		.align	2
 3053              		.global	b2_crit_isr
 3054              		.thumb
 3055              		.thumb_func
 3056              		.type	b2_crit_isr, %function
 3057              	b2_crit_isr:
 3058              	.LFB64:
  50:led_manager.c **** 	b2_crit_led = b2_crit_led == 0 ? 1:0;
 3059              		.loc 1 50 0
 3060              		.cfi_startproc
ARM GAS  D:\Windows\AppData\Local\Temp\cc9YXq6z.s 			page 74


 3061              		@ args = 0, pretend = 0, frame = 0
 3062              		@ frame_needed = 0, uses_anonymous_args = 0
 3063 0000 10B5     		push	{r4, lr}
 3064              		.cfi_def_cfa_offset 8
 3065              		.cfi_offset 4, -8
 3066              		.cfi_offset 14, -4
  51:led_manager.c **** 	b21_write(b2_crit_led);
 3067              		.loc 1 51 0
 3068 0002 0D4C     		ldr	r4, .L264
 3069 0004 D4F88000 		ldr	r0, [r4, #128]
 3070 0008 B0FA80F0 		clz	r0, r0
 3071 000c 4009     		lsrs	r0, r0, #5
 3072 000e C4F88000 		str	r0, [r4, #128]
  52:led_manager.c **** 	b22_write(b2_crit_led);
 3073              		.loc 1 52 0
 3074 0012 FFF7FEFF 		bl	b21_write
 3075              	.LVL422:
  53:led_manager.c **** 	b23_write(b2_crit_led);
 3076              		.loc 1 53 0
 3077 0016 D4F88000 		ldr	r0, [r4, #128]
 3078 001a FFF7FEFF 		bl	b22_write
 3079              	.LVL423:
  54:led_manager.c **** 	b24_write(b2_crit_led);
 3080              		.loc 1 54 0
 3081 001e D4F88000 		ldr	r0, [r4, #128]
 3082 0022 FFF7FEFF 		bl	b23_write
 3083              	.LVL424:
  55:led_manager.c **** 	b25_write(b2_crit_led);
 3084              		.loc 1 55 0
 3085 0026 D4F88000 		ldr	r0, [r4, #128]
 3086 002a FFF7FEFF 		bl	b24_write
 3087              	.LVL425:
  56:led_manager.c **** 
 3088              		.loc 1 56 0
 3089 002e D4F88000 		ldr	r0, [r4, #128]
 3090 0032 FFF7FEFF 		bl	b25_write
 3091              	.LVL426:
 3092 0036 10BD     		pop	{r4, pc}
 3093              	.L265:
 3094              		.align	2
 3095              	.L264:
 3096 0038 00000000 		.word	.LANCHOR0
 3097              		.cfi_endproc
 3098              	.LFE64:
 3099              		.size	b2_crit_isr, .-b2_crit_isr
 3100              		.section	.text.led_write_b2,"ax",%progbits
 3101              		.align	2
 3102              		.global	led_write_b2
 3103              		.thumb
 3104              		.thumb_func
 3105              		.type	led_write_b2, %function
 3106              	led_write_b2:
 3107              	.LFB70:
 243:led_manager.c **** 	int steps = 0;
 3108              		.loc 1 243 0
 3109              		.cfi_startproc
 3110              		@ args = 0, pretend = 0, frame = 0
ARM GAS  D:\Windows\AppData\Local\Temp\cc9YXq6z.s 			page 75


 3111              		@ frame_needed = 0, uses_anonymous_args = 0
 3112              	.LVL427:
 3113 0000 10B5     		push	{r4, lr}
 3114              		.cfi_def_cfa_offset 8
 3115              		.cfi_offset 4, -8
 3116              		.cfi_offset 14, -4
 3117              	.LVL428:
 245:led_manager.c **** 		steps = 1;
 3118              		.loc 1 245 0
 3119 0002 2828     		cmp	r0, #40
 3120 0004 21D9     		bls	.L273
 247:led_manager.c **** 		steps = 2;
 3121              		.loc 1 247 0
 3122 0006 A0F12903 		sub	r3, r0, #41
 3123 000a DBB2     		uxtb	r3, r3
 3124 000c 042B     		cmp	r3, #4
 3125 000e 1ED9     		bls	.L274
 249:led_manager.c **** 		steps = 3;
 3126              		.loc 1 249 0
 3127 0010 A0F12E03 		sub	r3, r0, #46
 3128 0014 DBB2     		uxtb	r3, r3
 3129 0016 042B     		cmp	r3, #4
 3130 0018 1BD9     		bls	.L275
 251:led_manager.c **** 		steps = 4;
 3131              		.loc 1 251 0
 3132 001a A0F13303 		sub	r3, r0, #51
 3133 001e DBB2     		uxtb	r3, r3
 3134 0020 042B     		cmp	r3, #4
 3135 0022 18D9     		bls	.L276
 253:led_manager.c **** 		steps = 5;
 3136              		.loc 1 253 0
 3137 0024 3838     		subs	r0, r0, #56
 3138              	.LVL429:
 3139 0026 C0B2     		uxtb	r0, r0
 3140 0028 0428     		cmp	r0, #4
 3141 002a 16D9     		bls	.L277
 256:led_manager.c **** 			b2_critical_timer_Start();
 3142              		.loc 1 256 0
 3143 002c 244B     		ldr	r3, .L281
 3144 002e D3F88430 		ldr	r3, [r3, #132]
 3145 0032 A3B9     		cbnz	r3, .L278
 257:led_manager.c **** 			b2_crit_int_StartEx(b2_crit_isr);
 3146              		.loc 1 257 0
 3147 0034 FFF7FEFF 		bl	b2_critical_timer_Start
 3148              	.LVL430:
 258:led_manager.c **** 			b2_critical = 1;
 3149              		.loc 1 258 0
 3150 0038 2248     		ldr	r0, .L281+4
 3151 003a FFF7FEFF 		bl	b2_crit_int_StartEx
 3152              	.LVL431:
 259:led_manager.c **** 		} //if
 3153              		.loc 1 259 0
 3154 003e 0122     		movs	r2, #1
 3155 0040 1F4B     		ldr	r3, .L281
 3156 0042 C3F88420 		str	r2, [r3, #132]
 244:led_manager.c **** 	if (MTR_TEMP <= 40)
 3157              		.loc 1 244 0
ARM GAS  D:\Windows\AppData\Local\Temp\cc9YXq6z.s 			page 76


 3158 0046 0023     		movs	r3, #0
 3159 0048 0AE0     		b	.L267
 3160              	.LVL432:
 3161              	.L273:
 246:led_manager.c **** 	else if (MTR_TEMP > 40 && MTR_TEMP <= 45)
 3162              		.loc 1 246 0
 3163 004a 0123     		movs	r3, #1
 3164 004c 08E0     		b	.L267
 3165              	.L274:
 248:led_manager.c **** 	else if (MTR_TEMP > 45 && MTR_TEMP <= 50)
 3166              		.loc 1 248 0
 3167 004e 0223     		movs	r3, #2
 3168 0050 06E0     		b	.L267
 3169              	.L275:
 250:led_manager.c **** 	else if (MTR_TEMP > 50 && MTR_TEMP <= 55)
 3170              		.loc 1 250 0
 3171 0052 0323     		movs	r3, #3
 3172 0054 04E0     		b	.L267
 3173              	.L276:
 252:led_manager.c **** 	else if (MTR_TEMP > 55 && MTR_TEMP <= 60)
 3174              		.loc 1 252 0
 3175 0056 0423     		movs	r3, #4
 3176 0058 02E0     		b	.L267
 3177              	.LVL433:
 3178              	.L277:
 254:led_manager.c **** 	else {	//(MTR_TEMP >= 60)
 3179              		.loc 1 254 0
 3180 005a 0523     		movs	r3, #5
 3181 005c 00E0     		b	.L267
 3182              	.L278:
 244:led_manager.c **** 	if (MTR_TEMP <= 40)
 3183              		.loc 1 244 0
 3184 005e 0023     		movs	r3, #0
 3185              	.L267:
 3186              	.LVL434:
 263:led_manager.c **** 		int i;
 3187              		.loc 1 263 0
 3188 0060 174A     		ldr	r2, .L281
 3189 0062 D2F88420 		ldr	r2, [r2, #132]
 3190 0066 42B1     		cbz	r2, .L279
 3191 0068 10BD     		pop	{r4, pc}
 3192              	.LVL435:
 3193              	.L270:
 3194              	.LBB4:
 266:led_manager.c **** 		for(i=steps; i<5; i++)
 3195              		.loc 1 266 0 discriminator 3
 3196 006a 1549     		ldr	r1, .L281
 3197 006c 01EB8201 		add	r1, r1, r2, lsl #2
 3198 0070 0120     		movs	r0, #1
 3199 0072 C1F88800 		str	r0, [r1, #136]
 265:led_manager.c **** 			b2_arr[i] = 1;	//on leds
 3200              		.loc 1 265 0 discriminator 3
 3201 0076 0244     		add	r2, r2, r0
 3202              	.LVL436:
 3203 0078 00E0     		b	.L268
 3204              	.LVL437:
 3205              	.L279:
ARM GAS  D:\Windows\AppData\Local\Temp\cc9YXq6z.s 			page 77


 3206              	.LBE4:
 3207 007a 0022     		movs	r2, #0
 3208              	.L268:
 3209              	.LVL438:
 3210              	.LBB5:
 265:led_manager.c **** 			b2_arr[i] = 1;	//on leds
 3211              		.loc 1 265 0 is_stmt 0 discriminator 1
 3212 007c 9A42     		cmp	r2, r3
 3213 007e F4DB     		blt	.L270
 3214 0080 06E0     		b	.L271
 3215              	.LVL439:
 3216              	.L272:
 268:led_manager.c **** 		
 3217              		.loc 1 268 0 is_stmt 1 discriminator 3
 3218 0082 0F4A     		ldr	r2, .L281
 3219 0084 02EB8302 		add	r2, r2, r3, lsl #2
 3220 0088 0021     		movs	r1, #0
 3221 008a C2F88810 		str	r1, [r2, #136]
 267:led_manager.c **** 			b2_arr[i] = 0;	//off leds
 3222              		.loc 1 267 0 discriminator 3
 3223 008e 0133     		adds	r3, r3, #1
 3224              	.LVL440:
 3225              	.L271:
 267:led_manager.c **** 			b2_arr[i] = 0;	//off leds
 3226              		.loc 1 267 0 is_stmt 0 discriminator 1
 3227 0090 042B     		cmp	r3, #4
 3228 0092 F6DD     		ble	.L272
 270:led_manager.c **** 		b22_write(b2_arr[1]);
 3229              		.loc 1 270 0 is_stmt 1
 3230 0094 0A4C     		ldr	r4, .L281
 3231 0096 D4F88800 		ldr	r0, [r4, #136]
 3232 009a FFF7FEFF 		bl	b21_write
 3233              	.LVL441:
 271:led_manager.c **** 		b23_write(b2_arr[2]);
 3234              		.loc 1 271 0
 3235 009e D4F88C00 		ldr	r0, [r4, #140]
 3236 00a2 FFF7FEFF 		bl	b22_write
 3237              	.LVL442:
 272:led_manager.c **** 		b24_write(b2_arr[3]);
 3238              		.loc 1 272 0
 3239 00a6 D4F89000 		ldr	r0, [r4, #144]
 3240 00aa FFF7FEFF 		bl	b23_write
 3241              	.LVL443:
 273:led_manager.c **** 		b25_write(b2_arr[4]);	
 3242              		.loc 1 273 0
 3243 00ae D4F89400 		ldr	r0, [r4, #148]
 3244 00b2 FFF7FEFF 		bl	b24_write
 3245              	.LVL444:
 274:led_manager.c **** 	} //if
 3246              		.loc 1 274 0
 3247 00b6 D4F89800 		ldr	r0, [r4, #152]
 3248 00ba FFF7FEFF 		bl	b25_write
 3249              	.LVL445:
 3250 00be 10BD     		pop	{r4, pc}
 3251              	.L282:
 3252              		.align	2
 3253              	.L281:
ARM GAS  D:\Windows\AppData\Local\Temp\cc9YXq6z.s 			page 78


 3254 00c0 00000000 		.word	.LANCHOR0
 3255 00c4 00000000 		.word	b2_crit_isr
 3256              	.LBE5:
 3257              		.cfi_endproc
 3258              	.LFE70:
 3259              		.size	led_write_b2, .-led_write_b2
 3260              		.section	.text.b31_write,"ax",%progbits
 3261              		.align	2
 3262              		.global	b31_write
 3263              		.thumb
 3264              		.thumb_func
 3265              		.type	b31_write, %function
 3266              	b31_write:
 3267              	.LFB110:
 910:led_manager.c **** }
 911:led_manager.c **** 
 912:led_manager.c **** //right bar
 913:led_manager.c **** void b31_write(int bool) {
 3268              		.loc 1 913 0
 3269              		.cfi_startproc
 3270              		@ args = 0, pretend = 0, frame = 0
 3271              		@ frame_needed = 0, uses_anonymous_args = 0
 3272              	.LVL446:
 3273 0000 08B5     		push	{r3, lr}
 3274              		.cfi_def_cfa_offset 8
 3275              		.cfi_offset 3, -8
 3276              		.cfi_offset 14, -4
 3277              	.LVL447:
 914:led_manager.c **** 	uint8_t bit = 0x02;
 915:led_manager.c **** 	if(bool == 1) 	//led on
 3278              		.loc 1 915 0
 3279 0002 0128     		cmp	r0, #1
 3280 0004 07D1     		bne	.L284
 916:led_manager.c **** 		byte06_2 = byte06_2 | bit;
 3281              		.loc 1 916 0
 3282 0006 0F4A     		ldr	r2, .L287
 3283 0008 92F85D30 		ldrb	r3, [r2, #93]	@ zero_extendqisi2
 3284 000c 43F00203 		orr	r3, r3, #2
 3285 0010 82F85D30 		strb	r3, [r2, #93]
 3286 0014 06E0     		b	.L285
 3287              	.L284:
 917:led_manager.c **** 	else			//led off
 918:led_manager.c **** 		byte06_2 = byte06_2 & ~bit;
 3288              		.loc 1 918 0
 3289 0016 0B4A     		ldr	r2, .L287
 3290 0018 92F85D30 		ldrb	r3, [r2, #93]	@ zero_extendqisi2
 3291 001c 23F00203 		bic	r3, r3, #2
 3292 0020 82F85D30 		strb	r3, [r2, #93]
 3293              	.L285:
 919:led_manager.c **** 	
 920:led_manager.c **** 	LED_Driver2_MasterSendStart(LED_ADDR, 0);
 3294              		.loc 1 920 0
 3295 0024 4020     		movs	r0, #64
 3296              	.LVL448:
 3297 0026 0021     		movs	r1, #0
 3298 0028 FFF7FEFF 		bl	LED_Driver2_MasterSendStart
 3299              	.LVL449:
ARM GAS  D:\Windows\AppData\Local\Temp\cc9YXq6z.s 			page 79


 921:led_manager.c **** 	LED_Driver2_MasterWriteByte(LED06);		//move to LED addr
 3300              		.loc 1 921 0
 3301 002c 0620     		movs	r0, #6
 3302 002e FFF7FEFF 		bl	LED_Driver2_MasterWriteByte
 3303              	.LVL450:
 922:led_manager.c **** 	LED_Driver2_MasterWriteByte(byte06_2);	//write byte to addr
 3304              		.loc 1 922 0
 3305 0032 044B     		ldr	r3, .L287
 3306 0034 93F85D00 		ldrb	r0, [r3, #93]	@ zero_extendqisi2
 3307 0038 FFF7FEFF 		bl	LED_Driver2_MasterWriteByte
 3308              	.LVL451:
 923:led_manager.c **** 	LED_Driver2_MasterSendStop();
 3309              		.loc 1 923 0
 3310 003c FFF7FEFF 		bl	LED_Driver2_MasterSendStop
 3311              	.LVL452:
 3312 0040 08BD     		pop	{r3, pc}
 3313              	.L288:
 3314 0042 00BF     		.align	2
 3315              	.L287:
 3316 0044 00000000 		.word	.LANCHOR0
 3317              		.cfi_endproc
 3318              	.LFE110:
 3319              		.size	b31_write, .-b31_write
 3320              		.section	.text.b32_write,"ax",%progbits
 3321              		.align	2
 3322              		.global	b32_write
 3323              		.thumb
 3324              		.thumb_func
 3325              		.type	b32_write, %function
 3326              	b32_write:
 3327              	.LFB111:
 924:led_manager.c **** }
 925:led_manager.c **** void b32_write(int bool) {
 3328              		.loc 1 925 0
 3329              		.cfi_startproc
 3330              		@ args = 0, pretend = 0, frame = 0
 3331              		@ frame_needed = 0, uses_anonymous_args = 0
 3332              	.LVL453:
 3333 0000 08B5     		push	{r3, lr}
 3334              		.cfi_def_cfa_offset 8
 3335              		.cfi_offset 3, -8
 3336              		.cfi_offset 14, -4
 3337              	.LVL454:
 926:led_manager.c **** 	uint8_t bit = 0x20;
 927:led_manager.c **** 	if(bool == 1) 	//led on
 3338              		.loc 1 927 0
 3339 0002 0128     		cmp	r0, #1
 3340 0004 07D1     		bne	.L290
 928:led_manager.c **** 		byte06_2 = byte06_2 | bit;
 3341              		.loc 1 928 0
 3342 0006 0F4A     		ldr	r2, .L293
 3343 0008 92F85D30 		ldrb	r3, [r2, #93]	@ zero_extendqisi2
 3344 000c 43F02003 		orr	r3, r3, #32
 3345 0010 82F85D30 		strb	r3, [r2, #93]
 3346 0014 06E0     		b	.L291
 3347              	.L290:
 929:led_manager.c **** 	else			//led off
ARM GAS  D:\Windows\AppData\Local\Temp\cc9YXq6z.s 			page 80


 930:led_manager.c **** 		byte06_2 = byte06_2 & ~bit;
 3348              		.loc 1 930 0
 3349 0016 0B4A     		ldr	r2, .L293
 3350 0018 92F85D30 		ldrb	r3, [r2, #93]	@ zero_extendqisi2
 3351 001c 23F02003 		bic	r3, r3, #32
 3352 0020 82F85D30 		strb	r3, [r2, #93]
 3353              	.L291:
 931:led_manager.c **** 	
 932:led_manager.c **** 	LED_Driver2_MasterSendStart(LED_ADDR, 0);
 3354              		.loc 1 932 0
 3355 0024 4020     		movs	r0, #64
 3356              	.LVL455:
 3357 0026 0021     		movs	r1, #0
 3358 0028 FFF7FEFF 		bl	LED_Driver2_MasterSendStart
 3359              	.LVL456:
 933:led_manager.c **** 	LED_Driver2_MasterWriteByte(LED06);		//move to LED addr
 3360              		.loc 1 933 0
 3361 002c 0620     		movs	r0, #6
 3362 002e FFF7FEFF 		bl	LED_Driver2_MasterWriteByte
 3363              	.LVL457:
 934:led_manager.c **** 	LED_Driver2_MasterWriteByte(byte06_2);	//write byte to addr
 3364              		.loc 1 934 0
 3365 0032 044B     		ldr	r3, .L293
 3366 0034 93F85D00 		ldrb	r0, [r3, #93]	@ zero_extendqisi2
 3367 0038 FFF7FEFF 		bl	LED_Driver2_MasterWriteByte
 3368              	.LVL458:
 935:led_manager.c **** 	LED_Driver2_MasterSendStop();
 3369              		.loc 1 935 0
 3370 003c FFF7FEFF 		bl	LED_Driver2_MasterSendStop
 3371              	.LVL459:
 3372 0040 08BD     		pop	{r3, pc}
 3373              	.L294:
 3374 0042 00BF     		.align	2
 3375              	.L293:
 3376 0044 00000000 		.word	.LANCHOR0
 3377              		.cfi_endproc
 3378              	.LFE111:
 3379              		.size	b32_write, .-b32_write
 3380              		.section	.text.b33_write,"ax",%progbits
 3381              		.align	2
 3382              		.global	b33_write
 3383              		.thumb
 3384              		.thumb_func
 3385              		.type	b33_write, %function
 3386              	b33_write:
 3387              	.LFB112:
 936:led_manager.c **** }
 937:led_manager.c **** void b33_write(int bool) {
 3388              		.loc 1 937 0
 3389              		.cfi_startproc
 3390              		@ args = 0, pretend = 0, frame = 0
 3391              		@ frame_needed = 0, uses_anonymous_args = 0
 3392              	.LVL460:
 3393 0000 08B5     		push	{r3, lr}
 3394              		.cfi_def_cfa_offset 8
 3395              		.cfi_offset 3, -8
 3396              		.cfi_offset 14, -4
ARM GAS  D:\Windows\AppData\Local\Temp\cc9YXq6z.s 			page 81


 3397              	.LVL461:
 938:led_manager.c **** 	uint8_t bit = 0x02;
 939:led_manager.c **** 	if(bool == 1) 	//led on
 3398              		.loc 1 939 0
 3399 0002 0128     		cmp	r0, #1
 3400 0004 07D1     		bne	.L296
 940:led_manager.c **** 		byte07_2 = byte07_2 | bit;
 3401              		.loc 1 940 0
 3402 0006 0F4A     		ldr	r2, .L299
 3403 0008 92F85E30 		ldrb	r3, [r2, #94]	@ zero_extendqisi2
 3404 000c 43F00203 		orr	r3, r3, #2
 3405 0010 82F85E30 		strb	r3, [r2, #94]
 3406 0014 06E0     		b	.L297
 3407              	.L296:
 941:led_manager.c **** 	else			//led off
 942:led_manager.c **** 		byte07_2 = byte07_2 & ~bit;
 3408              		.loc 1 942 0
 3409 0016 0B4A     		ldr	r2, .L299
 3410 0018 92F85E30 		ldrb	r3, [r2, #94]	@ zero_extendqisi2
 3411 001c 23F00203 		bic	r3, r3, #2
 3412 0020 82F85E30 		strb	r3, [r2, #94]
 3413              	.L297:
 943:led_manager.c **** 	
 944:led_manager.c **** 	LED_Driver2_MasterSendStart(LED_ADDR, 0);
 3414              		.loc 1 944 0
 3415 0024 4020     		movs	r0, #64
 3416              	.LVL462:
 3417 0026 0021     		movs	r1, #0
 3418 0028 FFF7FEFF 		bl	LED_Driver2_MasterSendStart
 3419              	.LVL463:
 945:led_manager.c **** 	LED_Driver2_MasterWriteByte(LED07);		//move to LED addr
 3420              		.loc 1 945 0
 3421 002c 0720     		movs	r0, #7
 3422 002e FFF7FEFF 		bl	LED_Driver2_MasterWriteByte
 3423              	.LVL464:
 946:led_manager.c **** 	LED_Driver2_MasterWriteByte(byte07_2);	//write byte to addr
 3424              		.loc 1 946 0
 3425 0032 044B     		ldr	r3, .L299
 3426 0034 93F85E00 		ldrb	r0, [r3, #94]	@ zero_extendqisi2
 3427 0038 FFF7FEFF 		bl	LED_Driver2_MasterWriteByte
 3428              	.LVL465:
 947:led_manager.c **** 	LED_Driver2_MasterSendStop();
 3429              		.loc 1 947 0
 3430 003c FFF7FEFF 		bl	LED_Driver2_MasterSendStop
 3431              	.LVL466:
 3432 0040 08BD     		pop	{r3, pc}
 3433              	.L300:
 3434 0042 00BF     		.align	2
 3435              	.L299:
 3436 0044 00000000 		.word	.LANCHOR0
 3437              		.cfi_endproc
 3438              	.LFE112:
 3439              		.size	b33_write, .-b33_write
 3440              		.section	.text.b34_write,"ax",%progbits
 3441              		.align	2
 3442              		.global	b34_write
 3443              		.thumb
ARM GAS  D:\Windows\AppData\Local\Temp\cc9YXq6z.s 			page 82


 3444              		.thumb_func
 3445              		.type	b34_write, %function
 3446              	b34_write:
 3447              	.LFB113:
 948:led_manager.c **** }
 949:led_manager.c **** void b34_write(int bool) {
 3448              		.loc 1 949 0
 3449              		.cfi_startproc
 3450              		@ args = 0, pretend = 0, frame = 0
 3451              		@ frame_needed = 0, uses_anonymous_args = 0
 3452              	.LVL467:
 3453 0000 08B5     		push	{r3, lr}
 3454              		.cfi_def_cfa_offset 8
 3455              		.cfi_offset 3, -8
 3456              		.cfi_offset 14, -4
 3457              	.LVL468:
 950:led_manager.c **** 	uint8_t bit = 0x20;
 951:led_manager.c **** 	if(bool == 1) 	//led on
 3458              		.loc 1 951 0
 3459 0002 0128     		cmp	r0, #1
 3460 0004 07D1     		bne	.L302
 952:led_manager.c **** 		byte07_2 = byte07_2 | bit;
 3461              		.loc 1 952 0
 3462 0006 0F4A     		ldr	r2, .L305
 3463 0008 92F85E30 		ldrb	r3, [r2, #94]	@ zero_extendqisi2
 3464 000c 43F02003 		orr	r3, r3, #32
 3465 0010 82F85E30 		strb	r3, [r2, #94]
 3466 0014 06E0     		b	.L303
 3467              	.L302:
 953:led_manager.c **** 	else			//led off
 954:led_manager.c **** 		byte07_2 = byte07_2 & ~bit;
 3468              		.loc 1 954 0
 3469 0016 0B4A     		ldr	r2, .L305
 3470 0018 92F85E30 		ldrb	r3, [r2, #94]	@ zero_extendqisi2
 3471 001c 23F02003 		bic	r3, r3, #32
 3472 0020 82F85E30 		strb	r3, [r2, #94]
 3473              	.L303:
 955:led_manager.c **** 	
 956:led_manager.c **** 	LED_Driver2_MasterSendStart(LED_ADDR, 0);
 3474              		.loc 1 956 0
 3475 0024 4020     		movs	r0, #64
 3476              	.LVL469:
 3477 0026 0021     		movs	r1, #0
 3478 0028 FFF7FEFF 		bl	LED_Driver2_MasterSendStart
 3479              	.LVL470:
 957:led_manager.c **** 	LED_Driver2_MasterWriteByte(LED07);		//move to LED addr
 3480              		.loc 1 957 0
 3481 002c 0720     		movs	r0, #7
 3482 002e FFF7FEFF 		bl	LED_Driver2_MasterWriteByte
 3483              	.LVL471:
 958:led_manager.c **** 	LED_Driver2_MasterWriteByte(byte07_2);	//write byte to addr
 3484              		.loc 1 958 0
 3485 0032 044B     		ldr	r3, .L305
 3486 0034 93F85E00 		ldrb	r0, [r3, #94]	@ zero_extendqisi2
 3487 0038 FFF7FEFF 		bl	LED_Driver2_MasterWriteByte
 3488              	.LVL472:
 959:led_manager.c **** 	LED_Driver2_MasterSendStop();
ARM GAS  D:\Windows\AppData\Local\Temp\cc9YXq6z.s 			page 83


 3489              		.loc 1 959 0
 3490 003c FFF7FEFF 		bl	LED_Driver2_MasterSendStop
 3491              	.LVL473:
 3492 0040 08BD     		pop	{r3, pc}
 3493              	.L306:
 3494 0042 00BF     		.align	2
 3495              	.L305:
 3496 0044 00000000 		.word	.LANCHOR0
 3497              		.cfi_endproc
 3498              	.LFE113:
 3499              		.size	b34_write, .-b34_write
 3500              		.section	.text.b35_write,"ax",%progbits
 3501              		.align	2
 3502              		.global	b35_write
 3503              		.thumb
 3504              		.thumb_func
 3505              		.type	b35_write, %function
 3506              	b35_write:
 3507              	.LFB114:
 960:led_manager.c **** }
 961:led_manager.c **** void b35_write(int bool) {
 3508              		.loc 1 961 0
 3509              		.cfi_startproc
 3510              		@ args = 0, pretend = 0, frame = 0
 3511              		@ frame_needed = 0, uses_anonymous_args = 0
 3512              	.LVL474:
 3513 0000 08B5     		push	{r3, lr}
 3514              		.cfi_def_cfa_offset 8
 3515              		.cfi_offset 3, -8
 3516              		.cfi_offset 14, -4
 3517              	.LVL475:
 962:led_manager.c **** 	uint8_t bit = 0x02;
 963:led_manager.c **** 	if(bool == 1) 	//led on
 3518              		.loc 1 963 0
 3519 0002 0128     		cmp	r0, #1
 3520 0004 07D1     		bne	.L308
 964:led_manager.c **** 		byte08_2 = byte08_2 | bit;
 3521              		.loc 1 964 0
 3522 0006 0F4A     		ldr	r2, .L311
 3523 0008 92F87C30 		ldrb	r3, [r2, #124]	@ zero_extendqisi2
 3524 000c 43F00203 		orr	r3, r3, #2
 3525 0010 82F87C30 		strb	r3, [r2, #124]
 3526 0014 06E0     		b	.L309
 3527              	.L308:
 965:led_manager.c **** 	else			//led off
 966:led_manager.c **** 		byte08_2 = byte08_2 & ~bit;
 3528              		.loc 1 966 0
 3529 0016 0B4A     		ldr	r2, .L311
 3530 0018 92F87C30 		ldrb	r3, [r2, #124]	@ zero_extendqisi2
 3531 001c 23F00203 		bic	r3, r3, #2
 3532 0020 82F87C30 		strb	r3, [r2, #124]
 3533              	.L309:
 967:led_manager.c **** 	
 968:led_manager.c **** 	LED_Driver2_MasterSendStart(LED_ADDR, 0);
 3534              		.loc 1 968 0
 3535 0024 4020     		movs	r0, #64
 3536              	.LVL476:
ARM GAS  D:\Windows\AppData\Local\Temp\cc9YXq6z.s 			page 84


 3537 0026 0021     		movs	r1, #0
 3538 0028 FFF7FEFF 		bl	LED_Driver2_MasterSendStart
 3539              	.LVL477:
 969:led_manager.c **** 	LED_Driver2_MasterWriteByte(LED08);		//move to LED addr
 3540              		.loc 1 969 0
 3541 002c 0820     		movs	r0, #8
 3542 002e FFF7FEFF 		bl	LED_Driver2_MasterWriteByte
 3543              	.LVL478:
 970:led_manager.c **** 	LED_Driver2_MasterWriteByte(byte08_2);	//write byte to addr
 3544              		.loc 1 970 0
 3545 0032 044B     		ldr	r3, .L311
 3546 0034 93F87C00 		ldrb	r0, [r3, #124]	@ zero_extendqisi2
 3547 0038 FFF7FEFF 		bl	LED_Driver2_MasterWriteByte
 3548              	.LVL479:
 971:led_manager.c **** 	LED_Driver2_MasterSendStop();
 3549              		.loc 1 971 0
 3550 003c FFF7FEFF 		bl	LED_Driver2_MasterSendStop
 3551              	.LVL480:
 3552 0040 08BD     		pop	{r3, pc}
 3553              	.L312:
 3554 0042 00BF     		.align	2
 3555              	.L311:
 3556 0044 00000000 		.word	.LANCHOR0
 3557              		.cfi_endproc
 3558              	.LFE114:
 3559              		.size	b35_write, .-b35_write
 3560              		.section	.text.b3_crit_isr,"ax",%progbits
 3561              		.align	2
 3562              		.global	b3_crit_isr
 3563              		.thumb
 3564              		.thumb_func
 3565              		.type	b3_crit_isr, %function
 3566              	b3_crit_isr:
 3567              	.LFB65:
  59:led_manager.c **** 	b3_crit_led = b3_crit_led == 0 ? 1:0;
 3568              		.loc 1 59 0
 3569              		.cfi_startproc
 3570              		@ args = 0, pretend = 0, frame = 0
 3571              		@ frame_needed = 0, uses_anonymous_args = 0
 3572 0000 10B5     		push	{r4, lr}
 3573              		.cfi_def_cfa_offset 8
 3574              		.cfi_offset 4, -8
 3575              		.cfi_offset 14, -4
  60:led_manager.c **** 	b31_write(b3_crit_led);
 3576              		.loc 1 60 0
 3577 0002 0D4C     		ldr	r4, .L315
 3578 0004 D4F89C00 		ldr	r0, [r4, #156]
 3579 0008 B0FA80F0 		clz	r0, r0
 3580 000c 4009     		lsrs	r0, r0, #5
 3581 000e C4F89C00 		str	r0, [r4, #156]
  61:led_manager.c **** 	b32_write(b3_crit_led);
 3582              		.loc 1 61 0
 3583 0012 FFF7FEFF 		bl	b31_write
 3584              	.LVL481:
  62:led_manager.c **** 	b33_write(b3_crit_led);
 3585              		.loc 1 62 0
 3586 0016 D4F89C00 		ldr	r0, [r4, #156]
ARM GAS  D:\Windows\AppData\Local\Temp\cc9YXq6z.s 			page 85


 3587 001a FFF7FEFF 		bl	b32_write
 3588              	.LVL482:
  63:led_manager.c **** 	b34_write(b3_crit_led);
 3589              		.loc 1 63 0
 3590 001e D4F89C00 		ldr	r0, [r4, #156]
 3591 0022 FFF7FEFF 		bl	b33_write
 3592              	.LVL483:
  64:led_manager.c **** 	b35_write(b3_crit_led);
 3593              		.loc 1 64 0
 3594 0026 D4F89C00 		ldr	r0, [r4, #156]
 3595 002a FFF7FEFF 		bl	b34_write
 3596              	.LVL484:
  65:led_manager.c **** 
 3597              		.loc 1 65 0
 3598 002e D4F89C00 		ldr	r0, [r4, #156]
 3599 0032 FFF7FEFF 		bl	b35_write
 3600              	.LVL485:
 3601 0036 10BD     		pop	{r4, pc}
 3602              	.L316:
 3603              		.align	2
 3604              	.L315:
 3605 0038 00000000 		.word	.LANCHOR0
 3606              		.cfi_endproc
 3607              	.LFE65:
 3608              		.size	b3_crit_isr, .-b3_crit_isr
 3609              		.section	.text.led_write_b3,"ax",%progbits
 3610              		.align	2
 3611              		.global	led_write_b3
 3612              		.thumb
 3613              		.thumb_func
 3614              		.type	led_write_b3, %function
 3615              	led_write_b3:
 3616              	.LFB71:
 278:led_manager.c **** 	int steps = 0;
 3617              		.loc 1 278 0
 3618              		.cfi_startproc
 3619              		@ args = 0, pretend = 0, frame = 0
 3620              		@ frame_needed = 0, uses_anonymous_args = 0
 3621              	.LVL486:
 3622 0000 10B5     		push	{r4, lr}
 3623              		.cfi_def_cfa_offset 8
 3624              		.cfi_offset 4, -8
 3625              		.cfi_offset 14, -4
 3626              	.LVL487:
 280:led_manager.c **** 		steps = 1;
 3627              		.loc 1 280 0
 3628 0002 2828     		cmp	r0, #40
 3629 0004 21D9     		bls	.L324
 282:led_manager.c **** 		steps = 2;
 3630              		.loc 1 282 0
 3631 0006 A0F12903 		sub	r3, r0, #41
 3632 000a DBB2     		uxtb	r3, r3
 3633 000c 042B     		cmp	r3, #4
 3634 000e 1ED9     		bls	.L325
 284:led_manager.c **** 		steps = 3;
 3635              		.loc 1 284 0
 3636 0010 A0F12E03 		sub	r3, r0, #46
ARM GAS  D:\Windows\AppData\Local\Temp\cc9YXq6z.s 			page 86


 3637 0014 DBB2     		uxtb	r3, r3
 3638 0016 042B     		cmp	r3, #4
 3639 0018 1BD9     		bls	.L326
 286:led_manager.c **** 		steps = 4;
 3640              		.loc 1 286 0
 3641 001a A0F13303 		sub	r3, r0, #51
 3642 001e DBB2     		uxtb	r3, r3
 3643 0020 042B     		cmp	r3, #4
 3644 0022 18D9     		bls	.L327
 288:led_manager.c **** 		steps = 5;
 3645              		.loc 1 288 0
 3646 0024 3838     		subs	r0, r0, #56
 3647              	.LVL488:
 3648 0026 C0B2     		uxtb	r0, r0
 3649 0028 0328     		cmp	r0, #3
 3650 002a 16D9     		bls	.L328
 291:led_manager.c **** 			b3_critical_timer_Start();
 3651              		.loc 1 291 0
 3652 002c 244B     		ldr	r3, .L332
 3653 002e D3F8A030 		ldr	r3, [r3, #160]
 3654 0032 A3B9     		cbnz	r3, .L329
 292:led_manager.c **** 			b3_crit_int_StartEx(b3_crit_isr);
 3655              		.loc 1 292 0
 3656 0034 FFF7FEFF 		bl	b3_critical_timer_Start
 3657              	.LVL489:
 293:led_manager.c **** 			b3_critical = 1;
 3658              		.loc 1 293 0
 3659 0038 2248     		ldr	r0, .L332+4
 3660 003a FFF7FEFF 		bl	b3_crit_int_StartEx
 3661              	.LVL490:
 294:led_manager.c **** 		} //if
 3662              		.loc 1 294 0
 3663 003e 0122     		movs	r2, #1
 3664 0040 1F4B     		ldr	r3, .L332
 3665 0042 C3F8A020 		str	r2, [r3, #160]
 279:led_manager.c **** 	if (MTR_CTRL_TEMP <= 40)
 3666              		.loc 1 279 0
 3667 0046 0023     		movs	r3, #0
 3668 0048 0AE0     		b	.L318
 3669              	.LVL491:
 3670              	.L324:
 281:led_manager.c **** 	else if (MTR_CTRL_TEMP > 40 && MTR_CTRL_TEMP <= 45)
 3671              		.loc 1 281 0
 3672 004a 0123     		movs	r3, #1
 3673 004c 08E0     		b	.L318
 3674              	.L325:
 283:led_manager.c **** 	else if (MTR_CTRL_TEMP > 45 && MTR_CTRL_TEMP <= 50)
 3675              		.loc 1 283 0
 3676 004e 0223     		movs	r3, #2
 3677 0050 06E0     		b	.L318
 3678              	.L326:
 285:led_manager.c **** 	else if (MTR_CTRL_TEMP > 50 && MTR_CTRL_TEMP <= 55)
 3679              		.loc 1 285 0
 3680 0052 0323     		movs	r3, #3
 3681 0054 04E0     		b	.L318
 3682              	.L327:
 287:led_manager.c **** 	else if (MTR_CTRL_TEMP > 55 && MTR_CTRL_TEMP <= 59)
ARM GAS  D:\Windows\AppData\Local\Temp\cc9YXq6z.s 			page 87


 3683              		.loc 1 287 0
 3684 0056 0423     		movs	r3, #4
 3685 0058 02E0     		b	.L318
 3686              	.LVL492:
 3687              	.L328:
 289:led_manager.c **** 	else {	//(MTR_CTRL_TEMP >= 59)
 3688              		.loc 1 289 0
 3689 005a 0523     		movs	r3, #5
 3690 005c 00E0     		b	.L318
 3691              	.L329:
 279:led_manager.c **** 	if (MTR_CTRL_TEMP <= 40)
 3692              		.loc 1 279 0
 3693 005e 0023     		movs	r3, #0
 3694              	.L318:
 3695              	.LVL493:
 298:led_manager.c **** 		int i;
 3696              		.loc 1 298 0
 3697 0060 174A     		ldr	r2, .L332
 3698 0062 D2F8A020 		ldr	r2, [r2, #160]
 3699 0066 42B1     		cbz	r2, .L330
 3700 0068 10BD     		pop	{r4, pc}
 3701              	.LVL494:
 3702              	.L321:
 3703              	.LBB6:
 301:led_manager.c **** 		for(i=steps; i<5; i++)
 3704              		.loc 1 301 0 discriminator 3
 3705 006a 1549     		ldr	r1, .L332
 3706 006c 01EB8201 		add	r1, r1, r2, lsl #2
 3707 0070 0120     		movs	r0, #1
 3708 0072 C1F8A400 		str	r0, [r1, #164]
 300:led_manager.c **** 			b3_arr[i] = 1;	//on leds
 3709              		.loc 1 300 0 discriminator 3
 3710 0076 0244     		add	r2, r2, r0
 3711              	.LVL495:
 3712 0078 00E0     		b	.L319
 3713              	.LVL496:
 3714              	.L330:
 3715              	.LBE6:
 3716 007a 0022     		movs	r2, #0
 3717              	.L319:
 3718              	.LVL497:
 3719              	.LBB7:
 300:led_manager.c **** 			b3_arr[i] = 1;	//on leds
 3720              		.loc 1 300 0 is_stmt 0 discriminator 1
 3721 007c 9A42     		cmp	r2, r3
 3722 007e F4DB     		blt	.L321
 3723 0080 06E0     		b	.L322
 3724              	.LVL498:
 3725              	.L323:
 303:led_manager.c **** 		
 3726              		.loc 1 303 0 is_stmt 1 discriminator 3
 3727 0082 0F4A     		ldr	r2, .L332
 3728 0084 02EB8302 		add	r2, r2, r3, lsl #2
 3729 0088 0021     		movs	r1, #0
 3730 008a C2F8A410 		str	r1, [r2, #164]
 302:led_manager.c **** 			b3_arr[i] = 0;	//off leds
 3731              		.loc 1 302 0 discriminator 3
ARM GAS  D:\Windows\AppData\Local\Temp\cc9YXq6z.s 			page 88


 3732 008e 0133     		adds	r3, r3, #1
 3733              	.LVL499:
 3734              	.L322:
 302:led_manager.c **** 			b3_arr[i] = 0;	//off leds
 3735              		.loc 1 302 0 is_stmt 0 discriminator 1
 3736 0090 042B     		cmp	r3, #4
 3737 0092 F6DD     		ble	.L323
 305:led_manager.c **** 		b32_write(b3_arr[1]);
 3738              		.loc 1 305 0 is_stmt 1
 3739 0094 0A4C     		ldr	r4, .L332
 3740 0096 D4F8A400 		ldr	r0, [r4, #164]
 3741 009a FFF7FEFF 		bl	b31_write
 3742              	.LVL500:
 306:led_manager.c **** 		b33_write(b3_arr[2]);
 3743              		.loc 1 306 0
 3744 009e D4F8A800 		ldr	r0, [r4, #168]
 3745 00a2 FFF7FEFF 		bl	b32_write
 3746              	.LVL501:
 307:led_manager.c **** 		b34_write(b3_arr[3]);
 3747              		.loc 1 307 0
 3748 00a6 D4F8AC00 		ldr	r0, [r4, #172]
 3749 00aa FFF7FEFF 		bl	b33_write
 3750              	.LVL502:
 308:led_manager.c **** 		b35_write(b3_arr[4]);
 3751              		.loc 1 308 0
 3752 00ae D4F8B000 		ldr	r0, [r4, #176]
 3753 00b2 FFF7FEFF 		bl	b34_write
 3754              	.LVL503:
 309:led_manager.c **** 	} //if
 3755              		.loc 1 309 0
 3756 00b6 D4F8B400 		ldr	r0, [r4, #180]
 3757 00ba FFF7FEFF 		bl	b35_write
 3758              	.LVL504:
 3759 00be 10BD     		pop	{r4, pc}
 3760              	.L333:
 3761              		.align	2
 3762              	.L332:
 3763 00c0 00000000 		.word	.LANCHOR0
 3764 00c4 00000000 		.word	b3_crit_isr
 3765              	.LBE7:
 3766              		.cfi_endproc
 3767              	.LFE71:
 3768              		.size	led_write_b3, .-led_write_b3
 3769              		.section	.text.c5_write,"ax",%progbits
 3770              		.align	2
 3771              		.global	c5_write
 3772              		.thumb
 3773              		.thumb_func
 3774              		.type	c5_write, %function
 3775              	c5_write:
 3776              	.LFB115:
 972:led_manager.c **** }
 973:led_manager.c **** 
 974:led_manager.c **** //main center horizontal bar
 975:led_manager.c **** void c5_write(int bool) {
 3777              		.loc 1 975 0
 3778              		.cfi_startproc
ARM GAS  D:\Windows\AppData\Local\Temp\cc9YXq6z.s 			page 89


 3779              		@ args = 0, pretend = 0, frame = 0
 3780              		@ frame_needed = 0, uses_anonymous_args = 0
 3781              	.LVL505:
 3782 0000 08B5     		push	{r3, lr}
 3783              		.cfi_def_cfa_offset 8
 3784              		.cfi_offset 3, -8
 3785              		.cfi_offset 14, -4
 3786              	.LVL506:
 976:led_manager.c **** 	uint8_t bit = 0x20;
 977:led_manager.c **** 	if(bool == 1) 	//led on
 3787              		.loc 1 977 0
 3788 0002 0128     		cmp	r0, #1
 3789 0004 07D1     		bne	.L335
 978:led_manager.c **** 		byte08_2 = byte08_2 | bit;
 3790              		.loc 1 978 0
 3791 0006 0F4A     		ldr	r2, .L338
 3792 0008 92F87C30 		ldrb	r3, [r2, #124]	@ zero_extendqisi2
 3793 000c 43F02003 		orr	r3, r3, #32
 3794 0010 82F87C30 		strb	r3, [r2, #124]
 3795 0014 06E0     		b	.L336
 3796              	.L335:
 979:led_manager.c **** 	else			//led off
 980:led_manager.c **** 		byte08_2 = byte08_2 & ~bit;
 3797              		.loc 1 980 0
 3798 0016 0B4A     		ldr	r2, .L338
 3799 0018 92F87C30 		ldrb	r3, [r2, #124]	@ zero_extendqisi2
 3800 001c 23F02003 		bic	r3, r3, #32
 3801 0020 82F87C30 		strb	r3, [r2, #124]
 3802              	.L336:
 981:led_manager.c **** 	
 982:led_manager.c **** 	LED_Driver2_MasterSendStart(LED_ADDR, 0);
 3803              		.loc 1 982 0
 3804 0024 4020     		movs	r0, #64
 3805              	.LVL507:
 3806 0026 0021     		movs	r1, #0
 3807 0028 FFF7FEFF 		bl	LED_Driver2_MasterSendStart
 3808              	.LVL508:
 983:led_manager.c **** 	LED_Driver2_MasterWriteByte(LED08);		//move to LED addr
 3809              		.loc 1 983 0
 3810 002c 0820     		movs	r0, #8
 3811 002e FFF7FEFF 		bl	LED_Driver2_MasterWriteByte
 3812              	.LVL509:
 984:led_manager.c **** 	LED_Driver2_MasterWriteByte(byte08_2);	//write byte to addr
 3813              		.loc 1 984 0
 3814 0032 044B     		ldr	r3, .L338
 3815 0034 93F87C00 		ldrb	r0, [r3, #124]	@ zero_extendqisi2
 3816 0038 FFF7FEFF 		bl	LED_Driver2_MasterWriteByte
 3817              	.LVL510:
 985:led_manager.c **** 	LED_Driver2_MasterSendStop();
 3818              		.loc 1 985 0
 3819 003c FFF7FEFF 		bl	LED_Driver2_MasterSendStop
 3820              	.LVL511:
 3821 0040 08BD     		pop	{r3, pc}
 3822              	.L339:
 3823 0042 00BF     		.align	2
 3824              	.L338:
 3825 0044 00000000 		.word	.LANCHOR0
ARM GAS  D:\Windows\AppData\Local\Temp\cc9YXq6z.s 			page 90


 3826              		.cfi_endproc
 3827              	.LFE115:
 3828              		.size	c5_write, .-c5_write
 3829              		.section	.text.c4_write,"ax",%progbits
 3830              		.align	2
 3831              		.global	c4_write
 3832              		.thumb
 3833              		.thumb_func
 3834              		.type	c4_write, %function
 3835              	c4_write:
 3836              	.LFB116:
 986:led_manager.c **** }
 987:led_manager.c **** void c4_write(int bool) {
 3837              		.loc 1 987 0
 3838              		.cfi_startproc
 3839              		@ args = 0, pretend = 0, frame = 0
 3840              		@ frame_needed = 0, uses_anonymous_args = 0
 3841              	.LVL512:
 3842 0000 08B5     		push	{r3, lr}
 3843              		.cfi_def_cfa_offset 8
 3844              		.cfi_offset 3, -8
 3845              		.cfi_offset 14, -4
 3846              	.LVL513:
 988:led_manager.c **** 	uint8_t bit = 0x04;
 989:led_manager.c **** 	if(bool == 1) 	//led on
 3847              		.loc 1 989 0
 3848 0002 0128     		cmp	r0, #1
 3849 0004 07D1     		bne	.L341
 990:led_manager.c **** 		byte05_2 = byte05_2 | bit;
 3850              		.loc 1 990 0
 3851 0006 0F4A     		ldr	r2, .L344
 3852 0008 92F85C30 		ldrb	r3, [r2, #92]	@ zero_extendqisi2
 3853 000c 43F00403 		orr	r3, r3, #4
 3854 0010 82F85C30 		strb	r3, [r2, #92]
 3855 0014 06E0     		b	.L342
 3856              	.L341:
 991:led_manager.c **** 	else			//led off
 992:led_manager.c **** 		byte05_2 = byte05_2 & ~bit;
 3857              		.loc 1 992 0
 3858 0016 0B4A     		ldr	r2, .L344
 3859 0018 92F85C30 		ldrb	r3, [r2, #92]	@ zero_extendqisi2
 3860 001c 23F00403 		bic	r3, r3, #4
 3861 0020 82F85C30 		strb	r3, [r2, #92]
 3862              	.L342:
 993:led_manager.c **** 	
 994:led_manager.c **** 	LED_Driver2_MasterSendStart(LED_ADDR, 0);	// 0 = send write command, 1 = send read command
 3863              		.loc 1 994 0
 3864 0024 4020     		movs	r0, #64
 3865              	.LVL514:
 3866 0026 0021     		movs	r1, #0
 3867 0028 FFF7FEFF 		bl	LED_Driver2_MasterSendStart
 3868              	.LVL515:
 995:led_manager.c **** 	LED_Driver2_MasterWriteByte(LED05);		//move to LED addr
 3869              		.loc 1 995 0
 3870 002c 0520     		movs	r0, #5
 3871 002e FFF7FEFF 		bl	LED_Driver2_MasterWriteByte
 3872              	.LVL516:
ARM GAS  D:\Windows\AppData\Local\Temp\cc9YXq6z.s 			page 91


 996:led_manager.c **** 	LED_Driver2_MasterWriteByte(byte05_2);	//write byte to addr
 3873              		.loc 1 996 0
 3874 0032 044B     		ldr	r3, .L344
 3875 0034 93F85C00 		ldrb	r0, [r3, #92]	@ zero_extendqisi2
 3876 0038 FFF7FEFF 		bl	LED_Driver2_MasterWriteByte
 3877              	.LVL517:
 997:led_manager.c **** 	LED_Driver2_MasterSendStop();
 3878              		.loc 1 997 0
 3879 003c FFF7FEFF 		bl	LED_Driver2_MasterSendStop
 3880              	.LVL518:
 3881 0040 08BD     		pop	{r3, pc}
 3882              	.L345:
 3883 0042 00BF     		.align	2
 3884              	.L344:
 3885 0044 00000000 		.word	.LANCHOR0
 3886              		.cfi_endproc
 3887              	.LFE116:
 3888              		.size	c4_write, .-c4_write
 3889              		.section	.text.c3_write,"ax",%progbits
 3890              		.align	2
 3891              		.global	c3_write
 3892              		.thumb
 3893              		.thumb_func
 3894              		.type	c3_write, %function
 3895              	c3_write:
 3896              	.LFB117:
 998:led_manager.c **** }
 999:led_manager.c **** void c3_write(int bool) {
 3897              		.loc 1 999 0
 3898              		.cfi_startproc
 3899              		@ args = 0, pretend = 0, frame = 0
 3900              		@ frame_needed = 0, uses_anonymous_args = 0
 3901              	.LVL519:
 3902 0000 08B5     		push	{r3, lr}
 3903              		.cfi_def_cfa_offset 8
 3904              		.cfi_offset 3, -8
 3905              		.cfi_offset 14, -4
 3906              	.LVL520:
1000:led_manager.c **** 	uint8_t bit = 0x40;
1001:led_manager.c **** 	if(bool == 1) 	//led on
 3907              		.loc 1 1001 0
 3908 0002 0128     		cmp	r0, #1
 3909 0004 07D1     		bne	.L347
1002:led_manager.c **** 		byte05_2 = byte05_2 | bit;
 3910              		.loc 1 1002 0
 3911 0006 0F4A     		ldr	r2, .L350
 3912 0008 92F85C30 		ldrb	r3, [r2, #92]	@ zero_extendqisi2
 3913 000c 43F04003 		orr	r3, r3, #64
 3914 0010 82F85C30 		strb	r3, [r2, #92]
 3915 0014 06E0     		b	.L348
 3916              	.L347:
1003:led_manager.c **** 	else			//led off
1004:led_manager.c **** 		byte05_2 = byte05_2 & ~bit;
 3917              		.loc 1 1004 0
 3918 0016 0B4A     		ldr	r2, .L350
 3919 0018 92F85C30 		ldrb	r3, [r2, #92]	@ zero_extendqisi2
 3920 001c 23F04003 		bic	r3, r3, #64
ARM GAS  D:\Windows\AppData\Local\Temp\cc9YXq6z.s 			page 92


 3921 0020 82F85C30 		strb	r3, [r2, #92]
 3922              	.L348:
1005:led_manager.c **** 	
1006:led_manager.c **** 	LED_Driver2_MasterSendStart(LED_ADDR, 0);	// 0 = send write command, 1 = send read command
 3923              		.loc 1 1006 0
 3924 0024 4020     		movs	r0, #64
 3925              	.LVL521:
 3926 0026 0021     		movs	r1, #0
 3927 0028 FFF7FEFF 		bl	LED_Driver2_MasterSendStart
 3928              	.LVL522:
1007:led_manager.c **** 	LED_Driver2_MasterWriteByte(LED05);		//move to LED addr
 3929              		.loc 1 1007 0
 3930 002c 0520     		movs	r0, #5
 3931 002e FFF7FEFF 		bl	LED_Driver2_MasterWriteByte
 3932              	.LVL523:
1008:led_manager.c **** 	LED_Driver2_MasterWriteByte(byte05_2);	//write byte to addr
 3933              		.loc 1 1008 0
 3934 0032 044B     		ldr	r3, .L350
 3935 0034 93F85C00 		ldrb	r0, [r3, #92]	@ zero_extendqisi2
 3936 0038 FFF7FEFF 		bl	LED_Driver2_MasterWriteByte
 3937              	.LVL524:
1009:led_manager.c **** 	LED_Driver2_MasterSendStop();
 3938              		.loc 1 1009 0
 3939 003c FFF7FEFF 		bl	LED_Driver2_MasterSendStop
 3940              	.LVL525:
 3941 0040 08BD     		pop	{r3, pc}
 3942              	.L351:
 3943 0042 00BF     		.align	2
 3944              	.L350:
 3945 0044 00000000 		.word	.LANCHOR0
 3946              		.cfi_endproc
 3947              	.LFE117:
 3948              		.size	c3_write, .-c3_write
 3949              		.section	.text.c2_write,"ax",%progbits
 3950              		.align	2
 3951              		.global	c2_write
 3952              		.thumb
 3953              		.thumb_func
 3954              		.type	c2_write, %function
 3955              	c2_write:
 3956              	.LFB118:
1010:led_manager.c **** }
1011:led_manager.c **** //right bar
1012:led_manager.c **** void c2_write(int bool) {
 3957              		.loc 1 1012 0
 3958              		.cfi_startproc
 3959              		@ args = 0, pretend = 0, frame = 0
 3960              		@ frame_needed = 0, uses_anonymous_args = 0
 3961              	.LVL526:
 3962 0000 08B5     		push	{r3, lr}
 3963              		.cfi_def_cfa_offset 8
 3964              		.cfi_offset 3, -8
 3965              		.cfi_offset 14, -4
 3966              	.LVL527:
1013:led_manager.c **** 	uint8_t bit = 0x04;
1014:led_manager.c **** 	if(bool == 1) 	//led on
 3967              		.loc 1 1014 0
ARM GAS  D:\Windows\AppData\Local\Temp\cc9YXq6z.s 			page 93


 3968 0002 0128     		cmp	r0, #1
 3969 0004 07D1     		bne	.L353
1015:led_manager.c **** 		byte06_2 = byte06_2 | bit;
 3970              		.loc 1 1015 0
 3971 0006 0F4A     		ldr	r2, .L356
 3972 0008 92F85D30 		ldrb	r3, [r2, #93]	@ zero_extendqisi2
 3973 000c 43F00403 		orr	r3, r3, #4
 3974 0010 82F85D30 		strb	r3, [r2, #93]
 3975 0014 06E0     		b	.L354
 3976              	.L353:
1016:led_manager.c **** 	else			//led off
1017:led_manager.c **** 		byte06_2 = byte06_2 & ~bit;
 3977              		.loc 1 1017 0
 3978 0016 0B4A     		ldr	r2, .L356
 3979 0018 92F85D30 		ldrb	r3, [r2, #93]	@ zero_extendqisi2
 3980 001c 23F00403 		bic	r3, r3, #4
 3981 0020 82F85D30 		strb	r3, [r2, #93]
 3982              	.L354:
1018:led_manager.c **** 	
1019:led_manager.c **** 	LED_Driver2_MasterSendStart(LED_ADDR, 0);
 3983              		.loc 1 1019 0
 3984 0024 4020     		movs	r0, #64
 3985              	.LVL528:
 3986 0026 0021     		movs	r1, #0
 3987 0028 FFF7FEFF 		bl	LED_Driver2_MasterSendStart
 3988              	.LVL529:
1020:led_manager.c **** 	LED_Driver2_MasterWriteByte(LED06);		//move to LED addr
 3989              		.loc 1 1020 0
 3990 002c 0620     		movs	r0, #6
 3991 002e FFF7FEFF 		bl	LED_Driver2_MasterWriteByte
 3992              	.LVL530:
1021:led_manager.c **** 	LED_Driver2_MasterWriteByte(byte06_2);	//write byte to addr
 3993              		.loc 1 1021 0
 3994 0032 044B     		ldr	r3, .L356
 3995 0034 93F85D00 		ldrb	r0, [r3, #93]	@ zero_extendqisi2
 3996 0038 FFF7FEFF 		bl	LED_Driver2_MasterWriteByte
 3997              	.LVL531:
1022:led_manager.c **** 	LED_Driver2_MasterSendStop();
 3998              		.loc 1 1022 0
 3999 003c FFF7FEFF 		bl	LED_Driver2_MasterSendStop
 4000              	.LVL532:
 4001 0040 08BD     		pop	{r3, pc}
 4002              	.L357:
 4003 0042 00BF     		.align	2
 4004              	.L356:
 4005 0044 00000000 		.word	.LANCHOR0
 4006              		.cfi_endproc
 4007              	.LFE118:
 4008              		.size	c2_write, .-c2_write
 4009              		.section	.text.c1_write,"ax",%progbits
 4010              		.align	2
 4011              		.global	c1_write
 4012              		.thumb
 4013              		.thumb_func
 4014              		.type	c1_write, %function
 4015              	c1_write:
 4016              	.LFB119:
ARM GAS  D:\Windows\AppData\Local\Temp\cc9YXq6z.s 			page 94


1023:led_manager.c **** }
1024:led_manager.c **** //right bar
1025:led_manager.c **** void c1_write(int bool) {
 4017              		.loc 1 1025 0
 4018              		.cfi_startproc
 4019              		@ args = 0, pretend = 0, frame = 0
 4020              		@ frame_needed = 0, uses_anonymous_args = 0
 4021              	.LVL533:
 4022 0000 08B5     		push	{r3, lr}
 4023              		.cfi_def_cfa_offset 8
 4024              		.cfi_offset 3, -8
 4025              		.cfi_offset 14, -4
 4026              	.LVL534:
1026:led_manager.c **** 	uint8_t bit = 0x40;
1027:led_manager.c **** 	if(bool == 1) 	//led on
 4027              		.loc 1 1027 0
 4028 0002 0128     		cmp	r0, #1
 4029 0004 07D1     		bne	.L359
1028:led_manager.c **** 		byte06_2 = byte06_2 | bit;
 4030              		.loc 1 1028 0
 4031 0006 0F4A     		ldr	r2, .L362
 4032 0008 92F85D30 		ldrb	r3, [r2, #93]	@ zero_extendqisi2
 4033 000c 43F04003 		orr	r3, r3, #64
 4034 0010 82F85D30 		strb	r3, [r2, #93]
 4035 0014 06E0     		b	.L360
 4036              	.L359:
1029:led_manager.c **** 	else			//led off
1030:led_manager.c **** 		byte06_2 = byte06_2 & ~bit;
 4037              		.loc 1 1030 0
 4038 0016 0B4A     		ldr	r2, .L362
 4039 0018 92F85D30 		ldrb	r3, [r2, #93]	@ zero_extendqisi2
 4040 001c 23F04003 		bic	r3, r3, #64
 4041 0020 82F85D30 		strb	r3, [r2, #93]
 4042              	.L360:
1031:led_manager.c **** 	
1032:led_manager.c **** 	LED_Driver2_MasterSendStart(LED_ADDR, 0);
 4043              		.loc 1 1032 0
 4044 0024 4020     		movs	r0, #64
 4045              	.LVL535:
 4046 0026 0021     		movs	r1, #0
 4047 0028 FFF7FEFF 		bl	LED_Driver2_MasterSendStart
 4048              	.LVL536:
1033:led_manager.c **** 	LED_Driver2_MasterWriteByte(LED06);		//move to LED addr
 4049              		.loc 1 1033 0
 4050 002c 0620     		movs	r0, #6
 4051 002e FFF7FEFF 		bl	LED_Driver2_MasterWriteByte
 4052              	.LVL537:
1034:led_manager.c **** 	LED_Driver2_MasterWriteByte(byte06_2);	//write byte to addr
 4053              		.loc 1 1034 0
 4054 0032 044B     		ldr	r3, .L362
 4055 0034 93F85D00 		ldrb	r0, [r3, #93]	@ zero_extendqisi2
 4056 0038 FFF7FEFF 		bl	LED_Driver2_MasterWriteByte
 4057              	.LVL538:
1035:led_manager.c **** 	LED_Driver2_MasterSendStop();
 4058              		.loc 1 1035 0
 4059 003c FFF7FEFF 		bl	LED_Driver2_MasterSendStop
 4060              	.LVL539:
ARM GAS  D:\Windows\AppData\Local\Temp\cc9YXq6z.s 			page 95


 4061 0040 08BD     		pop	{r3, pc}
 4062              	.L363:
 4063 0042 00BF     		.align	2
 4064              	.L362:
 4065 0044 00000000 		.word	.LANCHOR0
 4066              		.cfi_endproc
 4067              	.LFE119:
 4068              		.size	c1_write, .-c1_write
 4069              		.section	.text.c1_crit_isr,"ax",%progbits
 4070              		.align	2
 4071              		.global	c1_crit_isr
 4072              		.thumb
 4073              		.thumb_func
 4074              		.type	c1_crit_isr, %function
 4075              	c1_crit_isr:
 4076              	.LFB66:
  68:led_manager.c **** 	c1_crit_led = c1_crit_led == 0 ? 1:0;
 4077              		.loc 1 68 0
 4078              		.cfi_startproc
 4079              		@ args = 0, pretend = 0, frame = 0
 4080              		@ frame_needed = 0, uses_anonymous_args = 0
 4081 0000 10B5     		push	{r4, lr}
 4082              		.cfi_def_cfa_offset 8
 4083              		.cfi_offset 4, -8
 4084              		.cfi_offset 14, -4
  69:led_manager.c **** 	c1_write(c1_crit_led);
 4085              		.loc 1 69 0
 4086 0002 0D4C     		ldr	r4, .L366
 4087 0004 D4F8B800 		ldr	r0, [r4, #184]
 4088 0008 B0FA80F0 		clz	r0, r0
 4089 000c 4009     		lsrs	r0, r0, #5
 4090 000e C4F8B800 		str	r0, [r4, #184]
  70:led_manager.c **** 	c2_write(c1_crit_led);
 4091              		.loc 1 70 0
 4092 0012 FFF7FEFF 		bl	c1_write
 4093              	.LVL540:
  71:led_manager.c **** 	c3_write(c1_crit_led);
 4094              		.loc 1 71 0
 4095 0016 D4F8B800 		ldr	r0, [r4, #184]
 4096 001a FFF7FEFF 		bl	c2_write
 4097              	.LVL541:
  72:led_manager.c **** 	c4_write(c1_crit_led);
 4098              		.loc 1 72 0
 4099 001e D4F8B800 		ldr	r0, [r4, #184]
 4100 0022 FFF7FEFF 		bl	c3_write
 4101              	.LVL542:
  73:led_manager.c **** 	c5_write(c1_crit_led);
 4102              		.loc 1 73 0
 4103 0026 D4F8B800 		ldr	r0, [r4, #184]
 4104 002a FFF7FEFF 		bl	c4_write
 4105              	.LVL543:
  74:led_manager.c **** }
 4106              		.loc 1 74 0
 4107 002e D4F8B800 		ldr	r0, [r4, #184]
 4108 0032 FFF7FEFF 		bl	c5_write
 4109              	.LVL544:
 4110 0036 10BD     		pop	{r4, pc}
ARM GAS  D:\Windows\AppData\Local\Temp\cc9YXq6z.s 			page 96


 4111              	.L367:
 4112              		.align	2
 4113              	.L366:
 4114 0038 00000000 		.word	.LANCHOR0
 4115              		.cfi_endproc
 4116              	.LFE66:
 4117              		.size	c1_crit_isr, .-c1_crit_isr
 4118              		.section	.text.led_write_c1,"ax",%progbits
 4119              		.align	2
 4120              		.global	led_write_c1
 4121              		.thumb
 4122              		.thumb_func
 4123              		.type	led_write_c1, %function
 4124              	led_write_c1:
 4125              	.LFB72:
 313:led_manager.c **** 	int steps = 0;
 4126              		.loc 1 313 0
 4127              		.cfi_startproc
 4128              		@ args = 0, pretend = 0, frame = 0
 4129              		@ frame_needed = 0, uses_anonymous_args = 0
 4130              	.LVL545:
 4131 0000 10B5     		push	{r4, lr}
 4132              		.cfi_def_cfa_offset 8
 4133              		.cfi_offset 4, -8
 4134              		.cfi_offset 14, -4
 4135              	.LVL546:
 315:led_manager.c **** 		steps = 5;
 4136              		.loc 1 315 0
 4137 0002 A0F15103 		sub	r3, r0, #81
 4138 0006 DBB2     		uxtb	r3, r3
 4139 0008 122B     		cmp	r3, #18
 4140 000a 21D9     		bls	.L375
 317:led_manager.c **** 		steps = 4;
 4141              		.loc 1 317 0
 4142 000c A0F13D03 		sub	r3, r0, #61
 4143 0010 DBB2     		uxtb	r3, r3
 4144 0012 122B     		cmp	r3, #18
 4145 0014 1ED9     		bls	.L376
 319:led_manager.c **** 		steps = 3;
 4146              		.loc 1 319 0
 4147 0016 A0F12903 		sub	r3, r0, #41
 4148 001a DBB2     		uxtb	r3, r3
 4149 001c 122B     		cmp	r3, #18
 4150 001e 1BD9     		bls	.L377
 321:led_manager.c **** 		steps = 2;
 4151              		.loc 1 321 0
 4152 0020 A0F11503 		sub	r3, r0, #21
 4153 0024 DBB2     		uxtb	r3, r3
 4154 0026 122B     		cmp	r3, #18
 4155 0028 18D9     		bls	.L378
 323:led_manager.c **** 		steps = 1;
 4156              		.loc 1 323 0
 4157 002a 0B38     		subs	r0, r0, #11
 4158              	.LVL547:
 4159 002c C0B2     		uxtb	r0, r0
 4160 002e 0828     		cmp	r0, #8
 4161 0030 16D9     		bls	.L379
ARM GAS  D:\Windows\AppData\Local\Temp\cc9YXq6z.s 			page 97


 326:led_manager.c **** 			c1_critical_timer_Start();
 4162              		.loc 1 326 0
 4163 0032 254B     		ldr	r3, .L383
 4164 0034 D3F8BC30 		ldr	r3, [r3, #188]
 4165 0038 A3B9     		cbnz	r3, .L380
 327:led_manager.c **** 			c1_crit_int_StartEx(c1_crit_isr);
 4166              		.loc 1 327 0
 4167 003a FFF7FEFF 		bl	c1_critical_timer_Start
 4168              	.LVL548:
 328:led_manager.c **** 			c1_critical = 1;
 4169              		.loc 1 328 0
 4170 003e 2348     		ldr	r0, .L383+4
 4171 0040 FFF7FEFF 		bl	c1_crit_int_StartEx
 4172              	.LVL549:
 329:led_manager.c **** 		} //if
 4173              		.loc 1 329 0
 4174 0044 0122     		movs	r2, #1
 4175 0046 204B     		ldr	r3, .L383
 4176 0048 C3F8BC20 		str	r2, [r3, #188]
 314:led_manager.c **** 	if (SoC > 80 && SoC < 100)
 4177              		.loc 1 314 0
 4178 004c 0023     		movs	r3, #0
 4179 004e 0AE0     		b	.L369
 4180              	.LVL550:
 4181              	.L375:
 316:led_manager.c **** 	else if (SoC > 60  && SoC < 80)
 4182              		.loc 1 316 0
 4183 0050 0523     		movs	r3, #5
 4184 0052 08E0     		b	.L369
 4185              	.L376:
 318:led_manager.c **** 	else if (SoC > 40 && SoC < 60)
 4186              		.loc 1 318 0
 4187 0054 0423     		movs	r3, #4
 4188 0056 06E0     		b	.L369
 4189              	.L377:
 320:led_manager.c **** 	else if (SoC > 20 && SoC < 40)
 4190              		.loc 1 320 0
 4191 0058 0323     		movs	r3, #3
 4192 005a 04E0     		b	.L369
 4193              	.L378:
 322:led_manager.c **** 	else if (SoC > 10 && SoC < 20)
 4194              		.loc 1 322 0
 4195 005c 0223     		movs	r3, #2
 4196 005e 02E0     		b	.L369
 4197              	.LVL551:
 4198              	.L379:
 324:led_manager.c **** 	else {	//(SoC <= 10)
 4199              		.loc 1 324 0
 4200 0060 0123     		movs	r3, #1
 4201 0062 00E0     		b	.L369
 4202              	.L380:
 314:led_manager.c **** 	if (SoC > 80 && SoC < 100)
 4203              		.loc 1 314 0
 4204 0064 0023     		movs	r3, #0
 4205              	.L369:
 4206              	.LVL552:
 333:led_manager.c **** 		int i;
ARM GAS  D:\Windows\AppData\Local\Temp\cc9YXq6z.s 			page 98


 4207              		.loc 1 333 0
 4208 0066 184A     		ldr	r2, .L383
 4209 0068 D2F8BC20 		ldr	r2, [r2, #188]
 4210 006c 42B1     		cbz	r2, .L381
 4211 006e 10BD     		pop	{r4, pc}
 4212              	.LVL553:
 4213              	.L372:
 4214              	.LBB8:
 336:led_manager.c **** 		for(i=steps; i<5; i++)
 4215              		.loc 1 336 0 discriminator 3
 4216 0070 1549     		ldr	r1, .L383
 4217 0072 01EB8201 		add	r1, r1, r2, lsl #2
 4218 0076 0120     		movs	r0, #1
 4219 0078 C1F8C000 		str	r0, [r1, #192]
 335:led_manager.c **** 			c1_arr[i] = 1;	//on leds
 4220              		.loc 1 335 0 discriminator 3
 4221 007c 0244     		add	r2, r2, r0
 4222              	.LVL554:
 4223 007e 00E0     		b	.L370
 4224              	.LVL555:
 4225              	.L381:
 4226              	.LBE8:
 4227 0080 0022     		movs	r2, #0
 4228              	.L370:
 4229              	.LVL556:
 4230              	.LBB9:
 335:led_manager.c **** 			c1_arr[i] = 1;	//on leds
 4231              		.loc 1 335 0 is_stmt 0 discriminator 1
 4232 0082 9A42     		cmp	r2, r3
 4233 0084 F4DB     		blt	.L372
 4234 0086 06E0     		b	.L373
 4235              	.LVL557:
 4236              	.L374:
 338:led_manager.c **** 		
 4237              		.loc 1 338 0 is_stmt 1 discriminator 3
 4238 0088 0F4A     		ldr	r2, .L383
 4239 008a 02EB8302 		add	r2, r2, r3, lsl #2
 4240 008e 0021     		movs	r1, #0
 4241 0090 C2F8C010 		str	r1, [r2, #192]
 337:led_manager.c **** 			c1_arr[i] = 0;	//off leds
 4242              		.loc 1 337 0 discriminator 3
 4243 0094 0133     		adds	r3, r3, #1
 4244              	.LVL558:
 4245              	.L373:
 337:led_manager.c **** 			c1_arr[i] = 0;	//off leds
 4246              		.loc 1 337 0 is_stmt 0 discriminator 1
 4247 0096 042B     		cmp	r3, #4
 4248 0098 F6DD     		ble	.L374
 340:led_manager.c **** 		c2_write(c1_arr[1]);
 4249              		.loc 1 340 0 is_stmt 1
 4250 009a 0B4C     		ldr	r4, .L383
 4251 009c D4F8C000 		ldr	r0, [r4, #192]
 4252 00a0 FFF7FEFF 		bl	c1_write
 4253              	.LVL559:
 341:led_manager.c **** 		c3_write(c1_arr[2]);
 4254              		.loc 1 341 0
 4255 00a4 D4F8C400 		ldr	r0, [r4, #196]
ARM GAS  D:\Windows\AppData\Local\Temp\cc9YXq6z.s 			page 99


 4256 00a8 FFF7FEFF 		bl	c2_write
 4257              	.LVL560:
 342:led_manager.c **** 		c4_write(c1_arr[3]);
 4258              		.loc 1 342 0
 4259 00ac D4F8C800 		ldr	r0, [r4, #200]
 4260 00b0 FFF7FEFF 		bl	c3_write
 4261              	.LVL561:
 343:led_manager.c **** 		c5_write(c1_arr[4]);
 4262              		.loc 1 343 0
 4263 00b4 D4F8CC00 		ldr	r0, [r4, #204]
 4264 00b8 FFF7FEFF 		bl	c4_write
 4265              	.LVL562:
 344:led_manager.c **** 	} //if
 4266              		.loc 1 344 0
 4267 00bc D4F8D000 		ldr	r0, [r4, #208]
 4268 00c0 FFF7FEFF 		bl	c5_write
 4269              	.LVL563:
 4270 00c4 10BD     		pop	{r4, pc}
 4271              	.L384:
 4272 00c6 00BF     		.align	2
 4273              	.L383:
 4274 00c8 00000000 		.word	.LANCHOR0
 4275 00cc 00000000 		.word	c1_crit_isr
 4276              	.LBE9:
 4277              		.cfi_endproc
 4278              	.LFE72:
 4279              		.size	led_write_c1, .-led_write_c1
 4280              		.global	c1_crit_led
 4281              		.global	b3_crit_led
 4282              		.global	b2_crit_led
 4283              		.global	b1_crit_led
 4284              		.global	c1_critical
 4285              		.global	b3_critical
 4286              		.global	b2_critical
 4287              		.global	b1_critical
 4288              		.global	c1_arr
 4289              		.global	b3_arr
 4290              		.global	b2_arr
 4291              		.global	b1_arr
 4292              		.global	tach_arr
 4293              		.global	byte08_2
 4294              		.global	byte07_2
 4295              		.global	byte06_2
 4296              		.global	byte05_2
 4297              		.global	byte08
 4298              		.global	byte07
 4299              		.global	byte06
 4300              		.global	byte05
 4301              		.bss
 4302              		.align	2
 4303              		.set	.LANCHOR0,. + 0
 4304              		.type	byte05, %object
 4305              		.size	byte05, 1
 4306              	byte05:
 4307 0000 00       		.space	1
 4308              		.type	byte06, %object
 4309              		.size	byte06, 1
ARM GAS  D:\Windows\AppData\Local\Temp\cc9YXq6z.s 			page 100


 4310              	byte06:
 4311 0001 00       		.space	1
 4312              		.type	byte07, %object
 4313              		.size	byte07, 1
 4314              	byte07:
 4315 0002 00       		.space	1
 4316              		.type	byte08, %object
 4317              		.size	byte08, 1
 4318              	byte08:
 4319 0003 00       		.space	1
 4320              		.type	tach_arr, %object
 4321              		.size	tach_arr, 88
 4322              	tach_arr:
 4323 0004 00000000 		.space	88
 4323      00000000 
 4323      00000000 
 4323      00000000 
 4323      00000000 
 4324              		.type	byte05_2, %object
 4325              		.size	byte05_2, 1
 4326              	byte05_2:
 4327 005c 00       		.space	1
 4328              		.type	byte06_2, %object
 4329              		.size	byte06_2, 1
 4330              	byte06_2:
 4331 005d 00       		.space	1
 4332              		.type	byte07_2, %object
 4333              		.size	byte07_2, 1
 4334              	byte07_2:
 4335 005e 00       		.space	1
 4336 005f 00       		.space	1
 4337              		.type	b1_crit_led, %object
 4338              		.size	b1_crit_led, 4
 4339              	b1_crit_led:
 4340 0060 00000000 		.space	4
 4341              		.type	b1_critical, %object
 4342              		.size	b1_critical, 4
 4343              	b1_critical:
 4344 0064 00000000 		.space	4
 4345              		.type	b1_arr, %object
 4346              		.size	b1_arr, 20
 4347              	b1_arr:
 4348 0068 00000000 		.space	20
 4348      00000000 
 4348      00000000 
 4348      00000000 
 4348      00000000 
 4349              		.type	byte08_2, %object
 4350              		.size	byte08_2, 1
 4351              	byte08_2:
 4352 007c 00       		.space	1
 4353 007d 000000   		.space	3
 4354              		.type	b2_crit_led, %object
 4355              		.size	b2_crit_led, 4
 4356              	b2_crit_led:
 4357 0080 00000000 		.space	4
 4358              		.type	b2_critical, %object
ARM GAS  D:\Windows\AppData\Local\Temp\cc9YXq6z.s 			page 101


 4359              		.size	b2_critical, 4
 4360              	b2_critical:
 4361 0084 00000000 		.space	4
 4362              		.type	b2_arr, %object
 4363              		.size	b2_arr, 20
 4364              	b2_arr:
 4365 0088 00000000 		.space	20
 4365      00000000 
 4365      00000000 
 4365      00000000 
 4365      00000000 
 4366              		.type	b3_crit_led, %object
 4367              		.size	b3_crit_led, 4
 4368              	b3_crit_led:
 4369 009c 00000000 		.space	4
 4370              		.type	b3_critical, %object
 4371              		.size	b3_critical, 4
 4372              	b3_critical:
 4373 00a0 00000000 		.space	4
 4374              		.type	b3_arr, %object
 4375              		.size	b3_arr, 20
 4376              	b3_arr:
 4377 00a4 00000000 		.space	20
 4377      00000000 
 4377      00000000 
 4377      00000000 
 4377      00000000 
 4378              		.type	c1_crit_led, %object
 4379              		.size	c1_crit_led, 4
 4380              	c1_crit_led:
 4381 00b8 00000000 		.space	4
 4382              		.type	c1_critical, %object
 4383              		.size	c1_critical, 4
 4384              	c1_critical:
 4385 00bc 00000000 		.space	4
 4386              		.type	c1_arr, %object
 4387              		.size	c1_arr, 20
 4388              	c1_arr:
 4389 00c0 00000000 		.space	20
 4389      00000000 
 4389      00000000 
 4389      00000000 
 4389      00000000 
 4390              		.text
 4391              	.Letext0:
 4392              		.file 2 "d:\\programming\\cypress\\psoc creator\\4.0\\psoc creator\\import\\gnu\\arm\\4.9.3\\arm-n
 4393              		.file 3 "d:\\programming\\cypress\\psoc creator\\4.0\\psoc creator\\import\\gnu\\arm\\4.9.3\\arm-n
 4394              		.file 4 "Generated_Source\\PSoC5/cytypes.h"
 4395              		.file 5 "Generated_Source\\PSoC5/core_cm3.h"
 4396              		.file 6 "Generated_Source\\PSoC5/LED_Driver1.h"
 4397              		.file 7 "Generated_Source\\PSoC5/LED_Driver2.h"
 4398              		.file 8 "Generated_Source\\PSoC5/b1_critical_timer.h"
 4399              		.file 9 "Generated_Source\\PSoC5/b2_critical_timer.h"
 4400              		.file 10 "Generated_Source\\PSoC5/b1_crit_int.h"
 4401              		.file 11 "Generated_Source\\PSoC5/b2_crit_int.h"
 4402              		.file 12 "Generated_Source\\PSoC5/b3_critical_timer.h"
 4403              		.file 13 "Generated_Source\\PSoC5/b3_crit_int.h"
ARM GAS  D:\Windows\AppData\Local\Temp\cc9YXq6z.s 			page 102


 4404              		.file 14 "Generated_Source\\PSoC5/c1_critical_timer.h"
 4405              		.file 15 "Generated_Source\\PSoC5/c1_crit_int.h"