ARM GAS  D:\Windows\AppData\Local\Temp\cciO0Pua.s 			page 1


   1              		.syntax unified
   2              		.cpu cortex-m3
   3              		.fpu softvfp
   4              		.eabi_attribute 20, 1
   5              		.eabi_attribute 21, 1
   6              		.eabi_attribute 23, 3
   7              		.eabi_attribute 24, 1
   8              		.eabi_attribute 25, 1
   9              		.eabi_attribute 26, 1
  10              		.eabi_attribute 30, 6
  11              		.eabi_attribute 34, 1
  12              		.eabi_attribute 18, 4
  13              		.thumb
  14              		.file	"LED_Driver2_MASTER.c"
  15              		.text
  16              	.Ltext0:
  17              		.cfi_sections	.debug_frame
  18              		.comm	LED_Driver2_mstrStatus,1,1
  19              		.comm	LED_Driver2_mstrControl,1,1
  20              		.comm	LED_Driver2_mstrRdBufPtr,4,4
  21              		.comm	LED_Driver2_mstrRdBufSize,1,1
  22              		.comm	LED_Driver2_mstrRdBufIndex,1,1
  23              		.comm	LED_Driver2_mstrWrBufPtr,4,4
  24              		.comm	LED_Driver2_mstrWrBufSize,1,1
  25              		.comm	LED_Driver2_mstrWrBufIndex,1,1
  26              		.section	.text.LED_Driver2_MasterWriteBuf,"ax",%progbits
  27              		.align	2
  28              		.global	LED_Driver2_MasterWriteBuf
  29              		.thumb
  30              		.thumb_func
  31              		.type	LED_Driver2_MasterWriteBuf, %function
  32              	LED_Driver2_MasterWriteBuf:
  33              	.LFB0:
  34              		.file 1 "Generated_Source\\PSoC5\\LED_Driver2_MASTER.c"
   1:Generated_Source\PSoC5/LED_Driver2_MASTER.c **** /*******************************************************************************
   2:Generated_Source\PSoC5/LED_Driver2_MASTER.c **** * File Name: LED_Driver2_MASTER.c
   3:Generated_Source\PSoC5/LED_Driver2_MASTER.c **** * Version 3.50
   4:Generated_Source\PSoC5/LED_Driver2_MASTER.c **** *
   5:Generated_Source\PSoC5/LED_Driver2_MASTER.c **** * Description:
   6:Generated_Source\PSoC5/LED_Driver2_MASTER.c **** *  This file provides the source code of APIs for the I2C component master mode.
   7:Generated_Source\PSoC5/LED_Driver2_MASTER.c **** *
   8:Generated_Source\PSoC5/LED_Driver2_MASTER.c **** *******************************************************************************
   9:Generated_Source\PSoC5/LED_Driver2_MASTER.c **** * Copyright 2012-2015, Cypress Semiconductor Corporation. All rights reserved.
  10:Generated_Source\PSoC5/LED_Driver2_MASTER.c **** * You may use this file only in accordance with the license, terms, conditions,
  11:Generated_Source\PSoC5/LED_Driver2_MASTER.c **** * disclaimers, and limitations in the end user license agreement accompanying
  12:Generated_Source\PSoC5/LED_Driver2_MASTER.c **** * the software package with which this file was provided.
  13:Generated_Source\PSoC5/LED_Driver2_MASTER.c **** *******************************************************************************/
  14:Generated_Source\PSoC5/LED_Driver2_MASTER.c **** 
  15:Generated_Source\PSoC5/LED_Driver2_MASTER.c **** #include "LED_Driver2_PVT.h"
  16:Generated_Source\PSoC5/LED_Driver2_MASTER.c **** 
  17:Generated_Source\PSoC5/LED_Driver2_MASTER.c **** #if(LED_Driver2_MODE_MASTER_ENABLED)
  18:Generated_Source\PSoC5/LED_Driver2_MASTER.c **** 
  19:Generated_Source\PSoC5/LED_Driver2_MASTER.c **** /**********************************
  20:Generated_Source\PSoC5/LED_Driver2_MASTER.c **** *      System variables
  21:Generated_Source\PSoC5/LED_Driver2_MASTER.c **** **********************************/
  22:Generated_Source\PSoC5/LED_Driver2_MASTER.c **** 
  23:Generated_Source\PSoC5/LED_Driver2_MASTER.c **** volatile uint8 LED_Driver2_mstrStatus;     /* Master Status byte  */
ARM GAS  D:\Windows\AppData\Local\Temp\cciO0Pua.s 			page 2


  24:Generated_Source\PSoC5/LED_Driver2_MASTER.c **** volatile uint8 LED_Driver2_mstrControl;    /* Master Control byte */
  25:Generated_Source\PSoC5/LED_Driver2_MASTER.c **** 
  26:Generated_Source\PSoC5/LED_Driver2_MASTER.c **** /* Transmit buffer variables */
  27:Generated_Source\PSoC5/LED_Driver2_MASTER.c **** volatile uint8 * LED_Driver2_mstrRdBufPtr;     /* Pointer to Master Read buffer */
  28:Generated_Source\PSoC5/LED_Driver2_MASTER.c **** volatile uint8   LED_Driver2_mstrRdBufSize;    /* Master Read buffer size       */
  29:Generated_Source\PSoC5/LED_Driver2_MASTER.c **** volatile uint8   LED_Driver2_mstrRdBufIndex;   /* Master Read buffer Index      */
  30:Generated_Source\PSoC5/LED_Driver2_MASTER.c **** 
  31:Generated_Source\PSoC5/LED_Driver2_MASTER.c **** /* Receive buffer variables */
  32:Generated_Source\PSoC5/LED_Driver2_MASTER.c **** volatile uint8 * LED_Driver2_mstrWrBufPtr;     /* Pointer to Master Write buffer */
  33:Generated_Source\PSoC5/LED_Driver2_MASTER.c **** volatile uint8   LED_Driver2_mstrWrBufSize;    /* Master Write buffer size       */
  34:Generated_Source\PSoC5/LED_Driver2_MASTER.c **** volatile uint8   LED_Driver2_mstrWrBufIndex;   /* Master Write buffer Index      */
  35:Generated_Source\PSoC5/LED_Driver2_MASTER.c **** 
  36:Generated_Source\PSoC5/LED_Driver2_MASTER.c **** 
  37:Generated_Source\PSoC5/LED_Driver2_MASTER.c **** /*******************************************************************************
  38:Generated_Source\PSoC5/LED_Driver2_MASTER.c **** * Function Name: LED_Driver2_MasterWriteBuf
  39:Generated_Source\PSoC5/LED_Driver2_MASTER.c **** ********************************************************************************
  40:Generated_Source\PSoC5/LED_Driver2_MASTER.c **** *
  41:Generated_Source\PSoC5/LED_Driver2_MASTER.c **** * Summary:
  42:Generated_Source\PSoC5/LED_Driver2_MASTER.c **** *  Automatically writes an entire buffer of data to a slave device. Once the
  43:Generated_Source\PSoC5/LED_Driver2_MASTER.c **** *  data transfer is initiated by this function, further data transfer is handled
  44:Generated_Source\PSoC5/LED_Driver2_MASTER.c **** *  by the included ISR in byte by byte mode.
  45:Generated_Source\PSoC5/LED_Driver2_MASTER.c **** *
  46:Generated_Source\PSoC5/LED_Driver2_MASTER.c **** * Parameters:
  47:Generated_Source\PSoC5/LED_Driver2_MASTER.c **** *  slaveAddr: 7-bit slave address.
  48:Generated_Source\PSoC5/LED_Driver2_MASTER.c **** *  xferData:  Pointer to buffer of data to be sent.
  49:Generated_Source\PSoC5/LED_Driver2_MASTER.c **** *  cnt:       Size of buffer to send.
  50:Generated_Source\PSoC5/LED_Driver2_MASTER.c **** *  mode:      Transfer mode defines: start or restart condition generation at
  51:Generated_Source\PSoC5/LED_Driver2_MASTER.c **** *             begin of the transfer and complete the transfer or halt before
  52:Generated_Source\PSoC5/LED_Driver2_MASTER.c **** *             generating a stop.
  53:Generated_Source\PSoC5/LED_Driver2_MASTER.c **** *
  54:Generated_Source\PSoC5/LED_Driver2_MASTER.c **** * Return:
  55:Generated_Source\PSoC5/LED_Driver2_MASTER.c **** *  Status error - Zero means no errors.
  56:Generated_Source\PSoC5/LED_Driver2_MASTER.c **** *
  57:Generated_Source\PSoC5/LED_Driver2_MASTER.c **** * Side Effects:
  58:Generated_Source\PSoC5/LED_Driver2_MASTER.c **** *  The included ISR will start a transfer after a start or restart condition is
  59:Generated_Source\PSoC5/LED_Driver2_MASTER.c **** *  generated.
  60:Generated_Source\PSoC5/LED_Driver2_MASTER.c **** *
  61:Generated_Source\PSoC5/LED_Driver2_MASTER.c **** * Global variables:
  62:Generated_Source\PSoC5/LED_Driver2_MASTER.c **** *  LED_Driver2_mstrStatus  - The global variable used to store a current
  63:Generated_Source\PSoC5/LED_Driver2_MASTER.c **** *                                 status of the I2C Master.
  64:Generated_Source\PSoC5/LED_Driver2_MASTER.c **** *  LED_Driver2_state       - The global variable used to store a current
  65:Generated_Source\PSoC5/LED_Driver2_MASTER.c **** *                                 state of the software FSM.
  66:Generated_Source\PSoC5/LED_Driver2_MASTER.c **** *  LED_Driver2_mstrControl - The global variable used to control the master
  67:Generated_Source\PSoC5/LED_Driver2_MASTER.c **** *                                 end of a transaction with or without Stop
  68:Generated_Source\PSoC5/LED_Driver2_MASTER.c **** *                                 generation.
  69:Generated_Source\PSoC5/LED_Driver2_MASTER.c **** *  LED_Driver2_mstrWrBufPtr - The global variable used to store a pointer
  70:Generated_Source\PSoC5/LED_Driver2_MASTER.c **** *                                  to the master write buffer.
  71:Generated_Source\PSoC5/LED_Driver2_MASTER.c **** *  LED_Driver2_mstrWrBufIndex - The global variable used to store current
  72:Generated_Source\PSoC5/LED_Driver2_MASTER.c **** *                                    index within the master write buffer.
  73:Generated_Source\PSoC5/LED_Driver2_MASTER.c **** *  LED_Driver2_mstrWrBufSize - The global variable used to store a master
  74:Generated_Source\PSoC5/LED_Driver2_MASTER.c **** *                                   write buffer size.
  75:Generated_Source\PSoC5/LED_Driver2_MASTER.c **** *
  76:Generated_Source\PSoC5/LED_Driver2_MASTER.c **** * Reentrant:
  77:Generated_Source\PSoC5/LED_Driver2_MASTER.c **** *  No
  78:Generated_Source\PSoC5/LED_Driver2_MASTER.c **** *
  79:Generated_Source\PSoC5/LED_Driver2_MASTER.c **** *******************************************************************************/
  80:Generated_Source\PSoC5/LED_Driver2_MASTER.c **** uint8 LED_Driver2_MasterWriteBuf(uint8 slaveAddress, uint8 * wrData, uint8 cnt, uint8 mode)
ARM GAS  D:\Windows\AppData\Local\Temp\cciO0Pua.s 			page 3


  81:Generated_Source\PSoC5/LED_Driver2_MASTER.c ****       
  82:Generated_Source\PSoC5/LED_Driver2_MASTER.c **** {
  35              		.loc 1 82 0
  36              		.cfi_startproc
  37              		@ args = 0, pretend = 0, frame = 16
  38              		@ frame_needed = 1, uses_anonymous_args = 0
  39              		@ link register save eliminated.
  40 0000 80B4     		push	{r7}
  41              		.cfi_def_cfa_offset 4
  42              		.cfi_offset 7, -4
  43 0002 85B0     		sub	sp, sp, #20
  44              		.cfi_def_cfa_offset 24
  45 0004 00AF     		add	r7, sp, #0
  46              		.cfi_def_cfa_register 7
  47 0006 3960     		str	r1, [r7]
  48 0008 1146     		mov	r1, r2
  49 000a 1A46     		mov	r2, r3
  50 000c 0346     		mov	r3, r0
  51 000e FB71     		strb	r3, [r7, #7]
  52 0010 0B46     		mov	r3, r1
  53 0012 BB71     		strb	r3, [r7, #6]
  54 0014 1346     		mov	r3, r2
  55 0016 7B71     		strb	r3, [r7, #5]
  83:Generated_Source\PSoC5/LED_Driver2_MASTER.c ****     uint8 errStatus;
  84:Generated_Source\PSoC5/LED_Driver2_MASTER.c **** 
  85:Generated_Source\PSoC5/LED_Driver2_MASTER.c ****     errStatus = LED_Driver2_MSTR_NOT_READY;
  56              		.loc 1 85 0
  57 0018 0223     		movs	r3, #2
  58 001a FB73     		strb	r3, [r7, #15]
  86:Generated_Source\PSoC5/LED_Driver2_MASTER.c **** 
  87:Generated_Source\PSoC5/LED_Driver2_MASTER.c ****     if(NULL != wrData)
  59              		.loc 1 87 0
  60 001c 3B68     		ldr	r3, [r7]
  61 001e 002B     		cmp	r3, #0
  62 0020 5DD0     		beq	.L2
  88:Generated_Source\PSoC5/LED_Driver2_MASTER.c ****     {
  89:Generated_Source\PSoC5/LED_Driver2_MASTER.c ****         /* Check I2C state to allow transfer: valid states are IDLE or HALT */
  90:Generated_Source\PSoC5/LED_Driver2_MASTER.c ****         if(LED_Driver2_SM_IDLE == LED_Driver2_state)
  63              		.loc 1 90 0
  64 0022 324B     		ldr	r3, .L10
  65 0024 1B78     		ldrb	r3, [r3]
  66 0026 DBB2     		uxtb	r3, r3
  67 0028 102B     		cmp	r3, #16
  68 002a 0CD1     		bne	.L3
  91:Generated_Source\PSoC5/LED_Driver2_MASTER.c ****         {
  92:Generated_Source\PSoC5/LED_Driver2_MASTER.c ****             /* Master is ready for transaction: check if bus is free */
  93:Generated_Source\PSoC5/LED_Driver2_MASTER.c ****             if(LED_Driver2_CHECK_BUS_FREE(LED_Driver2_MCSR_REG))
  69              		.loc 1 93 0
  70 002c 304B     		ldr	r3, .L10+4
  71 002e 1B78     		ldrb	r3, [r3]
  72 0030 DBB2     		uxtb	r3, r3
  73 0032 03F01003 		and	r3, r3, #16
  74 0036 002B     		cmp	r3, #0
  75 0038 02D1     		bne	.L4
  94:Generated_Source\PSoC5/LED_Driver2_MASTER.c ****             {
  95:Generated_Source\PSoC5/LED_Driver2_MASTER.c ****                 errStatus = LED_Driver2_MSTR_NO_ERROR;
  76              		.loc 1 95 0
ARM GAS  D:\Windows\AppData\Local\Temp\cciO0Pua.s 			page 4


  77 003a 0023     		movs	r3, #0
  78 003c FB73     		strb	r3, [r7, #15]
  79 003e 14E0     		b	.L6
  80              	.L4:
  96:Generated_Source\PSoC5/LED_Driver2_MASTER.c ****             }
  97:Generated_Source\PSoC5/LED_Driver2_MASTER.c ****             else
  98:Generated_Source\PSoC5/LED_Driver2_MASTER.c ****             {
  99:Generated_Source\PSoC5/LED_Driver2_MASTER.c ****                 errStatus = LED_Driver2_MSTR_BUS_BUSY;
  81              		.loc 1 99 0
  82 0040 0123     		movs	r3, #1
  83 0042 FB73     		strb	r3, [r7, #15]
  84 0044 11E0     		b	.L6
  85              	.L3:
 100:Generated_Source\PSoC5/LED_Driver2_MASTER.c ****             }
 101:Generated_Source\PSoC5/LED_Driver2_MASTER.c ****         }
 102:Generated_Source\PSoC5/LED_Driver2_MASTER.c ****         else if(LED_Driver2_SM_MSTR_HALT == LED_Driver2_state)
  86              		.loc 1 102 0
  87 0046 294B     		ldr	r3, .L10
  88 0048 1B78     		ldrb	r3, [r3]
  89 004a DBB2     		uxtb	r3, r3
  90 004c 602B     		cmp	r3, #96
  91 004e 0CD1     		bne	.L6
 103:Generated_Source\PSoC5/LED_Driver2_MASTER.c ****         {
 104:Generated_Source\PSoC5/LED_Driver2_MASTER.c ****             /* Master is ready and waiting for ReStart */
 105:Generated_Source\PSoC5/LED_Driver2_MASTER.c ****             errStatus = LED_Driver2_MSTR_NO_ERROR;
  92              		.loc 1 105 0
  93 0050 0023     		movs	r3, #0
  94 0052 FB73     		strb	r3, [r7, #15]
 106:Generated_Source\PSoC5/LED_Driver2_MASTER.c **** 
 107:Generated_Source\PSoC5/LED_Driver2_MASTER.c ****             LED_Driver2_ClearPendingInt();
  95              		.loc 1 107 0
  96 0054 274B     		ldr	r3, .L10+8
  97 0056 0222     		movs	r2, #2
  98 0058 1A60     		str	r2, [r3]
 108:Generated_Source\PSoC5/LED_Driver2_MASTER.c ****             LED_Driver2_mstrStatus &= (uint8) ~LED_Driver2_MSTAT_XFER_HALT;
  99              		.loc 1 108 0
 100 005a 274B     		ldr	r3, .L10+12
 101 005c 1B78     		ldrb	r3, [r3]
 102 005e DBB2     		uxtb	r3, r3
 103 0060 23F00803 		bic	r3, r3, #8
 104 0064 DAB2     		uxtb	r2, r3
 105 0066 244B     		ldr	r3, .L10+12
 106 0068 1A70     		strb	r2, [r3]
 107              	.L6:
 109:Generated_Source\PSoC5/LED_Driver2_MASTER.c ****         }
 110:Generated_Source\PSoC5/LED_Driver2_MASTER.c ****         else
 111:Generated_Source\PSoC5/LED_Driver2_MASTER.c ****         {
 112:Generated_Source\PSoC5/LED_Driver2_MASTER.c ****             /* errStatus = LED_Driver2_MSTR_NOT_READY was send before */
 113:Generated_Source\PSoC5/LED_Driver2_MASTER.c ****         }
 114:Generated_Source\PSoC5/LED_Driver2_MASTER.c **** 
 115:Generated_Source\PSoC5/LED_Driver2_MASTER.c ****         if(LED_Driver2_MSTR_NO_ERROR == errStatus)
 108              		.loc 1 115 0
 109 006a FB7B     		ldrb	r3, [r7, #15]	@ zero_extendqisi2
 110 006c 002B     		cmp	r3, #0
 111 006e 36D1     		bne	.L2
 116:Generated_Source\PSoC5/LED_Driver2_MASTER.c ****         {
 117:Generated_Source\PSoC5/LED_Driver2_MASTER.c ****             /* Set state to start write transaction */
ARM GAS  D:\Windows\AppData\Local\Temp\cciO0Pua.s 			page 5


 118:Generated_Source\PSoC5/LED_Driver2_MASTER.c ****             LED_Driver2_state = LED_Driver2_SM_MSTR_WR_ADDR;
 112              		.loc 1 118 0
 113 0070 1E4B     		ldr	r3, .L10
 114 0072 4522     		movs	r2, #69
 115 0074 1A70     		strb	r2, [r3]
 119:Generated_Source\PSoC5/LED_Driver2_MASTER.c **** 
 120:Generated_Source\PSoC5/LED_Driver2_MASTER.c ****             /* Prepare write buffer */
 121:Generated_Source\PSoC5/LED_Driver2_MASTER.c ****             LED_Driver2_mstrWrBufIndex = 0u;
 116              		.loc 1 121 0
 117 0076 214B     		ldr	r3, .L10+16
 118 0078 0022     		movs	r2, #0
 119 007a 1A70     		strb	r2, [r3]
 122:Generated_Source\PSoC5/LED_Driver2_MASTER.c ****             LED_Driver2_mstrWrBufSize  = cnt;
 120              		.loc 1 122 0
 121 007c 204A     		ldr	r2, .L10+20
 122 007e BB79     		ldrb	r3, [r7, #6]
 123 0080 1370     		strb	r3, [r2]
 123:Generated_Source\PSoC5/LED_Driver2_MASTER.c ****             LED_Driver2_mstrWrBufPtr   = (volatile uint8 *) wrData;
 124              		.loc 1 123 0
 125 0082 204A     		ldr	r2, .L10+24
 126 0084 3B68     		ldr	r3, [r7]
 127 0086 1360     		str	r3, [r2]
 124:Generated_Source\PSoC5/LED_Driver2_MASTER.c **** 
 125:Generated_Source\PSoC5/LED_Driver2_MASTER.c ****             /* Set end of transaction flag: Stop or Halt (following ReStart) */
 126:Generated_Source\PSoC5/LED_Driver2_MASTER.c ****             LED_Driver2_mstrControl = mode;
 128              		.loc 1 126 0
 129 0088 1F4A     		ldr	r2, .L10+28
 130 008a 7B79     		ldrb	r3, [r7, #5]
 131 008c 1370     		strb	r3, [r2]
 127:Generated_Source\PSoC5/LED_Driver2_MASTER.c **** 
 128:Generated_Source\PSoC5/LED_Driver2_MASTER.c ****             /* Clear write status history */
 129:Generated_Source\PSoC5/LED_Driver2_MASTER.c ****             LED_Driver2_mstrStatus &= (uint8) ~LED_Driver2_MSTAT_WR_CMPLT;
 132              		.loc 1 129 0
 133 008e 1A4B     		ldr	r3, .L10+12
 134 0090 1B78     		ldrb	r3, [r3]
 135 0092 DBB2     		uxtb	r3, r3
 136 0094 23F00203 		bic	r3, r3, #2
 137 0098 DAB2     		uxtb	r2, r3
 138 009a 174B     		ldr	r3, .L10+12
 139 009c 1A70     		strb	r2, [r3]
 130:Generated_Source\PSoC5/LED_Driver2_MASTER.c **** 
 131:Generated_Source\PSoC5/LED_Driver2_MASTER.c ****             /* Hardware actions: write address and generate Start or ReStart */
 132:Generated_Source\PSoC5/LED_Driver2_MASTER.c ****             LED_Driver2_DATA_REG = (uint8) (slaveAddress << LED_Driver2_SLAVE_ADDR_SHIFT);
 140              		.loc 1 132 0
 141 009e 1B4A     		ldr	r2, .L10+32
 142 00a0 FB79     		ldrb	r3, [r7, #7]
 143 00a2 5B00     		lsls	r3, r3, #1
 144 00a4 DBB2     		uxtb	r3, r3
 145 00a6 1370     		strb	r3, [r2]
 133:Generated_Source\PSoC5/LED_Driver2_MASTER.c **** 
 134:Generated_Source\PSoC5/LED_Driver2_MASTER.c ****             if(LED_Driver2_CHECK_RESTART(mode))
 146              		.loc 1 134 0
 147 00a8 7B79     		ldrb	r3, [r7, #5]	@ zero_extendqisi2
 148 00aa 03F00103 		and	r3, r3, #1
 149 00ae 002B     		cmp	r3, #0
 150 00b0 09D0     		beq	.L7
 135:Generated_Source\PSoC5/LED_Driver2_MASTER.c ****             {
ARM GAS  D:\Windows\AppData\Local\Temp\cciO0Pua.s 			page 6


 136:Generated_Source\PSoC5/LED_Driver2_MASTER.c ****                 LED_Driver2_GENERATE_RESTART;
 151              		.loc 1 136 0
 152 00b2 174B     		ldr	r3, .L10+36
 153 00b4 3222     		movs	r2, #50
 154 00b6 1A70     		strb	r2, [r3]
 155 00b8 164B     		ldr	r3, .L10+40
 156 00ba FF22     		movs	r2, #255
 157 00bc 1A70     		strb	r2, [r3]
 158 00be 164B     		ldr	r3, .L10+44
 159 00c0 0022     		movs	r2, #0
 160 00c2 1A70     		strb	r2, [r3]
 161 00c4 08E0     		b	.L8
 162              	.L7:
 137:Generated_Source\PSoC5/LED_Driver2_MASTER.c ****             }
 138:Generated_Source\PSoC5/LED_Driver2_MASTER.c ****             else
 139:Generated_Source\PSoC5/LED_Driver2_MASTER.c ****             {
 140:Generated_Source\PSoC5/LED_Driver2_MASTER.c ****                 LED_Driver2_GENERATE_START;
 163              		.loc 1 140 0
 164 00c6 124B     		ldr	r3, .L10+36
 165 00c8 8222     		movs	r2, #130
 166 00ca 1A70     		strb	r2, [r3]
 167 00cc 114B     		ldr	r3, .L10+40
 168 00ce FF22     		movs	r2, #255
 169 00d0 1A70     		strb	r2, [r3]
 170 00d2 114B     		ldr	r3, .L10+44
 171 00d4 0022     		movs	r2, #0
 172 00d6 1A70     		strb	r2, [r3]
 173              	.L8:
 141:Generated_Source\PSoC5/LED_Driver2_MASTER.c ****             }
 142:Generated_Source\PSoC5/LED_Driver2_MASTER.c **** 
 143:Generated_Source\PSoC5/LED_Driver2_MASTER.c ****             /* Enable interrupt to complete transfer */
 144:Generated_Source\PSoC5/LED_Driver2_MASTER.c ****             LED_Driver2_EnableInt();
 174              		.loc 1 144 0
 175 00d8 104B     		ldr	r3, .L10+48
 176 00da 0222     		movs	r2, #2
 177 00dc 1A60     		str	r2, [r3]
 178              	.L2:
 145:Generated_Source\PSoC5/LED_Driver2_MASTER.c ****         }
 146:Generated_Source\PSoC5/LED_Driver2_MASTER.c ****     }
 147:Generated_Source\PSoC5/LED_Driver2_MASTER.c **** 
 148:Generated_Source\PSoC5/LED_Driver2_MASTER.c ****     return(errStatus);
 179              		.loc 1 148 0
 180 00de FB7B     		ldrb	r3, [r7, #15]	@ zero_extendqisi2
 149:Generated_Source\PSoC5/LED_Driver2_MASTER.c **** }
 181              		.loc 1 149 0
 182 00e0 1846     		mov	r0, r3
 183 00e2 1437     		adds	r7, r7, #20
 184              		.cfi_def_cfa_offset 4
 185 00e4 BD46     		mov	sp, r7
 186              		.cfi_def_cfa_register 13
 187              		@ sp needed
 188 00e6 5DF8047B 		ldr	r7, [sp], #4
 189              		.cfi_restore 7
 190              		.cfi_def_cfa_offset 0
 191 00ea 7047     		bx	lr
 192              	.L11:
 193              		.align	2
ARM GAS  D:\Windows\AppData\Local\Temp\cciO0Pua.s 			page 7


 194              	.L10:
 195 00ec 00000000 		.word	LED_Driver2_state
 196 00f0 6C640040 		.word	1073767532
 197 00f4 80E200E0 		.word	-536812928
 198 00f8 00000000 		.word	LED_Driver2_mstrStatus
 199 00fc 00000000 		.word	LED_Driver2_mstrWrBufIndex
 200 0100 00000000 		.word	LED_Driver2_mstrWrBufSize
 201 0104 00000000 		.word	LED_Driver2_mstrWrBufPtr
 202 0108 00000000 		.word	LED_Driver2_mstrControl
 203 010c 0C640040 		.word	1073767436
 204 0110 7F640040 		.word	1073767551
 205 0114 1C640040 		.word	1073767452
 206 0118 5C640040 		.word	1073767516
 207 011c 00E100E0 		.word	-536813312
 208              		.cfi_endproc
 209              	.LFE0:
 210              		.size	LED_Driver2_MasterWriteBuf, .-LED_Driver2_MasterWriteBuf
 211              		.section	.text.LED_Driver2_MasterReadBuf,"ax",%progbits
 212              		.align	2
 213              		.global	LED_Driver2_MasterReadBuf
 214              		.thumb
 215              		.thumb_func
 216              		.type	LED_Driver2_MasterReadBuf, %function
 217              	LED_Driver2_MasterReadBuf:
 218              	.LFB1:
 150:Generated_Source\PSoC5/LED_Driver2_MASTER.c **** 
 151:Generated_Source\PSoC5/LED_Driver2_MASTER.c **** 
 152:Generated_Source\PSoC5/LED_Driver2_MASTER.c **** /*******************************************************************************
 153:Generated_Source\PSoC5/LED_Driver2_MASTER.c **** * Function Name: LED_Driver2_MasterReadBuf
 154:Generated_Source\PSoC5/LED_Driver2_MASTER.c **** ********************************************************************************
 155:Generated_Source\PSoC5/LED_Driver2_MASTER.c **** *
 156:Generated_Source\PSoC5/LED_Driver2_MASTER.c **** * Summary:
 157:Generated_Source\PSoC5/LED_Driver2_MASTER.c **** *  Automatically writes an entire buffer of data to a slave device. Once the
 158:Generated_Source\PSoC5/LED_Driver2_MASTER.c **** *  data transfer is initiated by this function, further data transfer is handled
 159:Generated_Source\PSoC5/LED_Driver2_MASTER.c **** *  by the included ISR in byte by byte mode.
 160:Generated_Source\PSoC5/LED_Driver2_MASTER.c **** *
 161:Generated_Source\PSoC5/LED_Driver2_MASTER.c **** * Parameters:
 162:Generated_Source\PSoC5/LED_Driver2_MASTER.c **** *  slaveAddr: 7-bit slave address.
 163:Generated_Source\PSoC5/LED_Driver2_MASTER.c **** *  xferData:  Pointer to buffer where to put data from slave.
 164:Generated_Source\PSoC5/LED_Driver2_MASTER.c **** *  cnt:       Size of buffer to read.
 165:Generated_Source\PSoC5/LED_Driver2_MASTER.c **** *  mode:      Transfer mode defines: start or restart condition generation at
 166:Generated_Source\PSoC5/LED_Driver2_MASTER.c **** *             begin of the transfer and complete the transfer or halt before
 167:Generated_Source\PSoC5/LED_Driver2_MASTER.c **** *             generating a stop.
 168:Generated_Source\PSoC5/LED_Driver2_MASTER.c **** *
 169:Generated_Source\PSoC5/LED_Driver2_MASTER.c **** * Return:
 170:Generated_Source\PSoC5/LED_Driver2_MASTER.c **** *  Status error - Zero means no errors.
 171:Generated_Source\PSoC5/LED_Driver2_MASTER.c **** *
 172:Generated_Source\PSoC5/LED_Driver2_MASTER.c **** * Side Effects:
 173:Generated_Source\PSoC5/LED_Driver2_MASTER.c **** *  The included ISR will start a transfer after start or restart condition is
 174:Generated_Source\PSoC5/LED_Driver2_MASTER.c **** *  generated.
 175:Generated_Source\PSoC5/LED_Driver2_MASTER.c **** *
 176:Generated_Source\PSoC5/LED_Driver2_MASTER.c **** * Global variables:
 177:Generated_Source\PSoC5/LED_Driver2_MASTER.c **** *  LED_Driver2_mstrStatus  - The global variable used to store a current
 178:Generated_Source\PSoC5/LED_Driver2_MASTER.c **** *                                 status of the I2C Master.
 179:Generated_Source\PSoC5/LED_Driver2_MASTER.c **** *  LED_Driver2_state       - The global variable used to store a current
 180:Generated_Source\PSoC5/LED_Driver2_MASTER.c **** *                                 state of the software FSM.
 181:Generated_Source\PSoC5/LED_Driver2_MASTER.c **** *  LED_Driver2_mstrControl - The global variable used to control the master
ARM GAS  D:\Windows\AppData\Local\Temp\cciO0Pua.s 			page 8


 182:Generated_Source\PSoC5/LED_Driver2_MASTER.c **** *                                 end of a transaction with or without
 183:Generated_Source\PSoC5/LED_Driver2_MASTER.c **** *                                 Stop generation.
 184:Generated_Source\PSoC5/LED_Driver2_MASTER.c **** *  LED_Driver2_mstrRdBufPtr - The global variable used to store a pointer
 185:Generated_Source\PSoC5/LED_Driver2_MASTER.c **** *                                  to the master write buffer.
 186:Generated_Source\PSoC5/LED_Driver2_MASTER.c **** *  LED_Driver2_mstrRdBufIndex - The global variable  used to store a
 187:Generated_Source\PSoC5/LED_Driver2_MASTER.c **** *                                    current index within the master
 188:Generated_Source\PSoC5/LED_Driver2_MASTER.c **** *                                    write buffer.
 189:Generated_Source\PSoC5/LED_Driver2_MASTER.c **** *  LED_Driver2_mstrRdBufSize - The global variable used to store a master
 190:Generated_Source\PSoC5/LED_Driver2_MASTER.c **** *                                   write buffer size.
 191:Generated_Source\PSoC5/LED_Driver2_MASTER.c **** *
 192:Generated_Source\PSoC5/LED_Driver2_MASTER.c **** * Reentrant:
 193:Generated_Source\PSoC5/LED_Driver2_MASTER.c **** *  No.
 194:Generated_Source\PSoC5/LED_Driver2_MASTER.c **** *
 195:Generated_Source\PSoC5/LED_Driver2_MASTER.c **** *******************************************************************************/
 196:Generated_Source\PSoC5/LED_Driver2_MASTER.c **** uint8 LED_Driver2_MasterReadBuf(uint8 slaveAddress, uint8 * rdData, uint8 cnt, uint8 mode)
 197:Generated_Source\PSoC5/LED_Driver2_MASTER.c ****       
 198:Generated_Source\PSoC5/LED_Driver2_MASTER.c **** {
 219              		.loc 1 198 0
 220              		.cfi_startproc
 221              		@ args = 0, pretend = 0, frame = 16
 222              		@ frame_needed = 1, uses_anonymous_args = 0
 223              		@ link register save eliminated.
 224 0000 80B4     		push	{r7}
 225              		.cfi_def_cfa_offset 4
 226              		.cfi_offset 7, -4
 227 0002 85B0     		sub	sp, sp, #20
 228              		.cfi_def_cfa_offset 24
 229 0004 00AF     		add	r7, sp, #0
 230              		.cfi_def_cfa_register 7
 231 0006 3960     		str	r1, [r7]
 232 0008 1146     		mov	r1, r2
 233 000a 1A46     		mov	r2, r3
 234 000c 0346     		mov	r3, r0
 235 000e FB71     		strb	r3, [r7, #7]
 236 0010 0B46     		mov	r3, r1
 237 0012 BB71     		strb	r3, [r7, #6]
 238 0014 1346     		mov	r3, r2
 239 0016 7B71     		strb	r3, [r7, #5]
 199:Generated_Source\PSoC5/LED_Driver2_MASTER.c ****     uint8 errStatus;
 200:Generated_Source\PSoC5/LED_Driver2_MASTER.c **** 
 201:Generated_Source\PSoC5/LED_Driver2_MASTER.c ****     errStatus = LED_Driver2_MSTR_NOT_READY;
 240              		.loc 1 201 0
 241 0018 0223     		movs	r3, #2
 242 001a FB73     		strb	r3, [r7, #15]
 202:Generated_Source\PSoC5/LED_Driver2_MASTER.c **** 
 203:Generated_Source\PSoC5/LED_Driver2_MASTER.c ****     if(NULL != rdData)
 243              		.loc 1 203 0
 244 001c 3B68     		ldr	r3, [r7]
 245 001e 002B     		cmp	r3, #0
 246 0020 60D0     		beq	.L13
 204:Generated_Source\PSoC5/LED_Driver2_MASTER.c ****     {
 205:Generated_Source\PSoC5/LED_Driver2_MASTER.c ****         /* Check I2C state to allow transfer: valid states are IDLE or HALT */
 206:Generated_Source\PSoC5/LED_Driver2_MASTER.c ****         if(LED_Driver2_SM_IDLE == LED_Driver2_state)
 247              		.loc 1 206 0
 248 0022 344B     		ldr	r3, .L21
 249 0024 1B78     		ldrb	r3, [r3]
 250 0026 DBB2     		uxtb	r3, r3
ARM GAS  D:\Windows\AppData\Local\Temp\cciO0Pua.s 			page 9


 251 0028 102B     		cmp	r3, #16
 252 002a 0CD1     		bne	.L14
 207:Generated_Source\PSoC5/LED_Driver2_MASTER.c ****         {
 208:Generated_Source\PSoC5/LED_Driver2_MASTER.c ****             /* Master is ready to transaction: check if bus is free */
 209:Generated_Source\PSoC5/LED_Driver2_MASTER.c ****             if(LED_Driver2_CHECK_BUS_FREE(LED_Driver2_MCSR_REG))
 253              		.loc 1 209 0
 254 002c 324B     		ldr	r3, .L21+4
 255 002e 1B78     		ldrb	r3, [r3]
 256 0030 DBB2     		uxtb	r3, r3
 257 0032 03F01003 		and	r3, r3, #16
 258 0036 002B     		cmp	r3, #0
 259 0038 02D1     		bne	.L15
 210:Generated_Source\PSoC5/LED_Driver2_MASTER.c ****             {
 211:Generated_Source\PSoC5/LED_Driver2_MASTER.c ****                 errStatus = LED_Driver2_MSTR_NO_ERROR;
 260              		.loc 1 211 0
 261 003a 0023     		movs	r3, #0
 262 003c FB73     		strb	r3, [r7, #15]
 263 003e 14E0     		b	.L17
 264              	.L15:
 212:Generated_Source\PSoC5/LED_Driver2_MASTER.c ****             }
 213:Generated_Source\PSoC5/LED_Driver2_MASTER.c ****             else
 214:Generated_Source\PSoC5/LED_Driver2_MASTER.c ****             {
 215:Generated_Source\PSoC5/LED_Driver2_MASTER.c ****                 errStatus = LED_Driver2_MSTR_BUS_BUSY;
 265              		.loc 1 215 0
 266 0040 0123     		movs	r3, #1
 267 0042 FB73     		strb	r3, [r7, #15]
 268 0044 11E0     		b	.L17
 269              	.L14:
 216:Generated_Source\PSoC5/LED_Driver2_MASTER.c ****             }
 217:Generated_Source\PSoC5/LED_Driver2_MASTER.c ****         }
 218:Generated_Source\PSoC5/LED_Driver2_MASTER.c ****         else if(LED_Driver2_SM_MSTR_HALT == LED_Driver2_state)
 270              		.loc 1 218 0
 271 0046 2B4B     		ldr	r3, .L21
 272 0048 1B78     		ldrb	r3, [r3]
 273 004a DBB2     		uxtb	r3, r3
 274 004c 602B     		cmp	r3, #96
 275 004e 0CD1     		bne	.L17
 219:Generated_Source\PSoC5/LED_Driver2_MASTER.c ****         {
 220:Generated_Source\PSoC5/LED_Driver2_MASTER.c ****             /* Master is ready and waiting for ReStart */
 221:Generated_Source\PSoC5/LED_Driver2_MASTER.c ****             errStatus = LED_Driver2_MSTR_NO_ERROR;
 276              		.loc 1 221 0
 277 0050 0023     		movs	r3, #0
 278 0052 FB73     		strb	r3, [r7, #15]
 222:Generated_Source\PSoC5/LED_Driver2_MASTER.c **** 
 223:Generated_Source\PSoC5/LED_Driver2_MASTER.c ****             LED_Driver2_ClearPendingInt();
 279              		.loc 1 223 0
 280 0054 294B     		ldr	r3, .L21+8
 281 0056 0222     		movs	r2, #2
 282 0058 1A60     		str	r2, [r3]
 224:Generated_Source\PSoC5/LED_Driver2_MASTER.c ****             LED_Driver2_mstrStatus &= (uint8) ~LED_Driver2_MSTAT_XFER_HALT;
 283              		.loc 1 224 0
 284 005a 294B     		ldr	r3, .L21+12
 285 005c 1B78     		ldrb	r3, [r3]
 286 005e DBB2     		uxtb	r3, r3
 287 0060 23F00803 		bic	r3, r3, #8
 288 0064 DAB2     		uxtb	r2, r3
 289 0066 264B     		ldr	r3, .L21+12
ARM GAS  D:\Windows\AppData\Local\Temp\cciO0Pua.s 			page 10


 290 0068 1A70     		strb	r2, [r3]
 291              	.L17:
 225:Generated_Source\PSoC5/LED_Driver2_MASTER.c ****         }
 226:Generated_Source\PSoC5/LED_Driver2_MASTER.c ****         else
 227:Generated_Source\PSoC5/LED_Driver2_MASTER.c ****         {
 228:Generated_Source\PSoC5/LED_Driver2_MASTER.c ****             /* errStatus = LED_Driver2_MSTR_NOT_READY was set before */
 229:Generated_Source\PSoC5/LED_Driver2_MASTER.c ****         }
 230:Generated_Source\PSoC5/LED_Driver2_MASTER.c **** 
 231:Generated_Source\PSoC5/LED_Driver2_MASTER.c ****         if(LED_Driver2_MSTR_NO_ERROR == errStatus)
 292              		.loc 1 231 0
 293 006a FB7B     		ldrb	r3, [r7, #15]	@ zero_extendqisi2
 294 006c 002B     		cmp	r3, #0
 295 006e 39D1     		bne	.L13
 232:Generated_Source\PSoC5/LED_Driver2_MASTER.c ****         {
 233:Generated_Source\PSoC5/LED_Driver2_MASTER.c ****             /* Set state to start write transaction */
 234:Generated_Source\PSoC5/LED_Driver2_MASTER.c ****             LED_Driver2_state = LED_Driver2_SM_MSTR_RD_ADDR;
 296              		.loc 1 234 0
 297 0070 204B     		ldr	r3, .L21
 298 0072 4922     		movs	r2, #73
 299 0074 1A70     		strb	r2, [r3]
 235:Generated_Source\PSoC5/LED_Driver2_MASTER.c **** 
 236:Generated_Source\PSoC5/LED_Driver2_MASTER.c ****             /* Prepare read buffer */
 237:Generated_Source\PSoC5/LED_Driver2_MASTER.c ****             LED_Driver2_mstrRdBufIndex  = 0u;
 300              		.loc 1 237 0
 301 0076 234B     		ldr	r3, .L21+16
 302 0078 0022     		movs	r2, #0
 303 007a 1A70     		strb	r2, [r3]
 238:Generated_Source\PSoC5/LED_Driver2_MASTER.c ****             LED_Driver2_mstrRdBufSize   = cnt;
 304              		.loc 1 238 0
 305 007c 224A     		ldr	r2, .L21+20
 306 007e BB79     		ldrb	r3, [r7, #6]
 307 0080 1370     		strb	r3, [r2]
 239:Generated_Source\PSoC5/LED_Driver2_MASTER.c ****             LED_Driver2_mstrRdBufPtr    = (volatile uint8 *) rdData;
 308              		.loc 1 239 0
 309 0082 224A     		ldr	r2, .L21+24
 310 0084 3B68     		ldr	r3, [r7]
 311 0086 1360     		str	r3, [r2]
 240:Generated_Source\PSoC5/LED_Driver2_MASTER.c **** 
 241:Generated_Source\PSoC5/LED_Driver2_MASTER.c ****             /* Set end of transaction flag: Stop or Halt (following ReStart) */
 242:Generated_Source\PSoC5/LED_Driver2_MASTER.c ****             LED_Driver2_mstrControl = mode;
 312              		.loc 1 242 0
 313 0088 214A     		ldr	r2, .L21+28
 314 008a 7B79     		ldrb	r3, [r7, #5]
 315 008c 1370     		strb	r3, [r2]
 243:Generated_Source\PSoC5/LED_Driver2_MASTER.c **** 
 244:Generated_Source\PSoC5/LED_Driver2_MASTER.c ****             /* Clear read status history */
 245:Generated_Source\PSoC5/LED_Driver2_MASTER.c ****             LED_Driver2_mstrStatus &= (uint8) ~LED_Driver2_MSTAT_RD_CMPLT;
 316              		.loc 1 245 0
 317 008e 1C4B     		ldr	r3, .L21+12
 318 0090 1B78     		ldrb	r3, [r3]
 319 0092 DBB2     		uxtb	r3, r3
 320 0094 23F00103 		bic	r3, r3, #1
 321 0098 DAB2     		uxtb	r2, r3
 322 009a 194B     		ldr	r3, .L21+12
 323 009c 1A70     		strb	r2, [r3]
 246:Generated_Source\PSoC5/LED_Driver2_MASTER.c **** 
 247:Generated_Source\PSoC5/LED_Driver2_MASTER.c ****             /* Hardware actions: write address and generate Start or ReStart */
ARM GAS  D:\Windows\AppData\Local\Temp\cciO0Pua.s 			page 11


 248:Generated_Source\PSoC5/LED_Driver2_MASTER.c ****             LED_Driver2_DATA_REG = ((uint8) (slaveAddress << LED_Driver2_SLAVE_ADDR_SHIFT) |
 324              		.loc 1 248 0
 325 009e 1D4A     		ldr	r2, .L21+32
 326 00a0 FB79     		ldrb	r3, [r7, #7]
 327 00a2 5B00     		lsls	r3, r3, #1
 328 00a4 DBB2     		uxtb	r3, r3
 329 00a6 43F00103 		orr	r3, r3, #1
 330 00aa DBB2     		uxtb	r3, r3
 331 00ac 1370     		strb	r3, [r2]
 249:Generated_Source\PSoC5/LED_Driver2_MASTER.c ****                                                   LED_Driver2_READ_FLAG);
 250:Generated_Source\PSoC5/LED_Driver2_MASTER.c **** 
 251:Generated_Source\PSoC5/LED_Driver2_MASTER.c ****             if(LED_Driver2_CHECK_RESTART(mode))
 332              		.loc 1 251 0
 333 00ae 7B79     		ldrb	r3, [r7, #5]	@ zero_extendqisi2
 334 00b0 03F00103 		and	r3, r3, #1
 335 00b4 002B     		cmp	r3, #0
 336 00b6 09D0     		beq	.L18
 252:Generated_Source\PSoC5/LED_Driver2_MASTER.c ****             {
 253:Generated_Source\PSoC5/LED_Driver2_MASTER.c ****                 LED_Driver2_GENERATE_RESTART;
 337              		.loc 1 253 0
 338 00b8 174B     		ldr	r3, .L21+36
 339 00ba 3222     		movs	r2, #50
 340 00bc 1A70     		strb	r2, [r3]
 341 00be 174B     		ldr	r3, .L21+40
 342 00c0 FF22     		movs	r2, #255
 343 00c2 1A70     		strb	r2, [r3]
 344 00c4 164B     		ldr	r3, .L21+44
 345 00c6 0022     		movs	r2, #0
 346 00c8 1A70     		strb	r2, [r3]
 347 00ca 08E0     		b	.L19
 348              	.L18:
 254:Generated_Source\PSoC5/LED_Driver2_MASTER.c ****             }
 255:Generated_Source\PSoC5/LED_Driver2_MASTER.c ****             else
 256:Generated_Source\PSoC5/LED_Driver2_MASTER.c ****             {
 257:Generated_Source\PSoC5/LED_Driver2_MASTER.c ****                 LED_Driver2_GENERATE_START;
 349              		.loc 1 257 0
 350 00cc 124B     		ldr	r3, .L21+36
 351 00ce 8222     		movs	r2, #130
 352 00d0 1A70     		strb	r2, [r3]
 353 00d2 124B     		ldr	r3, .L21+40
 354 00d4 FF22     		movs	r2, #255
 355 00d6 1A70     		strb	r2, [r3]
 356 00d8 114B     		ldr	r3, .L21+44
 357 00da 0022     		movs	r2, #0
 358 00dc 1A70     		strb	r2, [r3]
 359              	.L19:
 258:Generated_Source\PSoC5/LED_Driver2_MASTER.c ****             }
 259:Generated_Source\PSoC5/LED_Driver2_MASTER.c **** 
 260:Generated_Source\PSoC5/LED_Driver2_MASTER.c ****             /* Enable interrupt to complete transfer */
 261:Generated_Source\PSoC5/LED_Driver2_MASTER.c ****             LED_Driver2_EnableInt();
 360              		.loc 1 261 0
 361 00de 114B     		ldr	r3, .L21+48
 362 00e0 0222     		movs	r2, #2
 363 00e2 1A60     		str	r2, [r3]
 364              	.L13:
 262:Generated_Source\PSoC5/LED_Driver2_MASTER.c ****         }
 263:Generated_Source\PSoC5/LED_Driver2_MASTER.c ****     }
ARM GAS  D:\Windows\AppData\Local\Temp\cciO0Pua.s 			page 12


 264:Generated_Source\PSoC5/LED_Driver2_MASTER.c **** 
 265:Generated_Source\PSoC5/LED_Driver2_MASTER.c ****     return(errStatus);
 365              		.loc 1 265 0
 366 00e4 FB7B     		ldrb	r3, [r7, #15]	@ zero_extendqisi2
 266:Generated_Source\PSoC5/LED_Driver2_MASTER.c **** }
 367              		.loc 1 266 0
 368 00e6 1846     		mov	r0, r3
 369 00e8 1437     		adds	r7, r7, #20
 370              		.cfi_def_cfa_offset 4
 371 00ea BD46     		mov	sp, r7
 372              		.cfi_def_cfa_register 13
 373              		@ sp needed
 374 00ec 5DF8047B 		ldr	r7, [sp], #4
 375              		.cfi_restore 7
 376              		.cfi_def_cfa_offset 0
 377 00f0 7047     		bx	lr
 378              	.L22:
 379 00f2 00BF     		.align	2
 380              	.L21:
 381 00f4 00000000 		.word	LED_Driver2_state
 382 00f8 6C640040 		.word	1073767532
 383 00fc 80E200E0 		.word	-536812928
 384 0100 00000000 		.word	LED_Driver2_mstrStatus
 385 0104 00000000 		.word	LED_Driver2_mstrRdBufIndex
 386 0108 00000000 		.word	LED_Driver2_mstrRdBufSize
 387 010c 00000000 		.word	LED_Driver2_mstrRdBufPtr
 388 0110 00000000 		.word	LED_Driver2_mstrControl
 389 0114 0C640040 		.word	1073767436
 390 0118 7F640040 		.word	1073767551
 391 011c 1C640040 		.word	1073767452
 392 0120 5C640040 		.word	1073767516
 393 0124 00E100E0 		.word	-536813312
 394              		.cfi_endproc
 395              	.LFE1:
 396              		.size	LED_Driver2_MasterReadBuf, .-LED_Driver2_MasterReadBuf
 397              		.section	.text.LED_Driver2_MasterSendStart,"ax",%progbits
 398              		.align	2
 399              		.global	LED_Driver2_MasterSendStart
 400              		.thumb
 401              		.thumb_func
 402              		.type	LED_Driver2_MasterSendStart, %function
 403              	LED_Driver2_MasterSendStart:
 404              	.LFB2:
 267:Generated_Source\PSoC5/LED_Driver2_MASTER.c **** 
 268:Generated_Source\PSoC5/LED_Driver2_MASTER.c **** 
 269:Generated_Source\PSoC5/LED_Driver2_MASTER.c **** /*******************************************************************************
 270:Generated_Source\PSoC5/LED_Driver2_MASTER.c **** * Function Name: LED_Driver2_MasterSendStart
 271:Generated_Source\PSoC5/LED_Driver2_MASTER.c **** ********************************************************************************
 272:Generated_Source\PSoC5/LED_Driver2_MASTER.c **** *
 273:Generated_Source\PSoC5/LED_Driver2_MASTER.c **** * Summary:
 274:Generated_Source\PSoC5/LED_Driver2_MASTER.c **** *  Generates Start condition and sends slave address with read/write bit.
 275:Generated_Source\PSoC5/LED_Driver2_MASTER.c **** *
 276:Generated_Source\PSoC5/LED_Driver2_MASTER.c **** * Parameters:
 277:Generated_Source\PSoC5/LED_Driver2_MASTER.c **** *  slaveAddress:  7-bit slave address.
 278:Generated_Source\PSoC5/LED_Driver2_MASTER.c **** *  R_nW:          Zero, send write command, non-zero send read command.
 279:Generated_Source\PSoC5/LED_Driver2_MASTER.c **** *
 280:Generated_Source\PSoC5/LED_Driver2_MASTER.c **** * Return:
ARM GAS  D:\Windows\AppData\Local\Temp\cciO0Pua.s 			page 13


 281:Generated_Source\PSoC5/LED_Driver2_MASTER.c **** *  Status error - Zero means no errors.
 282:Generated_Source\PSoC5/LED_Driver2_MASTER.c **** *
 283:Generated_Source\PSoC5/LED_Driver2_MASTER.c **** * Side Effects:
 284:Generated_Source\PSoC5/LED_Driver2_MASTER.c **** *  This function is entered without a "byte complete" bit set in the I2C_CSR
 285:Generated_Source\PSoC5/LED_Driver2_MASTER.c **** *  register. It does not exit until it is set.
 286:Generated_Source\PSoC5/LED_Driver2_MASTER.c **** *
 287:Generated_Source\PSoC5/LED_Driver2_MASTER.c **** * Global variables:
 288:Generated_Source\PSoC5/LED_Driver2_MASTER.c **** *  LED_Driver2_state - The global variable used to store a current state of
 289:Generated_Source\PSoC5/LED_Driver2_MASTER.c **** *                           the software FSM.
 290:Generated_Source\PSoC5/LED_Driver2_MASTER.c **** *
 291:Generated_Source\PSoC5/LED_Driver2_MASTER.c **** * Reentrant:
 292:Generated_Source\PSoC5/LED_Driver2_MASTER.c **** *  No.
 293:Generated_Source\PSoC5/LED_Driver2_MASTER.c **** *
 294:Generated_Source\PSoC5/LED_Driver2_MASTER.c **** *******************************************************************************/
 295:Generated_Source\PSoC5/LED_Driver2_MASTER.c **** uint8 LED_Driver2_MasterSendStart(uint8 slaveAddress, uint8 R_nW)
 296:Generated_Source\PSoC5/LED_Driver2_MASTER.c ****       
 297:Generated_Source\PSoC5/LED_Driver2_MASTER.c **** {
 405              		.loc 1 297 0
 406              		.cfi_startproc
 407              		@ args = 0, pretend = 0, frame = 16
 408              		@ frame_needed = 1, uses_anonymous_args = 0
 409              		@ link register save eliminated.
 410 0000 80B4     		push	{r7}
 411              		.cfi_def_cfa_offset 4
 412              		.cfi_offset 7, -4
 413 0002 85B0     		sub	sp, sp, #20
 414              		.cfi_def_cfa_offset 24
 415 0004 00AF     		add	r7, sp, #0
 416              		.cfi_def_cfa_register 7
 417 0006 0346     		mov	r3, r0
 418 0008 0A46     		mov	r2, r1
 419 000a FB71     		strb	r3, [r7, #7]
 420 000c 1346     		mov	r3, r2
 421 000e BB71     		strb	r3, [r7, #6]
 298:Generated_Source\PSoC5/LED_Driver2_MASTER.c ****     uint8 errStatus;
 299:Generated_Source\PSoC5/LED_Driver2_MASTER.c **** 
 300:Generated_Source\PSoC5/LED_Driver2_MASTER.c ****     errStatus = LED_Driver2_MSTR_NOT_READY;
 422              		.loc 1 300 0
 423 0010 0223     		movs	r3, #2
 424 0012 FB73     		strb	r3, [r7, #15]
 301:Generated_Source\PSoC5/LED_Driver2_MASTER.c **** 
 302:Generated_Source\PSoC5/LED_Driver2_MASTER.c ****     /* If IDLE, check if bus is free */
 303:Generated_Source\PSoC5/LED_Driver2_MASTER.c ****     if(LED_Driver2_SM_IDLE == LED_Driver2_state)
 425              		.loc 1 303 0
 426 0014 294B     		ldr	r3, .L33
 427 0016 1B78     		ldrb	r3, [r3]
 428 0018 DBB2     		uxtb	r3, r3
 429 001a 102B     		cmp	r3, #16
 430 001c 47D1     		bne	.L24
 304:Generated_Source\PSoC5/LED_Driver2_MASTER.c ****     {
 305:Generated_Source\PSoC5/LED_Driver2_MASTER.c ****         /* If bus is free, generate Start condition */
 306:Generated_Source\PSoC5/LED_Driver2_MASTER.c ****         if(LED_Driver2_CHECK_BUS_FREE(LED_Driver2_MCSR_REG))
 431              		.loc 1 306 0
 432 001e 284B     		ldr	r3, .L33+4
 433 0020 1B78     		ldrb	r3, [r3]
 434 0022 DBB2     		uxtb	r3, r3
 435 0024 03F01003 		and	r3, r3, #16
ARM GAS  D:\Windows\AppData\Local\Temp\cciO0Pua.s 			page 14


 436 0028 002B     		cmp	r3, #0
 437 002a 3ED1     		bne	.L25
 307:Generated_Source\PSoC5/LED_Driver2_MASTER.c ****         {
 308:Generated_Source\PSoC5/LED_Driver2_MASTER.c ****             /* Disable interrupt for manual master operation */
 309:Generated_Source\PSoC5/LED_Driver2_MASTER.c ****             LED_Driver2_DisableInt();
 438              		.loc 1 309 0
 439 002c 254B     		ldr	r3, .L33+8
 440 002e 0222     		movs	r2, #2
 441 0030 1A60     		str	r2, [r3]
 310:Generated_Source\PSoC5/LED_Driver2_MASTER.c **** 
 311:Generated_Source\PSoC5/LED_Driver2_MASTER.c ****             /* Set address and read/write flag */
 312:Generated_Source\PSoC5/LED_Driver2_MASTER.c ****             slaveAddress = (uint8) (slaveAddress << LED_Driver2_SLAVE_ADDR_SHIFT);
 442              		.loc 1 312 0
 443 0032 FB79     		ldrb	r3, [r7, #7]
 444 0034 5B00     		lsls	r3, r3, #1
 445 0036 FB71     		strb	r3, [r7, #7]
 313:Generated_Source\PSoC5/LED_Driver2_MASTER.c ****             if(0u != R_nW)
 446              		.loc 1 313 0
 447 0038 BB79     		ldrb	r3, [r7, #6]	@ zero_extendqisi2
 448 003a 002B     		cmp	r3, #0
 449 003c 07D0     		beq	.L26
 314:Generated_Source\PSoC5/LED_Driver2_MASTER.c ****             {
 315:Generated_Source\PSoC5/LED_Driver2_MASTER.c ****                 slaveAddress |= LED_Driver2_READ_FLAG;
 450              		.loc 1 315 0
 451 003e FB79     		ldrb	r3, [r7, #7]
 452 0040 43F00103 		orr	r3, r3, #1
 453 0044 FB71     		strb	r3, [r7, #7]
 316:Generated_Source\PSoC5/LED_Driver2_MASTER.c ****                 LED_Driver2_state = LED_Driver2_SM_MSTR_RD_ADDR;
 454              		.loc 1 316 0
 455 0046 1D4B     		ldr	r3, .L33
 456 0048 4922     		movs	r2, #73
 457 004a 1A70     		strb	r2, [r3]
 458 004c 02E0     		b	.L27
 459              	.L26:
 317:Generated_Source\PSoC5/LED_Driver2_MASTER.c ****             }
 318:Generated_Source\PSoC5/LED_Driver2_MASTER.c ****             else
 319:Generated_Source\PSoC5/LED_Driver2_MASTER.c ****             {
 320:Generated_Source\PSoC5/LED_Driver2_MASTER.c ****                 LED_Driver2_state = LED_Driver2_SM_MSTR_WR_ADDR;
 460              		.loc 1 320 0
 461 004e 1B4B     		ldr	r3, .L33
 462 0050 4522     		movs	r2, #69
 463 0052 1A70     		strb	r2, [r3]
 464              	.L27:
 321:Generated_Source\PSoC5/LED_Driver2_MASTER.c ****             }
 322:Generated_Source\PSoC5/LED_Driver2_MASTER.c **** 
 323:Generated_Source\PSoC5/LED_Driver2_MASTER.c ****             /* Hardware actions: write address and generate Start */
 324:Generated_Source\PSoC5/LED_Driver2_MASTER.c ****             LED_Driver2_DATA_REG = slaveAddress;
 465              		.loc 1 324 0
 466 0054 1C4A     		ldr	r2, .L33+12
 467 0056 FB79     		ldrb	r3, [r7, #7]
 468 0058 1370     		strb	r3, [r2]
 325:Generated_Source\PSoC5/LED_Driver2_MASTER.c ****             LED_Driver2_GENERATE_START_MANUAL;
 469              		.loc 1 325 0
 470 005a 1C4B     		ldr	r3, .L33+16
 471 005c 8222     		movs	r2, #130
 472 005e 1A70     		strb	r2, [r3]
 473 0060 1B4B     		ldr	r3, .L33+20
ARM GAS  D:\Windows\AppData\Local\Temp\cciO0Pua.s 			page 15


 474 0062 FF22     		movs	r2, #255
 475 0064 1A70     		strb	r2, [r3]
 476 0066 1B4B     		ldr	r3, .L33+24
 477 0068 0022     		movs	r2, #0
 478 006a 1A70     		strb	r2, [r3]
 479 006c 00BF     		nop
 480              	.L28:
 481              		.loc 1 325 0 is_stmt 0 discriminator 2
 482 006e 184B     		ldr	r3, .L33+20
 483 0070 1B78     		ldrb	r3, [r3]
 484 0072 DBB2     		uxtb	r3, r3
 485 0074 002B     		cmp	r3, #0
 486 0076 FAD1     		bne	.L28
 326:Generated_Source\PSoC5/LED_Driver2_MASTER.c **** 
 327:Generated_Source\PSoC5/LED_Driver2_MASTER.c ****             /* Wait until address is transferred */
 328:Generated_Source\PSoC5/LED_Driver2_MASTER.c ****             while(LED_Driver2_WAIT_BYTE_COMPLETE(LED_Driver2_CSR_REG))
 487              		.loc 1 328 0 is_stmt 1
 488 0078 00BF     		nop
 489              	.L29:
 490              		.loc 1 328 0 is_stmt 0 discriminator 1
 491 007a 114B     		ldr	r3, .L33+4
 492 007c 1B78     		ldrb	r3, [r3]
 493 007e DBB2     		uxtb	r3, r3
 494 0080 03F00103 		and	r3, r3, #1
 495 0084 002B     		cmp	r3, #0
 496 0086 F8D0     		beq	.L29
 329:Generated_Source\PSoC5/LED_Driver2_MASTER.c ****             {
 330:Generated_Source\PSoC5/LED_Driver2_MASTER.c ****             }
 331:Generated_Source\PSoC5/LED_Driver2_MASTER.c **** 
 332:Generated_Source\PSoC5/LED_Driver2_MASTER.c ****         #if(LED_Driver2_MODE_MULTI_MASTER_SLAVE_ENABLED)
 333:Generated_Source\PSoC5/LED_Driver2_MASTER.c ****             if(LED_Driver2_CHECK_START_GEN(LED_Driver2_MCSR_REG))
 334:Generated_Source\PSoC5/LED_Driver2_MASTER.c ****             {
 335:Generated_Source\PSoC5/LED_Driver2_MASTER.c ****                 LED_Driver2_CLEAR_START_GEN;
 336:Generated_Source\PSoC5/LED_Driver2_MASTER.c **** 
 337:Generated_Source\PSoC5/LED_Driver2_MASTER.c ****                 /* Start condition was not generated: reset FSM to IDLE */
 338:Generated_Source\PSoC5/LED_Driver2_MASTER.c ****                 LED_Driver2_state = LED_Driver2_SM_IDLE;
 339:Generated_Source\PSoC5/LED_Driver2_MASTER.c ****                 errStatus = LED_Driver2_MSTR_ERR_ABORT_START_GEN;
 340:Generated_Source\PSoC5/LED_Driver2_MASTER.c ****             }
 341:Generated_Source\PSoC5/LED_Driver2_MASTER.c ****             else
 342:Generated_Source\PSoC5/LED_Driver2_MASTER.c ****         #endif /* (LED_Driver2_MODE_MULTI_MASTER_SLAVE_ENABLED) */
 343:Generated_Source\PSoC5/LED_Driver2_MASTER.c **** 
 344:Generated_Source\PSoC5/LED_Driver2_MASTER.c ****         #if(LED_Driver2_MODE_MULTI_MASTER_ENABLED)
 345:Generated_Source\PSoC5/LED_Driver2_MASTER.c ****             if(LED_Driver2_CHECK_LOST_ARB(LED_Driver2_CSR_REG))
 346:Generated_Source\PSoC5/LED_Driver2_MASTER.c ****             {
 347:Generated_Source\PSoC5/LED_Driver2_MASTER.c ****                 LED_Driver2_BUS_RELEASE_MANUAL;
 348:Generated_Source\PSoC5/LED_Driver2_MASTER.c **** 
 349:Generated_Source\PSoC5/LED_Driver2_MASTER.c ****                 /* Master lost arbitrage: reset FSM to IDLE */
 350:Generated_Source\PSoC5/LED_Driver2_MASTER.c ****                 LED_Driver2_state = LED_Driver2_SM_IDLE;
 351:Generated_Source\PSoC5/LED_Driver2_MASTER.c ****                 errStatus = LED_Driver2_MSTR_ERR_ARB_LOST;
 352:Generated_Source\PSoC5/LED_Driver2_MASTER.c ****             }
 353:Generated_Source\PSoC5/LED_Driver2_MASTER.c ****             else
 354:Generated_Source\PSoC5/LED_Driver2_MASTER.c ****         #endif /* (LED_Driver2_MODE_MULTI_MASTER_ENABLED) */
 355:Generated_Source\PSoC5/LED_Driver2_MASTER.c **** 
 356:Generated_Source\PSoC5/LED_Driver2_MASTER.c ****             if(LED_Driver2_CHECK_ADDR_NAK(LED_Driver2_CSR_REG))
 497              		.loc 1 356 0 is_stmt 1
 498 0088 0D4B     		ldr	r3, .L33+4
 499 008a 1B78     		ldrb	r3, [r3]
ARM GAS  D:\Windows\AppData\Local\Temp\cciO0Pua.s 			page 16


 500 008c DBB2     		uxtb	r3, r3
 501 008e 03F00A03 		and	r3, r3, #10
 502 0092 DBB2     		uxtb	r3, r3
 503 0094 0A2B     		cmp	r3, #10
 504 0096 05D1     		bne	.L30
 357:Generated_Source\PSoC5/LED_Driver2_MASTER.c ****             {
 358:Generated_Source\PSoC5/LED_Driver2_MASTER.c ****                 /* Address has been NACKed: reset FSM to IDLE */
 359:Generated_Source\PSoC5/LED_Driver2_MASTER.c ****                 LED_Driver2_state = LED_Driver2_SM_IDLE;
 505              		.loc 1 359 0
 506 0098 084B     		ldr	r3, .L33
 507 009a 1022     		movs	r2, #16
 508 009c 1A70     		strb	r2, [r3]
 360:Generated_Source\PSoC5/LED_Driver2_MASTER.c ****                 errStatus = LED_Driver2_MSTR_ERR_LB_NAK;
 509              		.loc 1 360 0
 510 009e 0323     		movs	r3, #3
 511 00a0 FB73     		strb	r3, [r7, #15]
 512 00a2 04E0     		b	.L24
 513              	.L30:
 361:Generated_Source\PSoC5/LED_Driver2_MASTER.c ****             }
 362:Generated_Source\PSoC5/LED_Driver2_MASTER.c ****             else
 363:Generated_Source\PSoC5/LED_Driver2_MASTER.c ****             {
 364:Generated_Source\PSoC5/LED_Driver2_MASTER.c ****                 /* Start was sent without errors */
 365:Generated_Source\PSoC5/LED_Driver2_MASTER.c ****                 errStatus = LED_Driver2_MSTR_NO_ERROR;
 514              		.loc 1 365 0
 515 00a4 0023     		movs	r3, #0
 516 00a6 FB73     		strb	r3, [r7, #15]
 517 00a8 01E0     		b	.L24
 518              	.L25:
 366:Generated_Source\PSoC5/LED_Driver2_MASTER.c ****             }
 367:Generated_Source\PSoC5/LED_Driver2_MASTER.c ****         }
 368:Generated_Source\PSoC5/LED_Driver2_MASTER.c ****         else
 369:Generated_Source\PSoC5/LED_Driver2_MASTER.c ****         {
 370:Generated_Source\PSoC5/LED_Driver2_MASTER.c ****             errStatus = LED_Driver2_MSTR_BUS_BUSY;
 519              		.loc 1 370 0
 520 00aa 0123     		movs	r3, #1
 521 00ac FB73     		strb	r3, [r7, #15]
 522              	.L24:
 371:Generated_Source\PSoC5/LED_Driver2_MASTER.c ****         }
 372:Generated_Source\PSoC5/LED_Driver2_MASTER.c ****     }
 373:Generated_Source\PSoC5/LED_Driver2_MASTER.c **** 
 374:Generated_Source\PSoC5/LED_Driver2_MASTER.c ****     return(errStatus);
 523              		.loc 1 374 0
 524 00ae FB7B     		ldrb	r3, [r7, #15]	@ zero_extendqisi2
 375:Generated_Source\PSoC5/LED_Driver2_MASTER.c **** }
 525              		.loc 1 375 0
 526 00b0 1846     		mov	r0, r3
 527 00b2 1437     		adds	r7, r7, #20
 528              		.cfi_def_cfa_offset 4
 529 00b4 BD46     		mov	sp, r7
 530              		.cfi_def_cfa_register 13
 531              		@ sp needed
 532 00b6 5DF8047B 		ldr	r7, [sp], #4
 533              		.cfi_restore 7
 534              		.cfi_def_cfa_offset 0
 535 00ba 7047     		bx	lr
 536              	.L34:
 537              		.align	2
ARM GAS  D:\Windows\AppData\Local\Temp\cciO0Pua.s 			page 17


 538              	.L33:
 539 00bc 00000000 		.word	LED_Driver2_state
 540 00c0 6C640040 		.word	1073767532
 541 00c4 80E100E0 		.word	-536813184
 542 00c8 0C640040 		.word	1073767436
 543 00cc 7F640040 		.word	1073767551
 544 00d0 1C640040 		.word	1073767452
 545 00d4 5C640040 		.word	1073767516
 546              		.cfi_endproc
 547              	.LFE2:
 548              		.size	LED_Driver2_MasterSendStart, .-LED_Driver2_MasterSendStart
 549              		.section	.text.LED_Driver2_MasterSendRestart,"ax",%progbits
 550              		.align	2
 551              		.global	LED_Driver2_MasterSendRestart
 552              		.thumb
 553              		.thumb_func
 554              		.type	LED_Driver2_MasterSendRestart, %function
 555              	LED_Driver2_MasterSendRestart:
 556              	.LFB3:
 376:Generated_Source\PSoC5/LED_Driver2_MASTER.c **** 
 377:Generated_Source\PSoC5/LED_Driver2_MASTER.c **** 
 378:Generated_Source\PSoC5/LED_Driver2_MASTER.c **** /*******************************************************************************
 379:Generated_Source\PSoC5/LED_Driver2_MASTER.c **** * Function Name: LED_Driver2_MasterSendRestart
 380:Generated_Source\PSoC5/LED_Driver2_MASTER.c **** ********************************************************************************
 381:Generated_Source\PSoC5/LED_Driver2_MASTER.c **** *
 382:Generated_Source\PSoC5/LED_Driver2_MASTER.c **** * Summary:
 383:Generated_Source\PSoC5/LED_Driver2_MASTER.c **** *  Generates ReStart condition and sends slave address with read/write bit.
 384:Generated_Source\PSoC5/LED_Driver2_MASTER.c **** *
 385:Generated_Source\PSoC5/LED_Driver2_MASTER.c **** * Parameters:
 386:Generated_Source\PSoC5/LED_Driver2_MASTER.c **** *  slaveAddress:  7-bit slave address.
 387:Generated_Source\PSoC5/LED_Driver2_MASTER.c **** *  R_nW:          Zero, send write command, non-zero send read command.
 388:Generated_Source\PSoC5/LED_Driver2_MASTER.c **** *
 389:Generated_Source\PSoC5/LED_Driver2_MASTER.c **** * Return:
 390:Generated_Source\PSoC5/LED_Driver2_MASTER.c **** *  Status error - Zero means no errors.
 391:Generated_Source\PSoC5/LED_Driver2_MASTER.c **** *
 392:Generated_Source\PSoC5/LED_Driver2_MASTER.c **** * Side Effects:
 393:Generated_Source\PSoC5/LED_Driver2_MASTER.c **** *  This function is entered without a "byte complete" bit set in the I2C_CSR
 394:Generated_Source\PSoC5/LED_Driver2_MASTER.c **** *  register. It does not exit until it is set.
 395:Generated_Source\PSoC5/LED_Driver2_MASTER.c **** *
 396:Generated_Source\PSoC5/LED_Driver2_MASTER.c **** * Global variables:
 397:Generated_Source\PSoC5/LED_Driver2_MASTER.c **** *  LED_Driver2_state - The global variable used to store a current state of
 398:Generated_Source\PSoC5/LED_Driver2_MASTER.c **** *                           the software FSM.
 399:Generated_Source\PSoC5/LED_Driver2_MASTER.c **** *
 400:Generated_Source\PSoC5/LED_Driver2_MASTER.c **** * Reentrant:
 401:Generated_Source\PSoC5/LED_Driver2_MASTER.c **** *  No.
 402:Generated_Source\PSoC5/LED_Driver2_MASTER.c **** *
 403:Generated_Source\PSoC5/LED_Driver2_MASTER.c **** *******************************************************************************/
 404:Generated_Source\PSoC5/LED_Driver2_MASTER.c **** uint8 LED_Driver2_MasterSendRestart(uint8 slaveAddress, uint8 R_nW)
 405:Generated_Source\PSoC5/LED_Driver2_MASTER.c ****       
 406:Generated_Source\PSoC5/LED_Driver2_MASTER.c **** {
 557              		.loc 1 406 0
 558              		.cfi_startproc
 559              		@ args = 0, pretend = 0, frame = 16
 560              		@ frame_needed = 1, uses_anonymous_args = 0
 561              		@ link register save eliminated.
 562 0000 80B4     		push	{r7}
 563              		.cfi_def_cfa_offset 4
ARM GAS  D:\Windows\AppData\Local\Temp\cciO0Pua.s 			page 18


 564              		.cfi_offset 7, -4
 565 0002 85B0     		sub	sp, sp, #20
 566              		.cfi_def_cfa_offset 24
 567 0004 00AF     		add	r7, sp, #0
 568              		.cfi_def_cfa_register 7
 569 0006 0346     		mov	r3, r0
 570 0008 0A46     		mov	r2, r1
 571 000a FB71     		strb	r3, [r7, #7]
 572 000c 1346     		mov	r3, r2
 573 000e BB71     		strb	r3, [r7, #6]
 407:Generated_Source\PSoC5/LED_Driver2_MASTER.c ****     uint8 errStatus;
 408:Generated_Source\PSoC5/LED_Driver2_MASTER.c **** 
 409:Generated_Source\PSoC5/LED_Driver2_MASTER.c ****     errStatus = LED_Driver2_MSTR_NOT_READY;
 574              		.loc 1 409 0
 575 0010 0223     		movs	r3, #2
 576 0012 FB73     		strb	r3, [r7, #15]
 410:Generated_Source\PSoC5/LED_Driver2_MASTER.c **** 
 411:Generated_Source\PSoC5/LED_Driver2_MASTER.c ****     /* Check if START condition was generated */
 412:Generated_Source\PSoC5/LED_Driver2_MASTER.c ****     if(LED_Driver2_CHECK_MASTER_MODE(LED_Driver2_MCSR_REG))
 577              		.loc 1 412 0
 578 0014 244B     		ldr	r3, .L43
 579 0016 1B78     		ldrb	r3, [r3]
 580 0018 DBB2     		uxtb	r3, r3
 581 001a 03F00403 		and	r3, r3, #4
 582 001e 002B     		cmp	r3, #0
 583 0020 3AD0     		beq	.L36
 413:Generated_Source\PSoC5/LED_Driver2_MASTER.c ****     {
 414:Generated_Source\PSoC5/LED_Driver2_MASTER.c ****         /* Set address and read/write flag */
 415:Generated_Source\PSoC5/LED_Driver2_MASTER.c ****         slaveAddress = (uint8) (slaveAddress << LED_Driver2_SLAVE_ADDR_SHIFT);
 584              		.loc 1 415 0
 585 0022 FB79     		ldrb	r3, [r7, #7]
 586 0024 5B00     		lsls	r3, r3, #1
 587 0026 FB71     		strb	r3, [r7, #7]
 416:Generated_Source\PSoC5/LED_Driver2_MASTER.c ****         if(0u != R_nW)
 588              		.loc 1 416 0
 589 0028 BB79     		ldrb	r3, [r7, #6]	@ zero_extendqisi2
 590 002a 002B     		cmp	r3, #0
 591 002c 07D0     		beq	.L37
 417:Generated_Source\PSoC5/LED_Driver2_MASTER.c ****         {
 418:Generated_Source\PSoC5/LED_Driver2_MASTER.c ****             slaveAddress |= LED_Driver2_READ_FLAG;
 592              		.loc 1 418 0
 593 002e FB79     		ldrb	r3, [r7, #7]
 594 0030 43F00103 		orr	r3, r3, #1
 595 0034 FB71     		strb	r3, [r7, #7]
 419:Generated_Source\PSoC5/LED_Driver2_MASTER.c ****             LED_Driver2_state = LED_Driver2_SM_MSTR_RD_ADDR;
 596              		.loc 1 419 0
 597 0036 1D4B     		ldr	r3, .L43+4
 598 0038 4922     		movs	r2, #73
 599 003a 1A70     		strb	r2, [r3]
 600 003c 02E0     		b	.L38
 601              	.L37:
 420:Generated_Source\PSoC5/LED_Driver2_MASTER.c ****         }
 421:Generated_Source\PSoC5/LED_Driver2_MASTER.c ****         else
 422:Generated_Source\PSoC5/LED_Driver2_MASTER.c ****         {
 423:Generated_Source\PSoC5/LED_Driver2_MASTER.c ****             LED_Driver2_state = LED_Driver2_SM_MSTR_WR_ADDR;
 602              		.loc 1 423 0
 603 003e 1B4B     		ldr	r3, .L43+4
ARM GAS  D:\Windows\AppData\Local\Temp\cciO0Pua.s 			page 19


 604 0040 4522     		movs	r2, #69
 605 0042 1A70     		strb	r2, [r3]
 606              	.L38:
 424:Generated_Source\PSoC5/LED_Driver2_MASTER.c ****         }
 425:Generated_Source\PSoC5/LED_Driver2_MASTER.c **** 
 426:Generated_Source\PSoC5/LED_Driver2_MASTER.c ****         /* Hardware actions: write address and generate ReStart */
 427:Generated_Source\PSoC5/LED_Driver2_MASTER.c ****         LED_Driver2_DATA_REG = slaveAddress;
 607              		.loc 1 427 0
 608 0044 1A4A     		ldr	r2, .L43+8
 609 0046 FB79     		ldrb	r3, [r7, #7]
 610 0048 1370     		strb	r3, [r2]
 428:Generated_Source\PSoC5/LED_Driver2_MASTER.c ****         LED_Driver2_GENERATE_RESTART_MANUAL;
 611              		.loc 1 428 0
 612 004a 1A4B     		ldr	r3, .L43+12
 613 004c 3222     		movs	r2, #50
 614 004e 1A70     		strb	r2, [r3]
 615 0050 194B     		ldr	r3, .L43+16
 616 0052 FF22     		movs	r2, #255
 617 0054 1A70     		strb	r2, [r3]
 618 0056 194B     		ldr	r3, .L43+20
 619 0058 0022     		movs	r2, #0
 620 005a 1A70     		strb	r2, [r3]
 621 005c 00BF     		nop
 622              	.L39:
 623              		.loc 1 428 0 is_stmt 0 discriminator 2
 624 005e 164B     		ldr	r3, .L43+16
 625 0060 1B78     		ldrb	r3, [r3]
 626 0062 DBB2     		uxtb	r3, r3
 627 0064 002B     		cmp	r3, #0
 628 0066 FAD1     		bne	.L39
 429:Generated_Source\PSoC5/LED_Driver2_MASTER.c **** 
 430:Generated_Source\PSoC5/LED_Driver2_MASTER.c ****         /* Wait until address has been transferred */
 431:Generated_Source\PSoC5/LED_Driver2_MASTER.c ****         while(LED_Driver2_WAIT_BYTE_COMPLETE(LED_Driver2_CSR_REG))
 629              		.loc 1 431 0 is_stmt 1
 630 0068 00BF     		nop
 631              	.L40:
 632              		.loc 1 431 0 is_stmt 0 discriminator 1
 633 006a 0F4B     		ldr	r3, .L43
 634 006c 1B78     		ldrb	r3, [r3]
 635 006e DBB2     		uxtb	r3, r3
 636 0070 03F00103 		and	r3, r3, #1
 637 0074 002B     		cmp	r3, #0
 638 0076 F8D0     		beq	.L40
 432:Generated_Source\PSoC5/LED_Driver2_MASTER.c ****         {
 433:Generated_Source\PSoC5/LED_Driver2_MASTER.c ****         }
 434:Generated_Source\PSoC5/LED_Driver2_MASTER.c **** 
 435:Generated_Source\PSoC5/LED_Driver2_MASTER.c ****     #if(LED_Driver2_MODE_MULTI_MASTER_ENABLED)
 436:Generated_Source\PSoC5/LED_Driver2_MASTER.c ****         if(LED_Driver2_CHECK_LOST_ARB(LED_Driver2_CSR_REG))
 437:Generated_Source\PSoC5/LED_Driver2_MASTER.c ****         {
 438:Generated_Source\PSoC5/LED_Driver2_MASTER.c ****             LED_Driver2_BUS_RELEASE_MANUAL;
 439:Generated_Source\PSoC5/LED_Driver2_MASTER.c **** 
 440:Generated_Source\PSoC5/LED_Driver2_MASTER.c ****             /* Master lost arbitrage: reset FSM to IDLE */
 441:Generated_Source\PSoC5/LED_Driver2_MASTER.c ****             LED_Driver2_state = LED_Driver2_SM_IDLE;
 442:Generated_Source\PSoC5/LED_Driver2_MASTER.c ****             errStatus = LED_Driver2_MSTR_ERR_ARB_LOST;
 443:Generated_Source\PSoC5/LED_Driver2_MASTER.c ****         }
 444:Generated_Source\PSoC5/LED_Driver2_MASTER.c ****         else
 445:Generated_Source\PSoC5/LED_Driver2_MASTER.c ****     #endif /* (LED_Driver2_MODE_MULTI_MASTER_ENABLED) */
ARM GAS  D:\Windows\AppData\Local\Temp\cciO0Pua.s 			page 20


 446:Generated_Source\PSoC5/LED_Driver2_MASTER.c **** 
 447:Generated_Source\PSoC5/LED_Driver2_MASTER.c ****         if(LED_Driver2_CHECK_ADDR_NAK(LED_Driver2_CSR_REG))
 639              		.loc 1 447 0 is_stmt 1
 640 0078 0B4B     		ldr	r3, .L43
 641 007a 1B78     		ldrb	r3, [r3]
 642 007c DBB2     		uxtb	r3, r3
 643 007e 03F00A03 		and	r3, r3, #10
 644 0082 DBB2     		uxtb	r3, r3
 645 0084 0A2B     		cmp	r3, #10
 646 0086 05D1     		bne	.L41
 448:Generated_Source\PSoC5/LED_Driver2_MASTER.c ****         {
 449:Generated_Source\PSoC5/LED_Driver2_MASTER.c ****             /* Address has been NACKed: reset FSM to IDLE */
 450:Generated_Source\PSoC5/LED_Driver2_MASTER.c ****             LED_Driver2_state = LED_Driver2_SM_IDLE;
 647              		.loc 1 450 0
 648 0088 084B     		ldr	r3, .L43+4
 649 008a 1022     		movs	r2, #16
 650 008c 1A70     		strb	r2, [r3]
 451:Generated_Source\PSoC5/LED_Driver2_MASTER.c ****             errStatus = LED_Driver2_MSTR_ERR_LB_NAK;
 651              		.loc 1 451 0
 652 008e 0323     		movs	r3, #3
 653 0090 FB73     		strb	r3, [r7, #15]
 654 0092 01E0     		b	.L36
 655              	.L41:
 452:Generated_Source\PSoC5/LED_Driver2_MASTER.c ****         }
 453:Generated_Source\PSoC5/LED_Driver2_MASTER.c ****         else
 454:Generated_Source\PSoC5/LED_Driver2_MASTER.c ****         {
 455:Generated_Source\PSoC5/LED_Driver2_MASTER.c ****             /* ReStart was sent without errors */
 456:Generated_Source\PSoC5/LED_Driver2_MASTER.c ****             errStatus = LED_Driver2_MSTR_NO_ERROR;
 656              		.loc 1 456 0
 657 0094 0023     		movs	r3, #0
 658 0096 FB73     		strb	r3, [r7, #15]
 659              	.L36:
 457:Generated_Source\PSoC5/LED_Driver2_MASTER.c ****         }
 458:Generated_Source\PSoC5/LED_Driver2_MASTER.c ****     }
 459:Generated_Source\PSoC5/LED_Driver2_MASTER.c **** 
 460:Generated_Source\PSoC5/LED_Driver2_MASTER.c ****     return(errStatus);
 660              		.loc 1 460 0
 661 0098 FB7B     		ldrb	r3, [r7, #15]	@ zero_extendqisi2
 461:Generated_Source\PSoC5/LED_Driver2_MASTER.c **** }
 662              		.loc 1 461 0
 663 009a 1846     		mov	r0, r3
 664 009c 1437     		adds	r7, r7, #20
 665              		.cfi_def_cfa_offset 4
 666 009e BD46     		mov	sp, r7
 667              		.cfi_def_cfa_register 13
 668              		@ sp needed
 669 00a0 5DF8047B 		ldr	r7, [sp], #4
 670              		.cfi_restore 7
 671              		.cfi_def_cfa_offset 0
 672 00a4 7047     		bx	lr
 673              	.L44:
 674 00a6 00BF     		.align	2
 675              	.L43:
 676 00a8 6C640040 		.word	1073767532
 677 00ac 00000000 		.word	LED_Driver2_state
 678 00b0 0C640040 		.word	1073767436
 679 00b4 7F640040 		.word	1073767551
ARM GAS  D:\Windows\AppData\Local\Temp\cciO0Pua.s 			page 21


 680 00b8 1C640040 		.word	1073767452
 681 00bc 5C640040 		.word	1073767516
 682              		.cfi_endproc
 683              	.LFE3:
 684              		.size	LED_Driver2_MasterSendRestart, .-LED_Driver2_MasterSendRestart
 685              		.section	.text.LED_Driver2_MasterSendStop,"ax",%progbits
 686              		.align	2
 687              		.global	LED_Driver2_MasterSendStop
 688              		.thumb
 689              		.thumb_func
 690              		.type	LED_Driver2_MasterSendStop, %function
 691              	LED_Driver2_MasterSendStop:
 692              	.LFB4:
 462:Generated_Source\PSoC5/LED_Driver2_MASTER.c **** 
 463:Generated_Source\PSoC5/LED_Driver2_MASTER.c **** 
 464:Generated_Source\PSoC5/LED_Driver2_MASTER.c **** /*******************************************************************************
 465:Generated_Source\PSoC5/LED_Driver2_MASTER.c **** * Function Name: LED_Driver2_MasterSendStop
 466:Generated_Source\PSoC5/LED_Driver2_MASTER.c **** ********************************************************************************
 467:Generated_Source\PSoC5/LED_Driver2_MASTER.c **** *
 468:Generated_Source\PSoC5/LED_Driver2_MASTER.c **** * Summary:
 469:Generated_Source\PSoC5/LED_Driver2_MASTER.c **** *  Generates I2C Stop condition on bus. Function do nothing if Start or Restart
 470:Generated_Source\PSoC5/LED_Driver2_MASTER.c **** *  condition was failed before call this function.
 471:Generated_Source\PSoC5/LED_Driver2_MASTER.c **** *
 472:Generated_Source\PSoC5/LED_Driver2_MASTER.c **** * Parameters:
 473:Generated_Source\PSoC5/LED_Driver2_MASTER.c **** *  None.
 474:Generated_Source\PSoC5/LED_Driver2_MASTER.c **** *
 475:Generated_Source\PSoC5/LED_Driver2_MASTER.c **** * Return:
 476:Generated_Source\PSoC5/LED_Driver2_MASTER.c **** *  Status error - Zero means no errors.
 477:Generated_Source\PSoC5/LED_Driver2_MASTER.c **** *
 478:Generated_Source\PSoC5/LED_Driver2_MASTER.c **** * Side Effects:
 479:Generated_Source\PSoC5/LED_Driver2_MASTER.c **** *  Stop generation is required to complete the transaction.
 480:Generated_Source\PSoC5/LED_Driver2_MASTER.c **** *  This function does not wait until a Stop condition is generated.
 481:Generated_Source\PSoC5/LED_Driver2_MASTER.c **** *
 482:Generated_Source\PSoC5/LED_Driver2_MASTER.c **** * Global variables:
 483:Generated_Source\PSoC5/LED_Driver2_MASTER.c **** *  LED_Driver2_state - The global variable used to store a current state of
 484:Generated_Source\PSoC5/LED_Driver2_MASTER.c **** *                           the software FSM.
 485:Generated_Source\PSoC5/LED_Driver2_MASTER.c **** *
 486:Generated_Source\PSoC5/LED_Driver2_MASTER.c **** * Reentrant:
 487:Generated_Source\PSoC5/LED_Driver2_MASTER.c **** *  No.
 488:Generated_Source\PSoC5/LED_Driver2_MASTER.c **** *
 489:Generated_Source\PSoC5/LED_Driver2_MASTER.c **** *******************************************************************************/
 490:Generated_Source\PSoC5/LED_Driver2_MASTER.c **** uint8 LED_Driver2_MasterSendStop(void) 
 491:Generated_Source\PSoC5/LED_Driver2_MASTER.c **** {
 693              		.loc 1 491 0
 694              		.cfi_startproc
 695              		@ args = 0, pretend = 0, frame = 8
 696              		@ frame_needed = 1, uses_anonymous_args = 0
 697              		@ link register save eliminated.
 698 0000 80B4     		push	{r7}
 699              		.cfi_def_cfa_offset 4
 700              		.cfi_offset 7, -4
 701 0002 83B0     		sub	sp, sp, #12
 702              		.cfi_def_cfa_offset 16
 703 0004 00AF     		add	r7, sp, #0
 704              		.cfi_def_cfa_register 7
 492:Generated_Source\PSoC5/LED_Driver2_MASTER.c ****     uint8 errStatus;
 493:Generated_Source\PSoC5/LED_Driver2_MASTER.c **** 
ARM GAS  D:\Windows\AppData\Local\Temp\cciO0Pua.s 			page 22


 494:Generated_Source\PSoC5/LED_Driver2_MASTER.c ****     errStatus = LED_Driver2_MSTR_NOT_READY;
 705              		.loc 1 494 0
 706 0006 0223     		movs	r3, #2
 707 0008 FB71     		strb	r3, [r7, #7]
 495:Generated_Source\PSoC5/LED_Driver2_MASTER.c **** 
 496:Generated_Source\PSoC5/LED_Driver2_MASTER.c ****     /* Check if master is active on bus */
 497:Generated_Source\PSoC5/LED_Driver2_MASTER.c ****     if(LED_Driver2_CHECK_MASTER_MODE(LED_Driver2_MCSR_REG))
 708              		.loc 1 497 0
 709 000a 154B     		ldr	r3, .L50
 710 000c 1B78     		ldrb	r3, [r3]
 711 000e DBB2     		uxtb	r3, r3
 712 0010 03F00403 		and	r3, r3, #4
 713 0014 002B     		cmp	r3, #0
 714 0016 1BD0     		beq	.L46
 498:Generated_Source\PSoC5/LED_Driver2_MASTER.c ****     {
 499:Generated_Source\PSoC5/LED_Driver2_MASTER.c ****         LED_Driver2_GENERATE_STOP_MANUAL;
 715              		.loc 1 499 0
 716 0018 124B     		ldr	r3, .L50+4
 717 001a 5222     		movs	r2, #82
 718 001c 1A70     		strb	r2, [r3]
 719 001e 124B     		ldr	r3, .L50+8
 720 0020 FF22     		movs	r2, #255
 721 0022 1A70     		strb	r2, [r3]
 722 0024 114B     		ldr	r3, .L50+12
 723 0026 0022     		movs	r2, #0
 724 0028 1A70     		strb	r2, [r3]
 725 002a 00BF     		nop
 726              	.L47:
 727              		.loc 1 499 0 is_stmt 0 discriminator 2
 728 002c 0E4B     		ldr	r3, .L50+8
 729 002e 1B78     		ldrb	r3, [r3]
 730 0030 DBB2     		uxtb	r3, r3
 731 0032 002B     		cmp	r3, #0
 732 0034 FAD1     		bne	.L47
 500:Generated_Source\PSoC5/LED_Driver2_MASTER.c ****         LED_Driver2_state = LED_Driver2_SM_IDLE;
 733              		.loc 1 500 0 is_stmt 1
 734 0036 0E4B     		ldr	r3, .L50+16
 735 0038 1022     		movs	r2, #16
 736 003a 1A70     		strb	r2, [r3]
 501:Generated_Source\PSoC5/LED_Driver2_MASTER.c **** 
 502:Generated_Source\PSoC5/LED_Driver2_MASTER.c ****         /* Wait until stop has been generated */
 503:Generated_Source\PSoC5/LED_Driver2_MASTER.c ****         while(LED_Driver2_WAIT_STOP_COMPLETE(LED_Driver2_CSR_REG))
 737              		.loc 1 503 0
 738 003c 00BF     		nop
 739              	.L48:
 740              		.loc 1 503 0 is_stmt 0 discriminator 1
 741 003e 084B     		ldr	r3, .L50
 742 0040 1B78     		ldrb	r3, [r3]
 743 0042 DBB2     		uxtb	r3, r3
 744 0044 03F02103 		and	r3, r3, #33
 745 0048 002B     		cmp	r3, #0
 746 004a F8D0     		beq	.L48
 504:Generated_Source\PSoC5/LED_Driver2_MASTER.c ****         {
 505:Generated_Source\PSoC5/LED_Driver2_MASTER.c ****         }
 506:Generated_Source\PSoC5/LED_Driver2_MASTER.c **** 
 507:Generated_Source\PSoC5/LED_Driver2_MASTER.c ****         errStatus = LED_Driver2_MSTR_NO_ERROR;
 747              		.loc 1 507 0 is_stmt 1
ARM GAS  D:\Windows\AppData\Local\Temp\cciO0Pua.s 			page 23


 748 004c 0023     		movs	r3, #0
 749 004e FB71     		strb	r3, [r7, #7]
 750              	.L46:
 508:Generated_Source\PSoC5/LED_Driver2_MASTER.c **** 
 509:Generated_Source\PSoC5/LED_Driver2_MASTER.c ****     #if(LED_Driver2_MODE_MULTI_MASTER_ENABLED)
 510:Generated_Source\PSoC5/LED_Driver2_MASTER.c ****         if(LED_Driver2_CHECK_LOST_ARB(LED_Driver2_CSR_REG))
 511:Generated_Source\PSoC5/LED_Driver2_MASTER.c ****         {
 512:Generated_Source\PSoC5/LED_Driver2_MASTER.c ****             LED_Driver2_BUS_RELEASE_MANUAL;
 513:Generated_Source\PSoC5/LED_Driver2_MASTER.c **** 
 514:Generated_Source\PSoC5/LED_Driver2_MASTER.c ****             /* NACK was generated by instead Stop */
 515:Generated_Source\PSoC5/LED_Driver2_MASTER.c ****             errStatus = LED_Driver2_MSTR_ERR_ARB_LOST;
 516:Generated_Source\PSoC5/LED_Driver2_MASTER.c ****         }
 517:Generated_Source\PSoC5/LED_Driver2_MASTER.c ****     #endif /* (LED_Driver2_MODE_MULTI_MASTER_ENABLED) */
 518:Generated_Source\PSoC5/LED_Driver2_MASTER.c ****     }
 519:Generated_Source\PSoC5/LED_Driver2_MASTER.c **** 
 520:Generated_Source\PSoC5/LED_Driver2_MASTER.c ****     return(errStatus);
 751              		.loc 1 520 0
 752 0050 FB79     		ldrb	r3, [r7, #7]	@ zero_extendqisi2
 521:Generated_Source\PSoC5/LED_Driver2_MASTER.c **** }
 753              		.loc 1 521 0
 754 0052 1846     		mov	r0, r3
 755 0054 0C37     		adds	r7, r7, #12
 756              		.cfi_def_cfa_offset 4
 757 0056 BD46     		mov	sp, r7
 758              		.cfi_def_cfa_register 13
 759              		@ sp needed
 760 0058 5DF8047B 		ldr	r7, [sp], #4
 761              		.cfi_restore 7
 762              		.cfi_def_cfa_offset 0
 763 005c 7047     		bx	lr
 764              	.L51:
 765 005e 00BF     		.align	2
 766              	.L50:
 767 0060 6C640040 		.word	1073767532
 768 0064 7F640040 		.word	1073767551
 769 0068 1C640040 		.word	1073767452
 770 006c 5C640040 		.word	1073767516
 771 0070 00000000 		.word	LED_Driver2_state
 772              		.cfi_endproc
 773              	.LFE4:
 774              		.size	LED_Driver2_MasterSendStop, .-LED_Driver2_MasterSendStop
 775              		.section	.text.LED_Driver2_MasterWriteByte,"ax",%progbits
 776              		.align	2
 777              		.global	LED_Driver2_MasterWriteByte
 778              		.thumb
 779              		.thumb_func
 780              		.type	LED_Driver2_MasterWriteByte, %function
 781              	LED_Driver2_MasterWriteByte:
 782              	.LFB5:
 522:Generated_Source\PSoC5/LED_Driver2_MASTER.c **** 
 523:Generated_Source\PSoC5/LED_Driver2_MASTER.c **** 
 524:Generated_Source\PSoC5/LED_Driver2_MASTER.c **** /*******************************************************************************
 525:Generated_Source\PSoC5/LED_Driver2_MASTER.c **** * Function Name: LED_Driver2_MasterWriteByte
 526:Generated_Source\PSoC5/LED_Driver2_MASTER.c **** ********************************************************************************
 527:Generated_Source\PSoC5/LED_Driver2_MASTER.c **** *
 528:Generated_Source\PSoC5/LED_Driver2_MASTER.c **** * Summary:
 529:Generated_Source\PSoC5/LED_Driver2_MASTER.c **** *  Sends one byte to a slave. A valid Start or ReStart condition must be
ARM GAS  D:\Windows\AppData\Local\Temp\cciO0Pua.s 			page 24


 530:Generated_Source\PSoC5/LED_Driver2_MASTER.c **** *  generated before this call this function. Function do nothing if Start or
 531:Generated_Source\PSoC5/LED_Driver2_MASTER.c **** *  Restart condition was failed before call this function.
 532:Generated_Source\PSoC5/LED_Driver2_MASTER.c **** *
 533:Generated_Source\PSoC5/LED_Driver2_MASTER.c **** * Parameters:
 534:Generated_Source\PSoC5/LED_Driver2_MASTER.c **** *  data:  The data byte to send to the slave.
 535:Generated_Source\PSoC5/LED_Driver2_MASTER.c **** *
 536:Generated_Source\PSoC5/LED_Driver2_MASTER.c **** * Return:
 537:Generated_Source\PSoC5/LED_Driver2_MASTER.c **** *  Status error - Zero means no errors.
 538:Generated_Source\PSoC5/LED_Driver2_MASTER.c **** *
 539:Generated_Source\PSoC5/LED_Driver2_MASTER.c **** * Side Effects:
 540:Generated_Source\PSoC5/LED_Driver2_MASTER.c **** *  This function is entered without a "byte complete" bit set in the I2C_CSR
 541:Generated_Source\PSoC5/LED_Driver2_MASTER.c **** *  register. It does not exit until it is set.
 542:Generated_Source\PSoC5/LED_Driver2_MASTER.c **** *
 543:Generated_Source\PSoC5/LED_Driver2_MASTER.c **** * Global variables:
 544:Generated_Source\PSoC5/LED_Driver2_MASTER.c **** *  LED_Driver2_state - The global variable used to store a current state of
 545:Generated_Source\PSoC5/LED_Driver2_MASTER.c **** *                           the software FSM.
 546:Generated_Source\PSoC5/LED_Driver2_MASTER.c **** *
 547:Generated_Source\PSoC5/LED_Driver2_MASTER.c **** *******************************************************************************/
 548:Generated_Source\PSoC5/LED_Driver2_MASTER.c **** uint8 LED_Driver2_MasterWriteByte(uint8 theByte) 
 549:Generated_Source\PSoC5/LED_Driver2_MASTER.c **** {
 783              		.loc 1 549 0
 784              		.cfi_startproc
 785              		@ args = 0, pretend = 0, frame = 16
 786              		@ frame_needed = 1, uses_anonymous_args = 0
 787              		@ link register save eliminated.
 788 0000 80B4     		push	{r7}
 789              		.cfi_def_cfa_offset 4
 790              		.cfi_offset 7, -4
 791 0002 85B0     		sub	sp, sp, #20
 792              		.cfi_def_cfa_offset 24
 793 0004 00AF     		add	r7, sp, #0
 794              		.cfi_def_cfa_register 7
 795 0006 0346     		mov	r3, r0
 796 0008 FB71     		strb	r3, [r7, #7]
 550:Generated_Source\PSoC5/LED_Driver2_MASTER.c ****     uint8 errStatus;
 551:Generated_Source\PSoC5/LED_Driver2_MASTER.c **** 
 552:Generated_Source\PSoC5/LED_Driver2_MASTER.c ****     errStatus = LED_Driver2_MSTR_NOT_READY;
 797              		.loc 1 552 0
 798 000a 0223     		movs	r3, #2
 799 000c FB73     		strb	r3, [r7, #15]
 553:Generated_Source\PSoC5/LED_Driver2_MASTER.c **** 
 554:Generated_Source\PSoC5/LED_Driver2_MASTER.c ****     /* Check if START condition was generated */
 555:Generated_Source\PSoC5/LED_Driver2_MASTER.c ****     if(LED_Driver2_CHECK_MASTER_MODE(LED_Driver2_MCSR_REG))
 800              		.loc 1 555 0
 801 000e 1E4B     		ldr	r3, .L58
 802 0010 1B78     		ldrb	r3, [r3]
 803 0012 DBB2     		uxtb	r3, r3
 804 0014 03F00403 		and	r3, r3, #4
 805 0018 002B     		cmp	r3, #0
 806 001a 2ED0     		beq	.L53
 556:Generated_Source\PSoC5/LED_Driver2_MASTER.c ****     {
 557:Generated_Source\PSoC5/LED_Driver2_MASTER.c ****         LED_Driver2_DATA_REG = theByte;   /* Write DATA register */
 807              		.loc 1 557 0
 808 001c 1B4A     		ldr	r2, .L58+4
 809 001e FB79     		ldrb	r3, [r7, #7]
 810 0020 1370     		strb	r3, [r2]
 558:Generated_Source\PSoC5/LED_Driver2_MASTER.c ****         LED_Driver2_TRANSMIT_DATA_MANUAL; /* Set transmit mode   */
ARM GAS  D:\Windows\AppData\Local\Temp\cciO0Pua.s 			page 25


 811              		.loc 1 558 0
 812 0022 1B4B     		ldr	r3, .L58+8
 813 0024 0622     		movs	r2, #6
 814 0026 1A70     		strb	r2, [r3]
 815 0028 1A4B     		ldr	r3, .L58+12
 816 002a FF22     		movs	r2, #255
 817 002c 1A70     		strb	r2, [r3]
 818 002e 1A4B     		ldr	r3, .L58+16
 819 0030 0022     		movs	r2, #0
 820 0032 1A70     		strb	r2, [r3]
 821 0034 00BF     		nop
 822              	.L54:
 823              		.loc 1 558 0 is_stmt 0 discriminator 2
 824 0036 174B     		ldr	r3, .L58+12
 825 0038 1B78     		ldrb	r3, [r3]
 826 003a DBB2     		uxtb	r3, r3
 827 003c 002B     		cmp	r3, #0
 828 003e FAD1     		bne	.L54
 559:Generated_Source\PSoC5/LED_Driver2_MASTER.c ****         LED_Driver2_state = LED_Driver2_SM_MSTR_WR_DATA;
 829              		.loc 1 559 0 is_stmt 1
 830 0040 164B     		ldr	r3, .L58+20
 831 0042 4622     		movs	r2, #70
 832 0044 1A70     		strb	r2, [r3]
 560:Generated_Source\PSoC5/LED_Driver2_MASTER.c **** 
 561:Generated_Source\PSoC5/LED_Driver2_MASTER.c ****         /* Wait until data byte has been transmitted */
 562:Generated_Source\PSoC5/LED_Driver2_MASTER.c ****         while(LED_Driver2_WAIT_BYTE_COMPLETE(LED_Driver2_CSR_REG))
 833              		.loc 1 562 0
 834 0046 00BF     		nop
 835              	.L55:
 836              		.loc 1 562 0 is_stmt 0 discriminator 1
 837 0048 0F4B     		ldr	r3, .L58
 838 004a 1B78     		ldrb	r3, [r3]
 839 004c DBB2     		uxtb	r3, r3
 840 004e 03F00103 		and	r3, r3, #1
 841 0052 002B     		cmp	r3, #0
 842 0054 F8D0     		beq	.L55
 563:Generated_Source\PSoC5/LED_Driver2_MASTER.c ****         {
 564:Generated_Source\PSoC5/LED_Driver2_MASTER.c ****         }
 565:Generated_Source\PSoC5/LED_Driver2_MASTER.c **** 
 566:Generated_Source\PSoC5/LED_Driver2_MASTER.c ****     #if(LED_Driver2_MODE_MULTI_MASTER_ENABLED)
 567:Generated_Source\PSoC5/LED_Driver2_MASTER.c ****         if(LED_Driver2_CHECK_LOST_ARB(LED_Driver2_CSR_REG))
 568:Generated_Source\PSoC5/LED_Driver2_MASTER.c ****         {
 569:Generated_Source\PSoC5/LED_Driver2_MASTER.c ****             LED_Driver2_BUS_RELEASE_MANUAL;
 570:Generated_Source\PSoC5/LED_Driver2_MASTER.c **** 
 571:Generated_Source\PSoC5/LED_Driver2_MASTER.c ****             /* Master lost arbitrage: reset FSM to IDLE */
 572:Generated_Source\PSoC5/LED_Driver2_MASTER.c ****             LED_Driver2_state = LED_Driver2_SM_IDLE;
 573:Generated_Source\PSoC5/LED_Driver2_MASTER.c ****             errStatus = LED_Driver2_MSTR_ERR_ARB_LOST;
 574:Generated_Source\PSoC5/LED_Driver2_MASTER.c ****         }
 575:Generated_Source\PSoC5/LED_Driver2_MASTER.c ****         /* Check LRB bit */
 576:Generated_Source\PSoC5/LED_Driver2_MASTER.c ****         else
 577:Generated_Source\PSoC5/LED_Driver2_MASTER.c ****     #endif /* (LED_Driver2_MODE_MULTI_MASTER_ENABLED) */
 578:Generated_Source\PSoC5/LED_Driver2_MASTER.c **** 
 579:Generated_Source\PSoC5/LED_Driver2_MASTER.c ****         if(LED_Driver2_CHECK_DATA_ACK(LED_Driver2_CSR_REG))
 843              		.loc 1 579 0 is_stmt 1
 844 0056 0C4B     		ldr	r3, .L58
 845 0058 1B78     		ldrb	r3, [r3]
 846 005a DBB2     		uxtb	r3, r3
ARM GAS  D:\Windows\AppData\Local\Temp\cciO0Pua.s 			page 26


 847 005c 03F00203 		and	r3, r3, #2
 848 0060 002B     		cmp	r3, #0
 849 0062 05D1     		bne	.L56
 580:Generated_Source\PSoC5/LED_Driver2_MASTER.c ****         {
 581:Generated_Source\PSoC5/LED_Driver2_MASTER.c ****             LED_Driver2_state = LED_Driver2_SM_MSTR_HALT;
 850              		.loc 1 581 0
 851 0064 0D4B     		ldr	r3, .L58+20
 852 0066 6022     		movs	r2, #96
 853 0068 1A70     		strb	r2, [r3]
 582:Generated_Source\PSoC5/LED_Driver2_MASTER.c ****             errStatus = LED_Driver2_MSTR_NO_ERROR;
 854              		.loc 1 582 0
 855 006a 0023     		movs	r3, #0
 856 006c FB73     		strb	r3, [r7, #15]
 857 006e 04E0     		b	.L53
 858              	.L56:
 583:Generated_Source\PSoC5/LED_Driver2_MASTER.c ****         }
 584:Generated_Source\PSoC5/LED_Driver2_MASTER.c ****         else
 585:Generated_Source\PSoC5/LED_Driver2_MASTER.c ****         {
 586:Generated_Source\PSoC5/LED_Driver2_MASTER.c ****             LED_Driver2_state = LED_Driver2_SM_MSTR_HALT;
 859              		.loc 1 586 0
 860 0070 0A4B     		ldr	r3, .L58+20
 861 0072 6022     		movs	r2, #96
 862 0074 1A70     		strb	r2, [r3]
 587:Generated_Source\PSoC5/LED_Driver2_MASTER.c ****             errStatus = LED_Driver2_MSTR_ERR_LB_NAK;
 863              		.loc 1 587 0
 864 0076 0323     		movs	r3, #3
 865 0078 FB73     		strb	r3, [r7, #15]
 866              	.L53:
 588:Generated_Source\PSoC5/LED_Driver2_MASTER.c ****         }
 589:Generated_Source\PSoC5/LED_Driver2_MASTER.c ****     }
 590:Generated_Source\PSoC5/LED_Driver2_MASTER.c **** 
 591:Generated_Source\PSoC5/LED_Driver2_MASTER.c ****     return(errStatus);
 867              		.loc 1 591 0
 868 007a FB7B     		ldrb	r3, [r7, #15]	@ zero_extendqisi2
 592:Generated_Source\PSoC5/LED_Driver2_MASTER.c **** }
 869              		.loc 1 592 0
 870 007c 1846     		mov	r0, r3
 871 007e 1437     		adds	r7, r7, #20
 872              		.cfi_def_cfa_offset 4
 873 0080 BD46     		mov	sp, r7
 874              		.cfi_def_cfa_register 13
 875              		@ sp needed
 876 0082 5DF8047B 		ldr	r7, [sp], #4
 877              		.cfi_restore 7
 878              		.cfi_def_cfa_offset 0
 879 0086 7047     		bx	lr
 880              	.L59:
 881              		.align	2
 882              	.L58:
 883 0088 6C640040 		.word	1073767532
 884 008c 0C640040 		.word	1073767436
 885 0090 7F640040 		.word	1073767551
 886 0094 1C640040 		.word	1073767452
 887 0098 5C640040 		.word	1073767516
 888 009c 00000000 		.word	LED_Driver2_state
 889              		.cfi_endproc
 890              	.LFE5:
ARM GAS  D:\Windows\AppData\Local\Temp\cciO0Pua.s 			page 27


 891              		.size	LED_Driver2_MasterWriteByte, .-LED_Driver2_MasterWriteByte
 892              		.section	.text.LED_Driver2_MasterReadByte,"ax",%progbits
 893              		.align	2
 894              		.global	LED_Driver2_MasterReadByte
 895              		.thumb
 896              		.thumb_func
 897              		.type	LED_Driver2_MasterReadByte, %function
 898              	LED_Driver2_MasterReadByte:
 899              	.LFB6:
 593:Generated_Source\PSoC5/LED_Driver2_MASTER.c **** 
 594:Generated_Source\PSoC5/LED_Driver2_MASTER.c **** 
 595:Generated_Source\PSoC5/LED_Driver2_MASTER.c **** /*******************************************************************************
 596:Generated_Source\PSoC5/LED_Driver2_MASTER.c **** * Function Name: LED_Driver2_MasterReadByte
 597:Generated_Source\PSoC5/LED_Driver2_MASTER.c **** ********************************************************************************
 598:Generated_Source\PSoC5/LED_Driver2_MASTER.c **** *
 599:Generated_Source\PSoC5/LED_Driver2_MASTER.c **** * Summary:
 600:Generated_Source\PSoC5/LED_Driver2_MASTER.c **** *  Reads one byte from a slave and ACK or NACK the transfer. A valid Start or
 601:Generated_Source\PSoC5/LED_Driver2_MASTER.c **** *  ReStart condition must be generated before this call this function. Function
 602:Generated_Source\PSoC5/LED_Driver2_MASTER.c **** *  do nothing if Start or Restart condition was failed before call this
 603:Generated_Source\PSoC5/LED_Driver2_MASTER.c **** *  function.
 604:Generated_Source\PSoC5/LED_Driver2_MASTER.c **** *
 605:Generated_Source\PSoC5/LED_Driver2_MASTER.c **** * Parameters:
 606:Generated_Source\PSoC5/LED_Driver2_MASTER.c **** *  acknNack:  Zero, response with NACK, if non-zero response with ACK.
 607:Generated_Source\PSoC5/LED_Driver2_MASTER.c **** *
 608:Generated_Source\PSoC5/LED_Driver2_MASTER.c **** * Return:
 609:Generated_Source\PSoC5/LED_Driver2_MASTER.c **** *  Byte read from slave.
 610:Generated_Source\PSoC5/LED_Driver2_MASTER.c **** *
 611:Generated_Source\PSoC5/LED_Driver2_MASTER.c **** * Side Effects:
 612:Generated_Source\PSoC5/LED_Driver2_MASTER.c **** *  This function is entered without a "byte complete" bit set in the I2C_CSR
 613:Generated_Source\PSoC5/LED_Driver2_MASTER.c **** *  register. It does not exit until it is set.
 614:Generated_Source\PSoC5/LED_Driver2_MASTER.c **** *
 615:Generated_Source\PSoC5/LED_Driver2_MASTER.c **** * Global variables:
 616:Generated_Source\PSoC5/LED_Driver2_MASTER.c **** *  LED_Driver2_state - The global variable used to store a current
 617:Generated_Source\PSoC5/LED_Driver2_MASTER.c **** *                           state of the software FSM.
 618:Generated_Source\PSoC5/LED_Driver2_MASTER.c **** *
 619:Generated_Source\PSoC5/LED_Driver2_MASTER.c **** * Reentrant:
 620:Generated_Source\PSoC5/LED_Driver2_MASTER.c **** *  No.
 621:Generated_Source\PSoC5/LED_Driver2_MASTER.c **** *
 622:Generated_Source\PSoC5/LED_Driver2_MASTER.c **** *******************************************************************************/
 623:Generated_Source\PSoC5/LED_Driver2_MASTER.c **** uint8 LED_Driver2_MasterReadByte(uint8 acknNak) 
 624:Generated_Source\PSoC5/LED_Driver2_MASTER.c **** {
 900              		.loc 1 624 0
 901              		.cfi_startproc
 902              		@ args = 0, pretend = 0, frame = 16
 903              		@ frame_needed = 1, uses_anonymous_args = 0
 904              		@ link register save eliminated.
 905 0000 80B4     		push	{r7}
 906              		.cfi_def_cfa_offset 4
 907              		.cfi_offset 7, -4
 908 0002 85B0     		sub	sp, sp, #20
 909              		.cfi_def_cfa_offset 24
 910 0004 00AF     		add	r7, sp, #0
 911              		.cfi_def_cfa_register 7
 912 0006 0346     		mov	r3, r0
 913 0008 FB71     		strb	r3, [r7, #7]
 625:Generated_Source\PSoC5/LED_Driver2_MASTER.c ****     uint8 theByte;
 626:Generated_Source\PSoC5/LED_Driver2_MASTER.c **** 
ARM GAS  D:\Windows\AppData\Local\Temp\cciO0Pua.s 			page 28


 627:Generated_Source\PSoC5/LED_Driver2_MASTER.c ****     theByte = 0u;
 914              		.loc 1 627 0
 915 000a 0023     		movs	r3, #0
 916 000c FB73     		strb	r3, [r7, #15]
 628:Generated_Source\PSoC5/LED_Driver2_MASTER.c **** 
 629:Generated_Source\PSoC5/LED_Driver2_MASTER.c ****     /* Check if START condition was generated */
 630:Generated_Source\PSoC5/LED_Driver2_MASTER.c ****     if(LED_Driver2_CHECK_MASTER_MODE(LED_Driver2_MCSR_REG))
 917              		.loc 1 630 0
 918 000e 234B     		ldr	r3, .L68
 919 0010 1B78     		ldrb	r3, [r3]
 920 0012 DBB2     		uxtb	r3, r3
 921 0014 03F00403 		and	r3, r3, #4
 922 0018 002B     		cmp	r3, #0
 923 001a 37D0     		beq	.L61
 631:Generated_Source\PSoC5/LED_Driver2_MASTER.c ****     {
 632:Generated_Source\PSoC5/LED_Driver2_MASTER.c ****         /* When address phase needs to release bus and receive byte,
 633:Generated_Source\PSoC5/LED_Driver2_MASTER.c ****         * then decide ACK or NACK
 634:Generated_Source\PSoC5/LED_Driver2_MASTER.c ****         */
 635:Generated_Source\PSoC5/LED_Driver2_MASTER.c ****         if(LED_Driver2_SM_MSTR_RD_ADDR == LED_Driver2_state)
 924              		.loc 1 635 0
 925 001c 204B     		ldr	r3, .L68+4
 926 001e 1B78     		ldrb	r3, [r3]
 927 0020 DBB2     		uxtb	r3, r3
 928 0022 492B     		cmp	r3, #73
 929 0024 11D1     		bne	.L62
 636:Generated_Source\PSoC5/LED_Driver2_MASTER.c ****         {
 637:Generated_Source\PSoC5/LED_Driver2_MASTER.c ****             LED_Driver2_READY_TO_READ_MANUAL;
 930              		.loc 1 637 0
 931 0026 1F4B     		ldr	r3, .L68+8
 932 0028 0222     		movs	r2, #2
 933 002a 1A70     		strb	r2, [r3]
 934 002c 1E4B     		ldr	r3, .L68+12
 935 002e FF22     		movs	r2, #255
 936 0030 1A70     		strb	r2, [r3]
 937 0032 1E4B     		ldr	r3, .L68+16
 938 0034 0022     		movs	r2, #0
 939 0036 1A70     		strb	r2, [r3]
 940 0038 00BF     		nop
 941              	.L63:
 942              		.loc 1 637 0 is_stmt 0 discriminator 2
 943 003a 1B4B     		ldr	r3, .L68+12
 944 003c 1B78     		ldrb	r3, [r3]
 945 003e DBB2     		uxtb	r3, r3
 946 0040 002B     		cmp	r3, #0
 947 0042 FAD1     		bne	.L63
 638:Generated_Source\PSoC5/LED_Driver2_MASTER.c ****             LED_Driver2_state = LED_Driver2_SM_MSTR_RD_DATA;
 948              		.loc 1 638 0 is_stmt 1
 949 0044 164B     		ldr	r3, .L68+4
 950 0046 4A22     		movs	r2, #74
 951 0048 1A70     		strb	r2, [r3]
 952              	.L62:
 639:Generated_Source\PSoC5/LED_Driver2_MASTER.c ****         }
 640:Generated_Source\PSoC5/LED_Driver2_MASTER.c **** 
 641:Generated_Source\PSoC5/LED_Driver2_MASTER.c ****         /* Wait until data byte has been received */
 642:Generated_Source\PSoC5/LED_Driver2_MASTER.c ****         while(LED_Driver2_WAIT_BYTE_COMPLETE(LED_Driver2_CSR_REG))
 953              		.loc 1 642 0
 954 004a 00BF     		nop
ARM GAS  D:\Windows\AppData\Local\Temp\cciO0Pua.s 			page 29


 955              	.L64:
 956              		.loc 1 642 0 is_stmt 0 discriminator 1
 957 004c 134B     		ldr	r3, .L68
 958 004e 1B78     		ldrb	r3, [r3]
 959 0050 DBB2     		uxtb	r3, r3
 960 0052 03F00103 		and	r3, r3, #1
 961 0056 002B     		cmp	r3, #0
 962 0058 F8D0     		beq	.L64
 643:Generated_Source\PSoC5/LED_Driver2_MASTER.c ****         {
 644:Generated_Source\PSoC5/LED_Driver2_MASTER.c ****         }
 645:Generated_Source\PSoC5/LED_Driver2_MASTER.c **** 
 646:Generated_Source\PSoC5/LED_Driver2_MASTER.c ****         theByte = LED_Driver2_DATA_REG;
 963              		.loc 1 646 0 is_stmt 1
 964 005a 154B     		ldr	r3, .L68+20
 965 005c 1B78     		ldrb	r3, [r3]
 966 005e FB73     		strb	r3, [r7, #15]
 647:Generated_Source\PSoC5/LED_Driver2_MASTER.c **** 
 648:Generated_Source\PSoC5/LED_Driver2_MASTER.c ****         /* Command ACK to receive next byte and continue transfer.
 649:Generated_Source\PSoC5/LED_Driver2_MASTER.c ****         *  Do nothing for NACK. The NACK will be generated by
 650:Generated_Source\PSoC5/LED_Driver2_MASTER.c ****         *  Stop or ReStart routine.
 651:Generated_Source\PSoC5/LED_Driver2_MASTER.c ****         */
 652:Generated_Source\PSoC5/LED_Driver2_MASTER.c ****         if(acknNak != 0u) /* Generate ACK */
 967              		.loc 1 652 0
 968 0060 FB79     		ldrb	r3, [r7, #7]	@ zero_extendqisi2
 969 0062 002B     		cmp	r3, #0
 970 0064 0FD0     		beq	.L65
 653:Generated_Source\PSoC5/LED_Driver2_MASTER.c ****         {
 654:Generated_Source\PSoC5/LED_Driver2_MASTER.c ****             LED_Driver2_ACK_AND_RECEIVE_MANUAL;
 971              		.loc 1 654 0
 972 0066 0F4B     		ldr	r3, .L68+8
 973 0068 0222     		movs	r2, #2
 974 006a 1A70     		strb	r2, [r3]
 975 006c 0E4B     		ldr	r3, .L68+12
 976 006e FF22     		movs	r2, #255
 977 0070 1A70     		strb	r2, [r3]
 978 0072 0E4B     		ldr	r3, .L68+16
 979 0074 0022     		movs	r2, #0
 980 0076 1A70     		strb	r2, [r3]
 981 0078 00BF     		nop
 982              	.L66:
 983              		.loc 1 654 0 is_stmt 0 discriminator 2
 984 007a 0B4B     		ldr	r3, .L68+12
 985 007c 1B78     		ldrb	r3, [r3]
 986 007e DBB2     		uxtb	r3, r3
 987 0080 002B     		cmp	r3, #0
 988 0082 FAD1     		bne	.L66
 989 0084 02E0     		b	.L61
 990              	.L65:
 655:Generated_Source\PSoC5/LED_Driver2_MASTER.c ****         }
 656:Generated_Source\PSoC5/LED_Driver2_MASTER.c ****         else              /* Do nothing for the follwong NACK */
 657:Generated_Source\PSoC5/LED_Driver2_MASTER.c ****         {
 658:Generated_Source\PSoC5/LED_Driver2_MASTER.c ****             LED_Driver2_state = LED_Driver2_SM_MSTR_HALT;
 991              		.loc 1 658 0 is_stmt 1
 992 0086 064B     		ldr	r3, .L68+4
 993 0088 6022     		movs	r2, #96
 994 008a 1A70     		strb	r2, [r3]
 995              	.L61:
ARM GAS  D:\Windows\AppData\Local\Temp\cciO0Pua.s 			page 30


 659:Generated_Source\PSoC5/LED_Driver2_MASTER.c ****         }
 660:Generated_Source\PSoC5/LED_Driver2_MASTER.c ****     }
 661:Generated_Source\PSoC5/LED_Driver2_MASTER.c **** 
 662:Generated_Source\PSoC5/LED_Driver2_MASTER.c ****     return(theByte);
 996              		.loc 1 662 0
 997 008c FB7B     		ldrb	r3, [r7, #15]	@ zero_extendqisi2
 663:Generated_Source\PSoC5/LED_Driver2_MASTER.c **** }
 998              		.loc 1 663 0
 999 008e 1846     		mov	r0, r3
 1000 0090 1437     		adds	r7, r7, #20
 1001              		.cfi_def_cfa_offset 4
 1002 0092 BD46     		mov	sp, r7
 1003              		.cfi_def_cfa_register 13
 1004              		@ sp needed
 1005 0094 5DF8047B 		ldr	r7, [sp], #4
 1006              		.cfi_restore 7
 1007              		.cfi_def_cfa_offset 0
 1008 0098 7047     		bx	lr
 1009              	.L69:
 1010 009a 00BF     		.align	2
 1011              	.L68:
 1012 009c 6C640040 		.word	1073767532
 1013 00a0 00000000 		.word	LED_Driver2_state
 1014 00a4 7F640040 		.word	1073767551
 1015 00a8 1C640040 		.word	1073767452
 1016 00ac 5C640040 		.word	1073767516
 1017 00b0 0C640040 		.word	1073767436
 1018              		.cfi_endproc
 1019              	.LFE6:
 1020              		.size	LED_Driver2_MasterReadByte, .-LED_Driver2_MasterReadByte
 1021              		.section	.text.LED_Driver2_MasterStatus,"ax",%progbits
 1022              		.align	2
 1023              		.global	LED_Driver2_MasterStatus
 1024              		.thumb
 1025              		.thumb_func
 1026              		.type	LED_Driver2_MasterStatus, %function
 1027              	LED_Driver2_MasterStatus:
 1028              	.LFB7:
 664:Generated_Source\PSoC5/LED_Driver2_MASTER.c **** 
 665:Generated_Source\PSoC5/LED_Driver2_MASTER.c **** 
 666:Generated_Source\PSoC5/LED_Driver2_MASTER.c **** /*******************************************************************************
 667:Generated_Source\PSoC5/LED_Driver2_MASTER.c **** * Function Name: LED_Driver2_MasterStatus
 668:Generated_Source\PSoC5/LED_Driver2_MASTER.c **** ********************************************************************************
 669:Generated_Source\PSoC5/LED_Driver2_MASTER.c **** *
 670:Generated_Source\PSoC5/LED_Driver2_MASTER.c **** * Summary:
 671:Generated_Source\PSoC5/LED_Driver2_MASTER.c **** *  Returns the master's communication status.
 672:Generated_Source\PSoC5/LED_Driver2_MASTER.c **** *
 673:Generated_Source\PSoC5/LED_Driver2_MASTER.c **** * Parameters:
 674:Generated_Source\PSoC5/LED_Driver2_MASTER.c **** *  None.
 675:Generated_Source\PSoC5/LED_Driver2_MASTER.c **** *
 676:Generated_Source\PSoC5/LED_Driver2_MASTER.c **** * Return:
 677:Generated_Source\PSoC5/LED_Driver2_MASTER.c **** *  Current status of I2C master.
 678:Generated_Source\PSoC5/LED_Driver2_MASTER.c **** *
 679:Generated_Source\PSoC5/LED_Driver2_MASTER.c **** * Global variables:
 680:Generated_Source\PSoC5/LED_Driver2_MASTER.c **** *  LED_Driver2_mstrStatus - The global variable used to store a current
 681:Generated_Source\PSoC5/LED_Driver2_MASTER.c **** *                                status of the I2C Master.
 682:Generated_Source\PSoC5/LED_Driver2_MASTER.c **** *
ARM GAS  D:\Windows\AppData\Local\Temp\cciO0Pua.s 			page 31


 683:Generated_Source\PSoC5/LED_Driver2_MASTER.c **** *******************************************************************************/
 684:Generated_Source\PSoC5/LED_Driver2_MASTER.c **** uint8 LED_Driver2_MasterStatus(void) 
 685:Generated_Source\PSoC5/LED_Driver2_MASTER.c **** {
 1029              		.loc 1 685 0
 1030              		.cfi_startproc
 1031              		@ args = 0, pretend = 0, frame = 8
 1032              		@ frame_needed = 1, uses_anonymous_args = 0
 1033              		@ link register save eliminated.
 1034 0000 80B4     		push	{r7}
 1035              		.cfi_def_cfa_offset 4
 1036              		.cfi_offset 7, -4
 1037 0002 83B0     		sub	sp, sp, #12
 1038              		.cfi_def_cfa_offset 16
 1039 0004 00AF     		add	r7, sp, #0
 1040              		.cfi_def_cfa_register 7
 686:Generated_Source\PSoC5/LED_Driver2_MASTER.c ****     uint8 status;
 687:Generated_Source\PSoC5/LED_Driver2_MASTER.c **** 
 688:Generated_Source\PSoC5/LED_Driver2_MASTER.c ****     LED_Driver2_DisableInt(); /* Lock from interrupt */
 1041              		.loc 1 688 0
 1042 0006 0E4B     		ldr	r3, .L73
 1043 0008 0222     		movs	r2, #2
 1044 000a 1A60     		str	r2, [r3]
 689:Generated_Source\PSoC5/LED_Driver2_MASTER.c **** 
 690:Generated_Source\PSoC5/LED_Driver2_MASTER.c ****     /* Read master status */
 691:Generated_Source\PSoC5/LED_Driver2_MASTER.c ****     status = LED_Driver2_mstrStatus;
 1045              		.loc 1 691 0
 1046 000c 0D4B     		ldr	r3, .L73+4
 1047 000e 1B78     		ldrb	r3, [r3]
 1048 0010 FB71     		strb	r3, [r7, #7]
 692:Generated_Source\PSoC5/LED_Driver2_MASTER.c **** 
 693:Generated_Source\PSoC5/LED_Driver2_MASTER.c ****     if (LED_Driver2_CHECK_SM_MASTER)
 1049              		.loc 1 693 0
 1050 0012 0D4B     		ldr	r3, .L73+8
 1051 0014 1B78     		ldrb	r3, [r3]
 1052 0016 DBB2     		uxtb	r3, r3
 1053 0018 03F04003 		and	r3, r3, #64
 1054 001c DBB2     		uxtb	r3, r3
 1055 001e 002B     		cmp	r3, #0
 1056 0020 03D0     		beq	.L71
 694:Generated_Source\PSoC5/LED_Driver2_MASTER.c ****     {
 695:Generated_Source\PSoC5/LED_Driver2_MASTER.c ****         /* Set transfer in progress flag in status */
 696:Generated_Source\PSoC5/LED_Driver2_MASTER.c ****         status |= LED_Driver2_MSTAT_XFER_INP;
 1057              		.loc 1 696 0
 1058 0022 FB79     		ldrb	r3, [r7, #7]
 1059 0024 43F00403 		orr	r3, r3, #4
 1060 0028 FB71     		strb	r3, [r7, #7]
 1061              	.L71:
 697:Generated_Source\PSoC5/LED_Driver2_MASTER.c ****     }
 698:Generated_Source\PSoC5/LED_Driver2_MASTER.c **** 
 699:Generated_Source\PSoC5/LED_Driver2_MASTER.c ****     LED_Driver2_EnableInt(); /* Release lock */
 1062              		.loc 1 699 0
 1063 002a 084B     		ldr	r3, .L73+12
 1064 002c 0222     		movs	r2, #2
 1065 002e 1A60     		str	r2, [r3]
 700:Generated_Source\PSoC5/LED_Driver2_MASTER.c **** 
 701:Generated_Source\PSoC5/LED_Driver2_MASTER.c ****     return (status);
 1066              		.loc 1 701 0
ARM GAS  D:\Windows\AppData\Local\Temp\cciO0Pua.s 			page 32


 1067 0030 FB79     		ldrb	r3, [r7, #7]	@ zero_extendqisi2
 702:Generated_Source\PSoC5/LED_Driver2_MASTER.c **** }
 1068              		.loc 1 702 0
 1069 0032 1846     		mov	r0, r3
 1070 0034 0C37     		adds	r7, r7, #12
 1071              		.cfi_def_cfa_offset 4
 1072 0036 BD46     		mov	sp, r7
 1073              		.cfi_def_cfa_register 13
 1074              		@ sp needed
 1075 0038 5DF8047B 		ldr	r7, [sp], #4
 1076              		.cfi_restore 7
 1077              		.cfi_def_cfa_offset 0
 1078 003c 7047     		bx	lr
 1079              	.L74:
 1080 003e 00BF     		.align	2
 1081              	.L73:
 1082 0040 80E100E0 		.word	-536813184
 1083 0044 00000000 		.word	LED_Driver2_mstrStatus
 1084 0048 00000000 		.word	LED_Driver2_state
 1085 004c 00E100E0 		.word	-536813312
 1086              		.cfi_endproc
 1087              	.LFE7:
 1088              		.size	LED_Driver2_MasterStatus, .-LED_Driver2_MasterStatus
 1089              		.section	.text.LED_Driver2_MasterClearStatus,"ax",%progbits
 1090              		.align	2
 1091              		.global	LED_Driver2_MasterClearStatus
 1092              		.thumb
 1093              		.thumb_func
 1094              		.type	LED_Driver2_MasterClearStatus, %function
 1095              	LED_Driver2_MasterClearStatus:
 1096              	.LFB8:
 703:Generated_Source\PSoC5/LED_Driver2_MASTER.c **** 
 704:Generated_Source\PSoC5/LED_Driver2_MASTER.c **** 
 705:Generated_Source\PSoC5/LED_Driver2_MASTER.c **** /*******************************************************************************
 706:Generated_Source\PSoC5/LED_Driver2_MASTER.c **** * Function Name: LED_Driver2_MasterClearStatus
 707:Generated_Source\PSoC5/LED_Driver2_MASTER.c **** ********************************************************************************
 708:Generated_Source\PSoC5/LED_Driver2_MASTER.c **** *
 709:Generated_Source\PSoC5/LED_Driver2_MASTER.c **** * Summary:
 710:Generated_Source\PSoC5/LED_Driver2_MASTER.c **** *  Clears all status flags and returns the master status.
 711:Generated_Source\PSoC5/LED_Driver2_MASTER.c **** *
 712:Generated_Source\PSoC5/LED_Driver2_MASTER.c **** * Parameters:
 713:Generated_Source\PSoC5/LED_Driver2_MASTER.c **** *  None.
 714:Generated_Source\PSoC5/LED_Driver2_MASTER.c **** *
 715:Generated_Source\PSoC5/LED_Driver2_MASTER.c **** * Return:
 716:Generated_Source\PSoC5/LED_Driver2_MASTER.c **** *  Current status of I2C master.
 717:Generated_Source\PSoC5/LED_Driver2_MASTER.c **** *
 718:Generated_Source\PSoC5/LED_Driver2_MASTER.c **** * Global variables:
 719:Generated_Source\PSoC5/LED_Driver2_MASTER.c **** *  LED_Driver2_mstrStatus - The global variable used to store a current
 720:Generated_Source\PSoC5/LED_Driver2_MASTER.c **** *                                status of the I2C Master.
 721:Generated_Source\PSoC5/LED_Driver2_MASTER.c **** *
 722:Generated_Source\PSoC5/LED_Driver2_MASTER.c **** * Reentrant:
 723:Generated_Source\PSoC5/LED_Driver2_MASTER.c **** *  No.
 724:Generated_Source\PSoC5/LED_Driver2_MASTER.c **** *
 725:Generated_Source\PSoC5/LED_Driver2_MASTER.c **** *******************************************************************************/
 726:Generated_Source\PSoC5/LED_Driver2_MASTER.c **** uint8 LED_Driver2_MasterClearStatus(void) 
 727:Generated_Source\PSoC5/LED_Driver2_MASTER.c **** {
 1097              		.loc 1 727 0
ARM GAS  D:\Windows\AppData\Local\Temp\cciO0Pua.s 			page 33


 1098              		.cfi_startproc
 1099              		@ args = 0, pretend = 0, frame = 8
 1100              		@ frame_needed = 1, uses_anonymous_args = 0
 1101              		@ link register save eliminated.
 1102 0000 80B4     		push	{r7}
 1103              		.cfi_def_cfa_offset 4
 1104              		.cfi_offset 7, -4
 1105 0002 83B0     		sub	sp, sp, #12
 1106              		.cfi_def_cfa_offset 16
 1107 0004 00AF     		add	r7, sp, #0
 1108              		.cfi_def_cfa_register 7
 728:Generated_Source\PSoC5/LED_Driver2_MASTER.c ****     uint8 status;
 729:Generated_Source\PSoC5/LED_Driver2_MASTER.c **** 
 730:Generated_Source\PSoC5/LED_Driver2_MASTER.c ****     LED_Driver2_DisableInt(); /* Lock from interrupt */
 1109              		.loc 1 730 0
 1110 0006 094B     		ldr	r3, .L77
 1111 0008 0222     		movs	r2, #2
 1112 000a 1A60     		str	r2, [r3]
 731:Generated_Source\PSoC5/LED_Driver2_MASTER.c **** 
 732:Generated_Source\PSoC5/LED_Driver2_MASTER.c ****     /* Read and clear master status */
 733:Generated_Source\PSoC5/LED_Driver2_MASTER.c ****     status = LED_Driver2_mstrStatus;
 1113              		.loc 1 733 0
 1114 000c 084B     		ldr	r3, .L77+4
 1115 000e 1B78     		ldrb	r3, [r3]
 1116 0010 FB71     		strb	r3, [r7, #7]
 734:Generated_Source\PSoC5/LED_Driver2_MASTER.c ****     LED_Driver2_mstrStatus = LED_Driver2_MSTAT_CLEAR;
 1117              		.loc 1 734 0
 1118 0012 074B     		ldr	r3, .L77+4
 1119 0014 0022     		movs	r2, #0
 1120 0016 1A70     		strb	r2, [r3]
 735:Generated_Source\PSoC5/LED_Driver2_MASTER.c **** 
 736:Generated_Source\PSoC5/LED_Driver2_MASTER.c ****     LED_Driver2_EnableInt(); /* Release lock */
 1121              		.loc 1 736 0
 1122 0018 064B     		ldr	r3, .L77+8
 1123 001a 0222     		movs	r2, #2
 1124 001c 1A60     		str	r2, [r3]
 737:Generated_Source\PSoC5/LED_Driver2_MASTER.c **** 
 738:Generated_Source\PSoC5/LED_Driver2_MASTER.c ****     return (status);
 1125              		.loc 1 738 0
 1126 001e FB79     		ldrb	r3, [r7, #7]	@ zero_extendqisi2
 739:Generated_Source\PSoC5/LED_Driver2_MASTER.c **** }
 1127              		.loc 1 739 0
 1128 0020 1846     		mov	r0, r3
 1129 0022 0C37     		adds	r7, r7, #12
 1130              		.cfi_def_cfa_offset 4
 1131 0024 BD46     		mov	sp, r7
 1132              		.cfi_def_cfa_register 13
 1133              		@ sp needed
 1134 0026 5DF8047B 		ldr	r7, [sp], #4
 1135              		.cfi_restore 7
 1136              		.cfi_def_cfa_offset 0
 1137 002a 7047     		bx	lr
 1138              	.L78:
 1139              		.align	2
 1140              	.L77:
 1141 002c 80E100E0 		.word	-536813184
 1142 0030 00000000 		.word	LED_Driver2_mstrStatus
ARM GAS  D:\Windows\AppData\Local\Temp\cciO0Pua.s 			page 34


 1143 0034 00E100E0 		.word	-536813312
 1144              		.cfi_endproc
 1145              	.LFE8:
 1146              		.size	LED_Driver2_MasterClearStatus, .-LED_Driver2_MasterClearStatus
 1147              		.section	.text.LED_Driver2_MasterGetReadBufSize,"ax",%progbits
 1148              		.align	2
 1149              		.global	LED_Driver2_MasterGetReadBufSize
 1150              		.thumb
 1151              		.thumb_func
 1152              		.type	LED_Driver2_MasterGetReadBufSize, %function
 1153              	LED_Driver2_MasterGetReadBufSize:
 1154              	.LFB9:
 740:Generated_Source\PSoC5/LED_Driver2_MASTER.c **** 
 741:Generated_Source\PSoC5/LED_Driver2_MASTER.c **** 
 742:Generated_Source\PSoC5/LED_Driver2_MASTER.c **** /*******************************************************************************
 743:Generated_Source\PSoC5/LED_Driver2_MASTER.c **** * Function Name: LED_Driver2_MasterGetReadBufSize
 744:Generated_Source\PSoC5/LED_Driver2_MASTER.c **** ********************************************************************************
 745:Generated_Source\PSoC5/LED_Driver2_MASTER.c **** *
 746:Generated_Source\PSoC5/LED_Driver2_MASTER.c **** * Summary:
 747:Generated_Source\PSoC5/LED_Driver2_MASTER.c **** *  Returns the amount of bytes that has been transferred with an
 748:Generated_Source\PSoC5/LED_Driver2_MASTER.c **** *  I2C_MasterReadBuf command.
 749:Generated_Source\PSoC5/LED_Driver2_MASTER.c **** *
 750:Generated_Source\PSoC5/LED_Driver2_MASTER.c **** * Parameters:
 751:Generated_Source\PSoC5/LED_Driver2_MASTER.c **** *  None.
 752:Generated_Source\PSoC5/LED_Driver2_MASTER.c **** *
 753:Generated_Source\PSoC5/LED_Driver2_MASTER.c **** * Return:
 754:Generated_Source\PSoC5/LED_Driver2_MASTER.c **** *  Byte count of transfer. If the transfer is not yet complete, it will return
 755:Generated_Source\PSoC5/LED_Driver2_MASTER.c **** *  the byte count transferred so far.
 756:Generated_Source\PSoC5/LED_Driver2_MASTER.c **** *
 757:Generated_Source\PSoC5/LED_Driver2_MASTER.c **** * Global variables:
 758:Generated_Source\PSoC5/LED_Driver2_MASTER.c **** *  LED_Driver2_mstrRdBufIndex - The global variable stores current index
 759:Generated_Source\PSoC5/LED_Driver2_MASTER.c **** *                                    within the master read buffer.
 760:Generated_Source\PSoC5/LED_Driver2_MASTER.c **** *
 761:Generated_Source\PSoC5/LED_Driver2_MASTER.c **** *******************************************************************************/
 762:Generated_Source\PSoC5/LED_Driver2_MASTER.c **** uint8 LED_Driver2_MasterGetReadBufSize(void) 
 763:Generated_Source\PSoC5/LED_Driver2_MASTER.c **** {
 1155              		.loc 1 763 0
 1156              		.cfi_startproc
 1157              		@ args = 0, pretend = 0, frame = 0
 1158              		@ frame_needed = 1, uses_anonymous_args = 0
 1159              		@ link register save eliminated.
 1160 0000 80B4     		push	{r7}
 1161              		.cfi_def_cfa_offset 4
 1162              		.cfi_offset 7, -4
 1163 0002 00AF     		add	r7, sp, #0
 1164              		.cfi_def_cfa_register 7
 764:Generated_Source\PSoC5/LED_Driver2_MASTER.c ****     return (LED_Driver2_mstrRdBufIndex);
 1165              		.loc 1 764 0
 1166 0004 034B     		ldr	r3, .L81
 1167 0006 1B78     		ldrb	r3, [r3]
 1168 0008 DBB2     		uxtb	r3, r3
 765:Generated_Source\PSoC5/LED_Driver2_MASTER.c **** }
 1169              		.loc 1 765 0
 1170 000a 1846     		mov	r0, r3
 1171 000c BD46     		mov	sp, r7
 1172              		.cfi_def_cfa_register 13
 1173              		@ sp needed
ARM GAS  D:\Windows\AppData\Local\Temp\cciO0Pua.s 			page 35


 1174 000e 5DF8047B 		ldr	r7, [sp], #4
 1175              		.cfi_restore 7
 1176              		.cfi_def_cfa_offset 0
 1177 0012 7047     		bx	lr
 1178              	.L82:
 1179              		.align	2
 1180              	.L81:
 1181 0014 00000000 		.word	LED_Driver2_mstrRdBufIndex
 1182              		.cfi_endproc
 1183              	.LFE9:
 1184              		.size	LED_Driver2_MasterGetReadBufSize, .-LED_Driver2_MasterGetReadBufSize
 1185              		.section	.text.LED_Driver2_MasterGetWriteBufSize,"ax",%progbits
 1186              		.align	2
 1187              		.global	LED_Driver2_MasterGetWriteBufSize
 1188              		.thumb
 1189              		.thumb_func
 1190              		.type	LED_Driver2_MasterGetWriteBufSize, %function
 1191              	LED_Driver2_MasterGetWriteBufSize:
 1192              	.LFB10:
 766:Generated_Source\PSoC5/LED_Driver2_MASTER.c **** 
 767:Generated_Source\PSoC5/LED_Driver2_MASTER.c **** 
 768:Generated_Source\PSoC5/LED_Driver2_MASTER.c **** /*******************************************************************************
 769:Generated_Source\PSoC5/LED_Driver2_MASTER.c **** * Function Name: LED_Driver2_MasterGetWriteBufSize
 770:Generated_Source\PSoC5/LED_Driver2_MASTER.c **** ********************************************************************************
 771:Generated_Source\PSoC5/LED_Driver2_MASTER.c **** *
 772:Generated_Source\PSoC5/LED_Driver2_MASTER.c **** * Summary:
 773:Generated_Source\PSoC5/LED_Driver2_MASTER.c **** *  Returns the amount of bytes that has been transferred with an
 774:Generated_Source\PSoC5/LED_Driver2_MASTER.c **** *  I2C_MasterWriteBuf command.
 775:Generated_Source\PSoC5/LED_Driver2_MASTER.c **** *
 776:Generated_Source\PSoC5/LED_Driver2_MASTER.c **** * Parameters:
 777:Generated_Source\PSoC5/LED_Driver2_MASTER.c **** *  None.
 778:Generated_Source\PSoC5/LED_Driver2_MASTER.c **** *
 779:Generated_Source\PSoC5/LED_Driver2_MASTER.c **** * Return:
 780:Generated_Source\PSoC5/LED_Driver2_MASTER.c **** *  Byte count of transfer. If the transfer is not yet complete, it will return
 781:Generated_Source\PSoC5/LED_Driver2_MASTER.c **** *  the byte count transferred so far.
 782:Generated_Source\PSoC5/LED_Driver2_MASTER.c **** *
 783:Generated_Source\PSoC5/LED_Driver2_MASTER.c **** * Global variables:
 784:Generated_Source\PSoC5/LED_Driver2_MASTER.c **** *  LED_Driver2_mstrWrBufIndex -  The global variable used to stores current
 785:Generated_Source\PSoC5/LED_Driver2_MASTER.c **** *                                     index within master write buffer.
 786:Generated_Source\PSoC5/LED_Driver2_MASTER.c **** *
 787:Generated_Source\PSoC5/LED_Driver2_MASTER.c **** *******************************************************************************/
 788:Generated_Source\PSoC5/LED_Driver2_MASTER.c **** uint8 LED_Driver2_MasterGetWriteBufSize(void) 
 789:Generated_Source\PSoC5/LED_Driver2_MASTER.c **** {
 1193              		.loc 1 789 0
 1194              		.cfi_startproc
 1195              		@ args = 0, pretend = 0, frame = 0
 1196              		@ frame_needed = 1, uses_anonymous_args = 0
 1197              		@ link register save eliminated.
 1198 0000 80B4     		push	{r7}
 1199              		.cfi_def_cfa_offset 4
 1200              		.cfi_offset 7, -4
 1201 0002 00AF     		add	r7, sp, #0
 1202              		.cfi_def_cfa_register 7
 790:Generated_Source\PSoC5/LED_Driver2_MASTER.c ****     return (LED_Driver2_mstrWrBufIndex);
 1203              		.loc 1 790 0
 1204 0004 034B     		ldr	r3, .L85
 1205 0006 1B78     		ldrb	r3, [r3]
ARM GAS  D:\Windows\AppData\Local\Temp\cciO0Pua.s 			page 36


 1206 0008 DBB2     		uxtb	r3, r3
 791:Generated_Source\PSoC5/LED_Driver2_MASTER.c **** }
 1207              		.loc 1 791 0
 1208 000a 1846     		mov	r0, r3
 1209 000c BD46     		mov	sp, r7
 1210              		.cfi_def_cfa_register 13
 1211              		@ sp needed
 1212 000e 5DF8047B 		ldr	r7, [sp], #4
 1213              		.cfi_restore 7
 1214              		.cfi_def_cfa_offset 0
 1215 0012 7047     		bx	lr
 1216              	.L86:
 1217              		.align	2
 1218              	.L85:
 1219 0014 00000000 		.word	LED_Driver2_mstrWrBufIndex
 1220              		.cfi_endproc
 1221              	.LFE10:
 1222              		.size	LED_Driver2_MasterGetWriteBufSize, .-LED_Driver2_MasterGetWriteBufSize
 1223              		.section	.text.LED_Driver2_MasterClearReadBuf,"ax",%progbits
 1224              		.align	2
 1225              		.global	LED_Driver2_MasterClearReadBuf
 1226              		.thumb
 1227              		.thumb_func
 1228              		.type	LED_Driver2_MasterClearReadBuf, %function
 1229              	LED_Driver2_MasterClearReadBuf:
 1230              	.LFB11:
 792:Generated_Source\PSoC5/LED_Driver2_MASTER.c **** 
 793:Generated_Source\PSoC5/LED_Driver2_MASTER.c **** 
 794:Generated_Source\PSoC5/LED_Driver2_MASTER.c **** /*******************************************************************************
 795:Generated_Source\PSoC5/LED_Driver2_MASTER.c **** * Function Name: LED_Driver2_MasterClearReadBuf
 796:Generated_Source\PSoC5/LED_Driver2_MASTER.c **** ********************************************************************************
 797:Generated_Source\PSoC5/LED_Driver2_MASTER.c **** *
 798:Generated_Source\PSoC5/LED_Driver2_MASTER.c **** * Summary:
 799:Generated_Source\PSoC5/LED_Driver2_MASTER.c **** *  Resets the read buffer pointer back to the first byte in the buffer.
 800:Generated_Source\PSoC5/LED_Driver2_MASTER.c **** *
 801:Generated_Source\PSoC5/LED_Driver2_MASTER.c **** * Parameters:
 802:Generated_Source\PSoC5/LED_Driver2_MASTER.c **** *  None.
 803:Generated_Source\PSoC5/LED_Driver2_MASTER.c **** *
 804:Generated_Source\PSoC5/LED_Driver2_MASTER.c **** * Return:
 805:Generated_Source\PSoC5/LED_Driver2_MASTER.c **** *  None.
 806:Generated_Source\PSoC5/LED_Driver2_MASTER.c **** *
 807:Generated_Source\PSoC5/LED_Driver2_MASTER.c **** * Global variables:
 808:Generated_Source\PSoC5/LED_Driver2_MASTER.c **** *  LED_Driver2_mstrRdBufIndex - The global variable used to stores current
 809:Generated_Source\PSoC5/LED_Driver2_MASTER.c **** *                                    index within master read buffer.
 810:Generated_Source\PSoC5/LED_Driver2_MASTER.c **** *  LED_Driver2_mstrStatus - The global variable used to store a current
 811:Generated_Source\PSoC5/LED_Driver2_MASTER.c **** *                                status of the I2C Master.
 812:Generated_Source\PSoC5/LED_Driver2_MASTER.c **** *
 813:Generated_Source\PSoC5/LED_Driver2_MASTER.c **** * Reentrant:
 814:Generated_Source\PSoC5/LED_Driver2_MASTER.c **** *  No.
 815:Generated_Source\PSoC5/LED_Driver2_MASTER.c **** *
 816:Generated_Source\PSoC5/LED_Driver2_MASTER.c **** *******************************************************************************/
 817:Generated_Source\PSoC5/LED_Driver2_MASTER.c **** void LED_Driver2_MasterClearReadBuf(void) 
 818:Generated_Source\PSoC5/LED_Driver2_MASTER.c **** {
 1231              		.loc 1 818 0
 1232              		.cfi_startproc
 1233              		@ args = 0, pretend = 0, frame = 0
 1234              		@ frame_needed = 1, uses_anonymous_args = 0
ARM GAS  D:\Windows\AppData\Local\Temp\cciO0Pua.s 			page 37


 1235              		@ link register save eliminated.
 1236 0000 80B4     		push	{r7}
 1237              		.cfi_def_cfa_offset 4
 1238              		.cfi_offset 7, -4
 1239 0002 00AF     		add	r7, sp, #0
 1240              		.cfi_def_cfa_register 7
 819:Generated_Source\PSoC5/LED_Driver2_MASTER.c ****     LED_Driver2_DisableInt(); /* Lock from interrupt */
 1241              		.loc 1 819 0
 1242 0004 0A4B     		ldr	r3, .L88
 1243 0006 0222     		movs	r2, #2
 1244 0008 1A60     		str	r2, [r3]
 820:Generated_Source\PSoC5/LED_Driver2_MASTER.c **** 
 821:Generated_Source\PSoC5/LED_Driver2_MASTER.c ****     LED_Driver2_mstrRdBufIndex = 0u;
 1245              		.loc 1 821 0
 1246 000a 0A4B     		ldr	r3, .L88+4
 1247 000c 0022     		movs	r2, #0
 1248 000e 1A70     		strb	r2, [r3]
 822:Generated_Source\PSoC5/LED_Driver2_MASTER.c ****     LED_Driver2_mstrStatus    &= (uint8) ~LED_Driver2_MSTAT_RD_CMPLT;
 1249              		.loc 1 822 0
 1250 0010 094B     		ldr	r3, .L88+8
 1251 0012 1B78     		ldrb	r3, [r3]
 1252 0014 DBB2     		uxtb	r3, r3
 1253 0016 23F00103 		bic	r3, r3, #1
 1254 001a DAB2     		uxtb	r2, r3
 1255 001c 064B     		ldr	r3, .L88+8
 1256 001e 1A70     		strb	r2, [r3]
 823:Generated_Source\PSoC5/LED_Driver2_MASTER.c **** 
 824:Generated_Source\PSoC5/LED_Driver2_MASTER.c ****     LED_Driver2_EnableInt(); /* Release lock */
 1257              		.loc 1 824 0
 1258 0020 064B     		ldr	r3, .L88+12
 1259 0022 0222     		movs	r2, #2
 1260 0024 1A60     		str	r2, [r3]
 825:Generated_Source\PSoC5/LED_Driver2_MASTER.c **** }
 1261              		.loc 1 825 0
 1262 0026 BD46     		mov	sp, r7
 1263              		.cfi_def_cfa_register 13
 1264              		@ sp needed
 1265 0028 5DF8047B 		ldr	r7, [sp], #4
 1266              		.cfi_restore 7
 1267              		.cfi_def_cfa_offset 0
 1268 002c 7047     		bx	lr
 1269              	.L89:
 1270 002e 00BF     		.align	2
 1271              	.L88:
 1272 0030 80E100E0 		.word	-536813184
 1273 0034 00000000 		.word	LED_Driver2_mstrRdBufIndex
 1274 0038 00000000 		.word	LED_Driver2_mstrStatus
 1275 003c 00E100E0 		.word	-536813312
 1276              		.cfi_endproc
 1277              	.LFE11:
 1278              		.size	LED_Driver2_MasterClearReadBuf, .-LED_Driver2_MasterClearReadBuf
 1279              		.section	.text.LED_Driver2_MasterClearWriteBuf,"ax",%progbits
 1280              		.align	2
 1281              		.global	LED_Driver2_MasterClearWriteBuf
 1282              		.thumb
 1283              		.thumb_func
 1284              		.type	LED_Driver2_MasterClearWriteBuf, %function
ARM GAS  D:\Windows\AppData\Local\Temp\cciO0Pua.s 			page 38


 1285              	LED_Driver2_MasterClearWriteBuf:
 1286              	.LFB12:
 826:Generated_Source\PSoC5/LED_Driver2_MASTER.c **** 
 827:Generated_Source\PSoC5/LED_Driver2_MASTER.c **** 
 828:Generated_Source\PSoC5/LED_Driver2_MASTER.c **** /*******************************************************************************
 829:Generated_Source\PSoC5/LED_Driver2_MASTER.c **** * Function Name: LED_Driver2_MasterClearWriteBuf
 830:Generated_Source\PSoC5/LED_Driver2_MASTER.c **** ********************************************************************************
 831:Generated_Source\PSoC5/LED_Driver2_MASTER.c **** *
 832:Generated_Source\PSoC5/LED_Driver2_MASTER.c **** * Summary:
 833:Generated_Source\PSoC5/LED_Driver2_MASTER.c **** *  Resets the write buffer pointer back to the first byte in the buffer.
 834:Generated_Source\PSoC5/LED_Driver2_MASTER.c **** *
 835:Generated_Source\PSoC5/LED_Driver2_MASTER.c **** * Parameters:
 836:Generated_Source\PSoC5/LED_Driver2_MASTER.c **** *  None.
 837:Generated_Source\PSoC5/LED_Driver2_MASTER.c **** *
 838:Generated_Source\PSoC5/LED_Driver2_MASTER.c **** * Return:
 839:Generated_Source\PSoC5/LED_Driver2_MASTER.c **** *  None.
 840:Generated_Source\PSoC5/LED_Driver2_MASTER.c **** *
 841:Generated_Source\PSoC5/LED_Driver2_MASTER.c **** * Global variables:
 842:Generated_Source\PSoC5/LED_Driver2_MASTER.c **** *  LED_Driver2_mstrRdBufIndex - The global variable used to stote current
 843:Generated_Source\PSoC5/LED_Driver2_MASTER.c **** *                                    index within master read buffer.
 844:Generated_Source\PSoC5/LED_Driver2_MASTER.c **** *  LED_Driver2_mstrStatus - The global variable used to store a current
 845:Generated_Source\PSoC5/LED_Driver2_MASTER.c **** *                                status of the I2C Master.
 846:Generated_Source\PSoC5/LED_Driver2_MASTER.c **** *
 847:Generated_Source\PSoC5/LED_Driver2_MASTER.c **** * Reentrant:
 848:Generated_Source\PSoC5/LED_Driver2_MASTER.c **** *  No.
 849:Generated_Source\PSoC5/LED_Driver2_MASTER.c **** *
 850:Generated_Source\PSoC5/LED_Driver2_MASTER.c **** *******************************************************************************/
 851:Generated_Source\PSoC5/LED_Driver2_MASTER.c **** void LED_Driver2_MasterClearWriteBuf(void) 
 852:Generated_Source\PSoC5/LED_Driver2_MASTER.c **** {
 1287              		.loc 1 852 0
 1288              		.cfi_startproc
 1289              		@ args = 0, pretend = 0, frame = 0
 1290              		@ frame_needed = 1, uses_anonymous_args = 0
 1291              		@ link register save eliminated.
 1292 0000 80B4     		push	{r7}
 1293              		.cfi_def_cfa_offset 4
 1294              		.cfi_offset 7, -4
 1295 0002 00AF     		add	r7, sp, #0
 1296              		.cfi_def_cfa_register 7
 853:Generated_Source\PSoC5/LED_Driver2_MASTER.c ****     LED_Driver2_DisableInt(); /* Lock from interrupt */
 1297              		.loc 1 853 0
 1298 0004 0A4B     		ldr	r3, .L91
 1299 0006 0222     		movs	r2, #2
 1300 0008 1A60     		str	r2, [r3]
 854:Generated_Source\PSoC5/LED_Driver2_MASTER.c **** 
 855:Generated_Source\PSoC5/LED_Driver2_MASTER.c ****     LED_Driver2_mstrWrBufIndex = 0u;
 1301              		.loc 1 855 0
 1302 000a 0A4B     		ldr	r3, .L91+4
 1303 000c 0022     		movs	r2, #0
 1304 000e 1A70     		strb	r2, [r3]
 856:Generated_Source\PSoC5/LED_Driver2_MASTER.c ****     LED_Driver2_mstrStatus    &= (uint8) ~LED_Driver2_MSTAT_WR_CMPLT;
 1305              		.loc 1 856 0
 1306 0010 094B     		ldr	r3, .L91+8
 1307 0012 1B78     		ldrb	r3, [r3]
 1308 0014 DBB2     		uxtb	r3, r3
 1309 0016 23F00203 		bic	r3, r3, #2
 1310 001a DAB2     		uxtb	r2, r3
ARM GAS  D:\Windows\AppData\Local\Temp\cciO0Pua.s 			page 39


 1311 001c 064B     		ldr	r3, .L91+8
 1312 001e 1A70     		strb	r2, [r3]
 857:Generated_Source\PSoC5/LED_Driver2_MASTER.c **** 
 858:Generated_Source\PSoC5/LED_Driver2_MASTER.c ****     LED_Driver2_EnableInt(); /* Release lock */
 1313              		.loc 1 858 0
 1314 0020 064B     		ldr	r3, .L91+12
 1315 0022 0222     		movs	r2, #2
 1316 0024 1A60     		str	r2, [r3]
 859:Generated_Source\PSoC5/LED_Driver2_MASTER.c **** }
 1317              		.loc 1 859 0
 1318 0026 BD46     		mov	sp, r7
 1319              		.cfi_def_cfa_register 13
 1320              		@ sp needed
 1321 0028 5DF8047B 		ldr	r7, [sp], #4
 1322              		.cfi_restore 7
 1323              		.cfi_def_cfa_offset 0
 1324 002c 7047     		bx	lr
 1325              	.L92:
 1326 002e 00BF     		.align	2
 1327              	.L91:
 1328 0030 80E100E0 		.word	-536813184
 1329 0034 00000000 		.word	LED_Driver2_mstrWrBufIndex
 1330 0038 00000000 		.word	LED_Driver2_mstrStatus
 1331 003c 00E100E0 		.word	-536813312
 1332              		.cfi_endproc
 1333              	.LFE12:
 1334              		.size	LED_Driver2_MasterClearWriteBuf, .-LED_Driver2_MasterClearWriteBuf
 1335              		.text
 1336              	.Letext0:
 1337              		.file 2 "Generated_Source\\PSoC5\\cytypes.h"
 1338              		.file 3 "Generated_Source\\PSoC5\\LED_Driver2_PVT.h"
 1339              		.section	.debug_info,"",%progbits
 1340              	.Ldebug_info0:
 1341 0000 ED030000 		.4byte	0x3ed
 1342 0004 0400     		.2byte	0x4
 1343 0006 00000000 		.4byte	.Ldebug_abbrev0
 1344 000a 04       		.byte	0x4
 1345 000b 01       		.uleb128 0x1
 1346 000c D9010000 		.4byte	.LASF48
 1347 0010 01       		.byte	0x1
 1348 0011 DF000000 		.4byte	.LASF49
 1349 0015 A0030000 		.4byte	.LASF50
 1350 0019 00000000 		.4byte	.Ldebug_ranges0+0
 1351 001d 00000000 		.4byte	0
 1352 0021 00000000 		.4byte	.Ldebug_line0
 1353 0025 02       		.uleb128 0x2
 1354 0026 01       		.byte	0x1
 1355 0027 06       		.byte	0x6
 1356 0028 DD030000 		.4byte	.LASF0
 1357 002c 02       		.uleb128 0x2
 1358 002d 01       		.byte	0x1
 1359 002e 08       		.byte	0x8
 1360 002f 11010000 		.4byte	.LASF1
 1361 0033 02       		.uleb128 0x2
 1362 0034 02       		.byte	0x2
 1363 0035 05       		.byte	0x5
 1364 0036 49030000 		.4byte	.LASF2
ARM GAS  D:\Windows\AppData\Local\Temp\cciO0Pua.s 			page 40


 1365 003a 02       		.uleb128 0x2
 1366 003b 02       		.byte	0x2
 1367 003c 07       		.byte	0x7
 1368 003d 61000000 		.4byte	.LASF3
 1369 0041 02       		.uleb128 0x2
 1370 0042 04       		.byte	0x4
 1371 0043 05       		.byte	0x5
 1372 0044 7C030000 		.4byte	.LASF4
 1373 0048 02       		.uleb128 0x2
 1374 0049 04       		.byte	0x4
 1375 004a 07       		.byte	0x7
 1376 004b 5E010000 		.4byte	.LASF5
 1377 004f 02       		.uleb128 0x2
 1378 0050 08       		.byte	0x8
 1379 0051 05       		.byte	0x5
 1380 0052 21030000 		.4byte	.LASF6
 1381 0056 02       		.uleb128 0x2
 1382 0057 08       		.byte	0x8
 1383 0058 07       		.byte	0x7
 1384 0059 AA020000 		.4byte	.LASF7
 1385 005d 03       		.uleb128 0x3
 1386 005e 04       		.byte	0x4
 1387 005f 05       		.byte	0x5
 1388 0060 696E7400 		.ascii	"int\000"
 1389 0064 02       		.uleb128 0x2
 1390 0065 04       		.byte	0x4
 1391 0066 07       		.byte	0x7
 1392 0067 79000000 		.4byte	.LASF8
 1393 006b 04       		.uleb128 0x4
 1394 006c 70010000 		.4byte	.LASF9
 1395 0070 02       		.byte	0x2
 1396 0071 3801     		.2byte	0x138
 1397 0073 2C000000 		.4byte	0x2c
 1398 0077 04       		.uleb128 0x4
 1399 0078 94020000 		.4byte	.LASF10
 1400 007c 02       		.byte	0x2
 1401 007d 3A01     		.2byte	0x13a
 1402 007f 48000000 		.4byte	0x48
 1403 0083 02       		.uleb128 0x2
 1404 0084 04       		.byte	0x4
 1405 0085 04       		.byte	0x4
 1406 0086 0B010000 		.4byte	.LASF11
 1407 008a 02       		.uleb128 0x2
 1408 008b 08       		.byte	0x8
 1409 008c 04       		.byte	0x4
 1410 008d 67020000 		.4byte	.LASF12
 1411 0091 02       		.uleb128 0x2
 1412 0092 01       		.byte	0x1
 1413 0093 08       		.byte	0x8
 1414 0094 74000000 		.4byte	.LASF13
 1415 0098 04       		.uleb128 0x4
 1416 0099 3E010000 		.4byte	.LASF14
 1417 009d 02       		.byte	0x2
 1418 009e E201     		.2byte	0x1e2
 1419 00a0 A4000000 		.4byte	0xa4
 1420 00a4 05       		.uleb128 0x5
 1421 00a5 6B000000 		.4byte	0x6b
ARM GAS  D:\Windows\AppData\Local\Temp\cciO0Pua.s 			page 41


 1422 00a9 04       		.uleb128 0x4
 1423 00aa 1B000000 		.4byte	.LASF15
 1424 00ae 02       		.byte	0x2
 1425 00af E401     		.2byte	0x1e4
 1426 00b1 B5000000 		.4byte	0xb5
 1427 00b5 05       		.uleb128 0x5
 1428 00b6 77000000 		.4byte	0x77
 1429 00ba 02       		.uleb128 0x2
 1430 00bb 04       		.byte	0x4
 1431 00bc 07       		.byte	0x7
 1432 00bd 18030000 		.4byte	.LASF16
 1433 00c1 06       		.uleb128 0x6
 1434 00c2 98010000 		.4byte	.LASF20
 1435 00c6 01       		.byte	0x1
 1436 00c7 50       		.byte	0x50
 1437 00c8 6B000000 		.4byte	0x6b
 1438 00cc 00000000 		.4byte	.LFB0
 1439 00d0 20010000 		.4byte	.LFE0-.LFB0
 1440 00d4 01       		.uleb128 0x1
 1441 00d5 9C       		.byte	0x9c
 1442 00d6 21010000 		.4byte	0x121
 1443 00da 07       		.uleb128 0x7
 1444 00db C0000000 		.4byte	.LASF17
 1445 00df 01       		.byte	0x1
 1446 00e0 50       		.byte	0x50
 1447 00e1 6B000000 		.4byte	0x6b
 1448 00e5 02       		.uleb128 0x2
 1449 00e6 91       		.byte	0x91
 1450 00e7 6F       		.sleb128 -17
 1451 00e8 07       		.uleb128 0x7
 1452 00e9 A3020000 		.4byte	.LASF18
 1453 00ed 01       		.byte	0x1
 1454 00ee 50       		.byte	0x50
 1455 00ef 21010000 		.4byte	0x121
 1456 00f3 02       		.uleb128 0x2
 1457 00f4 91       		.byte	0x91
 1458 00f5 68       		.sleb128 -24
 1459 00f6 08       		.uleb128 0x8
 1460 00f7 636E7400 		.ascii	"cnt\000"
 1461 00fb 01       		.byte	0x1
 1462 00fc 50       		.byte	0x50
 1463 00fd 6B000000 		.4byte	0x6b
 1464 0101 02       		.uleb128 0x2
 1465 0102 91       		.byte	0x91
 1466 0103 6E       		.sleb128 -18
 1467 0104 07       		.uleb128 0x7
 1468 0105 C1020000 		.4byte	.LASF19
 1469 0109 01       		.byte	0x1
 1470 010a 50       		.byte	0x50
 1471 010b 6B000000 		.4byte	0x6b
 1472 010f 02       		.uleb128 0x2
 1473 0110 91       		.byte	0x91
 1474 0111 6D       		.sleb128 -19
 1475 0112 09       		.uleb128 0x9
 1476 0113 B3010000 		.4byte	.LASF23
 1477 0117 01       		.byte	0x1
 1478 0118 53       		.byte	0x53
ARM GAS  D:\Windows\AppData\Local\Temp\cciO0Pua.s 			page 42


 1479 0119 6B000000 		.4byte	0x6b
 1480 011d 02       		.uleb128 0x2
 1481 011e 91       		.byte	0x91
 1482 011f 77       		.sleb128 -9
 1483 0120 00       		.byte	0
 1484 0121 0A       		.uleb128 0xa
 1485 0122 04       		.byte	0x4
 1486 0123 6B000000 		.4byte	0x6b
 1487 0127 06       		.uleb128 0x6
 1488 0128 6E020000 		.4byte	.LASF21
 1489 012c 01       		.byte	0x1
 1490 012d C4       		.byte	0xc4
 1491 012e 6B000000 		.4byte	0x6b
 1492 0132 00000000 		.4byte	.LFB1
 1493 0136 28010000 		.4byte	.LFE1-.LFB1
 1494 013a 01       		.uleb128 0x1
 1495 013b 9C       		.byte	0x9c
 1496 013c 87010000 		.4byte	0x187
 1497 0140 07       		.uleb128 0x7
 1498 0141 C0000000 		.4byte	.LASF17
 1499 0145 01       		.byte	0x1
 1500 0146 C4       		.byte	0xc4
 1501 0147 6B000000 		.4byte	0x6b
 1502 014b 02       		.uleb128 0x2
 1503 014c 91       		.byte	0x91
 1504 014d 6F       		.sleb128 -17
 1505 014e 07       		.uleb128 0x7
 1506 014f 8D020000 		.4byte	.LASF22
 1507 0153 01       		.byte	0x1
 1508 0154 C4       		.byte	0xc4
 1509 0155 21010000 		.4byte	0x121
 1510 0159 02       		.uleb128 0x2
 1511 015a 91       		.byte	0x91
 1512 015b 68       		.sleb128 -24
 1513 015c 08       		.uleb128 0x8
 1514 015d 636E7400 		.ascii	"cnt\000"
 1515 0161 01       		.byte	0x1
 1516 0162 C4       		.byte	0xc4
 1517 0163 6B000000 		.4byte	0x6b
 1518 0167 02       		.uleb128 0x2
 1519 0168 91       		.byte	0x91
 1520 0169 6E       		.sleb128 -18
 1521 016a 07       		.uleb128 0x7
 1522 016b C1020000 		.4byte	.LASF19
 1523 016f 01       		.byte	0x1
 1524 0170 C4       		.byte	0xc4
 1525 0171 6B000000 		.4byte	0x6b
 1526 0175 02       		.uleb128 0x2
 1527 0176 91       		.byte	0x91
 1528 0177 6D       		.sleb128 -19
 1529 0178 09       		.uleb128 0x9
 1530 0179 B3010000 		.4byte	.LASF23
 1531 017d 01       		.byte	0x1
 1532 017e C7       		.byte	0xc7
 1533 017f 6B000000 		.4byte	0x6b
 1534 0183 02       		.uleb128 0x2
 1535 0184 91       		.byte	0x91
ARM GAS  D:\Windows\AppData\Local\Temp\cciO0Pua.s 			page 43


 1536 0185 77       		.sleb128 -9
 1537 0186 00       		.byte	0
 1538 0187 0B       		.uleb128 0xb
 1539 0188 86000000 		.4byte	.LASF24
 1540 018c 01       		.byte	0x1
 1541 018d 2701     		.2byte	0x127
 1542 018f 6B000000 		.4byte	0x6b
 1543 0193 00000000 		.4byte	.LFB2
 1544 0197 D8000000 		.4byte	.LFE2-.LFB2
 1545 019b 01       		.uleb128 0x1
 1546 019c 9C       		.byte	0x9c
 1547 019d CF010000 		.4byte	0x1cf
 1548 01a1 0C       		.uleb128 0xc
 1549 01a2 C0000000 		.4byte	.LASF17
 1550 01a6 01       		.byte	0x1
 1551 01a7 2701     		.2byte	0x127
 1552 01a9 6B000000 		.4byte	0x6b
 1553 01ad 02       		.uleb128 0x2
 1554 01ae 91       		.byte	0x91
 1555 01af 6F       		.sleb128 -17
 1556 01b0 0C       		.uleb128 0xc
 1557 01b1 88020000 		.4byte	.LASF25
 1558 01b5 01       		.byte	0x1
 1559 01b6 2701     		.2byte	0x127
 1560 01b8 6B000000 		.4byte	0x6b
 1561 01bc 02       		.uleb128 0x2
 1562 01bd 91       		.byte	0x91
 1563 01be 6E       		.sleb128 -18
 1564 01bf 0D       		.uleb128 0xd
 1565 01c0 B3010000 		.4byte	.LASF23
 1566 01c4 01       		.byte	0x1
 1567 01c5 2A01     		.2byte	0x12a
 1568 01c7 6B000000 		.4byte	0x6b
 1569 01cb 02       		.uleb128 0x2
 1570 01cc 91       		.byte	0x91
 1571 01cd 77       		.sleb128 -9
 1572 01ce 00       		.byte	0
 1573 01cf 0B       		.uleb128 0xb
 1574 01d0 28000000 		.4byte	.LASF26
 1575 01d4 01       		.byte	0x1
 1576 01d5 9401     		.2byte	0x194
 1577 01d7 6B000000 		.4byte	0x6b
 1578 01db 00000000 		.4byte	.LFB3
 1579 01df C0000000 		.4byte	.LFE3-.LFB3
 1580 01e3 01       		.uleb128 0x1
 1581 01e4 9C       		.byte	0x9c
 1582 01e5 17020000 		.4byte	0x217
 1583 01e9 0C       		.uleb128 0xc
 1584 01ea C0000000 		.4byte	.LASF17
 1585 01ee 01       		.byte	0x1
 1586 01ef 9401     		.2byte	0x194
 1587 01f1 6B000000 		.4byte	0x6b
 1588 01f5 02       		.uleb128 0x2
 1589 01f6 91       		.byte	0x91
 1590 01f7 6F       		.sleb128 -17
 1591 01f8 0C       		.uleb128 0xc
 1592 01f9 88020000 		.4byte	.LASF25
ARM GAS  D:\Windows\AppData\Local\Temp\cciO0Pua.s 			page 44


 1593 01fd 01       		.byte	0x1
 1594 01fe 9401     		.2byte	0x194
 1595 0200 6B000000 		.4byte	0x6b
 1596 0204 02       		.uleb128 0x2
 1597 0205 91       		.byte	0x91
 1598 0206 6E       		.sleb128 -18
 1599 0207 0D       		.uleb128 0xd
 1600 0208 B3010000 		.4byte	.LASF23
 1601 020c 01       		.byte	0x1
 1602 020d 9701     		.2byte	0x197
 1603 020f 6B000000 		.4byte	0x6b
 1604 0213 02       		.uleb128 0x2
 1605 0214 91       		.byte	0x91
 1606 0215 77       		.sleb128 -9
 1607 0216 00       		.byte	0
 1608 0217 0B       		.uleb128 0xb
 1609 0218 46000000 		.4byte	.LASF27
 1610 021c 01       		.byte	0x1
 1611 021d EA01     		.2byte	0x1ea
 1612 021f 6B000000 		.4byte	0x6b
 1613 0223 00000000 		.4byte	.LFB4
 1614 0227 74000000 		.4byte	.LFE4-.LFB4
 1615 022b 01       		.uleb128 0x1
 1616 022c 9C       		.byte	0x9c
 1617 022d 41020000 		.4byte	0x241
 1618 0231 0D       		.uleb128 0xd
 1619 0232 B3010000 		.4byte	.LASF23
 1620 0236 01       		.byte	0x1
 1621 0237 EC01     		.2byte	0x1ec
 1622 0239 6B000000 		.4byte	0x6b
 1623 023d 02       		.uleb128 0x2
 1624 023e 91       		.byte	0x91
 1625 023f 77       		.sleb128 -9
 1626 0240 00       		.byte	0
 1627 0241 0B       		.uleb128 0xb
 1628 0242 BD010000 		.4byte	.LASF28
 1629 0246 01       		.byte	0x1
 1630 0247 2402     		.2byte	0x224
 1631 0249 6B000000 		.4byte	0x6b
 1632 024d 00000000 		.4byte	.LFB5
 1633 0251 A0000000 		.4byte	.LFE5-.LFB5
 1634 0255 01       		.uleb128 0x1
 1635 0256 9C       		.byte	0x9c
 1636 0257 7A020000 		.4byte	0x27a
 1637 025b 0C       		.uleb128 0xc
 1638 025c 53030000 		.4byte	.LASF29
 1639 0260 01       		.byte	0x1
 1640 0261 2402     		.2byte	0x224
 1641 0263 6B000000 		.4byte	0x6b
 1642 0267 02       		.uleb128 0x2
 1643 0268 91       		.byte	0x91
 1644 0269 6F       		.sleb128 -17
 1645 026a 0D       		.uleb128 0xd
 1646 026b B3010000 		.4byte	.LASF23
 1647 026f 01       		.byte	0x1
 1648 0270 2602     		.2byte	0x226
 1649 0272 6B000000 		.4byte	0x6b
ARM GAS  D:\Windows\AppData\Local\Temp\cciO0Pua.s 			page 45


 1650 0276 02       		.uleb128 0x2
 1651 0277 91       		.byte	0x91
 1652 0278 77       		.sleb128 -9
 1653 0279 00       		.byte	0
 1654 027a 0B       		.uleb128 0xb
 1655 027b 85030000 		.4byte	.LASF30
 1656 027f 01       		.byte	0x1
 1657 0280 6F02     		.2byte	0x26f
 1658 0282 6B000000 		.4byte	0x6b
 1659 0286 00000000 		.4byte	.LFB6
 1660 028a B4000000 		.4byte	.LFE6-.LFB6
 1661 028e 01       		.uleb128 0x1
 1662 028f 9C       		.byte	0x9c
 1663 0290 B3020000 		.4byte	0x2b3
 1664 0294 0C       		.uleb128 0xc
 1665 0295 9B020000 		.4byte	.LASF31
 1666 0299 01       		.byte	0x1
 1667 029a 6F02     		.2byte	0x26f
 1668 029c 6B000000 		.4byte	0x6b
 1669 02a0 02       		.uleb128 0x2
 1670 02a1 91       		.byte	0x91
 1671 02a2 6F       		.sleb128 -17
 1672 02a3 0D       		.uleb128 0xd
 1673 02a4 53030000 		.4byte	.LASF29
 1674 02a8 01       		.byte	0x1
 1675 02a9 7102     		.2byte	0x271
 1676 02ab 6B000000 		.4byte	0x6b
 1677 02af 02       		.uleb128 0x2
 1678 02b0 91       		.byte	0x91
 1679 02b1 77       		.sleb128 -9
 1680 02b2 00       		.byte	0
 1681 02b3 0B       		.uleb128 0xb
 1682 02b4 DF020000 		.4byte	.LASF32
 1683 02b8 01       		.byte	0x1
 1684 02b9 AC02     		.2byte	0x2ac
 1685 02bb 6B000000 		.4byte	0x6b
 1686 02bf 00000000 		.4byte	.LFB7
 1687 02c3 50000000 		.4byte	.LFE7-.LFB7
 1688 02c7 01       		.uleb128 0x1
 1689 02c8 9C       		.byte	0x9c
 1690 02c9 DD020000 		.4byte	0x2dd
 1691 02cd 0D       		.uleb128 0xd
 1692 02ce 21000000 		.4byte	.LASF33
 1693 02d2 01       		.byte	0x1
 1694 02d3 AE02     		.2byte	0x2ae
 1695 02d5 6B000000 		.4byte	0x6b
 1696 02d9 02       		.uleb128 0x2
 1697 02da 91       		.byte	0x91
 1698 02db 77       		.sleb128 -9
 1699 02dc 00       		.byte	0
 1700 02dd 0B       		.uleb128 0xb
 1701 02de A2000000 		.4byte	.LASF34
 1702 02e2 01       		.byte	0x1
 1703 02e3 D602     		.2byte	0x2d6
 1704 02e5 6B000000 		.4byte	0x6b
 1705 02e9 00000000 		.4byte	.LFB8
 1706 02ed 38000000 		.4byte	.LFE8-.LFB8
ARM GAS  D:\Windows\AppData\Local\Temp\cciO0Pua.s 			page 46


 1707 02f1 01       		.uleb128 0x1
 1708 02f2 9C       		.byte	0x9c
 1709 02f3 07030000 		.4byte	0x307
 1710 02f7 0D       		.uleb128 0xd
 1711 02f8 21000000 		.4byte	.LASF33
 1712 02fc 01       		.byte	0x1
 1713 02fd D802     		.2byte	0x2d8
 1714 02ff 6B000000 		.4byte	0x6b
 1715 0303 02       		.uleb128 0x2
 1716 0304 91       		.byte	0x91
 1717 0305 77       		.sleb128 -9
 1718 0306 00       		.byte	0
 1719 0307 0E       		.uleb128 0xe
 1720 0308 5B030000 		.4byte	.LASF35
 1721 030c 01       		.byte	0x1
 1722 030d FA02     		.2byte	0x2fa
 1723 030f 6B000000 		.4byte	0x6b
 1724 0313 00000000 		.4byte	.LFB9
 1725 0317 18000000 		.4byte	.LFE9-.LFB9
 1726 031b 01       		.uleb128 0x1
 1727 031c 9C       		.byte	0x9c
 1728 031d 0E       		.uleb128 0xe
 1729 031e 76010000 		.4byte	.LASF36
 1730 0322 01       		.byte	0x1
 1731 0323 1403     		.2byte	0x314
 1732 0325 6B000000 		.4byte	0x6b
 1733 0329 00000000 		.4byte	.LFB10
 1734 032d 18000000 		.4byte	.LFE10-.LFB10
 1735 0331 01       		.uleb128 0x1
 1736 0332 9C       		.byte	0x9c
 1737 0333 0F       		.uleb128 0xf
 1738 0334 1F010000 		.4byte	.LASF37
 1739 0338 01       		.byte	0x1
 1740 0339 3103     		.2byte	0x331
 1741 033b 00000000 		.4byte	.LFB11
 1742 033f 40000000 		.4byte	.LFE11-.LFB11
 1743 0343 01       		.uleb128 0x1
 1744 0344 9C       		.byte	0x9c
 1745 0345 0F       		.uleb128 0xf
 1746 0346 F8020000 		.4byte	.LASF38
 1747 034a 01       		.byte	0x1
 1748 034b 5303     		.2byte	0x353
 1749 034d 00000000 		.4byte	.LFB12
 1750 0351 40000000 		.4byte	.LFE12-.LFB12
 1751 0355 01       		.uleb128 0x1
 1752 0356 9C       		.byte	0x9c
 1753 0357 10       		.uleb128 0x10
 1754 0358 CD000000 		.4byte	.LASF39
 1755 035c 03       		.byte	0x3
 1756 035d 23       		.byte	0x23
 1757 035e A4000000 		.4byte	0xa4
 1758 0362 11       		.uleb128 0x11
 1759 0363 03040000 		.4byte	.LASF40
 1760 0367 01       		.byte	0x1
 1761 0368 17       		.byte	0x17
 1762 0369 A4000000 		.4byte	0xa4
 1763 036d 05       		.uleb128 0x5
ARM GAS  D:\Windows\AppData\Local\Temp\cciO0Pua.s 			page 47


 1764 036e 03       		.byte	0x3
 1765 036f 00000000 		.4byte	LED_Driver2_mstrStatus
 1766 0373 11       		.uleb128 0x11
 1767 0374 1A040000 		.4byte	.LASF41
 1768 0378 01       		.byte	0x1
 1769 0379 18       		.byte	0x18
 1770 037a A4000000 		.4byte	0xa4
 1771 037e 05       		.uleb128 0x5
 1772 037f 03       		.byte	0x3
 1773 0380 00000000 		.4byte	LED_Driver2_mstrControl
 1774 0384 11       		.uleb128 0x11
 1775 0385 C6020000 		.4byte	.LASF42
 1776 0389 01       		.byte	0x1
 1777 038a 1B       		.byte	0x1b
 1778 038b 95030000 		.4byte	0x395
 1779 038f 05       		.uleb128 0x5
 1780 0390 03       		.byte	0x3
 1781 0391 00000000 		.4byte	LED_Driver2_mstrRdBufPtr
 1782 0395 0A       		.uleb128 0xa
 1783 0396 04       		.byte	0x4
 1784 0397 A4000000 		.4byte	0xa4
 1785 039b 11       		.uleb128 0x11
 1786 039c E9030000 		.4byte	.LASF43
 1787 03a0 01       		.byte	0x1
 1788 03a1 1C       		.byte	0x1c
 1789 03a2 A4000000 		.4byte	0xa4
 1790 03a6 05       		.uleb128 0x5
 1791 03a7 03       		.byte	0x3
 1792 03a8 00000000 		.4byte	LED_Driver2_mstrRdBufSize
 1793 03ac 11       		.uleb128 0x11
 1794 03ad 43010000 		.4byte	.LASF44
 1795 03b1 01       		.byte	0x1
 1796 03b2 1D       		.byte	0x1d
 1797 03b3 A4000000 		.4byte	0xa4
 1798 03b7 05       		.uleb128 0x5
 1799 03b8 03       		.byte	0x3
 1800 03b9 00000000 		.4byte	LED_Driver2_mstrRdBufIndex
 1801 03bd 11       		.uleb128 0x11
 1802 03be 32040000 		.4byte	.LASF45
 1803 03c2 01       		.byte	0x1
 1804 03c3 20       		.byte	0x20
 1805 03c4 95030000 		.4byte	0x395
 1806 03c8 05       		.uleb128 0x5
 1807 03c9 03       		.byte	0x3
 1808 03ca 00000000 		.4byte	LED_Driver2_mstrWrBufPtr
 1809 03ce 11       		.uleb128 0x11
 1810 03cf 2F030000 		.4byte	.LASF46
 1811 03d3 01       		.byte	0x1
 1812 03d4 21       		.byte	0x21
 1813 03d5 A4000000 		.4byte	0xa4
 1814 03d9 05       		.uleb128 0x5
 1815 03da 03       		.byte	0x3
 1816 03db 00000000 		.4byte	LED_Driver2_mstrWrBufSize
 1817 03df 11       		.uleb128 0x11
 1818 03e0 00000000 		.4byte	.LASF47
 1819 03e4 01       		.byte	0x1
 1820 03e5 22       		.byte	0x22
ARM GAS  D:\Windows\AppData\Local\Temp\cciO0Pua.s 			page 48


 1821 03e6 A4000000 		.4byte	0xa4
 1822 03ea 05       		.uleb128 0x5
 1823 03eb 03       		.byte	0x3
 1824 03ec 00000000 		.4byte	LED_Driver2_mstrWrBufIndex
 1825 03f0 00       		.byte	0
 1826              		.section	.debug_abbrev,"",%progbits
 1827              	.Ldebug_abbrev0:
 1828 0000 01       		.uleb128 0x1
 1829 0001 11       		.uleb128 0x11
 1830 0002 01       		.byte	0x1
 1831 0003 25       		.uleb128 0x25
 1832 0004 0E       		.uleb128 0xe
 1833 0005 13       		.uleb128 0x13
 1834 0006 0B       		.uleb128 0xb
 1835 0007 03       		.uleb128 0x3
 1836 0008 0E       		.uleb128 0xe
 1837 0009 1B       		.uleb128 0x1b
 1838 000a 0E       		.uleb128 0xe
 1839 000b 55       		.uleb128 0x55
 1840 000c 17       		.uleb128 0x17
 1841 000d 11       		.uleb128 0x11
 1842 000e 01       		.uleb128 0x1
 1843 000f 10       		.uleb128 0x10
 1844 0010 17       		.uleb128 0x17
 1845 0011 00       		.byte	0
 1846 0012 00       		.byte	0
 1847 0013 02       		.uleb128 0x2
 1848 0014 24       		.uleb128 0x24
 1849 0015 00       		.byte	0
 1850 0016 0B       		.uleb128 0xb
 1851 0017 0B       		.uleb128 0xb
 1852 0018 3E       		.uleb128 0x3e
 1853 0019 0B       		.uleb128 0xb
 1854 001a 03       		.uleb128 0x3
 1855 001b 0E       		.uleb128 0xe
 1856 001c 00       		.byte	0
 1857 001d 00       		.byte	0
 1858 001e 03       		.uleb128 0x3
 1859 001f 24       		.uleb128 0x24
 1860 0020 00       		.byte	0
 1861 0021 0B       		.uleb128 0xb
 1862 0022 0B       		.uleb128 0xb
 1863 0023 3E       		.uleb128 0x3e
 1864 0024 0B       		.uleb128 0xb
 1865 0025 03       		.uleb128 0x3
 1866 0026 08       		.uleb128 0x8
 1867 0027 00       		.byte	0
 1868 0028 00       		.byte	0
 1869 0029 04       		.uleb128 0x4
 1870 002a 16       		.uleb128 0x16
 1871 002b 00       		.byte	0
 1872 002c 03       		.uleb128 0x3
 1873 002d 0E       		.uleb128 0xe
 1874 002e 3A       		.uleb128 0x3a
 1875 002f 0B       		.uleb128 0xb
 1876 0030 3B       		.uleb128 0x3b
 1877 0031 05       		.uleb128 0x5
ARM GAS  D:\Windows\AppData\Local\Temp\cciO0Pua.s 			page 49


 1878 0032 49       		.uleb128 0x49
 1879 0033 13       		.uleb128 0x13
 1880 0034 00       		.byte	0
 1881 0035 00       		.byte	0
 1882 0036 05       		.uleb128 0x5
 1883 0037 35       		.uleb128 0x35
 1884 0038 00       		.byte	0
 1885 0039 49       		.uleb128 0x49
 1886 003a 13       		.uleb128 0x13
 1887 003b 00       		.byte	0
 1888 003c 00       		.byte	0
 1889 003d 06       		.uleb128 0x6
 1890 003e 2E       		.uleb128 0x2e
 1891 003f 01       		.byte	0x1
 1892 0040 3F       		.uleb128 0x3f
 1893 0041 19       		.uleb128 0x19
 1894 0042 03       		.uleb128 0x3
 1895 0043 0E       		.uleb128 0xe
 1896 0044 3A       		.uleb128 0x3a
 1897 0045 0B       		.uleb128 0xb
 1898 0046 3B       		.uleb128 0x3b
 1899 0047 0B       		.uleb128 0xb
 1900 0048 27       		.uleb128 0x27
 1901 0049 19       		.uleb128 0x19
 1902 004a 49       		.uleb128 0x49
 1903 004b 13       		.uleb128 0x13
 1904 004c 11       		.uleb128 0x11
 1905 004d 01       		.uleb128 0x1
 1906 004e 12       		.uleb128 0x12
 1907 004f 06       		.uleb128 0x6
 1908 0050 40       		.uleb128 0x40
 1909 0051 18       		.uleb128 0x18
 1910 0052 9742     		.uleb128 0x2117
 1911 0054 19       		.uleb128 0x19
 1912 0055 01       		.uleb128 0x1
 1913 0056 13       		.uleb128 0x13
 1914 0057 00       		.byte	0
 1915 0058 00       		.byte	0
 1916 0059 07       		.uleb128 0x7
 1917 005a 05       		.uleb128 0x5
 1918 005b 00       		.byte	0
 1919 005c 03       		.uleb128 0x3
 1920 005d 0E       		.uleb128 0xe
 1921 005e 3A       		.uleb128 0x3a
 1922 005f 0B       		.uleb128 0xb
 1923 0060 3B       		.uleb128 0x3b
 1924 0061 0B       		.uleb128 0xb
 1925 0062 49       		.uleb128 0x49
 1926 0063 13       		.uleb128 0x13
 1927 0064 02       		.uleb128 0x2
 1928 0065 18       		.uleb128 0x18
 1929 0066 00       		.byte	0
 1930 0067 00       		.byte	0
 1931 0068 08       		.uleb128 0x8
 1932 0069 05       		.uleb128 0x5
 1933 006a 00       		.byte	0
 1934 006b 03       		.uleb128 0x3
ARM GAS  D:\Windows\AppData\Local\Temp\cciO0Pua.s 			page 50


 1935 006c 08       		.uleb128 0x8
 1936 006d 3A       		.uleb128 0x3a
 1937 006e 0B       		.uleb128 0xb
 1938 006f 3B       		.uleb128 0x3b
 1939 0070 0B       		.uleb128 0xb
 1940 0071 49       		.uleb128 0x49
 1941 0072 13       		.uleb128 0x13
 1942 0073 02       		.uleb128 0x2
 1943 0074 18       		.uleb128 0x18
 1944 0075 00       		.byte	0
 1945 0076 00       		.byte	0
 1946 0077 09       		.uleb128 0x9
 1947 0078 34       		.uleb128 0x34
 1948 0079 00       		.byte	0
 1949 007a 03       		.uleb128 0x3
 1950 007b 0E       		.uleb128 0xe
 1951 007c 3A       		.uleb128 0x3a
 1952 007d 0B       		.uleb128 0xb
 1953 007e 3B       		.uleb128 0x3b
 1954 007f 0B       		.uleb128 0xb
 1955 0080 49       		.uleb128 0x49
 1956 0081 13       		.uleb128 0x13
 1957 0082 02       		.uleb128 0x2
 1958 0083 18       		.uleb128 0x18
 1959 0084 00       		.byte	0
 1960 0085 00       		.byte	0
 1961 0086 0A       		.uleb128 0xa
 1962 0087 0F       		.uleb128 0xf
 1963 0088 00       		.byte	0
 1964 0089 0B       		.uleb128 0xb
 1965 008a 0B       		.uleb128 0xb
 1966 008b 49       		.uleb128 0x49
 1967 008c 13       		.uleb128 0x13
 1968 008d 00       		.byte	0
 1969 008e 00       		.byte	0
 1970 008f 0B       		.uleb128 0xb
 1971 0090 2E       		.uleb128 0x2e
 1972 0091 01       		.byte	0x1
 1973 0092 3F       		.uleb128 0x3f
 1974 0093 19       		.uleb128 0x19
 1975 0094 03       		.uleb128 0x3
 1976 0095 0E       		.uleb128 0xe
 1977 0096 3A       		.uleb128 0x3a
 1978 0097 0B       		.uleb128 0xb
 1979 0098 3B       		.uleb128 0x3b
 1980 0099 05       		.uleb128 0x5
 1981 009a 27       		.uleb128 0x27
 1982 009b 19       		.uleb128 0x19
 1983 009c 49       		.uleb128 0x49
 1984 009d 13       		.uleb128 0x13
 1985 009e 11       		.uleb128 0x11
 1986 009f 01       		.uleb128 0x1
 1987 00a0 12       		.uleb128 0x12
 1988 00a1 06       		.uleb128 0x6
 1989 00a2 40       		.uleb128 0x40
 1990 00a3 18       		.uleb128 0x18
 1991 00a4 9742     		.uleb128 0x2117
ARM GAS  D:\Windows\AppData\Local\Temp\cciO0Pua.s 			page 51


 1992 00a6 19       		.uleb128 0x19
 1993 00a7 01       		.uleb128 0x1
 1994 00a8 13       		.uleb128 0x13
 1995 00a9 00       		.byte	0
 1996 00aa 00       		.byte	0
 1997 00ab 0C       		.uleb128 0xc
 1998 00ac 05       		.uleb128 0x5
 1999 00ad 00       		.byte	0
 2000 00ae 03       		.uleb128 0x3
 2001 00af 0E       		.uleb128 0xe
 2002 00b0 3A       		.uleb128 0x3a
 2003 00b1 0B       		.uleb128 0xb
 2004 00b2 3B       		.uleb128 0x3b
 2005 00b3 05       		.uleb128 0x5
 2006 00b4 49       		.uleb128 0x49
 2007 00b5 13       		.uleb128 0x13
 2008 00b6 02       		.uleb128 0x2
 2009 00b7 18       		.uleb128 0x18
 2010 00b8 00       		.byte	0
 2011 00b9 00       		.byte	0
 2012 00ba 0D       		.uleb128 0xd
 2013 00bb 34       		.uleb128 0x34
 2014 00bc 00       		.byte	0
 2015 00bd 03       		.uleb128 0x3
 2016 00be 0E       		.uleb128 0xe
 2017 00bf 3A       		.uleb128 0x3a
 2018 00c0 0B       		.uleb128 0xb
 2019 00c1 3B       		.uleb128 0x3b
 2020 00c2 05       		.uleb128 0x5
 2021 00c3 49       		.uleb128 0x49
 2022 00c4 13       		.uleb128 0x13
 2023 00c5 02       		.uleb128 0x2
 2024 00c6 18       		.uleb128 0x18
 2025 00c7 00       		.byte	0
 2026 00c8 00       		.byte	0
 2027 00c9 0E       		.uleb128 0xe
 2028 00ca 2E       		.uleb128 0x2e
 2029 00cb 00       		.byte	0
 2030 00cc 3F       		.uleb128 0x3f
 2031 00cd 19       		.uleb128 0x19
 2032 00ce 03       		.uleb128 0x3
 2033 00cf 0E       		.uleb128 0xe
 2034 00d0 3A       		.uleb128 0x3a
 2035 00d1 0B       		.uleb128 0xb
 2036 00d2 3B       		.uleb128 0x3b
 2037 00d3 05       		.uleb128 0x5
 2038 00d4 27       		.uleb128 0x27
 2039 00d5 19       		.uleb128 0x19
 2040 00d6 49       		.uleb128 0x49
 2041 00d7 13       		.uleb128 0x13
 2042 00d8 11       		.uleb128 0x11
 2043 00d9 01       		.uleb128 0x1
 2044 00da 12       		.uleb128 0x12
 2045 00db 06       		.uleb128 0x6
 2046 00dc 40       		.uleb128 0x40
 2047 00dd 18       		.uleb128 0x18
 2048 00de 9742     		.uleb128 0x2117
ARM GAS  D:\Windows\AppData\Local\Temp\cciO0Pua.s 			page 52


 2049 00e0 19       		.uleb128 0x19
 2050 00e1 00       		.byte	0
 2051 00e2 00       		.byte	0
 2052 00e3 0F       		.uleb128 0xf
 2053 00e4 2E       		.uleb128 0x2e
 2054 00e5 00       		.byte	0
 2055 00e6 3F       		.uleb128 0x3f
 2056 00e7 19       		.uleb128 0x19
 2057 00e8 03       		.uleb128 0x3
 2058 00e9 0E       		.uleb128 0xe
 2059 00ea 3A       		.uleb128 0x3a
 2060 00eb 0B       		.uleb128 0xb
 2061 00ec 3B       		.uleb128 0x3b
 2062 00ed 05       		.uleb128 0x5
 2063 00ee 27       		.uleb128 0x27
 2064 00ef 19       		.uleb128 0x19
 2065 00f0 11       		.uleb128 0x11
 2066 00f1 01       		.uleb128 0x1
 2067 00f2 12       		.uleb128 0x12
 2068 00f3 06       		.uleb128 0x6
 2069 00f4 40       		.uleb128 0x40
 2070 00f5 18       		.uleb128 0x18
 2071 00f6 9742     		.uleb128 0x2117
 2072 00f8 19       		.uleb128 0x19
 2073 00f9 00       		.byte	0
 2074 00fa 00       		.byte	0
 2075 00fb 10       		.uleb128 0x10
 2076 00fc 34       		.uleb128 0x34
 2077 00fd 00       		.byte	0
 2078 00fe 03       		.uleb128 0x3
 2079 00ff 0E       		.uleb128 0xe
 2080 0100 3A       		.uleb128 0x3a
 2081 0101 0B       		.uleb128 0xb
 2082 0102 3B       		.uleb128 0x3b
 2083 0103 0B       		.uleb128 0xb
 2084 0104 49       		.uleb128 0x49
 2085 0105 13       		.uleb128 0x13
 2086 0106 3F       		.uleb128 0x3f
 2087 0107 19       		.uleb128 0x19
 2088 0108 3C       		.uleb128 0x3c
 2089 0109 19       		.uleb128 0x19
 2090 010a 00       		.byte	0
 2091 010b 00       		.byte	0
 2092 010c 11       		.uleb128 0x11
 2093 010d 34       		.uleb128 0x34
 2094 010e 00       		.byte	0
 2095 010f 03       		.uleb128 0x3
 2096 0110 0E       		.uleb128 0xe
 2097 0111 3A       		.uleb128 0x3a
 2098 0112 0B       		.uleb128 0xb
 2099 0113 3B       		.uleb128 0x3b
 2100 0114 0B       		.uleb128 0xb
 2101 0115 49       		.uleb128 0x49
 2102 0116 13       		.uleb128 0x13
 2103 0117 3F       		.uleb128 0x3f
 2104 0118 19       		.uleb128 0x19
 2105 0119 02       		.uleb128 0x2
ARM GAS  D:\Windows\AppData\Local\Temp\cciO0Pua.s 			page 53


 2106 011a 18       		.uleb128 0x18
 2107 011b 00       		.byte	0
 2108 011c 00       		.byte	0
 2109 011d 00       		.byte	0
 2110              		.section	.debug_aranges,"",%progbits
 2111 0000 7C000000 		.4byte	0x7c
 2112 0004 0200     		.2byte	0x2
 2113 0006 00000000 		.4byte	.Ldebug_info0
 2114 000a 04       		.byte	0x4
 2115 000b 00       		.byte	0
 2116 000c 0000     		.2byte	0
 2117 000e 0000     		.2byte	0
 2118 0010 00000000 		.4byte	.LFB0
 2119 0014 20010000 		.4byte	.LFE0-.LFB0
 2120 0018 00000000 		.4byte	.LFB1
 2121 001c 28010000 		.4byte	.LFE1-.LFB1
 2122 0020 00000000 		.4byte	.LFB2
 2123 0024 D8000000 		.4byte	.LFE2-.LFB2
 2124 0028 00000000 		.4byte	.LFB3
 2125 002c C0000000 		.4byte	.LFE3-.LFB3
 2126 0030 00000000 		.4byte	.LFB4
 2127 0034 74000000 		.4byte	.LFE4-.LFB4
 2128 0038 00000000 		.4byte	.LFB5
 2129 003c A0000000 		.4byte	.LFE5-.LFB5
 2130 0040 00000000 		.4byte	.LFB6
 2131 0044 B4000000 		.4byte	.LFE6-.LFB6
 2132 0048 00000000 		.4byte	.LFB7
 2133 004c 50000000 		.4byte	.LFE7-.LFB7
 2134 0050 00000000 		.4byte	.LFB8
 2135 0054 38000000 		.4byte	.LFE8-.LFB8
 2136 0058 00000000 		.4byte	.LFB9
 2137 005c 18000000 		.4byte	.LFE9-.LFB9
 2138 0060 00000000 		.4byte	.LFB10
 2139 0064 18000000 		.4byte	.LFE10-.LFB10
 2140 0068 00000000 		.4byte	.LFB11
 2141 006c 40000000 		.4byte	.LFE11-.LFB11
 2142 0070 00000000 		.4byte	.LFB12
 2143 0074 40000000 		.4byte	.LFE12-.LFB12
 2144 0078 00000000 		.4byte	0
 2145 007c 00000000 		.4byte	0
 2146              		.section	.debug_ranges,"",%progbits
 2147              	.Ldebug_ranges0:
 2148 0000 00000000 		.4byte	.LFB0
 2149 0004 20010000 		.4byte	.LFE0
 2150 0008 00000000 		.4byte	.LFB1
 2151 000c 28010000 		.4byte	.LFE1
 2152 0010 00000000 		.4byte	.LFB2
 2153 0014 D8000000 		.4byte	.LFE2
 2154 0018 00000000 		.4byte	.LFB3
 2155 001c C0000000 		.4byte	.LFE3
 2156 0020 00000000 		.4byte	.LFB4
 2157 0024 74000000 		.4byte	.LFE4
 2158 0028 00000000 		.4byte	.LFB5
 2159 002c A0000000 		.4byte	.LFE5
 2160 0030 00000000 		.4byte	.LFB6
 2161 0034 B4000000 		.4byte	.LFE6
 2162 0038 00000000 		.4byte	.LFB7
ARM GAS  D:\Windows\AppData\Local\Temp\cciO0Pua.s 			page 54


 2163 003c 50000000 		.4byte	.LFE7
 2164 0040 00000000 		.4byte	.LFB8
 2165 0044 38000000 		.4byte	.LFE8
 2166 0048 00000000 		.4byte	.LFB9
 2167 004c 18000000 		.4byte	.LFE9
 2168 0050 00000000 		.4byte	.LFB10
 2169 0054 18000000 		.4byte	.LFE10
 2170 0058 00000000 		.4byte	.LFB11
 2171 005c 40000000 		.4byte	.LFE11
 2172 0060 00000000 		.4byte	.LFB12
 2173 0064 40000000 		.4byte	.LFE12
 2174 0068 00000000 		.4byte	0
 2175 006c 00000000 		.4byte	0
 2176              		.section	.debug_line,"",%progbits
 2177              	.Ldebug_line0:
 2178 0000 1D020000 		.section	.debug_str,"MS",%progbits,1
 2178      02006400 
 2178      00000201 
 2178      FB0E0D00 
 2178      01010101 
 2179              	.LASF47:
 2180 0000 4C45445F 		.ascii	"LED_Driver2_mstrWrBufIndex\000"
 2180      44726976 
 2180      6572325F 
 2180      6D737472 
 2180      57724275 
 2181              	.LASF15:
 2182 001b 72656733 		.ascii	"reg32\000"
 2182      3200
 2183              	.LASF33:
 2184 0021 73746174 		.ascii	"status\000"
 2184      757300
 2185              	.LASF26:
 2186 0028 4C45445F 		.ascii	"LED_Driver2_MasterSendRestart\000"
 2186      44726976 
 2186      6572325F 
 2186      4D617374 
 2186      65725365 
 2187              	.LASF27:
 2188 0046 4C45445F 		.ascii	"LED_Driver2_MasterSendStop\000"
 2188      44726976 
 2188      6572325F 
 2188      4D617374 
 2188      65725365 
 2189              	.LASF3:
 2190 0061 73686F72 		.ascii	"short unsigned int\000"
 2190      7420756E 
 2190      7369676E 
 2190      65642069 
 2190      6E7400
 2191              	.LASF13:
 2192 0074 63686172 		.ascii	"char\000"
 2192      00
 2193              	.LASF8:
 2194 0079 756E7369 		.ascii	"unsigned int\000"
 2194      676E6564 
 2194      20696E74 
ARM GAS  D:\Windows\AppData\Local\Temp\cciO0Pua.s 			page 55


 2194      00
 2195              	.LASF24:
 2196 0086 4C45445F 		.ascii	"LED_Driver2_MasterSendStart\000"
 2196      44726976 
 2196      6572325F 
 2196      4D617374 
 2196      65725365 
 2197              	.LASF34:
 2198 00a2 4C45445F 		.ascii	"LED_Driver2_MasterClearStatus\000"
 2198      44726976 
 2198      6572325F 
 2198      4D617374 
 2198      6572436C 
 2199              	.LASF17:
 2200 00c0 736C6176 		.ascii	"slaveAddress\000"
 2200      65416464 
 2200      72657373 
 2200      00
 2201              	.LASF39:
 2202 00cd 4C45445F 		.ascii	"LED_Driver2_state\000"
 2202      44726976 
 2202      6572325F 
 2202      73746174 
 2202      6500
 2203              	.LASF49:
 2204 00df 47656E65 		.ascii	"Generated_Source\\PSoC5\\LED_Driver2_MASTER.c\000"
 2204      72617465 
 2204      645F536F 
 2204      75726365 
 2204      5C50536F 
 2205              	.LASF11:
 2206 010b 666C6F61 		.ascii	"float\000"
 2206      7400
 2207              	.LASF1:
 2208 0111 756E7369 		.ascii	"unsigned char\000"
 2208      676E6564 
 2208      20636861 
 2208      7200
 2209              	.LASF37:
 2210 011f 4C45445F 		.ascii	"LED_Driver2_MasterClearReadBuf\000"
 2210      44726976 
 2210      6572325F 
 2210      4D617374 
 2210      6572436C 
 2211              	.LASF14:
 2212 013e 72656738 		.ascii	"reg8\000"
 2212      00
 2213              	.LASF44:
 2214 0143 4C45445F 		.ascii	"LED_Driver2_mstrRdBufIndex\000"
 2214      44726976 
 2214      6572325F 
 2214      6D737472 
 2214      52644275 
 2215              	.LASF5:
 2216 015e 6C6F6E67 		.ascii	"long unsigned int\000"
 2216      20756E73 
 2216      69676E65 
ARM GAS  D:\Windows\AppData\Local\Temp\cciO0Pua.s 			page 56


 2216      6420696E 
 2216      7400
 2217              	.LASF9:
 2218 0170 75696E74 		.ascii	"uint8\000"
 2218      3800
 2219              	.LASF36:
 2220 0176 4C45445F 		.ascii	"LED_Driver2_MasterGetWriteBufSize\000"
 2220      44726976 
 2220      6572325F 
 2220      4D617374 
 2220      65724765 
 2221              	.LASF20:
 2222 0198 4C45445F 		.ascii	"LED_Driver2_MasterWriteBuf\000"
 2222      44726976 
 2222      6572325F 
 2222      4D617374 
 2222      65725772 
 2223              	.LASF23:
 2224 01b3 65727253 		.ascii	"errStatus\000"
 2224      74617475 
 2224      7300
 2225              	.LASF28:
 2226 01bd 4C45445F 		.ascii	"LED_Driver2_MasterWriteByte\000"
 2226      44726976 
 2226      6572325F 
 2226      4D617374 
 2226      65725772 
 2227              	.LASF48:
 2228 01d9 474E5520 		.ascii	"GNU C 4.9.3 20150303 (release) [ARM/embedded-4_9-br"
 2228      4320342E 
 2228      392E3320 
 2228      32303135 
 2228      30333033 
 2229 020c 616E6368 		.ascii	"anch revision 221220] -mcpu=cortex-m3 -mthumb -g -O"
 2229      20726576 
 2229      6973696F 
 2229      6E203232 
 2229      31323230 
 2230 023f 30202D66 		.ascii	"0 -ffunction-sections -ffat-lto-objects\000"
 2230      66756E63 
 2230      74696F6E 
 2230      2D736563 
 2230      74696F6E 
 2231              	.LASF12:
 2232 0267 646F7562 		.ascii	"double\000"
 2232      6C6500
 2233              	.LASF21:
 2234 026e 4C45445F 		.ascii	"LED_Driver2_MasterReadBuf\000"
 2234      44726976 
 2234      6572325F 
 2234      4D617374 
 2234      65725265 
 2235              	.LASF25:
 2236 0288 525F6E57 		.ascii	"R_nW\000"
 2236      00
 2237              	.LASF22:
 2238 028d 72644461 		.ascii	"rdData\000"
ARM GAS  D:\Windows\AppData\Local\Temp\cciO0Pua.s 			page 57


 2238      746100
 2239              	.LASF10:
 2240 0294 75696E74 		.ascii	"uint32\000"
 2240      333200
 2241              	.LASF31:
 2242 029b 61636B6E 		.ascii	"acknNak\000"
 2242      4E616B00 
 2243              	.LASF18:
 2244 02a3 77724461 		.ascii	"wrData\000"
 2244      746100
 2245              	.LASF7:
 2246 02aa 6C6F6E67 		.ascii	"long long unsigned int\000"
 2246      206C6F6E 
 2246      6720756E 
 2246      7369676E 
 2246      65642069 
 2247              	.LASF19:
 2248 02c1 6D6F6465 		.ascii	"mode\000"
 2248      00
 2249              	.LASF42:
 2250 02c6 4C45445F 		.ascii	"LED_Driver2_mstrRdBufPtr\000"
 2250      44726976 
 2250      6572325F 
 2250      6D737472 
 2250      52644275 
 2251              	.LASF32:
 2252 02df 4C45445F 		.ascii	"LED_Driver2_MasterStatus\000"
 2252      44726976 
 2252      6572325F 
 2252      4D617374 
 2252      65725374 
 2253              	.LASF38:
 2254 02f8 4C45445F 		.ascii	"LED_Driver2_MasterClearWriteBuf\000"
 2254      44726976 
 2254      6572325F 
 2254      4D617374 
 2254      6572436C 
 2255              	.LASF16:
 2256 0318 73697A65 		.ascii	"sizetype\000"
 2256      74797065 
 2256      00
 2257              	.LASF6:
 2258 0321 6C6F6E67 		.ascii	"long long int\000"
 2258      206C6F6E 
 2258      6720696E 
 2258      7400
 2259              	.LASF46:
 2260 032f 4C45445F 		.ascii	"LED_Driver2_mstrWrBufSize\000"
 2260      44726976 
 2260      6572325F 
 2260      6D737472 
 2260      57724275 
 2261              	.LASF2:
 2262 0349 73686F72 		.ascii	"short int\000"
 2262      7420696E 
 2262      7400
 2263              	.LASF29:
ARM GAS  D:\Windows\AppData\Local\Temp\cciO0Pua.s 			page 58


 2264 0353 74686542 		.ascii	"theByte\000"
 2264      79746500 
 2265              	.LASF35:
 2266 035b 4C45445F 		.ascii	"LED_Driver2_MasterGetReadBufSize\000"
 2266      44726976 
 2266      6572325F 
 2266      4D617374 
 2266      65724765 
 2267              	.LASF4:
 2268 037c 6C6F6E67 		.ascii	"long int\000"
 2268      20696E74 
 2268      00
 2269              	.LASF30:
 2270 0385 4C45445F 		.ascii	"LED_Driver2_MasterReadByte\000"
 2270      44726976 
 2270      6572325F 
 2270      4D617374 
 2270      65725265 
 2271              	.LASF50:
 2272 03a0 443A5C44 		.ascii	"D:\\Downloads\\FRUCD\\Node-Jaguar\\Node-Jaguar\\Nod"
 2272      6F776E6C 
 2272      6F616473 
 2272      5C465255 
 2272      43445C4E 
 2273 03ce 652D4A61 		.ascii	"e-Jaguar.cydsn\000"
 2273      67756172 
 2273      2E637964 
 2273      736E00
 2274              	.LASF0:
 2275 03dd 7369676E 		.ascii	"signed char\000"
 2275      65642063 
 2275      68617200 
 2276              	.LASF43:
 2277 03e9 4C45445F 		.ascii	"LED_Driver2_mstrRdBufSize\000"
 2277      44726976 
 2277      6572325F 
 2277      6D737472 
 2277      52644275 
 2278              	.LASF40:
 2279 0403 4C45445F 		.ascii	"LED_Driver2_mstrStatus\000"
 2279      44726976 
 2279      6572325F 
 2279      6D737472 
 2279      53746174 
 2280              	.LASF41:
 2281 041a 4C45445F 		.ascii	"LED_Driver2_mstrControl\000"
 2281      44726976 
 2281      6572325F 
 2281      6D737472 
 2281      436F6E74 
 2282              	.LASF45:
 2283 0432 4C45445F 		.ascii	"LED_Driver2_mstrWrBufPtr\000"
 2283      44726976 
 2283      6572325F 
 2283      6D737472 
 2283      57724275 
 2284              		.ident	"GCC: (GNU Tools for ARM Embedded Processors) 4.9.3 20150303 (release) [ARM/embedded-4_9-br
ARM GAS  D:\Windows\AppData\Local\Temp\cciO0Pua.s 			page 59


