ARM GAS  D:\Windows\AppData\Local\Temp\ccP1kfgz.s 			page 1


   1              		.syntax unified
   2              		.cpu cortex-m3
   3              		.fpu softvfp
   4              		.eabi_attribute 20, 1
   5              		.eabi_attribute 21, 1
   6              		.eabi_attribute 23, 3
   7              		.eabi_attribute 24, 1
   8              		.eabi_attribute 25, 1
   9              		.eabi_attribute 26, 1
  10              		.eabi_attribute 30, 1
  11              		.eabi_attribute 34, 1
  12              		.eabi_attribute 18, 4
  13              		.thumb
  14              		.file	"led_manager.c"
  15              		.text
  16              	.Ltext0:
  17              		.cfi_sections	.debug_frame
  18              		.section	.text.write_all_tach,"ax",%progbits
  19              		.align	2
  20              		.global	write_all_tach
  21              		.thumb
  22              		.thumb_func
  23              		.type	write_all_tach, %function
  24              	write_all_tach:
  25              	.LFB74:
  26              		.file 1 "led_manager.c"
   1:led_manager.c **** /*	Recieves CAN information for motor RPM, BMS temp, motor temp, motor controller temp 
   2:led_manager.c **** 	and SoC and displatys on LED's.
   3:led_manager.c ****     
   4:led_manager.c ****     Dustin Mai, 2016-2017 FRUCD
   5:led_manager.c ****     
   6:led_manager.c **** 	tach = RPM
   7:led_manager.c **** 	b1 = BMS temp
   8:led_manager.c **** 	b2 = motor temp
   9:led_manager.c **** 	b3 = motor controller temp
  10:led_manager.c **** 	c1 = SoC
  11:led_manager.c **** */
  12:led_manager.c **** 
  13:led_manager.c **** #include "led_manager.h"
  14:led_manager.c **** 
  15:led_manager.c **** //temperature (C), step points for each 5-LED monitor set
  16:led_manager.c **** int bms_temp_map[] = {0x40, 0x45, 0x50, 0x55, 0x60};
  17:led_manager.c **** int mtr_temp_map[] = {50, 75, 100, 125, 150};
  18:led_manager.c **** int mtr_ctrl_temp_map[] = {60, 70, 80, 90, 100};
  19:led_manager.c **** 
  20:led_manager.c **** //byte of LED address which holds which led's are on/off
  21:led_manager.c **** uint8_t byte05 = 0x00;
  22:led_manager.c **** uint8_t byte06 = 0x00;
  23:led_manager.c **** uint8_t byte07 = 0x00;
  24:led_manager.c **** uint8_t byte08 = 0x00;
  25:led_manager.c **** 
  26:led_manager.c **** uint8_t byte05_2 = 0x00;
  27:led_manager.c **** uint8_t byte06_2 = 0x00;
  28:led_manager.c **** uint8_t byte07_2 = 0x00;
  29:led_manager.c **** uint8_t byte08_2 = 0x00;
  30:led_manager.c **** 
  31:led_manager.c **** //holds which led's are on/off
ARM GAS  D:\Windows\AppData\Local\Temp\ccP1kfgz.s 			page 2


  32:led_manager.c **** int tach_arr[22] = {0,0,0,0,0,0,0,0,0,0,0,0,0,0,0,0,0,0,0,0,0,0};
  33:led_manager.c **** int b1_arr[5] = {0,0,0,0,0};
  34:led_manager.c **** int b2_arr[5] = {0,0,0,0,0};
  35:led_manager.c **** int b3_arr[5] = {0,0,0,0,0};
  36:led_manager.c **** int c1_arr[5] = {0,0,0,0,0};
  37:led_manager.c **** 
  38:led_manager.c **** int tach_critical = 0;
  39:led_manager.c **** int b1_critical = 0;
  40:led_manager.c **** int b2_critical = 0;
  41:led_manager.c **** int b3_critical = 0;
  42:led_manager.c **** int c1_critical = 0;
  43:led_manager.c **** 
  44:led_manager.c **** int tach_crit_led = 0;  //led status to toggle them on/off when monitor reaches critical
  45:led_manager.c **** int b1_crit_led = 0;	
  46:led_manager.c **** int b2_crit_led = 0;
  47:led_manager.c **** int b3_crit_led = 0;
  48:led_manager.c **** int c1_crit_led = 0;
  49:led_manager.c **** 
  50:led_manager.c **** CY_ISR(tach_crit_isr) {
  51:led_manager.c ****     tach_crit_led = tach_crit_led == 0 ? 1:0;
  52:led_manager.c ****     d1_write(tach_crit_led);
  53:led_manager.c ****     d2_write(tach_crit_led);
  54:led_manager.c ****     d3_write(tach_crit_led);
  55:led_manager.c ****     d4_write(tach_crit_led);
  56:led_manager.c ****     d5_write(tach_crit_led);
  57:led_manager.c ****     d6_write(tach_crit_led);
  58:led_manager.c ****     d7_write(tach_crit_led);
  59:led_manager.c ****     d8_write(tach_crit_led);
  60:led_manager.c ****     d9_write(tach_crit_led);
  61:led_manager.c ****     d10_write(tach_crit_led);
  62:led_manager.c ****     d11_write(tach_crit_led);
  63:led_manager.c ****     d12_write(tach_crit_led);
  64:led_manager.c ****     d13_write(tach_crit_led);
  65:led_manager.c ****     d14_write(tach_crit_led);
  66:led_manager.c ****     d15_write(tach_crit_led);
  67:led_manager.c ****     d16_write(tach_crit_led);
  68:led_manager.c ****     d17_write(tach_crit_led);
  69:led_manager.c ****     d18_write(tach_crit_led);
  70:led_manager.c ****     d19_write(tach_crit_led);
  71:led_manager.c ****     d20_write(tach_crit_led);
  72:led_manager.c ****     d21_write(tach_crit_led);
  73:led_manager.c ****     d22_write(tach_crit_led);
  74:led_manager.c ****     led_update_tach(0);
  75:led_manager.c **** }
  76:led_manager.c **** 
  77:led_manager.c **** 
  78:led_manager.c **** CY_ISR(b1_crit_isr) {
  79:led_manager.c **** 	b1_crit_led = b1_crit_led == 0 ? 1:0;
  80:led_manager.c **** 	b11_write(b1_crit_led);
  81:led_manager.c **** 	b12_write(b1_crit_led);
  82:led_manager.c **** 	b13_write(b1_crit_led);
  83:led_manager.c **** 	b14_write(b1_crit_led);
  84:led_manager.c **** 	b15_write(b1_crit_led);
  85:led_manager.c ****     led_update_stat();
  86:led_manager.c **** 
  87:led_manager.c **** }
  88:led_manager.c **** CY_ISR(b2_crit_isr) {
ARM GAS  D:\Windows\AppData\Local\Temp\ccP1kfgz.s 			page 3


  89:led_manager.c **** 	b2_crit_led = b2_crit_led == 0 ? 1:0;
  90:led_manager.c **** 	b21_write(b2_crit_led);
  91:led_manager.c **** 	b22_write(b2_crit_led);
  92:led_manager.c **** 	b23_write(b2_crit_led);
  93:led_manager.c **** 	b24_write(b2_crit_led);
  94:led_manager.c **** 	b25_write(b2_crit_led);
  95:led_manager.c ****     led_update_stat();
  96:led_manager.c **** 
  97:led_manager.c **** }
  98:led_manager.c **** CY_ISR(b3_crit_isr) {
  99:led_manager.c **** 	b3_crit_led = b3_crit_led == 0 ? 1:0;
 100:led_manager.c **** 	b31_write(b3_crit_led);
 101:led_manager.c **** 	b32_write(b3_crit_led);
 102:led_manager.c **** 	b33_write(b3_crit_led);
 103:led_manager.c **** 	b34_write(b3_crit_led);
 104:led_manager.c **** 	b35_write(b3_crit_led);
 105:led_manager.c ****     led_update_stat();
 106:led_manager.c **** 
 107:led_manager.c **** }
 108:led_manager.c **** CY_ISR(c1_crit_isr) {
 109:led_manager.c **** 	c1_crit_led = c1_crit_led == 0 ? 1:0;
 110:led_manager.c **** 	c1_write(c1_crit_led);
 111:led_manager.c **** 	c2_write(c1_crit_led);
 112:led_manager.c **** 	c3_write(c1_crit_led);
 113:led_manager.c **** 	c4_write(c1_crit_led);
 114:led_manager.c **** 	c5_write(c1_crit_led);
 115:led_manager.c ****     led_update_stat();
 116:led_manager.c **** }
 117:led_manager.c **** 
 118:led_manager.c **** 
 119:led_manager.c **** void led_driver_init() {
 120:led_manager.c **** 	LED_Driver1_Start();
 121:led_manager.c **** 	LED_Driver2_Start();
 122:led_manager.c **** 
 123:led_manager.c **** 	//tach settings
 124:led_manager.c **** 	LED_Driver1_MasterSendStart(LED_ADDR, 0);
 125:led_manager.c **** 	LED_Driver1_MasterWriteByte(0x00);				//move to 0x00 addr
 126:led_manager.c **** 	LED_Driver1_MasterWriteByte(serial_setting);	//0x00 addr
 127:led_manager.c **** 	LED_Driver1_MasterWriteByte(fade_setting);		//x01
 128:led_manager.c **** 	LED_Driver1_MasterWriteByte(RLED_curr);			//x02
 129:led_manager.c **** 	LED_Driver1_MasterWriteByte(GLED_curr);			//x03
 130:led_manager.c **** 	LED_Driver1_MasterWriteByte(BLED_curr);			//x04
 131:led_manager.c **** 	LED_Driver1_MasterSendStop();
 132:led_manager.c **** 	LED_Driver1_MasterSendStart(LED_ADDR, 0);
 133:led_manager.c **** 	LED_Driver1_MasterWriteByte(0x09);
 134:led_manager.c **** 	LED_Driver1_MasterWriteByte(output_setting);	//x09 addr
 135:led_manager.c **** 	LED_Driver1_MasterWriteByte(output_setting);	//x0A
 136:led_manager.c **** 	LED_Driver1_MasterWriteByte(output_setting);	//x0B
 137:led_manager.c **** 	LED_Driver1_MasterWriteByte(output_setting);	//x0C
 138:led_manager.c **** 	LED_Driver1_MasterWriteByte(output_setting);	//x0D
 139:led_manager.c **** 	LED_Driver1_MasterWriteByte(output_setting);	//x0E
 140:led_manager.c **** 	LED_Driver1_MasterWriteByte(fade_fn);			//x0F	LEDR
 141:led_manager.c **** 	LED_Driver1_MasterWriteByte(fade_fn);			//x10	LEDG
 142:led_manager.c **** 	LED_Driver1_MasterWriteByte(fade_fn);			//x11	LEDB
 143:led_manager.c **** 	LED_Driver1_MasterSendStop();
 144:led_manager.c **** 	
 145:led_manager.c **** 	//monitor settings
ARM GAS  D:\Windows\AppData\Local\Temp\ccP1kfgz.s 			page 4


 146:led_manager.c **** 	LED_Driver2_MasterSendStart(LED_ADDR, 0);		//set mode
 147:led_manager.c **** 	LED_Driver2_MasterWriteByte(0x00);				//move to 0x00 addr
 148:led_manager.c **** 	LED_Driver2_MasterWriteByte(serial_setting);	//0x00 addr
 149:led_manager.c **** 	LED_Driver2_MasterWriteByte(fade_setting);		//x01
 150:led_manager.c **** 	LED_Driver2_MasterWriteByte(RLED_curr);			//x02
 151:led_manager.c **** 	LED_Driver2_MasterWriteByte(GLED_curr);			//x03
 152:led_manager.c **** 	LED_Driver2_MasterWriteByte(BLED_curr);			//x04
 153:led_manager.c **** 	LED_Driver2_MasterSendStop();
 154:led_manager.c **** 	LED_Driver2_MasterSendStart(LED_ADDR, 0);		//set output setting PWM
 155:led_manager.c **** 	LED_Driver2_MasterWriteByte(0x09);
 156:led_manager.c **** 	LED_Driver2_MasterWriteByte(output_setting);	//x09 addr
 157:led_manager.c **** 	LED_Driver2_MasterWriteByte(output_setting);	//x0A
 158:led_manager.c **** 	LED_Driver2_MasterWriteByte(output_setting);	//x0B
 159:led_manager.c **** 	LED_Driver2_MasterWriteByte(output_setting);	//x0C
 160:led_manager.c **** 	LED_Driver2_MasterWriteByte(output_setting);	//x0D
 161:led_manager.c **** 	LED_Driver2_MasterWriteByte(output_setting);	//x0E
 162:led_manager.c **** 	LED_Driver2_MasterWriteByte(fade_fn);			//x0F	LEDR
 163:led_manager.c **** 	LED_Driver2_MasterWriteByte(fade_fn);			//x10	LEDG
 164:led_manager.c **** 	LED_Driver2_MasterWriteByte(fade_fn);			//x11	LEDB
 165:led_manager.c **** 	LED_Driver2_MasterSendStop();
 166:led_manager.c **** 	
 167:led_manager.c **** 	write_all_tach(0);
 168:led_manager.c **** 	write_all_stat(0);
 169:led_manager.c **** } //led_driver_init()
 170:led_manager.c **** 
 171:led_manager.c **** 
 172:led_manager.c **** //calculates and writes RPM to tach led bar based on the maxed RPM
 173:led_manager.c **** void led_write_tach(uint16_t MTR_RPM) {
 174:led_manager.c **** 	long tach_pct = MTR_RPM / MAX_RPM;	//tach percent
 175:led_manager.c **** 	int steps = 0;
 176:led_manager.c ****     
 177:led_manager.c ****     if(tach_pct < 100) { //not full rpm anymore
 178:led_manager.c ****         if(tach_critical) {
 179:led_manager.c ****             tach_critical = 0;
 180:led_manager.c ****             tach_crit_int_Stop();
 181:led_manager.c ****             tach_critical_timer_Stop();
 182:led_manager.c ****             d22_write(0);   //actually not using last led for anything but full rpm blinking
 183:led_manager.c ****             led_update_tach();
 184:led_manager.c ****         } //if 
 185:led_manager.c ****     } //if
 186:led_manager.c ****     
 187:led_manager.c **** 	//using TACH_MAX_STEPS = 20 leds, 5% per step
 188:led_manager.c ****     if (tach_pct == 0)
 189:led_manager.c ****         steps = 0;
 190:led_manager.c **** 	else if(tach_pct > 0 && tach_pct <= 5)
 191:led_manager.c **** 		steps = 2;	//first step lights up first 2 led's
 192:led_manager.c **** 	else if(tach_pct > 5 && tach_pct <= 10)
 193:led_manager.c **** 		steps = 3;
 194:led_manager.c **** 	else if(tach_pct > 10 && tach_pct <= 15)
 195:led_manager.c **** 		steps = 4;
 196:led_manager.c **** 	else if(tach_pct > 15 && tach_pct <= 20)
 197:led_manager.c **** 		steps = 5;
 198:led_manager.c **** 	else if(tach_pct > 20 && tach_pct <= 25)
 199:led_manager.c **** 		steps = 6;
 200:led_manager.c **** 	else if(tach_pct > 25 && tach_pct <= 30)
 201:led_manager.c **** 		steps = 7;
 202:led_manager.c **** 	else if(tach_pct > 30 && tach_pct <= 35)
ARM GAS  D:\Windows\AppData\Local\Temp\ccP1kfgz.s 			page 5


 203:led_manager.c **** 		steps = 8;
 204:led_manager.c **** 	else if(tach_pct > 35 && tach_pct <= 40)
 205:led_manager.c **** 		steps = 9;
 206:led_manager.c **** 	else if(tach_pct > 40 && tach_pct <= 45)
 207:led_manager.c **** 		steps = 10;
 208:led_manager.c **** 	else if(tach_pct > 45 && tach_pct <= 50)
 209:led_manager.c **** 		steps = 11;
 210:led_manager.c **** 	else if(tach_pct > 50 && tach_pct <= 55)
 211:led_manager.c **** 		steps = 12;
 212:led_manager.c **** 	else if(tach_pct > 55 && tach_pct <= 60)
 213:led_manager.c **** 		steps = 13;
 214:led_manager.c **** 	else if(tach_pct > 60 && tach_pct <= 65)
 215:led_manager.c **** 		steps = 14;
 216:led_manager.c **** 	else if(tach_pct > 65 && tach_pct <= 70)
 217:led_manager.c **** 		steps = 15;
 218:led_manager.c **** 	else if(tach_pct > 70 && tach_pct <= 75)
 219:led_manager.c **** 		steps = 16;
 220:led_manager.c **** 	else if(tach_pct > 75 && tach_pct <= 80)
 221:led_manager.c **** 		steps = 17;
 222:led_manager.c **** 	else if(tach_pct > 80 && tach_pct <= 85)
 223:led_manager.c **** 		steps = 18;
 224:led_manager.c **** 	else if(tach_pct > 85 && tach_pct <= 90)
 225:led_manager.c **** 		steps = 19;
 226:led_manager.c **** 	else if(tach_pct > 90 && tach_pct <= 95)
 227:led_manager.c **** 		steps = 20;
 228:led_manager.c **** 	else if(tach_pct > 95 && tach_pct <= 99)
 229:led_manager.c **** 		steps = 21;
 230:led_manager.c ****     else { //(tach_pct = 100)
 231:led_manager.c ****         if(!tach_critical) {	//start blinking
 232:led_manager.c **** 			tach_critical_timer_Start();
 233:led_manager.c **** 			tach_crit_int_StartEx(tach_crit_isr);
 234:led_manager.c **** 			tach_critical = 1;
 235:led_manager.c **** 		} //if
 236:led_manager.c **** 	} //else
 237:led_manager.c **** 	
 238:led_manager.c **** 	if(!tach_critical) {
 239:led_manager.c ****     	int i;
 240:led_manager.c ****     	for(i=0; i<steps; i++)
 241:led_manager.c ****     		tach_arr[i] = 1;	//on leds
 242:led_manager.c ****     	for(i=steps; i<TACH_MAX_STEPS+2; i++)	//+2 to get d1 and d22
 243:led_manager.c ****     		tach_arr[i] = 0;	//off leds
 244:led_manager.c ****     	
 245:led_manager.c ****     	d1_write(tach_arr[0]);
 246:led_manager.c ****     	d2_write(tach_arr[1]);
 247:led_manager.c ****     	d3_write(tach_arr[2]);
 248:led_manager.c ****     	d4_write(tach_arr[3]);
 249:led_manager.c ****     	d5_write(tach_arr[4]);
 250:led_manager.c ****     	d6_write(tach_arr[5]);
 251:led_manager.c ****     	d7_write(tach_arr[6]);
 252:led_manager.c ****     	d8_write(tach_arr[7]);
 253:led_manager.c ****     	d9_write(tach_arr[8]);
 254:led_manager.c ****     	d10_write(tach_arr[9]);
 255:led_manager.c ****     	d11_write(tach_arr[10]);
 256:led_manager.c ****     	d12_write(tach_arr[11]);
 257:led_manager.c ****     	d13_write(tach_arr[12]);
 258:led_manager.c ****     	d14_write(tach_arr[13]);
 259:led_manager.c ****     	d15_write(tach_arr[14]);
ARM GAS  D:\Windows\AppData\Local\Temp\ccP1kfgz.s 			page 6


 260:led_manager.c ****     	d16_write(tach_arr[15]);
 261:led_manager.c ****     	d17_write(tach_arr[16]);
 262:led_manager.c ****     	d18_write(tach_arr[17]);
 263:led_manager.c ****     	d19_write(tach_arr[18]);
 264:led_manager.c ****     	d20_write(tach_arr[19]);
 265:led_manager.c ****     	d21_write(tach_arr[20]);
 266:led_manager.c ****     	d22_write(tach_arr[21]);
 267:led_manager.c ****         led_update_tach();
 268:led_manager.c ****     } //if
 269:led_manager.c **** } //led_write_tach
 270:led_manager.c **** 
 271:led_manager.c **** void led_write_b1(uint8_t BMS_TEMP) {	//left vertical bar, 5 leds
 272:led_manager.c ****     if(BMS_TEMP < mtr_temp_map[4]) { //temperature has cooled down, stop blinking
 273:led_manager.c ****         if(b1_critical) {
 274:led_manager.c ****             b1_critical = 0;
 275:led_manager.c ****             b1_crit_int_Stop();
 276:led_manager.c ****             b1_critical_timer_Stop();
 277:led_manager.c ****         } //if 
 278:led_manager.c ****     } //if
 279:led_manager.c **** 
 280:led_manager.c ****     int steps = 0;
 281:led_manager.c **** 	if (BMS_TEMP <= bms_temp_map[0])
 282:led_manager.c **** 		steps = 1;
 283:led_manager.c **** 	else if (BMS_TEMP > bms_temp_map[0] && BMS_TEMP <= bms_temp_map[1])
 284:led_manager.c **** 		steps = 2;
 285:led_manager.c **** 	else if (BMS_TEMP > bms_temp_map[1] && BMS_TEMP <= bms_temp_map[2])
 286:led_manager.c **** 		steps = 3;
 287:led_manager.c **** 	else if (BMS_TEMP > bms_temp_map[2] && BMS_TEMP <= bms_temp_map[3])
 288:led_manager.c **** 		steps = 4;
 289:led_manager.c **** 	else if (BMS_TEMP > bms_temp_map[3] && BMS_TEMP < bms_temp_map[4])
 290:led_manager.c **** 		steps = 5;
 291:led_manager.c **** 	else {	//(BMS_TEMP >= 60)
 292:led_manager.c **** 		if(!b1_critical) {	//start blinking
 293:led_manager.c **** 			b1_critical_timer_Start();
 294:led_manager.c **** 			b1_crit_int_StartEx(b1_crit_isr);
 295:led_manager.c **** 			b1_critical = 1;
 296:led_manager.c **** 		} //if
 297:led_manager.c **** 	} //else
 298:led_manager.c **** 	
 299:led_manager.c **** 	if(!b1_critical) {
 300:led_manager.c **** 		int i;
 301:led_manager.c **** 		for(i=0; i<steps; i++)
 302:led_manager.c **** 			b1_arr[i] = 1;	//on leds
 303:led_manager.c **** 		for(i=steps; i<5; i++)
 304:led_manager.c **** 			b1_arr[i] = 0;	//off leds
 305:led_manager.c **** 		
 306:led_manager.c **** 		b11_write(b1_arr[0]);
 307:led_manager.c **** 		b12_write(b1_arr[1]);
 308:led_manager.c **** 		b13_write(b1_arr[2]);
 309:led_manager.c **** 		b14_write(b1_arr[3]);
 310:led_manager.c **** 		b15_write(b1_arr[4]);
 311:led_manager.c ****         led_update_stat();
 312:led_manager.c **** 	} //if
 313:led_manager.c **** }	//led_write_b1()
 314:led_manager.c **** 
 315:led_manager.c **** void led_write_b2(uint8_t MTR_TEMP) {	//center vertical bar, 5 leds
 316:led_manager.c ****     if(MTR_TEMP < mtr_temp_map[4]) { //temperature has cooled down, stop blinking
ARM GAS  D:\Windows\AppData\Local\Temp\ccP1kfgz.s 			page 7


 317:led_manager.c ****         if(b2_critical) {
 318:led_manager.c ****             b2_critical = 0;
 319:led_manager.c ****             b2_crit_int_Stop();
 320:led_manager.c ****             b2_critical_timer_Stop();
 321:led_manager.c ****         } //if 
 322:led_manager.c ****     } //if
 323:led_manager.c ****     
 324:led_manager.c **** 	int steps = 0;
 325:led_manager.c **** 	if (MTR_TEMP <= mtr_temp_map[0])
 326:led_manager.c **** 		steps = 1;
 327:led_manager.c **** 	else if (MTR_TEMP > mtr_temp_map[0] && MTR_TEMP <= mtr_temp_map[1])
 328:led_manager.c **** 		steps = 2;
 329:led_manager.c **** 	else if (MTR_TEMP > mtr_temp_map[1] && MTR_TEMP <= mtr_temp_map[2])
 330:led_manager.c **** 		steps = 3;
 331:led_manager.c **** 	else if (MTR_TEMP > mtr_temp_map[2] && MTR_TEMP <= mtr_temp_map[3])
 332:led_manager.c **** 		steps = 4;
 333:led_manager.c **** 	else if (MTR_TEMP > mtr_temp_map[3] && MTR_TEMP <= mtr_temp_map[4])
 334:led_manager.c **** 		steps = 5;
 335:led_manager.c **** 	else {	//(MTR_TEMP >= 60)
 336:led_manager.c **** 		if(!b2_critical) {	//start blinking
 337:led_manager.c **** 			b2_critical_timer_Start();
 338:led_manager.c **** 			b2_crit_int_StartEx(b2_crit_isr);
 339:led_manager.c **** 			b2_critical = 1;
 340:led_manager.c **** 		} //if
 341:led_manager.c **** 	} //else
 342:led_manager.c **** 	
 343:led_manager.c **** 	if (!b2_critical) {
 344:led_manager.c **** 		int i;
 345:led_manager.c **** 		for(i=0; i<steps; i++)
 346:led_manager.c **** 			b2_arr[i] = 1;	//on leds
 347:led_manager.c **** 		for(i=steps; i<5; i++)
 348:led_manager.c **** 			b2_arr[i] = 0;	//off leds
 349:led_manager.c **** 		
 350:led_manager.c **** 		b21_write(b2_arr[0]);
 351:led_manager.c **** 		b22_write(b2_arr[1]);
 352:led_manager.c **** 		b23_write(b2_arr[2]);
 353:led_manager.c **** 		b24_write(b2_arr[3]);
 354:led_manager.c **** 		b25_write(b2_arr[4]);
 355:led_manager.c ****         led_update_stat();
 356:led_manager.c **** 	} //if
 357:led_manager.c **** } //led_write_b2()
 358:led_manager.c **** 
 359:led_manager.c **** void led_write_b3(uint8_t MTR_CTRL_TEMP) {	//right vertical bar, 5 leds
 360:led_manager.c ****     if(MTR_CTRL_TEMP < mtr_ctrl_temp_map[4]) { //temperature has cooled down, stop blinking
 361:led_manager.c ****         if(b3_critical) {
 362:led_manager.c ****             b3_critical = 0;
 363:led_manager.c ****             b3_crit_int_Stop();
 364:led_manager.c ****             b3_critical_timer_Stop();
 365:led_manager.c ****         } //if 
 366:led_manager.c ****     } //if
 367:led_manager.c ****     
 368:led_manager.c **** 	int steps = 0;
 369:led_manager.c **** 	if (MTR_CTRL_TEMP <= mtr_ctrl_temp_map[0])
 370:led_manager.c **** 		steps = 1;
 371:led_manager.c **** 	else if (MTR_CTRL_TEMP > mtr_ctrl_temp_map[0] && MTR_CTRL_TEMP <= mtr_ctrl_temp_map[1])
 372:led_manager.c **** 		steps = 2;
 373:led_manager.c **** 	else if (MTR_CTRL_TEMP > mtr_ctrl_temp_map[1] && MTR_CTRL_TEMP <= mtr_ctrl_temp_map[2])
ARM GAS  D:\Windows\AppData\Local\Temp\ccP1kfgz.s 			page 8


 374:led_manager.c **** 		steps = 3;
 375:led_manager.c **** 	else if (MTR_CTRL_TEMP > mtr_ctrl_temp_map[2] && MTR_CTRL_TEMP <= mtr_ctrl_temp_map[3])
 376:led_manager.c **** 		steps = 4;
 377:led_manager.c **** 	else if (MTR_CTRL_TEMP > mtr_ctrl_temp_map[3] && MTR_CTRL_TEMP <= mtr_ctrl_temp_map[4])
 378:led_manager.c **** 		steps = 5;
 379:led_manager.c **** 	else {	//(MTR_CTRL_TEMP >= 59)
 380:led_manager.c **** 		if(!b3_critical) {	//start blinking
 381:led_manager.c **** 			b3_critical_timer_Start();
 382:led_manager.c **** 			b3_crit_int_StartEx(b3_crit_isr);
 383:led_manager.c **** 			b3_critical = 1;
 384:led_manager.c **** 		} //if
 385:led_manager.c **** 	} 	//else
 386:led_manager.c **** 	
 387:led_manager.c **** 	if(!b3_critical) {
 388:led_manager.c **** 		int i;
 389:led_manager.c **** 		for(i=0; i<steps; i++)
 390:led_manager.c **** 			b3_arr[i] = 1;	//on leds
 391:led_manager.c **** 		for(i=steps; i<5; i++)
 392:led_manager.c **** 			b3_arr[i] = 0;	//off leds
 393:led_manager.c **** 		
 394:led_manager.c **** 		b31_write(b3_arr[0]);
 395:led_manager.c **** 		b32_write(b3_arr[1]);
 396:led_manager.c **** 		b33_write(b3_arr[2]);
 397:led_manager.c **** 		b34_write(b3_arr[3]);
 398:led_manager.c **** 		b35_write(b3_arr[4]);
 399:led_manager.c ****         led_update_stat();
 400:led_manager.c **** 	} //if
 401:led_manager.c **** } //led_write_b3()
 402:led_manager.c **** 
 403:led_manager.c **** void led_write_c1(uint8_t SoC) {	//horizontal bar, 5 leds
 404:led_manager.c **** 	int steps = 0;
 405:led_manager.c **** 	if (SoC > 80 && SoC < 100)
 406:led_manager.c **** 		steps = 5;
 407:led_manager.c **** 	else if (SoC > 60  && SoC < 80)
 408:led_manager.c **** 		steps = 4;
 409:led_manager.c **** 	else if (SoC > 40 && SoC < 60)
 410:led_manager.c **** 		steps = 3;
 411:led_manager.c **** 	else if (SoC > 20 && SoC < 40)
 412:led_manager.c **** 		steps = 2;
 413:led_manager.c **** 	else if (SoC > 10 && SoC < 20)
 414:led_manager.c **** 		steps = 1;
 415:led_manager.c **** 	else {	//(SoC <= 10)
 416:led_manager.c **** 		if(!c1_critical) {	//start blinking
 417:led_manager.c **** 			c1_critical_timer_Start();
 418:led_manager.c **** 			c1_crit_int_StartEx(c1_crit_isr);
 419:led_manager.c **** 			c1_critical = 1;
 420:led_manager.c **** 		} //if
 421:led_manager.c **** 	} //else
 422:led_manager.c **** 	
 423:led_manager.c **** 	if(!c1_critical) {
 424:led_manager.c **** 		int i;
 425:led_manager.c **** 		for(i=0; i<steps; i++)
 426:led_manager.c **** 			c1_arr[i] = 1;	//on leds
 427:led_manager.c **** 		for(i=steps; i<5; i++)
 428:led_manager.c **** 			c1_arr[i] = 0;	//off leds
 429:led_manager.c **** 		
 430:led_manager.c **** 		c1_write(c1_arr[0]);
ARM GAS  D:\Windows\AppData\Local\Temp\ccP1kfgz.s 			page 9


 431:led_manager.c **** 		c2_write(c1_arr[1]);
 432:led_manager.c **** 		c3_write(c1_arr[2]);
 433:led_manager.c **** 		c4_write(c1_arr[3]);
 434:led_manager.c **** 		c5_write(c1_arr[4]);
 435:led_manager.c ****         led_update_stat();
 436:led_manager.c **** 	} //if
 437:led_manager.c **** } //led_write_c3()
 438:led_manager.c **** 
 439:led_manager.c **** void write_all_tach(int bool) {
  27              		.loc 1 439 0
  28              		.cfi_startproc
  29              		@ args = 0, pretend = 0, frame = 0
  30              		@ frame_needed = 0, uses_anonymous_args = 0
  31              	.LVL0:
  32 0000 10B5     		push	{r4, lr}
  33              		.cfi_def_cfa_offset 8
  34              		.cfi_offset 4, -8
  35              		.cfi_offset 14, -4
  36 0002 0446     		mov	r4, r0
  37              	.LVL1:
 440:led_manager.c **** 	uint8_t allon = 0x77;
 441:led_manager.c **** 	
 442:led_manager.c **** 	LED_Driver1_MasterSendStart(LED_ADDR, 0);
  38              		.loc 1 442 0
  39 0004 4020     		movs	r0, #64
  40              	.LVL2:
  41 0006 0021     		movs	r1, #0
  42 0008 FFF7FEFF 		bl	LED_Driver1_MasterSendStart
  43              	.LVL3:
 443:led_manager.c **** 	LED_Driver1_MasterWriteByte(LED05);
  44              		.loc 1 443 0
  45 000c 0520     		movs	r0, #5
  46 000e FFF7FEFF 		bl	LED_Driver1_MasterWriteByte
  47              	.LVL4:
 444:led_manager.c **** 	if(bool == 1) {
  48              		.loc 1 444 0
  49 0012 012C     		cmp	r4, #1
  50 0014 0CD1     		bne	.L2
 445:led_manager.c **** 		LED_Driver1_MasterWriteByte(allon);			//0x05 addr
  51              		.loc 1 445 0
  52 0016 7720     		movs	r0, #119
  53 0018 FFF7FEFF 		bl	LED_Driver1_MasterWriteByte
  54              	.LVL5:
 446:led_manager.c **** 		LED_Driver1_MasterWriteByte(allon);			//0x06 addr
  55              		.loc 1 446 0
  56 001c 7720     		movs	r0, #119
  57 001e FFF7FEFF 		bl	LED_Driver1_MasterWriteByte
  58              	.LVL6:
 447:led_manager.c **** 		LED_Driver1_MasterWriteByte(allon);			//0x07 addr
  59              		.loc 1 447 0
  60 0022 7720     		movs	r0, #119
  61 0024 FFF7FEFF 		bl	LED_Driver1_MasterWriteByte
  62              	.LVL7:
 448:led_manager.c **** 		LED_Driver1_MasterWriteByte(allon);			//0x08 addr
  63              		.loc 1 448 0
  64 0028 7720     		movs	r0, #119
  65 002a FFF7FEFF 		bl	LED_Driver1_MasterWriteByte
ARM GAS  D:\Windows\AppData\Local\Temp\ccP1kfgz.s 			page 10


  66              	.LVL8:
  67 002e 0BE0     		b	.L3
  68              	.L2:
 449:led_manager.c **** 	}
 450:led_manager.c **** 	else {
 451:led_manager.c **** 		LED_Driver1_MasterWriteByte(0x00);
  69              		.loc 1 451 0
  70 0030 0020     		movs	r0, #0
  71 0032 FFF7FEFF 		bl	LED_Driver1_MasterWriteByte
  72              	.LVL9:
 452:led_manager.c **** 		LED_Driver1_MasterWriteByte(0x00);
  73              		.loc 1 452 0
  74 0036 0020     		movs	r0, #0
  75 0038 FFF7FEFF 		bl	LED_Driver1_MasterWriteByte
  76              	.LVL10:
 453:led_manager.c **** 		LED_Driver1_MasterWriteByte(0x00);
  77              		.loc 1 453 0
  78 003c 0020     		movs	r0, #0
  79 003e FFF7FEFF 		bl	LED_Driver1_MasterWriteByte
  80              	.LVL11:
 454:led_manager.c **** 		LED_Driver1_MasterWriteByte(0x00);
  81              		.loc 1 454 0
  82 0042 0020     		movs	r0, #0
  83 0044 FFF7FEFF 		bl	LED_Driver1_MasterWriteByte
  84              	.LVL12:
  85              	.L3:
 455:led_manager.c **** 	}
 456:led_manager.c **** 	LED_Driver1_MasterSendStop();
  86              		.loc 1 456 0
  87 0048 FFF7FEFF 		bl	LED_Driver1_MasterSendStop
  88              	.LVL13:
  89 004c 10BD     		pop	{r4, pc}
  90              		.cfi_endproc
  91              	.LFE74:
  92              		.size	write_all_tach, .-write_all_tach
  93 004e 00BF     		.section	.text.write_all_stat,"ax",%progbits
  94              		.align	2
  95              		.global	write_all_stat
  96              		.thumb
  97              		.thumb_func
  98              		.type	write_all_stat, %function
  99              	write_all_stat:
 100              	.LFB75:
 457:led_manager.c **** }
 458:led_manager.c **** 
 459:led_manager.c **** void write_all_stat(int bool) {
 101              		.loc 1 459 0
 102              		.cfi_startproc
 103              		@ args = 0, pretend = 0, frame = 0
 104              		@ frame_needed = 0, uses_anonymous_args = 0
 105              	.LVL14:
 106 0000 10B5     		push	{r4, lr}
 107              		.cfi_def_cfa_offset 8
 108              		.cfi_offset 4, -8
 109              		.cfi_offset 14, -4
 110 0002 0446     		mov	r4, r0
 111              	.LVL15:
ARM GAS  D:\Windows\AppData\Local\Temp\ccP1kfgz.s 			page 11


 460:led_manager.c **** 	uint8_t allon = 0x77;
 461:led_manager.c **** 	
 462:led_manager.c **** 	LED_Driver2_MasterSendStart(LED_ADDR, 0);
 112              		.loc 1 462 0
 113 0004 4020     		movs	r0, #64
 114              	.LVL16:
 115 0006 0021     		movs	r1, #0
 116 0008 FFF7FEFF 		bl	LED_Driver2_MasterSendStart
 117              	.LVL17:
 463:led_manager.c **** 	LED_Driver2_MasterWriteByte(LED05);	
 118              		.loc 1 463 0
 119 000c 0520     		movs	r0, #5
 120 000e FFF7FEFF 		bl	LED_Driver2_MasterWriteByte
 121              	.LVL18:
 464:led_manager.c **** 	if(bool == 1) {
 122              		.loc 1 464 0
 123 0012 012C     		cmp	r4, #1
 124 0014 0CD1     		bne	.L6
 465:led_manager.c **** 		LED_Driver2_MasterWriteByte(allon);			//0x05 addr
 125              		.loc 1 465 0
 126 0016 7720     		movs	r0, #119
 127 0018 FFF7FEFF 		bl	LED_Driver2_MasterWriteByte
 128              	.LVL19:
 466:led_manager.c **** 		LED_Driver2_MasterWriteByte(allon);			//0x06 addr
 129              		.loc 1 466 0
 130 001c 7720     		movs	r0, #119
 131 001e FFF7FEFF 		bl	LED_Driver2_MasterWriteByte
 132              	.LVL20:
 467:led_manager.c **** 		LED_Driver2_MasterWriteByte(allon);			//0x07 addr
 133              		.loc 1 467 0
 134 0022 7720     		movs	r0, #119
 135 0024 FFF7FEFF 		bl	LED_Driver2_MasterWriteByte
 136              	.LVL21:
 468:led_manager.c **** 		LED_Driver2_MasterWriteByte(allon);			//0x08 addr
 137              		.loc 1 468 0
 138 0028 7720     		movs	r0, #119
 139 002a FFF7FEFF 		bl	LED_Driver2_MasterWriteByte
 140              	.LVL22:
 141 002e 0BE0     		b	.L7
 142              	.L6:
 469:led_manager.c **** 	}
 470:led_manager.c **** 	else {
 471:led_manager.c **** 		LED_Driver2_MasterWriteByte(0x00);
 143              		.loc 1 471 0
 144 0030 0020     		movs	r0, #0
 145 0032 FFF7FEFF 		bl	LED_Driver2_MasterWriteByte
 146              	.LVL23:
 472:led_manager.c **** 		LED_Driver2_MasterWriteByte(0x00);
 147              		.loc 1 472 0
 148 0036 0020     		movs	r0, #0
 149 0038 FFF7FEFF 		bl	LED_Driver2_MasterWriteByte
 150              	.LVL24:
 473:led_manager.c **** 		LED_Driver2_MasterWriteByte(0x00);
 151              		.loc 1 473 0
 152 003c 0020     		movs	r0, #0
 153 003e FFF7FEFF 		bl	LED_Driver2_MasterWriteByte
 154              	.LVL25:
ARM GAS  D:\Windows\AppData\Local\Temp\ccP1kfgz.s 			page 12


 474:led_manager.c **** 		LED_Driver2_MasterWriteByte(0x00);
 155              		.loc 1 474 0
 156 0042 0020     		movs	r0, #0
 157 0044 FFF7FEFF 		bl	LED_Driver2_MasterWriteByte
 158              	.LVL26:
 159              	.L7:
 475:led_manager.c **** 	}
 476:led_manager.c **** 	LED_Driver2_MasterSendStop();
 160              		.loc 1 476 0
 161 0048 FFF7FEFF 		bl	LED_Driver2_MasterSendStop
 162              	.LVL27:
 163 004c 10BD     		pop	{r4, pc}
 164              		.cfi_endproc
 165              	.LFE75:
 166              		.size	write_all_stat, .-write_all_stat
 167 004e 00BF     		.section	.text.led_driver_init,"ax",%progbits
 168              		.align	2
 169              		.global	led_driver_init
 170              		.thumb
 171              		.thumb_func
 172              		.type	led_driver_init, %function
 173              	led_driver_init:
 174              	.LFB68:
 119:led_manager.c **** 	LED_Driver1_Start();
 175              		.loc 1 119 0
 176              		.cfi_startproc
 177              		@ args = 0, pretend = 0, frame = 0
 178              		@ frame_needed = 0, uses_anonymous_args = 0
 179 0000 08B5     		push	{r3, lr}
 180              		.cfi_def_cfa_offset 8
 181              		.cfi_offset 3, -8
 182              		.cfi_offset 14, -4
 120:led_manager.c **** 	LED_Driver2_Start();
 183              		.loc 1 120 0
 184 0002 FFF7FEFF 		bl	LED_Driver1_Start
 185              	.LVL28:
 121:led_manager.c **** 
 186              		.loc 1 121 0
 187 0006 FFF7FEFF 		bl	LED_Driver2_Start
 188              	.LVL29:
 124:led_manager.c **** 	LED_Driver1_MasterWriteByte(0x00);				//move to 0x00 addr
 189              		.loc 1 124 0
 190 000a 4020     		movs	r0, #64
 191 000c 0021     		movs	r1, #0
 192 000e FFF7FEFF 		bl	LED_Driver1_MasterSendStart
 193              	.LVL30:
 125:led_manager.c **** 	LED_Driver1_MasterWriteByte(serial_setting);	//0x00 addr
 194              		.loc 1 125 0
 195 0012 0020     		movs	r0, #0
 196 0014 FFF7FEFF 		bl	LED_Driver1_MasterWriteByte
 197              	.LVL31:
 126:led_manager.c **** 	LED_Driver1_MasterWriteByte(fade_setting);		//x01
 198              		.loc 1 126 0
 199 0018 0020     		movs	r0, #0
 200 001a FFF7FEFF 		bl	LED_Driver1_MasterWriteByte
 201              	.LVL32:
 127:led_manager.c **** 	LED_Driver1_MasterWriteByte(RLED_curr);			//x02
ARM GAS  D:\Windows\AppData\Local\Temp\ccP1kfgz.s 			page 13


 202              		.loc 1 127 0
 203 001e 0020     		movs	r0, #0
 204 0020 FFF7FEFF 		bl	LED_Driver1_MasterWriteByte
 205              	.LVL33:
 128:led_manager.c **** 	LED_Driver1_MasterWriteByte(GLED_curr);			//x03
 206              		.loc 1 128 0
 207 0024 1F20     		movs	r0, #31
 208 0026 FFF7FEFF 		bl	LED_Driver1_MasterWriteByte
 209              	.LVL34:
 129:led_manager.c **** 	LED_Driver1_MasterWriteByte(BLED_curr);			//x04
 210              		.loc 1 129 0
 211 002a 1F20     		movs	r0, #31
 212 002c FFF7FEFF 		bl	LED_Driver1_MasterWriteByte
 213              	.LVL35:
 130:led_manager.c **** 	LED_Driver1_MasterSendStop();
 214              		.loc 1 130 0
 215 0030 1F20     		movs	r0, #31
 216 0032 FFF7FEFF 		bl	LED_Driver1_MasterWriteByte
 217              	.LVL36:
 131:led_manager.c **** 	LED_Driver1_MasterSendStart(LED_ADDR, 0);
 218              		.loc 1 131 0
 219 0036 FFF7FEFF 		bl	LED_Driver1_MasterSendStop
 220              	.LVL37:
 132:led_manager.c **** 	LED_Driver1_MasterWriteByte(0x09);
 221              		.loc 1 132 0
 222 003a 4020     		movs	r0, #64
 223 003c 0021     		movs	r1, #0
 224 003e FFF7FEFF 		bl	LED_Driver1_MasterSendStart
 225              	.LVL38:
 133:led_manager.c **** 	LED_Driver1_MasterWriteByte(output_setting);	//x09 addr
 226              		.loc 1 133 0
 227 0042 0920     		movs	r0, #9
 228 0044 FFF7FEFF 		bl	LED_Driver1_MasterWriteByte
 229              	.LVL39:
 134:led_manager.c **** 	LED_Driver1_MasterWriteByte(output_setting);	//x0A
 230              		.loc 1 134 0
 231 0048 5520     		movs	r0, #85
 232 004a FFF7FEFF 		bl	LED_Driver1_MasterWriteByte
 233              	.LVL40:
 135:led_manager.c **** 	LED_Driver1_MasterWriteByte(output_setting);	//x0B
 234              		.loc 1 135 0
 235 004e 5520     		movs	r0, #85
 236 0050 FFF7FEFF 		bl	LED_Driver1_MasterWriteByte
 237              	.LVL41:
 136:led_manager.c **** 	LED_Driver1_MasterWriteByte(output_setting);	//x0C
 238              		.loc 1 136 0
 239 0054 5520     		movs	r0, #85
 240 0056 FFF7FEFF 		bl	LED_Driver1_MasterWriteByte
 241              	.LVL42:
 137:led_manager.c **** 	LED_Driver1_MasterWriteByte(output_setting);	//x0D
 242              		.loc 1 137 0
 243 005a 5520     		movs	r0, #85
 244 005c FFF7FEFF 		bl	LED_Driver1_MasterWriteByte
 245              	.LVL43:
 138:led_manager.c **** 	LED_Driver1_MasterWriteByte(output_setting);	//x0E
 246              		.loc 1 138 0
 247 0060 5520     		movs	r0, #85
ARM GAS  D:\Windows\AppData\Local\Temp\ccP1kfgz.s 			page 14


 248 0062 FFF7FEFF 		bl	LED_Driver1_MasterWriteByte
 249              	.LVL44:
 139:led_manager.c **** 	LED_Driver1_MasterWriteByte(fade_fn);			//x0F	LEDR
 250              		.loc 1 139 0
 251 0066 5520     		movs	r0, #85
 252 0068 FFF7FEFF 		bl	LED_Driver1_MasterWriteByte
 253              	.LVL45:
 140:led_manager.c **** 	LED_Driver1_MasterWriteByte(fade_fn);			//x10	LEDG
 254              		.loc 1 140 0
 255 006c FF20     		movs	r0, #255
 256 006e FFF7FEFF 		bl	LED_Driver1_MasterWriteByte
 257              	.LVL46:
 141:led_manager.c **** 	LED_Driver1_MasterWriteByte(fade_fn);			//x11	LEDB
 258              		.loc 1 141 0
 259 0072 FF20     		movs	r0, #255
 260 0074 FFF7FEFF 		bl	LED_Driver1_MasterWriteByte
 261              	.LVL47:
 142:led_manager.c **** 	LED_Driver1_MasterSendStop();
 262              		.loc 1 142 0
 263 0078 FF20     		movs	r0, #255
 264 007a FFF7FEFF 		bl	LED_Driver1_MasterWriteByte
 265              	.LVL48:
 143:led_manager.c **** 	
 266              		.loc 1 143 0
 267 007e FFF7FEFF 		bl	LED_Driver1_MasterSendStop
 268              	.LVL49:
 146:led_manager.c **** 	LED_Driver2_MasterWriteByte(0x00);				//move to 0x00 addr
 269              		.loc 1 146 0
 270 0082 4020     		movs	r0, #64
 271 0084 0021     		movs	r1, #0
 272 0086 FFF7FEFF 		bl	LED_Driver2_MasterSendStart
 273              	.LVL50:
 147:led_manager.c **** 	LED_Driver2_MasterWriteByte(serial_setting);	//0x00 addr
 274              		.loc 1 147 0
 275 008a 0020     		movs	r0, #0
 276 008c FFF7FEFF 		bl	LED_Driver2_MasterWriteByte
 277              	.LVL51:
 148:led_manager.c **** 	LED_Driver2_MasterWriteByte(fade_setting);		//x01
 278              		.loc 1 148 0
 279 0090 0020     		movs	r0, #0
 280 0092 FFF7FEFF 		bl	LED_Driver2_MasterWriteByte
 281              	.LVL52:
 149:led_manager.c **** 	LED_Driver2_MasterWriteByte(RLED_curr);			//x02
 282              		.loc 1 149 0
 283 0096 0020     		movs	r0, #0
 284 0098 FFF7FEFF 		bl	LED_Driver2_MasterWriteByte
 285              	.LVL53:
 150:led_manager.c **** 	LED_Driver2_MasterWriteByte(GLED_curr);			//x03
 286              		.loc 1 150 0
 287 009c 1F20     		movs	r0, #31
 288 009e FFF7FEFF 		bl	LED_Driver2_MasterWriteByte
 289              	.LVL54:
 151:led_manager.c **** 	LED_Driver2_MasterWriteByte(BLED_curr);			//x04
 290              		.loc 1 151 0
 291 00a2 1F20     		movs	r0, #31
 292 00a4 FFF7FEFF 		bl	LED_Driver2_MasterWriteByte
 293              	.LVL55:
ARM GAS  D:\Windows\AppData\Local\Temp\ccP1kfgz.s 			page 15


 152:led_manager.c **** 	LED_Driver2_MasterSendStop();
 294              		.loc 1 152 0
 295 00a8 1F20     		movs	r0, #31
 296 00aa FFF7FEFF 		bl	LED_Driver2_MasterWriteByte
 297              	.LVL56:
 153:led_manager.c **** 	LED_Driver2_MasterSendStart(LED_ADDR, 0);		//set output setting PWM
 298              		.loc 1 153 0
 299 00ae FFF7FEFF 		bl	LED_Driver2_MasterSendStop
 300              	.LVL57:
 154:led_manager.c **** 	LED_Driver2_MasterWriteByte(0x09);
 301              		.loc 1 154 0
 302 00b2 4020     		movs	r0, #64
 303 00b4 0021     		movs	r1, #0
 304 00b6 FFF7FEFF 		bl	LED_Driver2_MasterSendStart
 305              	.LVL58:
 155:led_manager.c **** 	LED_Driver2_MasterWriteByte(output_setting);	//x09 addr
 306              		.loc 1 155 0
 307 00ba 0920     		movs	r0, #9
 308 00bc FFF7FEFF 		bl	LED_Driver2_MasterWriteByte
 309              	.LVL59:
 156:led_manager.c **** 	LED_Driver2_MasterWriteByte(output_setting);	//x0A
 310              		.loc 1 156 0
 311 00c0 5520     		movs	r0, #85
 312 00c2 FFF7FEFF 		bl	LED_Driver2_MasterWriteByte
 313              	.LVL60:
 157:led_manager.c **** 	LED_Driver2_MasterWriteByte(output_setting);	//x0B
 314              		.loc 1 157 0
 315 00c6 5520     		movs	r0, #85
 316 00c8 FFF7FEFF 		bl	LED_Driver2_MasterWriteByte
 317              	.LVL61:
 158:led_manager.c **** 	LED_Driver2_MasterWriteByte(output_setting);	//x0C
 318              		.loc 1 158 0
 319 00cc 5520     		movs	r0, #85
 320 00ce FFF7FEFF 		bl	LED_Driver2_MasterWriteByte
 321              	.LVL62:
 159:led_manager.c **** 	LED_Driver2_MasterWriteByte(output_setting);	//x0D
 322              		.loc 1 159 0
 323 00d2 5520     		movs	r0, #85
 324 00d4 FFF7FEFF 		bl	LED_Driver2_MasterWriteByte
 325              	.LVL63:
 160:led_manager.c **** 	LED_Driver2_MasterWriteByte(output_setting);	//x0E
 326              		.loc 1 160 0
 327 00d8 5520     		movs	r0, #85
 328 00da FFF7FEFF 		bl	LED_Driver2_MasterWriteByte
 329              	.LVL64:
 161:led_manager.c **** 	LED_Driver2_MasterWriteByte(fade_fn);			//x0F	LEDR
 330              		.loc 1 161 0
 331 00de 5520     		movs	r0, #85
 332 00e0 FFF7FEFF 		bl	LED_Driver2_MasterWriteByte
 333              	.LVL65:
 162:led_manager.c **** 	LED_Driver2_MasterWriteByte(fade_fn);			//x10	LEDG
 334              		.loc 1 162 0
 335 00e4 FF20     		movs	r0, #255
 336 00e6 FFF7FEFF 		bl	LED_Driver2_MasterWriteByte
 337              	.LVL66:
 163:led_manager.c **** 	LED_Driver2_MasterWriteByte(fade_fn);			//x11	LEDB
 338              		.loc 1 163 0
ARM GAS  D:\Windows\AppData\Local\Temp\ccP1kfgz.s 			page 16


 339 00ea FF20     		movs	r0, #255
 340 00ec FFF7FEFF 		bl	LED_Driver2_MasterWriteByte
 341              	.LVL67:
 164:led_manager.c **** 	LED_Driver2_MasterSendStop();
 342              		.loc 1 164 0
 343 00f0 FF20     		movs	r0, #255
 344 00f2 FFF7FEFF 		bl	LED_Driver2_MasterWriteByte
 345              	.LVL68:
 165:led_manager.c **** 	
 346              		.loc 1 165 0
 347 00f6 FFF7FEFF 		bl	LED_Driver2_MasterSendStop
 348              	.LVL69:
 167:led_manager.c **** 	write_all_stat(0);
 349              		.loc 1 167 0
 350 00fa 0020     		movs	r0, #0
 351 00fc FFF7FEFF 		bl	write_all_tach
 352              	.LVL70:
 168:led_manager.c **** } //led_driver_init()
 353              		.loc 1 168 0
 354 0100 0020     		movs	r0, #0
 355 0102 FFF7FEFF 		bl	write_all_stat
 356              	.LVL71:
 357 0106 08BD     		pop	{r3, pc}
 358              		.cfi_endproc
 359              	.LFE68:
 360              		.size	led_driver_init, .-led_driver_init
 361              		.section	.text.led_update_tach,"ax",%progbits
 362              		.align	2
 363              		.global	led_update_tach
 364              		.thumb
 365              		.thumb_func
 366              		.type	led_update_tach, %function
 367              	led_update_tach:
 368              	.LFB76:
 477:led_manager.c **** }
 478:led_manager.c **** 
 479:led_manager.c **** //display updated LED's to dashboard
 480:led_manager.c **** void led_update_tach() {
 369              		.loc 1 480 0
 370              		.cfi_startproc
 371              		@ args = 0, pretend = 0, frame = 0
 372              		@ frame_needed = 0, uses_anonymous_args = 0
 373 0000 10B5     		push	{r4, lr}
 374              		.cfi_def_cfa_offset 8
 375              		.cfi_offset 4, -8
 376              		.cfi_offset 14, -4
 481:led_manager.c **** 	LED_Driver1_MasterSendStart(LED_ADDR, 0);	// 0 = send write command, 1 = send read command
 377              		.loc 1 481 0
 378 0002 4020     		movs	r0, #64
 379 0004 0021     		movs	r1, #0
 380 0006 FFF7FEFF 		bl	LED_Driver1_MasterSendStart
 381              	.LVL72:
 482:led_manager.c **** 	LED_Driver1_MasterWriteByte(LED05);		//move to LED addr
 382              		.loc 1 482 0
 383 000a 0520     		movs	r0, #5
 384 000c FFF7FEFF 		bl	LED_Driver1_MasterWriteByte
 385              	.LVL73:
ARM GAS  D:\Windows\AppData\Local\Temp\ccP1kfgz.s 			page 17


 483:led_manager.c **** 	LED_Driver1_MasterWriteByte(byte05);	//write byte to addr
 386              		.loc 1 483 0
 387 0010 074C     		ldr	r4, .L13
 388 0012 2078     		ldrb	r0, [r4]	@ zero_extendqisi2
 389 0014 FFF7FEFF 		bl	LED_Driver1_MasterWriteByte
 390              	.LVL74:
 484:led_manager.c ****     LED_Driver1_MasterWriteByte(byte06);
 391              		.loc 1 484 0
 392 0018 6078     		ldrb	r0, [r4, #1]	@ zero_extendqisi2
 393 001a FFF7FEFF 		bl	LED_Driver1_MasterWriteByte
 394              	.LVL75:
 485:led_manager.c ****     LED_Driver1_MasterWriteByte(byte07);
 395              		.loc 1 485 0
 396 001e A078     		ldrb	r0, [r4, #2]	@ zero_extendqisi2
 397 0020 FFF7FEFF 		bl	LED_Driver1_MasterWriteByte
 398              	.LVL76:
 486:led_manager.c ****     LED_Driver1_MasterWriteByte(byte08);
 399              		.loc 1 486 0
 400 0024 E078     		ldrb	r0, [r4, #3]	@ zero_extendqisi2
 401 0026 FFF7FEFF 		bl	LED_Driver1_MasterWriteByte
 402              	.LVL77:
 487:led_manager.c **** 	LED_Driver1_MasterSendStop();  
 403              		.loc 1 487 0
 404 002a FFF7FEFF 		bl	LED_Driver1_MasterSendStop
 405              	.LVL78:
 406 002e 10BD     		pop	{r4, pc}
 407              	.L14:
 408              		.align	2
 409              	.L13:
 410 0030 00000000 		.word	.LANCHOR0
 411              		.cfi_endproc
 412              	.LFE76:
 413              		.size	led_update_tach, .-led_update_tach
 414              		.section	.text.led_update_stat,"ax",%progbits
 415              		.align	2
 416              		.global	led_update_stat
 417              		.thumb
 418              		.thumb_func
 419              		.type	led_update_stat, %function
 420              	led_update_stat:
 421              	.LFB77:
 488:led_manager.c **** }
 489:led_manager.c **** 
 490:led_manager.c **** void led_update_stat() {
 422              		.loc 1 490 0
 423              		.cfi_startproc
 424              		@ args = 0, pretend = 0, frame = 0
 425              		@ frame_needed = 0, uses_anonymous_args = 0
 426 0000 10B5     		push	{r4, lr}
 427              		.cfi_def_cfa_offset 8
 428              		.cfi_offset 4, -8
 429              		.cfi_offset 14, -4
 491:led_manager.c **** 	LED_Driver2_MasterSendStart(LED_ADDR, 0);	// 0 = send write command, 1 = send read command
 430              		.loc 1 491 0
 431 0002 4020     		movs	r0, #64
 432 0004 0021     		movs	r1, #0
 433 0006 FFF7FEFF 		bl	LED_Driver2_MasterSendStart
ARM GAS  D:\Windows\AppData\Local\Temp\ccP1kfgz.s 			page 18


 434              	.LVL79:
 492:led_manager.c **** 	LED_Driver2_MasterWriteByte(LED05);		//move to LED addr
 435              		.loc 1 492 0
 436 000a 0520     		movs	r0, #5
 437 000c FFF7FEFF 		bl	LED_Driver2_MasterWriteByte
 438              	.LVL80:
 493:led_manager.c **** 	LED_Driver2_MasterWriteByte(byte05_2);	//write byte to addr
 439              		.loc 1 493 0
 440 0010 074C     		ldr	r4, .L17
 441 0012 2079     		ldrb	r0, [r4, #4]	@ zero_extendqisi2
 442 0014 FFF7FEFF 		bl	LED_Driver2_MasterWriteByte
 443              	.LVL81:
 494:led_manager.c ****     LED_Driver2_MasterWriteByte(byte06_2);
 444              		.loc 1 494 0
 445 0018 6079     		ldrb	r0, [r4, #5]	@ zero_extendqisi2
 446 001a FFF7FEFF 		bl	LED_Driver2_MasterWriteByte
 447              	.LVL82:
 495:led_manager.c ****     LED_Driver2_MasterWriteByte(byte07_2);
 448              		.loc 1 495 0
 449 001e A079     		ldrb	r0, [r4, #6]	@ zero_extendqisi2
 450 0020 FFF7FEFF 		bl	LED_Driver2_MasterWriteByte
 451              	.LVL83:
 496:led_manager.c ****     LED_Driver2_MasterWriteByte(byte08_2);
 452              		.loc 1 496 0
 453 0024 E079     		ldrb	r0, [r4, #7]	@ zero_extendqisi2
 454 0026 FFF7FEFF 		bl	LED_Driver2_MasterWriteByte
 455              	.LVL84:
 497:led_manager.c **** 	LED_Driver2_MasterSendStop();
 456              		.loc 1 497 0
 457 002a FFF7FEFF 		bl	LED_Driver2_MasterSendStop
 458              	.LVL85:
 459 002e 10BD     		pop	{r4, pc}
 460              	.L18:
 461              		.align	2
 462              	.L17:
 463 0030 00000000 		.word	.LANCHOR0
 464              		.cfi_endproc
 465              	.LFE77:
 466              		.size	led_update_stat, .-led_update_stat
 467              		.section	.text.d1_write,"ax",%progbits
 468              		.align	2
 469              		.global	d1_write
 470              		.thumb
 471              		.thumb_func
 472              		.type	d1_write, %function
 473              	d1_write:
 474              	.LFB83:
 498:led_manager.c **** }
 499:led_manager.c **** 
 500:led_manager.c **** 
 501:led_manager.c **** void write_startup_tach() { //based on max rpm = 6000
 502:led_manager.c ****     //rev to max and back
 503:led_manager.c ****     led_write_tach(0);      CyDelay(TACH_STEP_DELAY);
 504:led_manager.c ****     led_write_tach(300);    CyDelay(TACH_STEP_DELAY);
 505:led_manager.c ****     led_write_tach(600);    CyDelay(TACH_STEP_DELAY);
 506:led_manager.c ****     led_write_tach(900);    CyDelay(TACH_STEP_DELAY);
 507:led_manager.c ****     led_write_tach(1200);   CyDelay(TACH_STEP_DELAY);
ARM GAS  D:\Windows\AppData\Local\Temp\ccP1kfgz.s 			page 19


 508:led_manager.c ****     led_write_tach(1500);   CyDelay(TACH_STEP_DELAY);
 509:led_manager.c ****     led_write_tach(1800);   CyDelay(TACH_STEP_DELAY);
 510:led_manager.c ****     led_write_tach(2100);   CyDelay(TACH_STEP_DELAY);
 511:led_manager.c ****     led_write_tach(2400);   CyDelay(TACH_STEP_DELAY);
 512:led_manager.c ****     led_write_tach(2700);   CyDelay(TACH_STEP_DELAY);
 513:led_manager.c ****     led_write_tach(3000);   CyDelay(TACH_STEP_DELAY);
 514:led_manager.c ****     led_write_tach(3300);   CyDelay(TACH_STEP_DELAY);
 515:led_manager.c ****     led_write_tach(3600);   CyDelay(TACH_STEP_DELAY);
 516:led_manager.c ****     led_write_tach(3900);   CyDelay(TACH_STEP_DELAY);
 517:led_manager.c ****     led_write_tach(4200);   CyDelay(TACH_STEP_DELAY);
 518:led_manager.c ****     led_write_tach(4500);   CyDelay(TACH_STEP_DELAY);
 519:led_manager.c ****     led_write_tach(4800);   CyDelay(TACH_STEP_DELAY);
 520:led_manager.c ****     led_write_tach(5100);   CyDelay(TACH_STEP_DELAY);
 521:led_manager.c ****     led_write_tach(5400);   CyDelay(TACH_STEP_DELAY);
 522:led_manager.c ****     led_write_tach(5700);   CyDelay(TACH_STEP_DELAY);
 523:led_manager.c ****     led_write_tach(6000);   CyDelay(TACH_STEP_DELAY);
 524:led_manager.c ****     led_write_tach(5700);   CyDelay(TACH_STEP_DELAY);
 525:led_manager.c ****     led_write_tach(5400);   CyDelay(TACH_STEP_DELAY);
 526:led_manager.c ****     led_write_tach(5100);   CyDelay(TACH_STEP_DELAY);
 527:led_manager.c ****     led_write_tach(4800);   CyDelay(TACH_STEP_DELAY);
 528:led_manager.c ****     led_write_tach(4500);   CyDelay(TACH_STEP_DELAY);
 529:led_manager.c ****     led_write_tach(4200);   CyDelay(TACH_STEP_DELAY);
 530:led_manager.c ****     led_write_tach(3900);   CyDelay(TACH_STEP_DELAY);
 531:led_manager.c ****     led_write_tach(3600);   CyDelay(TACH_STEP_DELAY);
 532:led_manager.c ****     led_write_tach(3300);   CyDelay(TACH_STEP_DELAY);
 533:led_manager.c ****     led_write_tach(3000);   CyDelay(TACH_STEP_DELAY);
 534:led_manager.c ****     led_write_tach(2700);   CyDelay(TACH_STEP_DELAY);
 535:led_manager.c ****     led_write_tach(2400);   CyDelay(TACH_STEP_DELAY);
 536:led_manager.c ****     led_write_tach(2100);   CyDelay(TACH_STEP_DELAY);
 537:led_manager.c ****     led_write_tach(1800);   CyDelay(TACH_STEP_DELAY);
 538:led_manager.c ****     led_write_tach(1500);   CyDelay(TACH_STEP_DELAY);
 539:led_manager.c ****     led_write_tach(1200);   CyDelay(TACH_STEP_DELAY);
 540:led_manager.c ****     led_write_tach(900);    CyDelay(TACH_STEP_DELAY);
 541:led_manager.c ****     led_write_tach(600);    CyDelay(TACH_STEP_DELAY);
 542:led_manager.c ****     led_write_tach(300);    CyDelay(TACH_STEP_DELAY);
 543:led_manager.c ****     led_write_tach(0);      CyDelay(TACH_STEP_DELAY);
 544:led_manager.c **** }
 545:led_manager.c **** void write_startup_stat() {
 546:led_manager.c ****     //slowly turns on all bars of each monitor at a time
 547:led_manager.c ****     LED_Driver2_MasterSendStart(LED_ADDR, 0);       //max fade 
 548:led_manager.c ****     LED_Driver2_MasterWriteByte(0x01);
 549:led_manager.c ****     LED_Driver2_MasterWriteByte(0x77);
 550:led_manager.c ****     LED_Driver2_MasterSendStop();
 551:led_manager.c ****     
 552:led_manager.c ****     led_write_b1(59);
 553:led_manager.c ****     CyDelay(500);
 554:led_manager.c ****     led_write_b2(59);
 555:led_manager.c ****     CyDelay(500);
 556:led_manager.c ****     led_write_b3(59);
 557:led_manager.c ****     CyDelay(500);
 558:led_manager.c ****     led_write_c1(99);
 559:led_manager.c ****     
 560:led_manager.c ****     LED_Driver2_MasterSendStart(LED_ADDR, 0);       //zero fade 
 561:led_manager.c ****     LED_Driver2_MasterWriteByte(0x01);
 562:led_manager.c ****     LED_Driver2_MasterWriteByte(0x00);
 563:led_manager.c ****     LED_Driver2_MasterSendStop();
 564:led_manager.c **** }
ARM GAS  D:\Windows\AppData\Local\Temp\ccP1kfgz.s 			page 20


 565:led_manager.c **** 
 566:led_manager.c **** 
 567:led_manager.c **** //test stuff
 568:led_manager.c **** void led_on() {
 569:led_manager.c **** 	d1_write(1);
 570:led_manager.c **** 	//d2_write(1);
 571:led_manager.c **** 	//d3_write(1);
 572:led_manager.c **** 	//d4_write(1);
 573:led_manager.c **** 	//d5_write(1);
 574:led_manager.c **** 	//d6_write(1);
 575:led_manager.c **** 	//d7_write(1);
 576:led_manager.c **** 	//d8_write(1);
 577:led_manager.c **** 	//d9_write(1);
 578:led_manager.c **** 	//d10_write(1);
 579:led_manager.c **** 	//d11_write(1);
 580:led_manager.c **** 	//d12_write(1);
 581:led_manager.c **** 	//d13_write(1);
 582:led_manager.c **** 	d14_write(1);
 583:led_manager.c **** 	d15_write(1);
 584:led_manager.c **** 	//d16_write(1);
 585:led_manager.c **** 	//d17_write(1);
 586:led_manager.c **** 	//d18_write(1);
 587:led_manager.c **** 	d19_write(1);
 588:led_manager.c **** 	//d20_write(1);
 589:led_manager.c **** 	//d21_write(1);
 590:led_manager.c **** 	//d22_write(1);
 591:led_manager.c **** 	
 592:led_manager.c **** 	/*
 593:led_manager.c **** 	b11_write(1);
 594:led_manager.c **** 	b12_write(1);
 595:led_manager.c **** 	b13_write(1);
 596:led_manager.c **** 	b14_write(1);
 597:led_manager.c **** 	b15_write(1);
 598:led_manager.c **** 	
 599:led_manager.c **** 	b21_write(1);
 600:led_manager.c **** 	b22_write(1);
 601:led_manager.c **** 	b23_write(1);
 602:led_manager.c **** 	b24_write(1);
 603:led_manager.c **** 	b25_write(1);
 604:led_manager.c **** 	
 605:led_manager.c **** 	b31_write(1);
 606:led_manager.c **** 	b32_write(1);
 607:led_manager.c **** 	b33_write(1);
 608:led_manager.c **** 	b34_write(1);
 609:led_manager.c **** 	b35_write(1);
 610:led_manager.c **** 	*/
 611:led_manager.c **** 	/*
 612:led_manager.c **** 	c1_write(1);
 613:led_manager.c **** 	c2_write(1);
 614:led_manager.c **** 	c3_write(1);
 615:led_manager.c **** 	c4_write(1);
 616:led_manager.c **** 	c5_write(1);
 617:led_manager.c **** 	*/
 618:led_manager.c **** }
 619:led_manager.c **** void led_off() {
 620:led_manager.c **** 	d1_write(0);
 621:led_manager.c **** 	//d2_write(0);
ARM GAS  D:\Windows\AppData\Local\Temp\ccP1kfgz.s 			page 21


 622:led_manager.c **** 	//d3_write(0);
 623:led_manager.c **** 	//d4_write(0);
 624:led_manager.c **** 	//d5_write(0);
 625:led_manager.c **** 	//d6_write(0);
 626:led_manager.c **** 	//d7_write(0);
 627:led_manager.c **** 	//d8_write(0);
 628:led_manager.c **** 	//d9_write(0);
 629:led_manager.c **** 	//d10_write(0);
 630:led_manager.c **** 	//d11_write(0);
 631:led_manager.c **** 	//d12_write(0);
 632:led_manager.c **** 	//d13_write(0);
 633:led_manager.c **** 	d14_write(0);
 634:led_manager.c **** 	d15_write(0);
 635:led_manager.c **** 	//d16_write(0);
 636:led_manager.c **** 	//d17_write(0);
 637:led_manager.c **** 	//d18_write(0);
 638:led_manager.c **** 	d19_write(0);
 639:led_manager.c **** 	//d20_write(0);
 640:led_manager.c **** 	//d21_write(0);
 641:led_manager.c **** 	//d22_write(0);
 642:led_manager.c **** 	/*
 643:led_manager.c **** 	b11_write(0);
 644:led_manager.c **** 	b12_write(0);
 645:led_manager.c **** 	b13_write(0);
 646:led_manager.c **** 	b14_write(0);
 647:led_manager.c **** 	b15_write(0);
 648:led_manager.c **** 	
 649:led_manager.c **** 	b21_write(0);
 650:led_manager.c **** 	b22_write(0);
 651:led_manager.c **** 	b23_write(0);
 652:led_manager.c **** 	b24_write(0);
 653:led_manager.c **** 	b25_write(0);
 654:led_manager.c **** 	
 655:led_manager.c **** 	b31_write(0);
 656:led_manager.c **** 	b32_write(0);
 657:led_manager.c **** 	b33_write(0);
 658:led_manager.c **** 	b34_write(0);
 659:led_manager.c **** 	b35_write(0);
 660:led_manager.c **** 	*/
 661:led_manager.c **** 	/*
 662:led_manager.c **** 	c1_write(0);
 663:led_manager.c **** 	c2_write(0);
 664:led_manager.c **** 	c3_write(0);
 665:led_manager.c **** 	c4_write(0);
 666:led_manager.c **** 	c5_write(0);
 667:led_manager.c **** 	*/
 668:led_manager.c **** }
 669:led_manager.c **** int led_writetest(int i, int* arr) {
 670:led_manager.c **** 	d1_write(arr[0]);
 671:led_manager.c **** 	d2_write(arr[1]);
 672:led_manager.c **** 	d3_write(arr[2]);
 673:led_manager.c **** 	d4_write(arr[3]);
 674:led_manager.c **** 	d5_write(arr[4]);
 675:led_manager.c **** 	d6_write(arr[5]);
 676:led_manager.c **** 	d7_write(arr[6]);
 677:led_manager.c **** 	d8_write(arr[7]);
 678:led_manager.c **** 	d9_write(arr[8]);
ARM GAS  D:\Windows\AppData\Local\Temp\ccP1kfgz.s 			page 22


 679:led_manager.c **** 	d10_write(arr[9]);
 680:led_manager.c **** 	d11_write(arr[10]);
 681:led_manager.c **** 	d12_write(arr[11]);
 682:led_manager.c **** 	d13_write(arr[12]);
 683:led_manager.c **** 	d14_write(arr[13]);
 684:led_manager.c **** 	d15_write(arr[14]);
 685:led_manager.c **** 	d16_write(arr[15]);
 686:led_manager.c **** 	d17_write(arr[16]);
 687:led_manager.c **** 	d18_write(arr[17]);
 688:led_manager.c **** 	d19_write(arr[18]);
 689:led_manager.c **** 	d20_write(arr[19]);
 690:led_manager.c **** 	d21_write(arr[20]);
 691:led_manager.c **** 	d22_write(arr[21]);
 692:led_manager.c **** 	
 693:led_manager.c **** 	arr[i] = 0;
 694:led_manager.c **** 	arr[(i+5) % 22] = 1;
 695:led_manager.c **** 	i++;
 696:led_manager.c **** 	if(i > 21)
 697:led_manager.c **** 		i=0;
 698:led_manager.c **** 	return i;
 699:led_manager.c **** }
 700:led_manager.c **** 
 701:led_manager.c **** //tach
 702:led_manager.c **** void d1_write(int bool) {
 475              		.loc 1 702 0
 476              		.cfi_startproc
 477              		@ args = 0, pretend = 0, frame = 0
 478              		@ frame_needed = 0, uses_anonymous_args = 0
 479              		@ link register save eliminated.
 480              	.LVL86:
 703:led_manager.c **** 	uint8_t bit = 0x01;
 704:led_manager.c **** 	if(bool == 1) 	//led on
 481              		.loc 1 704 0
 482 0000 0128     		cmp	r0, #1
 483 0002 05D1     		bne	.L20
 705:led_manager.c **** 		byte05 = byte05 | bit;
 484              		.loc 1 705 0
 485 0004 054A     		ldr	r2, .L22
 486 0006 1378     		ldrb	r3, [r2]	@ zero_extendqisi2
 487 0008 43F00103 		orr	r3, r3, #1
 488 000c 1370     		strb	r3, [r2]
 489 000e 7047     		bx	lr
 490              	.L20:
 706:led_manager.c **** 	else			//led off
 707:led_manager.c **** 		byte05 = byte05 & ~bit;
 491              		.loc 1 707 0
 492 0010 024A     		ldr	r2, .L22
 493 0012 1378     		ldrb	r3, [r2]	@ zero_extendqisi2
 494 0014 23F00103 		bic	r3, r3, #1
 495 0018 1370     		strb	r3, [r2]
 496 001a 7047     		bx	lr
 497              	.L23:
 498              		.align	2
 499              	.L22:
 500 001c 00000000 		.word	.LANCHOR0
 501              		.cfi_endproc
 502              	.LFE83:
ARM GAS  D:\Windows\AppData\Local\Temp\ccP1kfgz.s 			page 23


 503              		.size	d1_write, .-d1_write
 504              		.section	.text.d2_write,"ax",%progbits
 505              		.align	2
 506              		.global	d2_write
 507              		.thumb
 508              		.thumb_func
 509              		.type	d2_write, %function
 510              	d2_write:
 511              	.LFB84:
 708:led_manager.c **** }
 709:led_manager.c **** void d2_write(int bool) {
 512              		.loc 1 709 0
 513              		.cfi_startproc
 514              		@ args = 0, pretend = 0, frame = 0
 515              		@ frame_needed = 0, uses_anonymous_args = 0
 516              		@ link register save eliminated.
 517              	.LVL87:
 710:led_manager.c **** 	uint8_t bit = 0x10;
 711:led_manager.c **** 	if(bool == 1) 	//led on
 518              		.loc 1 711 0
 519 0000 0128     		cmp	r0, #1
 520 0002 05D1     		bne	.L25
 712:led_manager.c **** 		byte05 = byte05 | bit;
 521              		.loc 1 712 0
 522 0004 054A     		ldr	r2, .L27
 523 0006 1378     		ldrb	r3, [r2]	@ zero_extendqisi2
 524 0008 43F01003 		orr	r3, r3, #16
 525 000c 1370     		strb	r3, [r2]
 526 000e 7047     		bx	lr
 527              	.L25:
 713:led_manager.c **** 	else			//led off
 714:led_manager.c **** 		byte05 = byte05 & ~bit;
 528              		.loc 1 714 0
 529 0010 024A     		ldr	r2, .L27
 530 0012 1378     		ldrb	r3, [r2]	@ zero_extendqisi2
 531 0014 23F01003 		bic	r3, r3, #16
 532 0018 1370     		strb	r3, [r2]
 533 001a 7047     		bx	lr
 534              	.L28:
 535              		.align	2
 536              	.L27:
 537 001c 00000000 		.word	.LANCHOR0
 538              		.cfi_endproc
 539              	.LFE84:
 540              		.size	d2_write, .-d2_write
 541              		.section	.text.d3_write,"ax",%progbits
 542              		.align	2
 543              		.global	d3_write
 544              		.thumb
 545              		.thumb_func
 546              		.type	d3_write, %function
 547              	d3_write:
 548              	.LFB85:
 715:led_manager.c **** }
 716:led_manager.c **** void d3_write(int bool) {
 549              		.loc 1 716 0
 550              		.cfi_startproc
ARM GAS  D:\Windows\AppData\Local\Temp\ccP1kfgz.s 			page 24


 551              		@ args = 0, pretend = 0, frame = 0
 552              		@ frame_needed = 0, uses_anonymous_args = 0
 553              		@ link register save eliminated.
 554              	.LVL88:
 717:led_manager.c **** 	uint8_t bit = 0x01;
 718:led_manager.c **** 	if(bool == 1) 	//led on
 555              		.loc 1 718 0
 556 0000 0128     		cmp	r0, #1
 557 0002 05D1     		bne	.L30
 719:led_manager.c **** 		byte06 = byte06 | bit;
 558              		.loc 1 719 0
 559 0004 054A     		ldr	r2, .L32
 560 0006 5378     		ldrb	r3, [r2, #1]	@ zero_extendqisi2
 561 0008 43F00103 		orr	r3, r3, #1
 562 000c 5370     		strb	r3, [r2, #1]
 563 000e 7047     		bx	lr
 564              	.L30:
 720:led_manager.c **** 	else
 721:led_manager.c ****     //led off
 722:led_manager.c **** 		byte06 = byte06 & ~bit;
 565              		.loc 1 722 0
 566 0010 024A     		ldr	r2, .L32
 567 0012 5378     		ldrb	r3, [r2, #1]	@ zero_extendqisi2
 568 0014 23F00103 		bic	r3, r3, #1
 569 0018 5370     		strb	r3, [r2, #1]
 570 001a 7047     		bx	lr
 571              	.L33:
 572              		.align	2
 573              	.L32:
 574 001c 00000000 		.word	.LANCHOR0
 575              		.cfi_endproc
 576              	.LFE85:
 577              		.size	d3_write, .-d3_write
 578              		.section	.text.d4_write,"ax",%progbits
 579              		.align	2
 580              		.global	d4_write
 581              		.thumb
 582              		.thumb_func
 583              		.type	d4_write, %function
 584              	d4_write:
 585              	.LFB86:
 723:led_manager.c **** }
 724:led_manager.c **** void d4_write(int bool) {
 586              		.loc 1 724 0
 587              		.cfi_startproc
 588              		@ args = 0, pretend = 0, frame = 0
 589              		@ frame_needed = 0, uses_anonymous_args = 0
 590              		@ link register save eliminated.
 591              	.LVL89:
 725:led_manager.c **** 	uint8_t bit = 0x10;
 726:led_manager.c **** 	if(bool == 1) 	//led on
 592              		.loc 1 726 0
 593 0000 0128     		cmp	r0, #1
 594 0002 05D1     		bne	.L35
 727:led_manager.c **** 		byte06 = byte06 | bit;
 595              		.loc 1 727 0
 596 0004 054A     		ldr	r2, .L37
ARM GAS  D:\Windows\AppData\Local\Temp\ccP1kfgz.s 			page 25


 597 0006 5378     		ldrb	r3, [r2, #1]	@ zero_extendqisi2
 598 0008 43F01003 		orr	r3, r3, #16
 599 000c 5370     		strb	r3, [r2, #1]
 600 000e 7047     		bx	lr
 601              	.L35:
 728:led_manager.c **** 	else			//led off
 729:led_manager.c **** 		byte06 = byte06 & ~bit;
 602              		.loc 1 729 0
 603 0010 024A     		ldr	r2, .L37
 604 0012 5378     		ldrb	r3, [r2, #1]	@ zero_extendqisi2
 605 0014 23F01003 		bic	r3, r3, #16
 606 0018 5370     		strb	r3, [r2, #1]
 607 001a 7047     		bx	lr
 608              	.L38:
 609              		.align	2
 610              	.L37:
 611 001c 00000000 		.word	.LANCHOR0
 612              		.cfi_endproc
 613              	.LFE86:
 614              		.size	d4_write, .-d4_write
 615              		.section	.text.d5_write,"ax",%progbits
 616              		.align	2
 617              		.global	d5_write
 618              		.thumb
 619              		.thumb_func
 620              		.type	d5_write, %function
 621              	d5_write:
 622              	.LFB87:
 730:led_manager.c **** }
 731:led_manager.c **** void d5_write(int bool) {
 623              		.loc 1 731 0
 624              		.cfi_startproc
 625              		@ args = 0, pretend = 0, frame = 0
 626              		@ frame_needed = 0, uses_anonymous_args = 0
 627              		@ link register save eliminated.
 628              	.LVL90:
 732:led_manager.c **** 	uint8_t bit = 0x01;
 733:led_manager.c **** 	if(bool == 1) 	//led on
 629              		.loc 1 733 0
 630 0000 0128     		cmp	r0, #1
 631 0002 05D1     		bne	.L40
 734:led_manager.c **** 		byte07 = byte07 | bit;
 632              		.loc 1 734 0
 633 0004 054A     		ldr	r2, .L42
 634 0006 9378     		ldrb	r3, [r2, #2]	@ zero_extendqisi2
 635 0008 43F00103 		orr	r3, r3, #1
 636 000c 9370     		strb	r3, [r2, #2]
 637 000e 7047     		bx	lr
 638              	.L40:
 735:led_manager.c **** 	else			//led off
 736:led_manager.c **** 		byte07 = byte07 & ~bit;
 639              		.loc 1 736 0
 640 0010 024A     		ldr	r2, .L42
 641 0012 9378     		ldrb	r3, [r2, #2]	@ zero_extendqisi2
 642 0014 23F00103 		bic	r3, r3, #1
 643 0018 9370     		strb	r3, [r2, #2]
 644 001a 7047     		bx	lr
ARM GAS  D:\Windows\AppData\Local\Temp\ccP1kfgz.s 			page 26


 645              	.L43:
 646              		.align	2
 647              	.L42:
 648 001c 00000000 		.word	.LANCHOR0
 649              		.cfi_endproc
 650              	.LFE87:
 651              		.size	d5_write, .-d5_write
 652              		.section	.text.d6_write,"ax",%progbits
 653              		.align	2
 654              		.global	d6_write
 655              		.thumb
 656              		.thumb_func
 657              		.type	d6_write, %function
 658              	d6_write:
 659              	.LFB88:
 737:led_manager.c **** }
 738:led_manager.c **** void d6_write(int bool) {
 660              		.loc 1 738 0
 661              		.cfi_startproc
 662              		@ args = 0, pretend = 0, frame = 0
 663              		@ frame_needed = 0, uses_anonymous_args = 0
 664              		@ link register save eliminated.
 665              	.LVL91:
 739:led_manager.c **** 	uint8_t bit = 0x10;
 740:led_manager.c **** 	if(bool == 1) 	//led on
 666              		.loc 1 740 0
 667 0000 0128     		cmp	r0, #1
 668 0002 05D1     		bne	.L45
 741:led_manager.c **** 		byte07 = byte07 | bit;
 669              		.loc 1 741 0
 670 0004 054A     		ldr	r2, .L47
 671 0006 9378     		ldrb	r3, [r2, #2]	@ zero_extendqisi2
 672 0008 43F01003 		orr	r3, r3, #16
 673 000c 9370     		strb	r3, [r2, #2]
 674 000e 7047     		bx	lr
 675              	.L45:
 742:led_manager.c **** 	else			//led off
 743:led_manager.c **** 		byte07 = byte07 & ~bit;
 676              		.loc 1 743 0
 677 0010 024A     		ldr	r2, .L47
 678 0012 9378     		ldrb	r3, [r2, #2]	@ zero_extendqisi2
 679 0014 23F01003 		bic	r3, r3, #16
 680 0018 9370     		strb	r3, [r2, #2]
 681 001a 7047     		bx	lr
 682              	.L48:
 683              		.align	2
 684              	.L47:
 685 001c 00000000 		.word	.LANCHOR0
 686              		.cfi_endproc
 687              	.LFE88:
 688              		.size	d6_write, .-d6_write
 689              		.section	.text.d7_write,"ax",%progbits
 690              		.align	2
 691              		.global	d7_write
 692              		.thumb
 693              		.thumb_func
 694              		.type	d7_write, %function
ARM GAS  D:\Windows\AppData\Local\Temp\ccP1kfgz.s 			page 27


 695              	d7_write:
 696              	.LFB89:
 744:led_manager.c **** }
 745:led_manager.c **** void d7_write(int bool) {
 697              		.loc 1 745 0
 698              		.cfi_startproc
 699              		@ args = 0, pretend = 0, frame = 0
 700              		@ frame_needed = 0, uses_anonymous_args = 0
 701              		@ link register save eliminated.
 702              	.LVL92:
 746:led_manager.c **** 	uint8_t bit = 0x01;
 747:led_manager.c **** 	if(bool == 1) 	//led on
 703              		.loc 1 747 0
 704 0000 0128     		cmp	r0, #1
 705 0002 05D1     		bne	.L50
 748:led_manager.c **** 		byte08 = byte08 | bit;
 706              		.loc 1 748 0
 707 0004 054A     		ldr	r2, .L52
 708 0006 D378     		ldrb	r3, [r2, #3]	@ zero_extendqisi2
 709 0008 43F00103 		orr	r3, r3, #1
 710 000c D370     		strb	r3, [r2, #3]
 711 000e 7047     		bx	lr
 712              	.L50:
 749:led_manager.c **** 	else			//led off
 750:led_manager.c **** 		byte08 = byte08 & ~bit;
 713              		.loc 1 750 0
 714 0010 024A     		ldr	r2, .L52
 715 0012 D378     		ldrb	r3, [r2, #3]	@ zero_extendqisi2
 716 0014 23F00103 		bic	r3, r3, #1
 717 0018 D370     		strb	r3, [r2, #3]
 718 001a 7047     		bx	lr
 719              	.L53:
 720              		.align	2
 721              	.L52:
 722 001c 00000000 		.word	.LANCHOR0
 723              		.cfi_endproc
 724              	.LFE89:
 725              		.size	d7_write, .-d7_write
 726              		.section	.text.d8_write,"ax",%progbits
 727              		.align	2
 728              		.global	d8_write
 729              		.thumb
 730              		.thumb_func
 731              		.type	d8_write, %function
 732              	d8_write:
 733              	.LFB90:
 751:led_manager.c **** }
 752:led_manager.c **** void d8_write(int bool) {
 734              		.loc 1 752 0
 735              		.cfi_startproc
 736              		@ args = 0, pretend = 0, frame = 0
 737              		@ frame_needed = 0, uses_anonymous_args = 0
 738              		@ link register save eliminated.
 739              	.LVL93:
 753:led_manager.c **** 	uint8_t bit = 0x10;
 754:led_manager.c **** 	if(bool == 1) 	//led on
 740              		.loc 1 754 0
ARM GAS  D:\Windows\AppData\Local\Temp\ccP1kfgz.s 			page 28


 741 0000 0128     		cmp	r0, #1
 742 0002 05D1     		bne	.L55
 755:led_manager.c **** 		byte08 = byte08 | bit;
 743              		.loc 1 755 0
 744 0004 054A     		ldr	r2, .L57
 745 0006 D378     		ldrb	r3, [r2, #3]	@ zero_extendqisi2
 746 0008 43F01003 		orr	r3, r3, #16
 747 000c D370     		strb	r3, [r2, #3]
 748 000e 7047     		bx	lr
 749              	.L55:
 756:led_manager.c **** 	else			//led off
 757:led_manager.c **** 		byte08 = byte08 & ~bit;
 750              		.loc 1 757 0
 751 0010 024A     		ldr	r2, .L57
 752 0012 D378     		ldrb	r3, [r2, #3]	@ zero_extendqisi2
 753 0014 23F01003 		bic	r3, r3, #16
 754 0018 D370     		strb	r3, [r2, #3]
 755 001a 7047     		bx	lr
 756              	.L58:
 757              		.align	2
 758              	.L57:
 759 001c 00000000 		.word	.LANCHOR0
 760              		.cfi_endproc
 761              	.LFE90:
 762              		.size	d8_write, .-d8_write
 763              		.section	.text.d9_write,"ax",%progbits
 764              		.align	2
 765              		.global	d9_write
 766              		.thumb
 767              		.thumb_func
 768              		.type	d9_write, %function
 769              	d9_write:
 770              	.LFB91:
 758:led_manager.c **** }
 759:led_manager.c **** void d9_write(int bool) {
 771              		.loc 1 759 0
 772              		.cfi_startproc
 773              		@ args = 0, pretend = 0, frame = 0
 774              		@ frame_needed = 0, uses_anonymous_args = 0
 775              		@ link register save eliminated.
 776              	.LVL94:
 760:led_manager.c **** 	uint8_t bit = 0x02;
 761:led_manager.c **** 	if(bool == 1) 	//led on
 777              		.loc 1 761 0
 778 0000 0128     		cmp	r0, #1
 779 0002 05D1     		bne	.L60
 762:led_manager.c **** 		byte05 = byte05 | bit;
 780              		.loc 1 762 0
 781 0004 054A     		ldr	r2, .L62
 782 0006 1378     		ldrb	r3, [r2]	@ zero_extendqisi2
 783 0008 43F00203 		orr	r3, r3, #2
 784 000c 1370     		strb	r3, [r2]
 785 000e 7047     		bx	lr
 786              	.L60:
 763:led_manager.c **** 	else			//led off
 764:led_manager.c **** 		byte05 = byte05 & ~bit;
 787              		.loc 1 764 0
ARM GAS  D:\Windows\AppData\Local\Temp\ccP1kfgz.s 			page 29


 788 0010 024A     		ldr	r2, .L62
 789 0012 1378     		ldrb	r3, [r2]	@ zero_extendqisi2
 790 0014 23F00203 		bic	r3, r3, #2
 791 0018 1370     		strb	r3, [r2]
 792 001a 7047     		bx	lr
 793              	.L63:
 794              		.align	2
 795              	.L62:
 796 001c 00000000 		.word	.LANCHOR0
 797              		.cfi_endproc
 798              	.LFE91:
 799              		.size	d9_write, .-d9_write
 800              		.section	.text.d10_write,"ax",%progbits
 801              		.align	2
 802              		.global	d10_write
 803              		.thumb
 804              		.thumb_func
 805              		.type	d10_write, %function
 806              	d10_write:
 807              	.LFB92:
 765:led_manager.c **** }
 766:led_manager.c **** void d10_write(int bool) {
 808              		.loc 1 766 0
 809              		.cfi_startproc
 810              		@ args = 0, pretend = 0, frame = 0
 811              		@ frame_needed = 0, uses_anonymous_args = 0
 812              		@ link register save eliminated.
 813              	.LVL95:
 767:led_manager.c **** 	uint8_t bit = 0x20;
 768:led_manager.c **** 	if(bool == 1) 	//led on
 814              		.loc 1 768 0
 815 0000 0128     		cmp	r0, #1
 816 0002 05D1     		bne	.L65
 769:led_manager.c **** 		byte05 = byte05 | bit;
 817              		.loc 1 769 0
 818 0004 054A     		ldr	r2, .L67
 819 0006 1378     		ldrb	r3, [r2]	@ zero_extendqisi2
 820 0008 43F02003 		orr	r3, r3, #32
 821 000c 1370     		strb	r3, [r2]
 822 000e 7047     		bx	lr
 823              	.L65:
 770:led_manager.c **** 	else			//led off
 771:led_manager.c **** 		byte05 = byte05 & ~bit;
 824              		.loc 1 771 0
 825 0010 024A     		ldr	r2, .L67
 826 0012 1378     		ldrb	r3, [r2]	@ zero_extendqisi2
 827 0014 23F02003 		bic	r3, r3, #32
 828 0018 1370     		strb	r3, [r2]
 829 001a 7047     		bx	lr
 830              	.L68:
 831              		.align	2
 832              	.L67:
 833 001c 00000000 		.word	.LANCHOR0
 834              		.cfi_endproc
 835              	.LFE92:
 836              		.size	d10_write, .-d10_write
 837              		.section	.text.d11_write,"ax",%progbits
ARM GAS  D:\Windows\AppData\Local\Temp\ccP1kfgz.s 			page 30


 838              		.align	2
 839              		.global	d11_write
 840              		.thumb
 841              		.thumb_func
 842              		.type	d11_write, %function
 843              	d11_write:
 844              	.LFB93:
 772:led_manager.c **** }
 773:led_manager.c **** void d11_write(int bool) {
 845              		.loc 1 773 0
 846              		.cfi_startproc
 847              		@ args = 0, pretend = 0, frame = 0
 848              		@ frame_needed = 0, uses_anonymous_args = 0
 849              		@ link register save eliminated.
 850              	.LVL96:
 774:led_manager.c **** 	uint8_t bit = 0x02;
 775:led_manager.c **** 	if(bool == 1) 	//led on
 851              		.loc 1 775 0
 852 0000 0128     		cmp	r0, #1
 853 0002 05D1     		bne	.L70
 776:led_manager.c **** 		byte06 = byte06 | bit;
 854              		.loc 1 776 0
 855 0004 054A     		ldr	r2, .L72
 856 0006 5378     		ldrb	r3, [r2, #1]	@ zero_extendqisi2
 857 0008 43F00203 		orr	r3, r3, #2
 858 000c 5370     		strb	r3, [r2, #1]
 859 000e 7047     		bx	lr
 860              	.L70:
 777:led_manager.c **** 	else			//led off
 778:led_manager.c **** 		byte06 = byte06 & ~bit;
 861              		.loc 1 778 0
 862 0010 024A     		ldr	r2, .L72
 863 0012 5378     		ldrb	r3, [r2, #1]	@ zero_extendqisi2
 864 0014 23F00203 		bic	r3, r3, #2
 865 0018 5370     		strb	r3, [r2, #1]
 866 001a 7047     		bx	lr
 867              	.L73:
 868              		.align	2
 869              	.L72:
 870 001c 00000000 		.word	.LANCHOR0
 871              		.cfi_endproc
 872              	.LFE93:
 873              		.size	d11_write, .-d11_write
 874              		.section	.text.d12_write,"ax",%progbits
 875              		.align	2
 876              		.global	d12_write
 877              		.thumb
 878              		.thumb_func
 879              		.type	d12_write, %function
 880              	d12_write:
 881              	.LFB94:
 779:led_manager.c **** }
 780:led_manager.c **** void d12_write(int bool) {
 882              		.loc 1 780 0
 883              		.cfi_startproc
 884              		@ args = 0, pretend = 0, frame = 0
 885              		@ frame_needed = 0, uses_anonymous_args = 0
ARM GAS  D:\Windows\AppData\Local\Temp\ccP1kfgz.s 			page 31


 886              		@ link register save eliminated.
 887              	.LVL97:
 781:led_manager.c **** 	uint8_t bit = 0x20;
 782:led_manager.c **** 	if(bool == 1) 	//led on
 888              		.loc 1 782 0
 889 0000 0128     		cmp	r0, #1
 890 0002 05D1     		bne	.L75
 783:led_manager.c **** 		byte06 = byte06 | bit;
 891              		.loc 1 783 0
 892 0004 054A     		ldr	r2, .L77
 893 0006 5378     		ldrb	r3, [r2, #1]	@ zero_extendqisi2
 894 0008 43F02003 		orr	r3, r3, #32
 895 000c 5370     		strb	r3, [r2, #1]
 896 000e 7047     		bx	lr
 897              	.L75:
 784:led_manager.c **** 	else			//led off
 785:led_manager.c **** 		byte06 = byte06 & ~bit;
 898              		.loc 1 785 0
 899 0010 024A     		ldr	r2, .L77
 900 0012 5378     		ldrb	r3, [r2, #1]	@ zero_extendqisi2
 901 0014 23F02003 		bic	r3, r3, #32
 902 0018 5370     		strb	r3, [r2, #1]
 903 001a 7047     		bx	lr
 904              	.L78:
 905              		.align	2
 906              	.L77:
 907 001c 00000000 		.word	.LANCHOR0
 908              		.cfi_endproc
 909              	.LFE94:
 910              		.size	d12_write, .-d12_write
 911              		.section	.text.d13_write,"ax",%progbits
 912              		.align	2
 913              		.global	d13_write
 914              		.thumb
 915              		.thumb_func
 916              		.type	d13_write, %function
 917              	d13_write:
 918              	.LFB95:
 786:led_manager.c **** }
 787:led_manager.c **** void d13_write(int bool) {
 919              		.loc 1 787 0
 920              		.cfi_startproc
 921              		@ args = 0, pretend = 0, frame = 0
 922              		@ frame_needed = 0, uses_anonymous_args = 0
 923              		@ link register save eliminated.
 924              	.LVL98:
 788:led_manager.c **** 	uint8_t bit = 0x02;
 789:led_manager.c **** 	if(bool == 1) 	//led on
 925              		.loc 1 789 0
 926 0000 0128     		cmp	r0, #1
 927 0002 05D1     		bne	.L80
 790:led_manager.c **** 		byte07 = byte07 | bit;
 928              		.loc 1 790 0
 929 0004 054A     		ldr	r2, .L82
 930 0006 9378     		ldrb	r3, [r2, #2]	@ zero_extendqisi2
 931 0008 43F00203 		orr	r3, r3, #2
 932 000c 9370     		strb	r3, [r2, #2]
ARM GAS  D:\Windows\AppData\Local\Temp\ccP1kfgz.s 			page 32


 933 000e 7047     		bx	lr
 934              	.L80:
 791:led_manager.c **** 	else			//led off
 792:led_manager.c **** 		byte07 = byte07 & ~bit;
 935              		.loc 1 792 0
 936 0010 024A     		ldr	r2, .L82
 937 0012 9378     		ldrb	r3, [r2, #2]	@ zero_extendqisi2
 938 0014 23F00203 		bic	r3, r3, #2
 939 0018 9370     		strb	r3, [r2, #2]
 940 001a 7047     		bx	lr
 941              	.L83:
 942              		.align	2
 943              	.L82:
 944 001c 00000000 		.word	.LANCHOR0
 945              		.cfi_endproc
 946              	.LFE95:
 947              		.size	d13_write, .-d13_write
 948              		.section	.text.d14_write,"ax",%progbits
 949              		.align	2
 950              		.global	d14_write
 951              		.thumb
 952              		.thumb_func
 953              		.type	d14_write, %function
 954              	d14_write:
 955              	.LFB96:
 793:led_manager.c **** }
 794:led_manager.c **** void d14_write(int bool) {
 956              		.loc 1 794 0
 957              		.cfi_startproc
 958              		@ args = 0, pretend = 0, frame = 0
 959              		@ frame_needed = 0, uses_anonymous_args = 0
 960              		@ link register save eliminated.
 961              	.LVL99:
 795:led_manager.c **** 	uint8_t bit = 0x20;
 796:led_manager.c **** 	if(bool == 1) 	//led on
 962              		.loc 1 796 0
 963 0000 0128     		cmp	r0, #1
 964 0002 05D1     		bne	.L85
 797:led_manager.c **** 		byte07 = byte07 | bit;
 965              		.loc 1 797 0
 966 0004 054A     		ldr	r2, .L87
 967 0006 9378     		ldrb	r3, [r2, #2]	@ zero_extendqisi2
 968 0008 43F02003 		orr	r3, r3, #32
 969 000c 9370     		strb	r3, [r2, #2]
 970 000e 7047     		bx	lr
 971              	.L85:
 798:led_manager.c **** 	else			//led off
 799:led_manager.c **** 		byte07 = byte07 & ~bit;
 972              		.loc 1 799 0
 973 0010 024A     		ldr	r2, .L87
 974 0012 9378     		ldrb	r3, [r2, #2]	@ zero_extendqisi2
 975 0014 23F02003 		bic	r3, r3, #32
 976 0018 9370     		strb	r3, [r2, #2]
 977 001a 7047     		bx	lr
 978              	.L88:
 979              		.align	2
 980              	.L87:
ARM GAS  D:\Windows\AppData\Local\Temp\ccP1kfgz.s 			page 33


 981 001c 00000000 		.word	.LANCHOR0
 982              		.cfi_endproc
 983              	.LFE96:
 984              		.size	d14_write, .-d14_write
 985              		.section	.text.d15_write,"ax",%progbits
 986              		.align	2
 987              		.global	d15_write
 988              		.thumb
 989              		.thumb_func
 990              		.type	d15_write, %function
 991              	d15_write:
 992              	.LFB97:
 800:led_manager.c **** }
 801:led_manager.c **** void d15_write(int bool) {
 993              		.loc 1 801 0
 994              		.cfi_startproc
 995              		@ args = 0, pretend = 0, frame = 0
 996              		@ frame_needed = 0, uses_anonymous_args = 0
 997              		@ link register save eliminated.
 998              	.LVL100:
 802:led_manager.c **** 	uint8_t bit = 0x02;
 803:led_manager.c **** 	if(bool == 1) 	//led on
 999              		.loc 1 803 0
 1000 0000 0128     		cmp	r0, #1
 1001 0002 05D1     		bne	.L90
 804:led_manager.c **** 		byte08 = byte08 | bit;
 1002              		.loc 1 804 0
 1003 0004 054A     		ldr	r2, .L92
 1004 0006 D378     		ldrb	r3, [r2, #3]	@ zero_extendqisi2
 1005 0008 43F00203 		orr	r3, r3, #2
 1006 000c D370     		strb	r3, [r2, #3]
 1007 000e 7047     		bx	lr
 1008              	.L90:
 805:led_manager.c **** 	else			//led off
 806:led_manager.c **** 		byte08 = byte08 & ~bit;
 1009              		.loc 1 806 0
 1010 0010 024A     		ldr	r2, .L92
 1011 0012 D378     		ldrb	r3, [r2, #3]	@ zero_extendqisi2
 1012 0014 23F00203 		bic	r3, r3, #2
 1013 0018 D370     		strb	r3, [r2, #3]
 1014 001a 7047     		bx	lr
 1015              	.L93:
 1016              		.align	2
 1017              	.L92:
 1018 001c 00000000 		.word	.LANCHOR0
 1019              		.cfi_endproc
 1020              	.LFE97:
 1021              		.size	d15_write, .-d15_write
 1022              		.section	.text.d16_write,"ax",%progbits
 1023              		.align	2
 1024              		.global	d16_write
 1025              		.thumb
 1026              		.thumb_func
 1027              		.type	d16_write, %function
 1028              	d16_write:
 1029              	.LFB98:
 807:led_manager.c **** }
ARM GAS  D:\Windows\AppData\Local\Temp\ccP1kfgz.s 			page 34


 808:led_manager.c **** void d16_write(int bool) {
 1030              		.loc 1 808 0
 1031              		.cfi_startproc
 1032              		@ args = 0, pretend = 0, frame = 0
 1033              		@ frame_needed = 0, uses_anonymous_args = 0
 1034              		@ link register save eliminated.
 1035              	.LVL101:
 809:led_manager.c **** 	uint8_t bit = 0x20;
 810:led_manager.c **** 	if(bool == 1) 	//led on
 1036              		.loc 1 810 0
 1037 0000 0128     		cmp	r0, #1
 1038 0002 05D1     		bne	.L95
 811:led_manager.c **** 		byte08 = byte08 | bit;
 1039              		.loc 1 811 0
 1040 0004 054A     		ldr	r2, .L97
 1041 0006 D378     		ldrb	r3, [r2, #3]	@ zero_extendqisi2
 1042 0008 43F02003 		orr	r3, r3, #32
 1043 000c D370     		strb	r3, [r2, #3]
 1044 000e 7047     		bx	lr
 1045              	.L95:
 812:led_manager.c **** 	else			//led off
 813:led_manager.c **** 		byte08 = byte08 & ~bit;
 1046              		.loc 1 813 0
 1047 0010 024A     		ldr	r2, .L97
 1048 0012 D378     		ldrb	r3, [r2, #3]	@ zero_extendqisi2
 1049 0014 23F02003 		bic	r3, r3, #32
 1050 0018 D370     		strb	r3, [r2, #3]
 1051 001a 7047     		bx	lr
 1052              	.L98:
 1053              		.align	2
 1054              	.L97:
 1055 001c 00000000 		.word	.LANCHOR0
 1056              		.cfi_endproc
 1057              	.LFE98:
 1058              		.size	d16_write, .-d16_write
 1059              		.section	.text.d17_write,"ax",%progbits
 1060              		.align	2
 1061              		.global	d17_write
 1062              		.thumb
 1063              		.thumb_func
 1064              		.type	d17_write, %function
 1065              	d17_write:
 1066              	.LFB99:
 814:led_manager.c **** }
 815:led_manager.c **** void d17_write(int bool) {
 1067              		.loc 1 815 0
 1068              		.cfi_startproc
 1069              		@ args = 0, pretend = 0, frame = 0
 1070              		@ frame_needed = 0, uses_anonymous_args = 0
 1071              		@ link register save eliminated.
 1072              	.LVL102:
 816:led_manager.c **** 	uint8_t bit = 0x04;
 817:led_manager.c **** 	if(bool == 1) 	//led on
 1073              		.loc 1 817 0
 1074 0000 0128     		cmp	r0, #1
 1075 0002 05D1     		bne	.L100
 818:led_manager.c **** 		byte05 = byte05 | bit;
ARM GAS  D:\Windows\AppData\Local\Temp\ccP1kfgz.s 			page 35


 1076              		.loc 1 818 0
 1077 0004 054A     		ldr	r2, .L102
 1078 0006 1378     		ldrb	r3, [r2]	@ zero_extendqisi2
 1079 0008 43F00403 		orr	r3, r3, #4
 1080 000c 1370     		strb	r3, [r2]
 1081 000e 7047     		bx	lr
 1082              	.L100:
 819:led_manager.c **** 	else			//led off
 820:led_manager.c **** 		byte05 = byte05 & ~bit;
 1083              		.loc 1 820 0
 1084 0010 024A     		ldr	r2, .L102
 1085 0012 1378     		ldrb	r3, [r2]	@ zero_extendqisi2
 1086 0014 23F00403 		bic	r3, r3, #4
 1087 0018 1370     		strb	r3, [r2]
 1088 001a 7047     		bx	lr
 1089              	.L103:
 1090              		.align	2
 1091              	.L102:
 1092 001c 00000000 		.word	.LANCHOR0
 1093              		.cfi_endproc
 1094              	.LFE99:
 1095              		.size	d17_write, .-d17_write
 1096              		.section	.text.d18_write,"ax",%progbits
 1097              		.align	2
 1098              		.global	d18_write
 1099              		.thumb
 1100              		.thumb_func
 1101              		.type	d18_write, %function
 1102              	d18_write:
 1103              	.LFB100:
 821:led_manager.c **** }
 822:led_manager.c **** void d18_write(int bool) {
 1104              		.loc 1 822 0
 1105              		.cfi_startproc
 1106              		@ args = 0, pretend = 0, frame = 0
 1107              		@ frame_needed = 0, uses_anonymous_args = 0
 1108              		@ link register save eliminated.
 1109              	.LVL103:
 823:led_manager.c **** 	uint8_t bit = 0x40;
 824:led_manager.c **** 	if(bool == 1) 	//led on
 1110              		.loc 1 824 0
 1111 0000 0128     		cmp	r0, #1
 1112 0002 05D1     		bne	.L105
 825:led_manager.c **** 		byte05 = byte05 | bit;
 1113              		.loc 1 825 0
 1114 0004 054A     		ldr	r2, .L107
 1115 0006 1378     		ldrb	r3, [r2]	@ zero_extendqisi2
 1116 0008 43F04003 		orr	r3, r3, #64
 1117 000c 1370     		strb	r3, [r2]
 1118 000e 7047     		bx	lr
 1119              	.L105:
 826:led_manager.c **** 	else			//led off
 827:led_manager.c **** 		byte05 = byte05 & ~bit;
 1120              		.loc 1 827 0
 1121 0010 024A     		ldr	r2, .L107
 1122 0012 1378     		ldrb	r3, [r2]	@ zero_extendqisi2
 1123 0014 23F04003 		bic	r3, r3, #64
ARM GAS  D:\Windows\AppData\Local\Temp\ccP1kfgz.s 			page 36


 1124 0018 1370     		strb	r3, [r2]
 1125 001a 7047     		bx	lr
 1126              	.L108:
 1127              		.align	2
 1128              	.L107:
 1129 001c 00000000 		.word	.LANCHOR0
 1130              		.cfi_endproc
 1131              	.LFE100:
 1132              		.size	d18_write, .-d18_write
 1133              		.section	.text.d19_write,"ax",%progbits
 1134              		.align	2
 1135              		.global	d19_write
 1136              		.thumb
 1137              		.thumb_func
 1138              		.type	d19_write, %function
 1139              	d19_write:
 1140              	.LFB101:
 828:led_manager.c **** }
 829:led_manager.c **** void d19_write(int bool) {
 1141              		.loc 1 829 0
 1142              		.cfi_startproc
 1143              		@ args = 0, pretend = 0, frame = 0
 1144              		@ frame_needed = 0, uses_anonymous_args = 0
 1145              		@ link register save eliminated.
 1146              	.LVL104:
 830:led_manager.c **** 	uint8_t bit = 0x04;
 831:led_manager.c **** 	if(bool == 1) 	//led on
 1147              		.loc 1 831 0
 1148 0000 0128     		cmp	r0, #1
 1149 0002 05D1     		bne	.L110
 832:led_manager.c **** 		byte06 = byte06 | bit;
 1150              		.loc 1 832 0
 1151 0004 054A     		ldr	r2, .L112
 1152 0006 5378     		ldrb	r3, [r2, #1]	@ zero_extendqisi2
 1153 0008 43F00403 		orr	r3, r3, #4
 1154 000c 5370     		strb	r3, [r2, #1]
 1155 000e 7047     		bx	lr
 1156              	.L110:
 833:led_manager.c **** 	else			//led off
 834:led_manager.c **** 		byte06 = byte06 & ~bit;
 1157              		.loc 1 834 0
 1158 0010 024A     		ldr	r2, .L112
 1159 0012 5378     		ldrb	r3, [r2, #1]	@ zero_extendqisi2
 1160 0014 23F00403 		bic	r3, r3, #4
 1161 0018 5370     		strb	r3, [r2, #1]
 1162 001a 7047     		bx	lr
 1163              	.L113:
 1164              		.align	2
 1165              	.L112:
 1166 001c 00000000 		.word	.LANCHOR0
 1167              		.cfi_endproc
 1168              	.LFE101:
 1169              		.size	d19_write, .-d19_write
 1170              		.section	.text.led_on,"ax",%progbits
 1171              		.align	2
 1172              		.global	led_on
 1173              		.thumb
ARM GAS  D:\Windows\AppData\Local\Temp\ccP1kfgz.s 			page 37


 1174              		.thumb_func
 1175              		.type	led_on, %function
 1176              	led_on:
 1177              	.LFB80:
 568:led_manager.c **** 	d1_write(1);
 1178              		.loc 1 568 0
 1179              		.cfi_startproc
 1180              		@ args = 0, pretend = 0, frame = 0
 1181              		@ frame_needed = 0, uses_anonymous_args = 0
 1182 0000 08B5     		push	{r3, lr}
 1183              		.cfi_def_cfa_offset 8
 1184              		.cfi_offset 3, -8
 1185              		.cfi_offset 14, -4
 569:led_manager.c **** 	//d2_write(1);
 1186              		.loc 1 569 0
 1187 0002 0120     		movs	r0, #1
 1188 0004 FFF7FEFF 		bl	d1_write
 1189              	.LVL105:
 582:led_manager.c **** 	d15_write(1);
 1190              		.loc 1 582 0
 1191 0008 0120     		movs	r0, #1
 1192 000a FFF7FEFF 		bl	d14_write
 1193              	.LVL106:
 583:led_manager.c **** 	//d16_write(1);
 1194              		.loc 1 583 0
 1195 000e 0120     		movs	r0, #1
 1196 0010 FFF7FEFF 		bl	d15_write
 1197              	.LVL107:
 587:led_manager.c **** 	//d20_write(1);
 1198              		.loc 1 587 0
 1199 0014 0120     		movs	r0, #1
 1200 0016 FFF7FEFF 		bl	d19_write
 1201              	.LVL108:
 1202 001a 08BD     		pop	{r3, pc}
 1203              		.cfi_endproc
 1204              	.LFE80:
 1205              		.size	led_on, .-led_on
 1206              		.section	.text.led_off,"ax",%progbits
 1207              		.align	2
 1208              		.global	led_off
 1209              		.thumb
 1210              		.thumb_func
 1211              		.type	led_off, %function
 1212              	led_off:
 1213              	.LFB81:
 619:led_manager.c **** 	d1_write(0);
 1214              		.loc 1 619 0
 1215              		.cfi_startproc
 1216              		@ args = 0, pretend = 0, frame = 0
 1217              		@ frame_needed = 0, uses_anonymous_args = 0
 1218 0000 08B5     		push	{r3, lr}
 1219              		.cfi_def_cfa_offset 8
 1220              		.cfi_offset 3, -8
 1221              		.cfi_offset 14, -4
 620:led_manager.c **** 	//d2_write(0);
 1222              		.loc 1 620 0
 1223 0002 0020     		movs	r0, #0
ARM GAS  D:\Windows\AppData\Local\Temp\ccP1kfgz.s 			page 38


 1224 0004 FFF7FEFF 		bl	d1_write
 1225              	.LVL109:
 633:led_manager.c **** 	d15_write(0);
 1226              		.loc 1 633 0
 1227 0008 0020     		movs	r0, #0
 1228 000a FFF7FEFF 		bl	d14_write
 1229              	.LVL110:
 634:led_manager.c **** 	//d16_write(0);
 1230              		.loc 1 634 0
 1231 000e 0020     		movs	r0, #0
 1232 0010 FFF7FEFF 		bl	d15_write
 1233              	.LVL111:
 638:led_manager.c **** 	//d20_write(0);
 1234              		.loc 1 638 0
 1235 0014 0020     		movs	r0, #0
 1236 0016 FFF7FEFF 		bl	d19_write
 1237              	.LVL112:
 1238 001a 08BD     		pop	{r3, pc}
 1239              		.cfi_endproc
 1240              	.LFE81:
 1241              		.size	led_off, .-led_off
 1242              		.section	.text.d20_write,"ax",%progbits
 1243              		.align	2
 1244              		.global	d20_write
 1245              		.thumb
 1246              		.thumb_func
 1247              		.type	d20_write, %function
 1248              	d20_write:
 1249              	.LFB102:
 835:led_manager.c **** }
 836:led_manager.c **** void d20_write(int bool) {
 1250              		.loc 1 836 0
 1251              		.cfi_startproc
 1252              		@ args = 0, pretend = 0, frame = 0
 1253              		@ frame_needed = 0, uses_anonymous_args = 0
 1254              		@ link register save eliminated.
 1255              	.LVL113:
 837:led_manager.c **** 	uint8_t bit = 0x40;
 838:led_manager.c **** 	if(bool == 1) 	//led on
 1256              		.loc 1 838 0
 1257 0000 0128     		cmp	r0, #1
 1258 0002 05D1     		bne	.L119
 839:led_manager.c **** 		byte06 = byte06 | bit;
 1259              		.loc 1 839 0
 1260 0004 054A     		ldr	r2, .L121
 1261 0006 5378     		ldrb	r3, [r2, #1]	@ zero_extendqisi2
 1262 0008 43F04003 		orr	r3, r3, #64
 1263 000c 5370     		strb	r3, [r2, #1]
 1264 000e 7047     		bx	lr
 1265              	.L119:
 840:led_manager.c **** 	else			//led off
 841:led_manager.c **** 		byte06 = byte06 & ~bit;
 1266              		.loc 1 841 0
 1267 0010 024A     		ldr	r2, .L121
 1268 0012 5378     		ldrb	r3, [r2, #1]	@ zero_extendqisi2
 1269 0014 23F04003 		bic	r3, r3, #64
 1270 0018 5370     		strb	r3, [r2, #1]
ARM GAS  D:\Windows\AppData\Local\Temp\ccP1kfgz.s 			page 39


 1271 001a 7047     		bx	lr
 1272              	.L122:
 1273              		.align	2
 1274              	.L121:
 1275 001c 00000000 		.word	.LANCHOR0
 1276              		.cfi_endproc
 1277              	.LFE102:
 1278              		.size	d20_write, .-d20_write
 1279              		.section	.text.d21_write,"ax",%progbits
 1280              		.align	2
 1281              		.global	d21_write
 1282              		.thumb
 1283              		.thumb_func
 1284              		.type	d21_write, %function
 1285              	d21_write:
 1286              	.LFB103:
 842:led_manager.c **** }
 843:led_manager.c **** void d21_write(int bool) {
 1287              		.loc 1 843 0
 1288              		.cfi_startproc
 1289              		@ args = 0, pretend = 0, frame = 0
 1290              		@ frame_needed = 0, uses_anonymous_args = 0
 1291              		@ link register save eliminated.
 1292              	.LVL114:
 844:led_manager.c **** 	uint8_t bit = 0x04;
 845:led_manager.c **** 	if(bool == 1) 	//led on
 1293              		.loc 1 845 0
 1294 0000 0128     		cmp	r0, #1
 1295 0002 05D1     		bne	.L124
 846:led_manager.c **** 		byte07 = byte07 | bit;
 1296              		.loc 1 846 0
 1297 0004 054A     		ldr	r2, .L126
 1298 0006 9378     		ldrb	r3, [r2, #2]	@ zero_extendqisi2
 1299 0008 43F00403 		orr	r3, r3, #4
 1300 000c 9370     		strb	r3, [r2, #2]
 1301 000e 7047     		bx	lr
 1302              	.L124:
 847:led_manager.c **** 	else			//led off
 848:led_manager.c **** 		byte07 = byte07 & ~bit;
 1303              		.loc 1 848 0
 1304 0010 024A     		ldr	r2, .L126
 1305 0012 9378     		ldrb	r3, [r2, #2]	@ zero_extendqisi2
 1306 0014 23F00403 		bic	r3, r3, #4
 1307 0018 9370     		strb	r3, [r2, #2]
 1308 001a 7047     		bx	lr
 1309              	.L127:
 1310              		.align	2
 1311              	.L126:
 1312 001c 00000000 		.word	.LANCHOR0
 1313              		.cfi_endproc
 1314              	.LFE103:
 1315              		.size	d21_write, .-d21_write
 1316              		.section	.text.d22_write,"ax",%progbits
 1317              		.align	2
 1318              		.global	d22_write
 1319              		.thumb
 1320              		.thumb_func
ARM GAS  D:\Windows\AppData\Local\Temp\ccP1kfgz.s 			page 40


 1321              		.type	d22_write, %function
 1322              	d22_write:
 1323              	.LFB104:
 849:led_manager.c **** }
 850:led_manager.c **** void d22_write(int bool) {
 1324              		.loc 1 850 0
 1325              		.cfi_startproc
 1326              		@ args = 0, pretend = 0, frame = 0
 1327              		@ frame_needed = 0, uses_anonymous_args = 0
 1328              		@ link register save eliminated.
 1329              	.LVL115:
 851:led_manager.c **** 	uint8_t bit = 0x40;
 852:led_manager.c **** 	if(bool == 1) 	//led on
 1330              		.loc 1 852 0
 1331 0000 0128     		cmp	r0, #1
 1332 0002 05D1     		bne	.L129
 853:led_manager.c **** 		byte07 = byte07 | bit;
 1333              		.loc 1 853 0
 1334 0004 054A     		ldr	r2, .L131
 1335 0006 9378     		ldrb	r3, [r2, #2]	@ zero_extendqisi2
 1336 0008 43F04003 		orr	r3, r3, #64
 1337 000c 9370     		strb	r3, [r2, #2]
 1338 000e 7047     		bx	lr
 1339              	.L129:
 854:led_manager.c **** 	else			//led off
 855:led_manager.c **** 		byte07 = byte07 & ~bit;
 1340              		.loc 1 855 0
 1341 0010 024A     		ldr	r2, .L131
 1342 0012 9378     		ldrb	r3, [r2, #2]	@ zero_extendqisi2
 1343 0014 23F04003 		bic	r3, r3, #64
 1344 0018 9370     		strb	r3, [r2, #2]
 1345 001a 7047     		bx	lr
 1346              	.L132:
 1347              		.align	2
 1348              	.L131:
 1349 001c 00000000 		.word	.LANCHOR0
 1350              		.cfi_endproc
 1351              	.LFE104:
 1352              		.size	d22_write, .-d22_write
 1353              		.section	.text.tach_crit_isr,"ax",%progbits
 1354              		.align	2
 1355              		.global	tach_crit_isr
 1356              		.thumb
 1357              		.thumb_func
 1358              		.type	tach_crit_isr, %function
 1359              	tach_crit_isr:
 1360              	.LFB63:
  50:led_manager.c ****     tach_crit_led = tach_crit_led == 0 ? 1:0;
 1361              		.loc 1 50 0
 1362              		.cfi_startproc
 1363              		@ args = 0, pretend = 0, frame = 0
 1364              		@ frame_needed = 0, uses_anonymous_args = 0
 1365 0000 10B5     		push	{r4, lr}
 1366              		.cfi_def_cfa_offset 8
 1367              		.cfi_offset 4, -8
 1368              		.cfi_offset 14, -4
  51:led_manager.c ****     d1_write(tach_crit_led);
ARM GAS  D:\Windows\AppData\Local\Temp\ccP1kfgz.s 			page 41


 1369              		.loc 1 51 0
 1370 0002 254C     		ldr	r4, .L135
 1371 0004 A068     		ldr	r0, [r4, #8]
 1372 0006 B0FA80F0 		clz	r0, r0
 1373 000a 4009     		lsrs	r0, r0, #5
 1374 000c A060     		str	r0, [r4, #8]
  52:led_manager.c ****     d2_write(tach_crit_led);
 1375              		.loc 1 52 0
 1376 000e FFF7FEFF 		bl	d1_write
 1377              	.LVL116:
  53:led_manager.c ****     d3_write(tach_crit_led);
 1378              		.loc 1 53 0
 1379 0012 A068     		ldr	r0, [r4, #8]
 1380 0014 FFF7FEFF 		bl	d2_write
 1381              	.LVL117:
  54:led_manager.c ****     d4_write(tach_crit_led);
 1382              		.loc 1 54 0
 1383 0018 A068     		ldr	r0, [r4, #8]
 1384 001a FFF7FEFF 		bl	d3_write
 1385              	.LVL118:
  55:led_manager.c ****     d5_write(tach_crit_led);
 1386              		.loc 1 55 0
 1387 001e A068     		ldr	r0, [r4, #8]
 1388 0020 FFF7FEFF 		bl	d4_write
 1389              	.LVL119:
  56:led_manager.c ****     d6_write(tach_crit_led);
 1390              		.loc 1 56 0
 1391 0024 A068     		ldr	r0, [r4, #8]
 1392 0026 FFF7FEFF 		bl	d5_write
 1393              	.LVL120:
  57:led_manager.c ****     d7_write(tach_crit_led);
 1394              		.loc 1 57 0
 1395 002a A068     		ldr	r0, [r4, #8]
 1396 002c FFF7FEFF 		bl	d6_write
 1397              	.LVL121:
  58:led_manager.c ****     d8_write(tach_crit_led);
 1398              		.loc 1 58 0
 1399 0030 A068     		ldr	r0, [r4, #8]
 1400 0032 FFF7FEFF 		bl	d7_write
 1401              	.LVL122:
  59:led_manager.c ****     d9_write(tach_crit_led);
 1402              		.loc 1 59 0
 1403 0036 A068     		ldr	r0, [r4, #8]
 1404 0038 FFF7FEFF 		bl	d8_write
 1405              	.LVL123:
  60:led_manager.c ****     d10_write(tach_crit_led);
 1406              		.loc 1 60 0
 1407 003c A068     		ldr	r0, [r4, #8]
 1408 003e FFF7FEFF 		bl	d9_write
 1409              	.LVL124:
  61:led_manager.c ****     d11_write(tach_crit_led);
 1410              		.loc 1 61 0
 1411 0042 A068     		ldr	r0, [r4, #8]
 1412 0044 FFF7FEFF 		bl	d10_write
 1413              	.LVL125:
  62:led_manager.c ****     d12_write(tach_crit_led);
 1414              		.loc 1 62 0
ARM GAS  D:\Windows\AppData\Local\Temp\ccP1kfgz.s 			page 42


 1415 0048 A068     		ldr	r0, [r4, #8]
 1416 004a FFF7FEFF 		bl	d11_write
 1417              	.LVL126:
  63:led_manager.c ****     d13_write(tach_crit_led);
 1418              		.loc 1 63 0
 1419 004e A068     		ldr	r0, [r4, #8]
 1420 0050 FFF7FEFF 		bl	d12_write
 1421              	.LVL127:
  64:led_manager.c ****     d14_write(tach_crit_led);
 1422              		.loc 1 64 0
 1423 0054 A068     		ldr	r0, [r4, #8]
 1424 0056 FFF7FEFF 		bl	d13_write
 1425              	.LVL128:
  65:led_manager.c ****     d15_write(tach_crit_led);
 1426              		.loc 1 65 0
 1427 005a A068     		ldr	r0, [r4, #8]
 1428 005c FFF7FEFF 		bl	d14_write
 1429              	.LVL129:
  66:led_manager.c ****     d16_write(tach_crit_led);
 1430              		.loc 1 66 0
 1431 0060 A068     		ldr	r0, [r4, #8]
 1432 0062 FFF7FEFF 		bl	d15_write
 1433              	.LVL130:
  67:led_manager.c ****     d17_write(tach_crit_led);
 1434              		.loc 1 67 0
 1435 0066 A068     		ldr	r0, [r4, #8]
 1436 0068 FFF7FEFF 		bl	d16_write
 1437              	.LVL131:
  68:led_manager.c ****     d18_write(tach_crit_led);
 1438              		.loc 1 68 0
 1439 006c A068     		ldr	r0, [r4, #8]
 1440 006e FFF7FEFF 		bl	d17_write
 1441              	.LVL132:
  69:led_manager.c ****     d19_write(tach_crit_led);
 1442              		.loc 1 69 0
 1443 0072 A068     		ldr	r0, [r4, #8]
 1444 0074 FFF7FEFF 		bl	d18_write
 1445              	.LVL133:
  70:led_manager.c ****     d20_write(tach_crit_led);
 1446              		.loc 1 70 0
 1447 0078 A068     		ldr	r0, [r4, #8]
 1448 007a FFF7FEFF 		bl	d19_write
 1449              	.LVL134:
  71:led_manager.c ****     d21_write(tach_crit_led);
 1450              		.loc 1 71 0
 1451 007e A068     		ldr	r0, [r4, #8]
 1452 0080 FFF7FEFF 		bl	d20_write
 1453              	.LVL135:
  72:led_manager.c ****     d22_write(tach_crit_led);
 1454              		.loc 1 72 0
 1455 0084 A068     		ldr	r0, [r4, #8]
 1456 0086 FFF7FEFF 		bl	d21_write
 1457              	.LVL136:
  73:led_manager.c ****     led_update_tach(0);
 1458              		.loc 1 73 0
 1459 008a A068     		ldr	r0, [r4, #8]
 1460 008c FFF7FEFF 		bl	d22_write
ARM GAS  D:\Windows\AppData\Local\Temp\ccP1kfgz.s 			page 43


 1461              	.LVL137:
  74:led_manager.c **** }
 1462              		.loc 1 74 0
 1463 0090 0020     		movs	r0, #0
 1464 0092 FFF7FEFF 		bl	led_update_tach
 1465              	.LVL138:
 1466 0096 10BD     		pop	{r4, pc}
 1467              	.L136:
 1468              		.align	2
 1469              	.L135:
 1470 0098 00000000 		.word	.LANCHOR0
 1471              		.cfi_endproc
 1472              	.LFE63:
 1473              		.size	tach_crit_isr, .-tach_crit_isr
 1474              		.section	.text.led_write_tach,"ax",%progbits
 1475              		.align	2
 1476              		.global	led_write_tach
 1477              		.thumb
 1478              		.thumb_func
 1479              		.type	led_write_tach, %function
 1480              	led_write_tach:
 1481              	.LFB69:
 173:led_manager.c **** 	long tach_pct = MTR_RPM / MAX_RPM;	//tach percent
 1482              		.loc 1 173 0
 1483              		.cfi_startproc
 1484              		@ args = 0, pretend = 0, frame = 0
 1485              		@ frame_needed = 0, uses_anonymous_args = 0
 1486              	.LVL139:
 1487 0000 38B5     		push	{r3, r4, r5, lr}
 1488              		.cfi_def_cfa_offset 16
 1489              		.cfi_offset 3, -16
 1490              		.cfi_offset 4, -12
 1491              		.cfi_offset 5, -8
 1492              		.cfi_offset 14, -4
 174:led_manager.c **** 	int steps = 0;
 1493              		.loc 1 174 0
 1494 0002 7B4C     		ldr	r4, .L169
 1495 0004 A4FB0034 		umull	r3, r4, r4, r0
 1496 0008 E409     		lsrs	r4, r4, #7
 1497              	.LVL140:
 178:led_manager.c ****             tach_critical = 0;
 1498              		.loc 1 178 0
 1499 000a 7A4B     		ldr	r3, .L169+4
 1500 000c DB68     		ldr	r3, [r3, #12]
 1501 000e 5BB1     		cbz	r3, .L138
 179:led_manager.c ****             tach_crit_int_Stop();
 1502              		.loc 1 179 0
 1503 0010 0025     		movs	r5, #0
 1504 0012 784B     		ldr	r3, .L169+4
 1505 0014 DD60     		str	r5, [r3, #12]
 180:led_manager.c ****             tach_critical_timer_Stop();
 1506              		.loc 1 180 0
 1507 0016 FFF7FEFF 		bl	tach_crit_int_Stop
 1508              	.LVL141:
 181:led_manager.c ****             d22_write(0);   //actually not using last led for anything but full rpm blinking
 1509              		.loc 1 181 0
 1510 001a FFF7FEFF 		bl	tach_critical_timer_Stop
ARM GAS  D:\Windows\AppData\Local\Temp\ccP1kfgz.s 			page 44


 1511              	.LVL142:
 182:led_manager.c ****             led_update_tach();
 1512              		.loc 1 182 0
 1513 001e 2846     		mov	r0, r5
 1514 0020 FFF7FEFF 		bl	d22_write
 1515              	.LVL143:
 183:led_manager.c ****         } //if 
 1516              		.loc 1 183 0
 1517 0024 FFF7FEFF 		bl	led_update_tach
 1518              	.LVL144:
 1519              	.L138:
 188:led_manager.c ****         steps = 0;
 1520              		.loc 1 188 0
 1521 0028 002C     		cmp	r4, #0
 1522 002a 59D0     		beq	.L145
 190:led_manager.c **** 		steps = 2;	//first step lights up first 2 led's
 1523              		.loc 1 190 0
 1524 002c 631E     		subs	r3, r4, #1
 1525 002e 042B     		cmp	r3, #4
 1526 0030 58D9     		bls	.L146
 192:led_manager.c **** 		steps = 3;
 1527              		.loc 1 192 0
 1528 0032 A31F     		subs	r3, r4, #6
 1529 0034 042B     		cmp	r3, #4
 1530 0036 57D9     		bls	.L147
 194:led_manager.c **** 		steps = 4;
 1531              		.loc 1 194 0
 1532 0038 A4F10B03 		sub	r3, r4, #11
 1533 003c 042B     		cmp	r3, #4
 1534 003e 55D9     		bls	.L148
 196:led_manager.c **** 		steps = 5;
 1535              		.loc 1 196 0
 1536 0040 A4F11003 		sub	r3, r4, #16
 1537 0044 042B     		cmp	r3, #4
 1538 0046 53D9     		bls	.L149
 198:led_manager.c **** 		steps = 6;
 1539              		.loc 1 198 0
 1540 0048 A4F11503 		sub	r3, r4, #21
 1541 004c 042B     		cmp	r3, #4
 1542 004e 51D9     		bls	.L150
 200:led_manager.c **** 		steps = 7;
 1543              		.loc 1 200 0
 1544 0050 A4F11A03 		sub	r3, r4, #26
 1545 0054 042B     		cmp	r3, #4
 1546 0056 4FD9     		bls	.L151
 202:led_manager.c **** 		steps = 8;
 1547              		.loc 1 202 0
 1548 0058 A4F11F03 		sub	r3, r4, #31
 1549 005c 042B     		cmp	r3, #4
 1550 005e 4DD9     		bls	.L152
 204:led_manager.c **** 		steps = 9;
 1551              		.loc 1 204 0
 1552 0060 A4F12403 		sub	r3, r4, #36
 1553 0064 042B     		cmp	r3, #4
 1554 0066 4BD9     		bls	.L153
 206:led_manager.c **** 		steps = 10;
 1555              		.loc 1 206 0
ARM GAS  D:\Windows\AppData\Local\Temp\ccP1kfgz.s 			page 45


 1556 0068 A4F12903 		sub	r3, r4, #41
 1557 006c 042B     		cmp	r3, #4
 1558 006e 49D9     		bls	.L154
 208:led_manager.c **** 		steps = 11;
 1559              		.loc 1 208 0
 1560 0070 A4F12E03 		sub	r3, r4, #46
 1561 0074 042B     		cmp	r3, #4
 1562 0076 47D9     		bls	.L155
 210:led_manager.c **** 		steps = 12;
 1563              		.loc 1 210 0
 1564 0078 A4F13303 		sub	r3, r4, #51
 1565 007c 042B     		cmp	r3, #4
 1566 007e 45D9     		bls	.L156
 212:led_manager.c **** 		steps = 13;
 1567              		.loc 1 212 0
 1568 0080 A4F13803 		sub	r3, r4, #56
 1569 0084 042B     		cmp	r3, #4
 1570 0086 43D9     		bls	.L157
 214:led_manager.c **** 		steps = 14;
 1571              		.loc 1 214 0
 1572 0088 A4F13D03 		sub	r3, r4, #61
 1573 008c 042B     		cmp	r3, #4
 1574 008e 41D9     		bls	.L158
 216:led_manager.c **** 		steps = 15;
 1575              		.loc 1 216 0
 1576 0090 A4F14203 		sub	r3, r4, #66
 1577 0094 042B     		cmp	r3, #4
 1578 0096 3FD9     		bls	.L159
 218:led_manager.c **** 		steps = 16;
 1579              		.loc 1 218 0
 1580 0098 A4F14703 		sub	r3, r4, #71
 1581 009c 042B     		cmp	r3, #4
 1582 009e 3DD9     		bls	.L160
 220:led_manager.c **** 		steps = 17;
 1583              		.loc 1 220 0
 1584 00a0 A4F14C03 		sub	r3, r4, #76
 1585 00a4 042B     		cmp	r3, #4
 1586 00a6 3BD9     		bls	.L161
 222:led_manager.c **** 		steps = 18;
 1587              		.loc 1 222 0
 1588 00a8 A4F15103 		sub	r3, r4, #81
 1589 00ac 042B     		cmp	r3, #4
 1590 00ae 39D9     		bls	.L162
 224:led_manager.c **** 		steps = 19;
 1591              		.loc 1 224 0
 1592 00b0 A4F15603 		sub	r3, r4, #86
 1593 00b4 042B     		cmp	r3, #4
 1594 00b6 37D9     		bls	.L163
 226:led_manager.c **** 		steps = 20;
 1595              		.loc 1 226 0
 1596 00b8 A4F15B03 		sub	r3, r4, #91
 1597 00bc 042B     		cmp	r3, #4
 1598 00be 35D9     		bls	.L164
 228:led_manager.c **** 		steps = 21;
 1599              		.loc 1 228 0
 1600 00c0 603C     		subs	r4, r4, #96
 1601              	.LVL145:
ARM GAS  D:\Windows\AppData\Local\Temp\ccP1kfgz.s 			page 46


 1602 00c2 032C     		cmp	r4, #3
 1603 00c4 34D9     		bls	.L165
 231:led_manager.c **** 			tach_critical_timer_Start();
 1604              		.loc 1 231 0
 1605 00c6 4B4B     		ldr	r3, .L169+4
 1606 00c8 DB68     		ldr	r3, [r3, #12]
 1607 00ca 9BBB     		cbnz	r3, .L166
 232:led_manager.c **** 			tach_crit_int_StartEx(tach_crit_isr);
 1608              		.loc 1 232 0
 1609 00cc FFF7FEFF 		bl	tach_critical_timer_Start
 1610              	.LVL146:
 233:led_manager.c **** 			tach_critical = 1;
 1611              		.loc 1 233 0
 1612 00d0 4948     		ldr	r0, .L169+8
 1613 00d2 FFF7FEFF 		bl	tach_crit_int_StartEx
 1614              	.LVL147:
 234:led_manager.c **** 		} //if
 1615              		.loc 1 234 0
 1616 00d6 0122     		movs	r2, #1
 1617 00d8 464B     		ldr	r3, .L169+4
 1618 00da DA60     		str	r2, [r3, #12]
 175:led_manager.c ****     
 1619              		.loc 1 175 0
 1620 00dc 0023     		movs	r3, #0
 1621 00de 2AE0     		b	.L139
 1622              	.LVL148:
 1623              	.L145:
 189:led_manager.c **** 	else if(tach_pct > 0 && tach_pct <= 5)
 1624              		.loc 1 189 0
 1625 00e0 0023     		movs	r3, #0
 1626 00e2 28E0     		b	.L139
 1627              	.L146:
 191:led_manager.c **** 	else if(tach_pct > 5 && tach_pct <= 10)
 1628              		.loc 1 191 0
 1629 00e4 0223     		movs	r3, #2
 1630 00e6 26E0     		b	.L139
 1631              	.L147:
 193:led_manager.c **** 	else if(tach_pct > 10 && tach_pct <= 15)
 1632              		.loc 1 193 0
 1633 00e8 0323     		movs	r3, #3
 1634 00ea 24E0     		b	.L139
 1635              	.L148:
 195:led_manager.c **** 	else if(tach_pct > 15 && tach_pct <= 20)
 1636              		.loc 1 195 0
 1637 00ec 0423     		movs	r3, #4
 1638 00ee 22E0     		b	.L139
 1639              	.L149:
 197:led_manager.c **** 	else if(tach_pct > 20 && tach_pct <= 25)
 1640              		.loc 1 197 0
 1641 00f0 0523     		movs	r3, #5
 1642 00f2 20E0     		b	.L139
 1643              	.L150:
 199:led_manager.c **** 	else if(tach_pct > 25 && tach_pct <= 30)
 1644              		.loc 1 199 0
 1645 00f4 0623     		movs	r3, #6
 1646 00f6 1EE0     		b	.L139
 1647              	.L151:
ARM GAS  D:\Windows\AppData\Local\Temp\ccP1kfgz.s 			page 47


 201:led_manager.c **** 	else if(tach_pct > 30 && tach_pct <= 35)
 1648              		.loc 1 201 0
 1649 00f8 0723     		movs	r3, #7
 1650 00fa 1CE0     		b	.L139
 1651              	.L152:
 203:led_manager.c **** 	else if(tach_pct > 35 && tach_pct <= 40)
 1652              		.loc 1 203 0
 1653 00fc 0823     		movs	r3, #8
 1654 00fe 1AE0     		b	.L139
 1655              	.L153:
 205:led_manager.c **** 	else if(tach_pct > 40 && tach_pct <= 45)
 1656              		.loc 1 205 0
 1657 0100 0923     		movs	r3, #9
 1658 0102 18E0     		b	.L139
 1659              	.L154:
 207:led_manager.c **** 	else if(tach_pct > 45 && tach_pct <= 50)
 1660              		.loc 1 207 0
 1661 0104 0A23     		movs	r3, #10
 1662 0106 16E0     		b	.L139
 1663              	.L155:
 209:led_manager.c **** 	else if(tach_pct > 50 && tach_pct <= 55)
 1664              		.loc 1 209 0
 1665 0108 0B23     		movs	r3, #11
 1666 010a 14E0     		b	.L139
 1667              	.L156:
 211:led_manager.c **** 	else if(tach_pct > 55 && tach_pct <= 60)
 1668              		.loc 1 211 0
 1669 010c 0C23     		movs	r3, #12
 1670 010e 12E0     		b	.L139
 1671              	.L157:
 213:led_manager.c **** 	else if(tach_pct > 60 && tach_pct <= 65)
 1672              		.loc 1 213 0
 1673 0110 0D23     		movs	r3, #13
 1674 0112 10E0     		b	.L139
 1675              	.L158:
 215:led_manager.c **** 	else if(tach_pct > 65 && tach_pct <= 70)
 1676              		.loc 1 215 0
 1677 0114 0E23     		movs	r3, #14
 1678 0116 0EE0     		b	.L139
 1679              	.L159:
 217:led_manager.c **** 	else if(tach_pct > 70 && tach_pct <= 75)
 1680              		.loc 1 217 0
 1681 0118 0F23     		movs	r3, #15
 1682 011a 0CE0     		b	.L139
 1683              	.L160:
 219:led_manager.c **** 	else if(tach_pct > 75 && tach_pct <= 80)
 1684              		.loc 1 219 0
 1685 011c 1023     		movs	r3, #16
 1686 011e 0AE0     		b	.L139
 1687              	.L161:
 221:led_manager.c **** 	else if(tach_pct > 80 && tach_pct <= 85)
 1688              		.loc 1 221 0
 1689 0120 1123     		movs	r3, #17
 1690 0122 08E0     		b	.L139
 1691              	.L162:
 223:led_manager.c **** 	else if(tach_pct > 85 && tach_pct <= 90)
 1692              		.loc 1 223 0
ARM GAS  D:\Windows\AppData\Local\Temp\ccP1kfgz.s 			page 48


 1693 0124 1223     		movs	r3, #18
 1694 0126 06E0     		b	.L139
 1695              	.L163:
 225:led_manager.c **** 	else if(tach_pct > 90 && tach_pct <= 95)
 1696              		.loc 1 225 0
 1697 0128 1323     		movs	r3, #19
 1698 012a 04E0     		b	.L139
 1699              	.L164:
 227:led_manager.c **** 	else if(tach_pct > 95 && tach_pct <= 99)
 1700              		.loc 1 227 0
 1701 012c 1423     		movs	r3, #20
 1702 012e 02E0     		b	.L139
 1703              	.LVL149:
 1704              	.L165:
 229:led_manager.c ****     else { //(tach_pct = 100)
 1705              		.loc 1 229 0
 1706 0130 1523     		movs	r3, #21
 1707 0132 00E0     		b	.L139
 1708              	.L166:
 175:led_manager.c ****     
 1709              		.loc 1 175 0
 1710 0134 0023     		movs	r3, #0
 1711              	.LVL150:
 1712              	.L139:
 238:led_manager.c ****     	int i;
 1713              		.loc 1 238 0
 1714 0136 2F4A     		ldr	r2, .L169+4
 1715 0138 D268     		ldr	r2, [r2, #12]
 1716 013a 3AB1     		cbz	r2, .L167
 1717 013c 38BD     		pop	{r3, r4, r5, pc}
 1718              	.LVL151:
 1719              	.L142:
 1720              	.LBB2:
 241:led_manager.c ****     	for(i=steps; i<TACH_MAX_STEPS+2; i++)	//+2 to get d1 and d22
 1721              		.loc 1 241 0 discriminator 3
 1722 013e 2D49     		ldr	r1, .L169+4
 1723 0140 01EB8201 		add	r1, r1, r2, lsl #2
 1724 0144 0120     		movs	r0, #1
 1725 0146 0861     		str	r0, [r1, #16]
 240:led_manager.c ****     		tach_arr[i] = 1;	//on leds
 1726              		.loc 1 240 0 discriminator 3
 1727 0148 0244     		add	r2, r2, r0
 1728              	.LVL152:
 1729 014a 00E0     		b	.L140
 1730              	.LVL153:
 1731              	.L167:
 1732              	.LBE2:
 1733 014c 0022     		movs	r2, #0
 1734              	.L140:
 1735              	.LVL154:
 1736              	.LBB3:
 240:led_manager.c ****     		tach_arr[i] = 1;	//on leds
 1737              		.loc 1 240 0 is_stmt 0 discriminator 1
 1738 014e 9A42     		cmp	r2, r3
 1739 0150 F5DB     		blt	.L142
 1740 0152 05E0     		b	.L143
 1741              	.LVL155:
ARM GAS  D:\Windows\AppData\Local\Temp\ccP1kfgz.s 			page 49


 1742              	.L144:
 243:led_manager.c ****     	
 1743              		.loc 1 243 0 is_stmt 1 discriminator 3
 1744 0154 274A     		ldr	r2, .L169+4
 1745 0156 02EB8302 		add	r2, r2, r3, lsl #2
 1746 015a 0021     		movs	r1, #0
 1747 015c 1161     		str	r1, [r2, #16]
 242:led_manager.c ****     		tach_arr[i] = 0;	//off leds
 1748              		.loc 1 242 0 discriminator 3
 1749 015e 0133     		adds	r3, r3, #1
 1750              	.LVL156:
 1751              	.L143:
 242:led_manager.c ****     		tach_arr[i] = 0;	//off leds
 1752              		.loc 1 242 0 is_stmt 0 discriminator 1
 1753 0160 152B     		cmp	r3, #21
 1754 0162 F7DD     		ble	.L144
 245:led_manager.c ****     	d2_write(tach_arr[1]);
 1755              		.loc 1 245 0 is_stmt 1
 1756 0164 234C     		ldr	r4, .L169+4
 1757 0166 2069     		ldr	r0, [r4, #16]
 1758 0168 FFF7FEFF 		bl	d1_write
 1759              	.LVL157:
 246:led_manager.c ****     	d3_write(tach_arr[2]);
 1760              		.loc 1 246 0
 1761 016c 6069     		ldr	r0, [r4, #20]
 1762 016e FFF7FEFF 		bl	d2_write
 1763              	.LVL158:
 247:led_manager.c ****     	d4_write(tach_arr[3]);
 1764              		.loc 1 247 0
 1765 0172 A069     		ldr	r0, [r4, #24]
 1766 0174 FFF7FEFF 		bl	d3_write
 1767              	.LVL159:
 248:led_manager.c ****     	d5_write(tach_arr[4]);
 1768              		.loc 1 248 0
 1769 0178 E069     		ldr	r0, [r4, #28]
 1770 017a FFF7FEFF 		bl	d4_write
 1771              	.LVL160:
 249:led_manager.c ****     	d6_write(tach_arr[5]);
 1772              		.loc 1 249 0
 1773 017e 206A     		ldr	r0, [r4, #32]
 1774 0180 FFF7FEFF 		bl	d5_write
 1775              	.LVL161:
 250:led_manager.c ****     	d7_write(tach_arr[6]);
 1776              		.loc 1 250 0
 1777 0184 606A     		ldr	r0, [r4, #36]
 1778 0186 FFF7FEFF 		bl	d6_write
 1779              	.LVL162:
 251:led_manager.c ****     	d8_write(tach_arr[7]);
 1780              		.loc 1 251 0
 1781 018a A06A     		ldr	r0, [r4, #40]
 1782 018c FFF7FEFF 		bl	d7_write
 1783              	.LVL163:
 252:led_manager.c ****     	d9_write(tach_arr[8]);
 1784              		.loc 1 252 0
 1785 0190 E06A     		ldr	r0, [r4, #44]
 1786 0192 FFF7FEFF 		bl	d8_write
 1787              	.LVL164:
ARM GAS  D:\Windows\AppData\Local\Temp\ccP1kfgz.s 			page 50


 253:led_manager.c ****     	d10_write(tach_arr[9]);
 1788              		.loc 1 253 0
 1789 0196 206B     		ldr	r0, [r4, #48]
 1790 0198 FFF7FEFF 		bl	d9_write
 1791              	.LVL165:
 254:led_manager.c ****     	d11_write(tach_arr[10]);
 1792              		.loc 1 254 0
 1793 019c 606B     		ldr	r0, [r4, #52]
 1794 019e FFF7FEFF 		bl	d10_write
 1795              	.LVL166:
 255:led_manager.c ****     	d12_write(tach_arr[11]);
 1796              		.loc 1 255 0
 1797 01a2 A06B     		ldr	r0, [r4, #56]
 1798 01a4 FFF7FEFF 		bl	d11_write
 1799              	.LVL167:
 256:led_manager.c ****     	d13_write(tach_arr[12]);
 1800              		.loc 1 256 0
 1801 01a8 E06B     		ldr	r0, [r4, #60]
 1802 01aa FFF7FEFF 		bl	d12_write
 1803              	.LVL168:
 257:led_manager.c ****     	d14_write(tach_arr[13]);
 1804              		.loc 1 257 0
 1805 01ae 206C     		ldr	r0, [r4, #64]
 1806 01b0 FFF7FEFF 		bl	d13_write
 1807              	.LVL169:
 258:led_manager.c ****     	d15_write(tach_arr[14]);
 1808              		.loc 1 258 0
 1809 01b4 606C     		ldr	r0, [r4, #68]
 1810 01b6 FFF7FEFF 		bl	d14_write
 1811              	.LVL170:
 259:led_manager.c ****     	d16_write(tach_arr[15]);
 1812              		.loc 1 259 0
 1813 01ba A06C     		ldr	r0, [r4, #72]
 1814 01bc FFF7FEFF 		bl	d15_write
 1815              	.LVL171:
 260:led_manager.c ****     	d17_write(tach_arr[16]);
 1816              		.loc 1 260 0
 1817 01c0 E06C     		ldr	r0, [r4, #76]
 1818 01c2 FFF7FEFF 		bl	d16_write
 1819              	.LVL172:
 261:led_manager.c ****     	d18_write(tach_arr[17]);
 1820              		.loc 1 261 0
 1821 01c6 206D     		ldr	r0, [r4, #80]
 1822 01c8 FFF7FEFF 		bl	d17_write
 1823              	.LVL173:
 262:led_manager.c ****     	d19_write(tach_arr[18]);
 1824              		.loc 1 262 0
 1825 01cc 606D     		ldr	r0, [r4, #84]
 1826 01ce FFF7FEFF 		bl	d18_write
 1827              	.LVL174:
 263:led_manager.c ****     	d20_write(tach_arr[19]);
 1828              		.loc 1 263 0
 1829 01d2 A06D     		ldr	r0, [r4, #88]
 1830 01d4 FFF7FEFF 		bl	d19_write
 1831              	.LVL175:
 264:led_manager.c ****     	d21_write(tach_arr[20]);
 1832              		.loc 1 264 0
ARM GAS  D:\Windows\AppData\Local\Temp\ccP1kfgz.s 			page 51


 1833 01d8 E06D     		ldr	r0, [r4, #92]
 1834 01da FFF7FEFF 		bl	d20_write
 1835              	.LVL176:
 265:led_manager.c ****     	d22_write(tach_arr[21]);
 1836              		.loc 1 265 0
 1837 01de 206E     		ldr	r0, [r4, #96]
 1838 01e0 FFF7FEFF 		bl	d21_write
 1839              	.LVL177:
 266:led_manager.c ****         led_update_tach();
 1840              		.loc 1 266 0
 1841 01e4 606E     		ldr	r0, [r4, #100]
 1842 01e6 FFF7FEFF 		bl	d22_write
 1843              	.LVL178:
 267:led_manager.c ****     } //if
 1844              		.loc 1 267 0
 1845 01ea FFF7FEFF 		bl	led_update_tach
 1846              	.LVL179:
 1847 01ee 38BD     		pop	{r3, r4, r5, pc}
 1848              	.L170:
 1849              		.align	2
 1850              	.L169:
 1851 01f0 F1197605 		.word	91625969
 1852 01f4 00000000 		.word	.LANCHOR0
 1853 01f8 00000000 		.word	tach_crit_isr
 1854              	.LBE3:
 1855              		.cfi_endproc
 1856              	.LFE69:
 1857              		.size	led_write_tach, .-led_write_tach
 1858              		.section	.text.write_startup_tach,"ax",%progbits
 1859              		.align	2
 1860              		.global	write_startup_tach
 1861              		.thumb
 1862              		.thumb_func
 1863              		.type	write_startup_tach, %function
 1864              	write_startup_tach:
 1865              	.LFB78:
 501:led_manager.c ****     //rev to max and back
 1866              		.loc 1 501 0
 1867              		.cfi_startproc
 1868              		@ args = 0, pretend = 0, frame = 0
 1869              		@ frame_needed = 0, uses_anonymous_args = 0
 1870 0000 08B5     		push	{r3, lr}
 1871              		.cfi_def_cfa_offset 8
 1872              		.cfi_offset 3, -8
 1873              		.cfi_offset 14, -4
 503:led_manager.c ****     led_write_tach(300);    CyDelay(TACH_STEP_DELAY);
 1874              		.loc 1 503 0
 1875 0002 0020     		movs	r0, #0
 1876 0004 FFF7FEFF 		bl	led_write_tach
 1877              	.LVL180:
 1878 0008 3220     		movs	r0, #50
 1879 000a FFF7FEFF 		bl	CyDelay
 1880              	.LVL181:
 504:led_manager.c ****     led_write_tach(600);    CyDelay(TACH_STEP_DELAY);
 1881              		.loc 1 504 0
 1882 000e 4FF49670 		mov	r0, #300
 1883 0012 FFF7FEFF 		bl	led_write_tach
ARM GAS  D:\Windows\AppData\Local\Temp\ccP1kfgz.s 			page 52


 1884              	.LVL182:
 1885 0016 3220     		movs	r0, #50
 1886 0018 FFF7FEFF 		bl	CyDelay
 1887              	.LVL183:
 505:led_manager.c ****     led_write_tach(900);    CyDelay(TACH_STEP_DELAY);
 1888              		.loc 1 505 0
 1889 001c 4FF41670 		mov	r0, #600
 1890 0020 FFF7FEFF 		bl	led_write_tach
 1891              	.LVL184:
 1892 0024 3220     		movs	r0, #50
 1893 0026 FFF7FEFF 		bl	CyDelay
 1894              	.LVL185:
 506:led_manager.c ****     led_write_tach(1200);   CyDelay(TACH_STEP_DELAY);
 1895              		.loc 1 506 0
 1896 002a 4FF46170 		mov	r0, #900
 1897 002e FFF7FEFF 		bl	led_write_tach
 1898              	.LVL186:
 1899 0032 3220     		movs	r0, #50
 1900 0034 FFF7FEFF 		bl	CyDelay
 1901              	.LVL187:
 507:led_manager.c ****     led_write_tach(1500);   CyDelay(TACH_STEP_DELAY);
 1902              		.loc 1 507 0
 1903 0038 4FF49660 		mov	r0, #1200
 1904 003c FFF7FEFF 		bl	led_write_tach
 1905              	.LVL188:
 1906 0040 3220     		movs	r0, #50
 1907 0042 FFF7FEFF 		bl	CyDelay
 1908              	.LVL189:
 508:led_manager.c ****     led_write_tach(1800);   CyDelay(TACH_STEP_DELAY);
 1909              		.loc 1 508 0
 1910 0046 40F2DC50 		movw	r0, #1500
 1911 004a FFF7FEFF 		bl	led_write_tach
 1912              	.LVL190:
 1913 004e 3220     		movs	r0, #50
 1914 0050 FFF7FEFF 		bl	CyDelay
 1915              	.LVL191:
 509:led_manager.c ****     led_write_tach(2100);   CyDelay(TACH_STEP_DELAY);
 1916              		.loc 1 509 0
 1917 0054 4FF4E160 		mov	r0, #1800
 1918 0058 FFF7FEFF 		bl	led_write_tach
 1919              	.LVL192:
 1920 005c 3220     		movs	r0, #50
 1921 005e FFF7FEFF 		bl	CyDelay
 1922              	.LVL193:
 510:led_manager.c ****     led_write_tach(2400);   CyDelay(TACH_STEP_DELAY);
 1923              		.loc 1 510 0
 1924 0062 40F63400 		movw	r0, #2100
 1925 0066 FFF7FEFF 		bl	led_write_tach
 1926              	.LVL194:
 1927 006a 3220     		movs	r0, #50
 1928 006c FFF7FEFF 		bl	CyDelay
 1929              	.LVL195:
 511:led_manager.c ****     led_write_tach(2700);   CyDelay(TACH_STEP_DELAY);
 1930              		.loc 1 511 0
 1931 0070 4FF41660 		mov	r0, #2400
 1932 0074 FFF7FEFF 		bl	led_write_tach
 1933              	.LVL196:
ARM GAS  D:\Windows\AppData\Local\Temp\ccP1kfgz.s 			page 53


 1934 0078 3220     		movs	r0, #50
 1935 007a FFF7FEFF 		bl	CyDelay
 1936              	.LVL197:
 512:led_manager.c ****     led_write_tach(3000);   CyDelay(TACH_STEP_DELAY);
 1937              		.loc 1 512 0
 1938 007e 40F68C20 		movw	r0, #2700
 1939 0082 FFF7FEFF 		bl	led_write_tach
 1940              	.LVL198:
 1941 0086 3220     		movs	r0, #50
 1942 0088 FFF7FEFF 		bl	CyDelay
 1943              	.LVL199:
 513:led_manager.c ****     led_write_tach(3300);   CyDelay(TACH_STEP_DELAY);
 1944              		.loc 1 513 0
 1945 008c 40F6B830 		movw	r0, #3000
 1946 0090 FFF7FEFF 		bl	led_write_tach
 1947              	.LVL200:
 1948 0094 3220     		movs	r0, #50
 1949 0096 FFF7FEFF 		bl	CyDelay
 1950              	.LVL201:
 514:led_manager.c ****     led_write_tach(3600);   CyDelay(TACH_STEP_DELAY);
 1951              		.loc 1 514 0
 1952 009a 40F6E440 		movw	r0, #3300
 1953 009e FFF7FEFF 		bl	led_write_tach
 1954              	.LVL202:
 1955 00a2 3220     		movs	r0, #50
 1956 00a4 FFF7FEFF 		bl	CyDelay
 1957              	.LVL203:
 515:led_manager.c ****     led_write_tach(3900);   CyDelay(TACH_STEP_DELAY);
 1958              		.loc 1 515 0
 1959 00a8 4FF46160 		mov	r0, #3600
 1960 00ac FFF7FEFF 		bl	led_write_tach
 1961              	.LVL204:
 1962 00b0 3220     		movs	r0, #50
 1963 00b2 FFF7FEFF 		bl	CyDelay
 1964              	.LVL205:
 516:led_manager.c ****     led_write_tach(4200);   CyDelay(TACH_STEP_DELAY);
 1965              		.loc 1 516 0
 1966 00b6 40F63C70 		movw	r0, #3900
 1967 00ba FFF7FEFF 		bl	led_write_tach
 1968              	.LVL206:
 1969 00be 3220     		movs	r0, #50
 1970 00c0 FFF7FEFF 		bl	CyDelay
 1971              	.LVL207:
 517:led_manager.c ****     led_write_tach(4500);   CyDelay(TACH_STEP_DELAY);
 1972              		.loc 1 517 0
 1973 00c4 41F26800 		movw	r0, #4200
 1974 00c8 FFF7FEFF 		bl	led_write_tach
 1975              	.LVL208:
 1976 00cc 3220     		movs	r0, #50
 1977 00ce FFF7FEFF 		bl	CyDelay
 1978              	.LVL209:
 518:led_manager.c ****     led_write_tach(4800);   CyDelay(TACH_STEP_DELAY);
 1979              		.loc 1 518 0
 1980 00d2 41F29410 		movw	r0, #4500
 1981 00d6 FFF7FEFF 		bl	led_write_tach
 1982              	.LVL210:
 1983 00da 3220     		movs	r0, #50
ARM GAS  D:\Windows\AppData\Local\Temp\ccP1kfgz.s 			page 54


 1984 00dc FFF7FEFF 		bl	CyDelay
 1985              	.LVL211:
 519:led_manager.c ****     led_write_tach(5100);   CyDelay(TACH_STEP_DELAY);
 1986              		.loc 1 519 0
 1987 00e0 4FF49650 		mov	r0, #4800
 1988 00e4 FFF7FEFF 		bl	led_write_tach
 1989              	.LVL212:
 1990 00e8 3220     		movs	r0, #50
 1991 00ea FFF7FEFF 		bl	CyDelay
 1992              	.LVL213:
 520:led_manager.c ****     led_write_tach(5400);   CyDelay(TACH_STEP_DELAY);
 1993              		.loc 1 520 0
 1994 00ee 41F2EC30 		movw	r0, #5100
 1995 00f2 FFF7FEFF 		bl	led_write_tach
 1996              	.LVL214:
 1997 00f6 3220     		movs	r0, #50
 1998 00f8 FFF7FEFF 		bl	CyDelay
 1999              	.LVL215:
 521:led_manager.c ****     led_write_tach(5700);   CyDelay(TACH_STEP_DELAY);
 2000              		.loc 1 521 0
 2001 00fc 41F21850 		movw	r0, #5400
 2002 0100 FFF7FEFF 		bl	led_write_tach
 2003              	.LVL216:
 2004 0104 3220     		movs	r0, #50
 2005 0106 FFF7FEFF 		bl	CyDelay
 2006              	.LVL217:
 522:led_manager.c ****     led_write_tach(6000);   CyDelay(TACH_STEP_DELAY);
 2007              		.loc 1 522 0
 2008 010a 41F24460 		movw	r0, #5700
 2009 010e FFF7FEFF 		bl	led_write_tach
 2010              	.LVL218:
 2011 0112 3220     		movs	r0, #50
 2012 0114 FFF7FEFF 		bl	CyDelay
 2013              	.LVL219:
 523:led_manager.c ****     led_write_tach(5700);   CyDelay(TACH_STEP_DELAY);
 2014              		.loc 1 523 0
 2015 0118 41F27070 		movw	r0, #6000
 2016 011c FFF7FEFF 		bl	led_write_tach
 2017              	.LVL220:
 2018 0120 3220     		movs	r0, #50
 2019 0122 FFF7FEFF 		bl	CyDelay
 2020              	.LVL221:
 524:led_manager.c ****     led_write_tach(5400);   CyDelay(TACH_STEP_DELAY);
 2021              		.loc 1 524 0
 2022 0126 41F24460 		movw	r0, #5700
 2023 012a FFF7FEFF 		bl	led_write_tach
 2024              	.LVL222:
 2025 012e 3220     		movs	r0, #50
 2026 0130 FFF7FEFF 		bl	CyDelay
 2027              	.LVL223:
 525:led_manager.c ****     led_write_tach(5100);   CyDelay(TACH_STEP_DELAY);
 2028              		.loc 1 525 0
 2029 0134 41F21850 		movw	r0, #5400
 2030 0138 FFF7FEFF 		bl	led_write_tach
 2031              	.LVL224:
 2032 013c 3220     		movs	r0, #50
 2033 013e FFF7FEFF 		bl	CyDelay
ARM GAS  D:\Windows\AppData\Local\Temp\ccP1kfgz.s 			page 55


 2034              	.LVL225:
 526:led_manager.c ****     led_write_tach(4800);   CyDelay(TACH_STEP_DELAY);
 2035              		.loc 1 526 0
 2036 0142 41F2EC30 		movw	r0, #5100
 2037 0146 FFF7FEFF 		bl	led_write_tach
 2038              	.LVL226:
 2039 014a 3220     		movs	r0, #50
 2040 014c FFF7FEFF 		bl	CyDelay
 2041              	.LVL227:
 527:led_manager.c ****     led_write_tach(4500);   CyDelay(TACH_STEP_DELAY);
 2042              		.loc 1 527 0
 2043 0150 4FF49650 		mov	r0, #4800
 2044 0154 FFF7FEFF 		bl	led_write_tach
 2045              	.LVL228:
 2046 0158 3220     		movs	r0, #50
 2047 015a FFF7FEFF 		bl	CyDelay
 2048              	.LVL229:
 528:led_manager.c ****     led_write_tach(4200);   CyDelay(TACH_STEP_DELAY);
 2049              		.loc 1 528 0
 2050 015e 41F29410 		movw	r0, #4500
 2051 0162 FFF7FEFF 		bl	led_write_tach
 2052              	.LVL230:
 2053 0166 3220     		movs	r0, #50
 2054 0168 FFF7FEFF 		bl	CyDelay
 2055              	.LVL231:
 529:led_manager.c ****     led_write_tach(3900);   CyDelay(TACH_STEP_DELAY);
 2056              		.loc 1 529 0
 2057 016c 41F26800 		movw	r0, #4200
 2058 0170 FFF7FEFF 		bl	led_write_tach
 2059              	.LVL232:
 2060 0174 3220     		movs	r0, #50
 2061 0176 FFF7FEFF 		bl	CyDelay
 2062              	.LVL233:
 530:led_manager.c ****     led_write_tach(3600);   CyDelay(TACH_STEP_DELAY);
 2063              		.loc 1 530 0
 2064 017a 40F63C70 		movw	r0, #3900
 2065 017e FFF7FEFF 		bl	led_write_tach
 2066              	.LVL234:
 2067 0182 3220     		movs	r0, #50
 2068 0184 FFF7FEFF 		bl	CyDelay
 2069              	.LVL235:
 531:led_manager.c ****     led_write_tach(3300);   CyDelay(TACH_STEP_DELAY);
 2070              		.loc 1 531 0
 2071 0188 4FF46160 		mov	r0, #3600
 2072 018c FFF7FEFF 		bl	led_write_tach
 2073              	.LVL236:
 2074 0190 3220     		movs	r0, #50
 2075 0192 FFF7FEFF 		bl	CyDelay
 2076              	.LVL237:
 532:led_manager.c ****     led_write_tach(3000);   CyDelay(TACH_STEP_DELAY);
 2077              		.loc 1 532 0
 2078 0196 40F6E440 		movw	r0, #3300
 2079 019a FFF7FEFF 		bl	led_write_tach
 2080              	.LVL238:
 2081 019e 3220     		movs	r0, #50
 2082 01a0 FFF7FEFF 		bl	CyDelay
 2083              	.LVL239:
ARM GAS  D:\Windows\AppData\Local\Temp\ccP1kfgz.s 			page 56


 533:led_manager.c ****     led_write_tach(2700);   CyDelay(TACH_STEP_DELAY);
 2084              		.loc 1 533 0
 2085 01a4 40F6B830 		movw	r0, #3000
 2086 01a8 FFF7FEFF 		bl	led_write_tach
 2087              	.LVL240:
 2088 01ac 3220     		movs	r0, #50
 2089 01ae FFF7FEFF 		bl	CyDelay
 2090              	.LVL241:
 534:led_manager.c ****     led_write_tach(2400);   CyDelay(TACH_STEP_DELAY);
 2091              		.loc 1 534 0
 2092 01b2 40F68C20 		movw	r0, #2700
 2093 01b6 FFF7FEFF 		bl	led_write_tach
 2094              	.LVL242:
 2095 01ba 3220     		movs	r0, #50
 2096 01bc FFF7FEFF 		bl	CyDelay
 2097              	.LVL243:
 535:led_manager.c ****     led_write_tach(2100);   CyDelay(TACH_STEP_DELAY);
 2098              		.loc 1 535 0
 2099 01c0 4FF41660 		mov	r0, #2400
 2100 01c4 FFF7FEFF 		bl	led_write_tach
 2101              	.LVL244:
 2102 01c8 3220     		movs	r0, #50
 2103 01ca FFF7FEFF 		bl	CyDelay
 2104              	.LVL245:
 536:led_manager.c ****     led_write_tach(1800);   CyDelay(TACH_STEP_DELAY);
 2105              		.loc 1 536 0
 2106 01ce 40F63400 		movw	r0, #2100
 2107 01d2 FFF7FEFF 		bl	led_write_tach
 2108              	.LVL246:
 2109 01d6 3220     		movs	r0, #50
 2110 01d8 FFF7FEFF 		bl	CyDelay
 2111              	.LVL247:
 537:led_manager.c ****     led_write_tach(1500);   CyDelay(TACH_STEP_DELAY);
 2112              		.loc 1 537 0
 2113 01dc 4FF4E160 		mov	r0, #1800
 2114 01e0 FFF7FEFF 		bl	led_write_tach
 2115              	.LVL248:
 2116 01e4 3220     		movs	r0, #50
 2117 01e6 FFF7FEFF 		bl	CyDelay
 2118              	.LVL249:
 538:led_manager.c ****     led_write_tach(1200);   CyDelay(TACH_STEP_DELAY);
 2119              		.loc 1 538 0
 2120 01ea 40F2DC50 		movw	r0, #1500
 2121 01ee FFF7FEFF 		bl	led_write_tach
 2122              	.LVL250:
 2123 01f2 3220     		movs	r0, #50
 2124 01f4 FFF7FEFF 		bl	CyDelay
 2125              	.LVL251:
 539:led_manager.c ****     led_write_tach(900);    CyDelay(TACH_STEP_DELAY);
 2126              		.loc 1 539 0
 2127 01f8 4FF49660 		mov	r0, #1200
 2128 01fc FFF7FEFF 		bl	led_write_tach
 2129              	.LVL252:
 2130 0200 3220     		movs	r0, #50
 2131 0202 FFF7FEFF 		bl	CyDelay
 2132              	.LVL253:
 540:led_manager.c ****     led_write_tach(600);    CyDelay(TACH_STEP_DELAY);
ARM GAS  D:\Windows\AppData\Local\Temp\ccP1kfgz.s 			page 57


 2133              		.loc 1 540 0
 2134 0206 4FF46170 		mov	r0, #900
 2135 020a FFF7FEFF 		bl	led_write_tach
 2136              	.LVL254:
 2137 020e 3220     		movs	r0, #50
 2138 0210 FFF7FEFF 		bl	CyDelay
 2139              	.LVL255:
 541:led_manager.c ****     led_write_tach(300);    CyDelay(TACH_STEP_DELAY);
 2140              		.loc 1 541 0
 2141 0214 4FF41670 		mov	r0, #600
 2142 0218 FFF7FEFF 		bl	led_write_tach
 2143              	.LVL256:
 2144 021c 3220     		movs	r0, #50
 2145 021e FFF7FEFF 		bl	CyDelay
 2146              	.LVL257:
 542:led_manager.c ****     led_write_tach(0);      CyDelay(TACH_STEP_DELAY);
 2147              		.loc 1 542 0
 2148 0222 4FF49670 		mov	r0, #300
 2149 0226 FFF7FEFF 		bl	led_write_tach
 2150              	.LVL258:
 2151 022a 3220     		movs	r0, #50
 2152 022c FFF7FEFF 		bl	CyDelay
 2153              	.LVL259:
 543:led_manager.c **** }
 2154              		.loc 1 543 0
 2155 0230 0020     		movs	r0, #0
 2156 0232 FFF7FEFF 		bl	led_write_tach
 2157              	.LVL260:
 2158 0236 3220     		movs	r0, #50
 2159 0238 FFF7FEFF 		bl	CyDelay
 2160              	.LVL261:
 2161 023c 08BD     		pop	{r3, pc}
 2162              		.cfi_endproc
 2163              	.LFE78:
 2164              		.size	write_startup_tach, .-write_startup_tach
 2165 023e 00BF     		.section	.text.led_writetest,"ax",%progbits
 2166              		.align	2
 2167              		.global	led_writetest
 2168              		.thumb
 2169              		.thumb_func
 2170              		.type	led_writetest, %function
 2171              	led_writetest:
 2172              	.LFB82:
 669:led_manager.c **** 	d1_write(arr[0]);
 2173              		.loc 1 669 0
 2174              		.cfi_startproc
 2175              		@ args = 0, pretend = 0, frame = 0
 2176              		@ frame_needed = 0, uses_anonymous_args = 0
 2177              	.LVL262:
 2178 0000 38B5     		push	{r3, r4, r5, lr}
 2179              		.cfi_def_cfa_offset 16
 2180              		.cfi_offset 3, -16
 2181              		.cfi_offset 4, -12
 2182              		.cfi_offset 5, -8
 2183              		.cfi_offset 14, -4
 2184 0002 0546     		mov	r5, r0
 2185 0004 0C46     		mov	r4, r1
ARM GAS  D:\Windows\AppData\Local\Temp\ccP1kfgz.s 			page 58


 670:led_manager.c **** 	d2_write(arr[1]);
 2186              		.loc 1 670 0
 2187 0006 0868     		ldr	r0, [r1]
 2188              	.LVL263:
 2189 0008 FFF7FEFF 		bl	d1_write
 2190              	.LVL264:
 671:led_manager.c **** 	d3_write(arr[2]);
 2191              		.loc 1 671 0
 2192 000c 6068     		ldr	r0, [r4, #4]
 2193 000e FFF7FEFF 		bl	d2_write
 2194              	.LVL265:
 672:led_manager.c **** 	d4_write(arr[3]);
 2195              		.loc 1 672 0
 2196 0012 A068     		ldr	r0, [r4, #8]
 2197 0014 FFF7FEFF 		bl	d3_write
 2198              	.LVL266:
 673:led_manager.c **** 	d5_write(arr[4]);
 2199              		.loc 1 673 0
 2200 0018 E068     		ldr	r0, [r4, #12]
 2201 001a FFF7FEFF 		bl	d4_write
 2202              	.LVL267:
 674:led_manager.c **** 	d6_write(arr[5]);
 2203              		.loc 1 674 0
 2204 001e 2069     		ldr	r0, [r4, #16]
 2205 0020 FFF7FEFF 		bl	d5_write
 2206              	.LVL268:
 675:led_manager.c **** 	d7_write(arr[6]);
 2207              		.loc 1 675 0
 2208 0024 6069     		ldr	r0, [r4, #20]
 2209 0026 FFF7FEFF 		bl	d6_write
 2210              	.LVL269:
 676:led_manager.c **** 	d8_write(arr[7]);
 2211              		.loc 1 676 0
 2212 002a A069     		ldr	r0, [r4, #24]
 2213 002c FFF7FEFF 		bl	d7_write
 2214              	.LVL270:
 677:led_manager.c **** 	d9_write(arr[8]);
 2215              		.loc 1 677 0
 2216 0030 E069     		ldr	r0, [r4, #28]
 2217 0032 FFF7FEFF 		bl	d8_write
 2218              	.LVL271:
 678:led_manager.c **** 	d10_write(arr[9]);
 2219              		.loc 1 678 0
 2220 0036 206A     		ldr	r0, [r4, #32]
 2221 0038 FFF7FEFF 		bl	d9_write
 2222              	.LVL272:
 679:led_manager.c **** 	d11_write(arr[10]);
 2223              		.loc 1 679 0
 2224 003c 606A     		ldr	r0, [r4, #36]
 2225 003e FFF7FEFF 		bl	d10_write
 2226              	.LVL273:
 680:led_manager.c **** 	d12_write(arr[11]);
 2227              		.loc 1 680 0
 2228 0042 A06A     		ldr	r0, [r4, #40]
 2229 0044 FFF7FEFF 		bl	d11_write
 2230              	.LVL274:
 681:led_manager.c **** 	d13_write(arr[12]);
ARM GAS  D:\Windows\AppData\Local\Temp\ccP1kfgz.s 			page 59


 2231              		.loc 1 681 0
 2232 0048 E06A     		ldr	r0, [r4, #44]
 2233 004a FFF7FEFF 		bl	d12_write
 2234              	.LVL275:
 682:led_manager.c **** 	d14_write(arr[13]);
 2235              		.loc 1 682 0
 2236 004e 206B     		ldr	r0, [r4, #48]
 2237 0050 FFF7FEFF 		bl	d13_write
 2238              	.LVL276:
 683:led_manager.c **** 	d15_write(arr[14]);
 2239              		.loc 1 683 0
 2240 0054 606B     		ldr	r0, [r4, #52]
 2241 0056 FFF7FEFF 		bl	d14_write
 2242              	.LVL277:
 684:led_manager.c **** 	d16_write(arr[15]);
 2243              		.loc 1 684 0
 2244 005a A06B     		ldr	r0, [r4, #56]
 2245 005c FFF7FEFF 		bl	d15_write
 2246              	.LVL278:
 685:led_manager.c **** 	d17_write(arr[16]);
 2247              		.loc 1 685 0
 2248 0060 E06B     		ldr	r0, [r4, #60]
 2249 0062 FFF7FEFF 		bl	d16_write
 2250              	.LVL279:
 686:led_manager.c **** 	d18_write(arr[17]);
 2251              		.loc 1 686 0
 2252 0066 206C     		ldr	r0, [r4, #64]
 2253 0068 FFF7FEFF 		bl	d17_write
 2254              	.LVL280:
 687:led_manager.c **** 	d19_write(arr[18]);
 2255              		.loc 1 687 0
 2256 006c 606C     		ldr	r0, [r4, #68]
 2257 006e FFF7FEFF 		bl	d18_write
 2258              	.LVL281:
 688:led_manager.c **** 	d20_write(arr[19]);
 2259              		.loc 1 688 0
 2260 0072 A06C     		ldr	r0, [r4, #72]
 2261 0074 FFF7FEFF 		bl	d19_write
 2262              	.LVL282:
 689:led_manager.c **** 	d21_write(arr[20]);
 2263              		.loc 1 689 0
 2264 0078 E06C     		ldr	r0, [r4, #76]
 2265 007a FFF7FEFF 		bl	d20_write
 2266              	.LVL283:
 690:led_manager.c **** 	d22_write(arr[21]);
 2267              		.loc 1 690 0
 2268 007e 206D     		ldr	r0, [r4, #80]
 2269 0080 FFF7FEFF 		bl	d21_write
 2270              	.LVL284:
 691:led_manager.c **** 	
 2271              		.loc 1 691 0
 2272 0084 606D     		ldr	r0, [r4, #84]
 2273 0086 FFF7FEFF 		bl	d22_write
 2274              	.LVL285:
 693:led_manager.c **** 	arr[(i+5) % 22] = 1;
 2275              		.loc 1 693 0
 2276 008a 0023     		movs	r3, #0
ARM GAS  D:\Windows\AppData\Local\Temp\ccP1kfgz.s 			page 60


 2277 008c 44F82530 		str	r3, [r4, r5, lsl #2]
 694:led_manager.c **** 	i++;
 2278              		.loc 1 694 0
 2279 0090 6A1D     		adds	r2, r5, #5
 2280 0092 084B     		ldr	r3, .L177
 2281 0094 83FB0231 		smull	r3, r1, r3, r2
 2282 0098 D317     		asrs	r3, r2, #31
 2283 009a C3EBA103 		rsb	r3, r3, r1, asr #2
 2284 009e 1621     		movs	r1, #22
 2285 00a0 01FB1323 		mls	r3, r1, r3, r2
 2286 00a4 0122     		movs	r2, #1
 2287 00a6 44F82320 		str	r2, [r4, r3, lsl #2]
 695:led_manager.c **** 	if(i > 21)
 2288              		.loc 1 695 0
 2289 00aa A818     		adds	r0, r5, r2
 2290              	.LVL286:
 696:led_manager.c **** 		i=0;
 2291              		.loc 1 696 0
 2292 00ac 1528     		cmp	r0, #21
 2293 00ae 00DD     		ble	.L174
 697:led_manager.c **** 	return i;
 2294              		.loc 1 697 0
 2295 00b0 0020     		movs	r0, #0
 2296              	.LVL287:
 2297              	.L174:
 699:led_manager.c **** 
 2298              		.loc 1 699 0
 2299 00b2 38BD     		pop	{r3, r4, r5, pc}
 2300              	.LVL288:
 2301              	.L178:
 2302              		.align	2
 2303              	.L177:
 2304 00b4 E9A28B2E 		.word	780903145
 2305              		.cfi_endproc
 2306              	.LFE82:
 2307              		.size	led_writetest, .-led_writetest
 2308              		.section	.text.b11_write,"ax",%progbits
 2309              		.align	2
 2310              		.global	b11_write
 2311              		.thumb
 2312              		.thumb_func
 2313              		.type	b11_write, %function
 2314              	b11_write:
 2315              	.LFB105:
 856:led_manager.c **** }
 857:led_manager.c **** 
 858:led_manager.c **** //side bars
 859:led_manager.c **** //left vertical bar
 860:led_manager.c **** void b11_write(int bool) {
 2316              		.loc 1 860 0
 2317              		.cfi_startproc
 2318              		@ args = 0, pretend = 0, frame = 0
 2319              		@ frame_needed = 0, uses_anonymous_args = 0
 2320              		@ link register save eliminated.
 2321              	.LVL289:
 861:led_manager.c **** 	uint8_t bit = 0x01;
 862:led_manager.c **** 	if(bool == 1) 	//led on
ARM GAS  D:\Windows\AppData\Local\Temp\ccP1kfgz.s 			page 61


 2322              		.loc 1 862 0
 2323 0000 0128     		cmp	r0, #1
 2324 0002 05D1     		bne	.L180
 863:led_manager.c **** 		byte05_2 = byte05_2 | bit;
 2325              		.loc 1 863 0
 2326 0004 054A     		ldr	r2, .L182
 2327 0006 1379     		ldrb	r3, [r2, #4]	@ zero_extendqisi2
 2328 0008 43F00103 		orr	r3, r3, #1
 2329 000c 1371     		strb	r3, [r2, #4]
 2330 000e 7047     		bx	lr
 2331              	.L180:
 864:led_manager.c **** 	else			//led off
 865:led_manager.c **** 		byte05_2 = byte05_2 & ~bit;
 2332              		.loc 1 865 0
 2333 0010 024A     		ldr	r2, .L182
 2334 0012 1379     		ldrb	r3, [r2, #4]	@ zero_extendqisi2
 2335 0014 23F00103 		bic	r3, r3, #1
 2336 0018 1371     		strb	r3, [r2, #4]
 2337 001a 7047     		bx	lr
 2338              	.L183:
 2339              		.align	2
 2340              	.L182:
 2341 001c 00000000 		.word	.LANCHOR0
 2342              		.cfi_endproc
 2343              	.LFE105:
 2344              		.size	b11_write, .-b11_write
 2345              		.section	.text.b12_write,"ax",%progbits
 2346              		.align	2
 2347              		.global	b12_write
 2348              		.thumb
 2349              		.thumb_func
 2350              		.type	b12_write, %function
 2351              	b12_write:
 2352              	.LFB106:
 866:led_manager.c **** }
 867:led_manager.c **** void b12_write(int bool) {
 2353              		.loc 1 867 0
 2354              		.cfi_startproc
 2355              		@ args = 0, pretend = 0, frame = 0
 2356              		@ frame_needed = 0, uses_anonymous_args = 0
 2357              		@ link register save eliminated.
 2358              	.LVL290:
 868:led_manager.c **** 	uint8_t bit = 0x10;
 869:led_manager.c **** 	if(bool == 1) 	//led on
 2359              		.loc 1 869 0
 2360 0000 0128     		cmp	r0, #1
 2361 0002 05D1     		bne	.L185
 870:led_manager.c **** 		byte05_2 = byte05_2 | bit;
 2362              		.loc 1 870 0
 2363 0004 054A     		ldr	r2, .L187
 2364 0006 1379     		ldrb	r3, [r2, #4]	@ zero_extendqisi2
 2365 0008 43F01003 		orr	r3, r3, #16
 2366 000c 1371     		strb	r3, [r2, #4]
 2367 000e 7047     		bx	lr
 2368              	.L185:
 871:led_manager.c **** 	else			//led off
 872:led_manager.c **** 		byte05_2 = byte05_2 & ~bit;
ARM GAS  D:\Windows\AppData\Local\Temp\ccP1kfgz.s 			page 62


 2369              		.loc 1 872 0
 2370 0010 024A     		ldr	r2, .L187
 2371 0012 1379     		ldrb	r3, [r2, #4]	@ zero_extendqisi2
 2372 0014 23F01003 		bic	r3, r3, #16
 2373 0018 1371     		strb	r3, [r2, #4]
 2374 001a 7047     		bx	lr
 2375              	.L188:
 2376              		.align	2
 2377              	.L187:
 2378 001c 00000000 		.word	.LANCHOR0
 2379              		.cfi_endproc
 2380              	.LFE106:
 2381              		.size	b12_write, .-b12_write
 2382              		.section	.text.b13_write,"ax",%progbits
 2383              		.align	2
 2384              		.global	b13_write
 2385              		.thumb
 2386              		.thumb_func
 2387              		.type	b13_write, %function
 2388              	b13_write:
 2389              	.LFB107:
 873:led_manager.c **** }
 874:led_manager.c **** void b13_write(int bool) {
 2390              		.loc 1 874 0
 2391              		.cfi_startproc
 2392              		@ args = 0, pretend = 0, frame = 0
 2393              		@ frame_needed = 0, uses_anonymous_args = 0
 2394              		@ link register save eliminated.
 2395              	.LVL291:
 875:led_manager.c **** 	uint8_t bit = 0x01;
 876:led_manager.c **** 	if(bool == 1) 	//led on
 2396              		.loc 1 876 0
 2397 0000 0128     		cmp	r0, #1
 2398 0002 05D1     		bne	.L190
 877:led_manager.c **** 		byte06_2 = byte06_2 | bit;
 2399              		.loc 1 877 0
 2400 0004 054A     		ldr	r2, .L192
 2401 0006 5379     		ldrb	r3, [r2, #5]	@ zero_extendqisi2
 2402 0008 43F00103 		orr	r3, r3, #1
 2403 000c 5371     		strb	r3, [r2, #5]
 2404 000e 7047     		bx	lr
 2405              	.L190:
 878:led_manager.c **** 	else			//led off
 879:led_manager.c **** 		byte06_2 = byte06_2 & ~bit;
 2406              		.loc 1 879 0
 2407 0010 024A     		ldr	r2, .L192
 2408 0012 5379     		ldrb	r3, [r2, #5]	@ zero_extendqisi2
 2409 0014 23F00103 		bic	r3, r3, #1
 2410 0018 5371     		strb	r3, [r2, #5]
 2411 001a 7047     		bx	lr
 2412              	.L193:
 2413              		.align	2
 2414              	.L192:
 2415 001c 00000000 		.word	.LANCHOR0
 2416              		.cfi_endproc
 2417              	.LFE107:
 2418              		.size	b13_write, .-b13_write
ARM GAS  D:\Windows\AppData\Local\Temp\ccP1kfgz.s 			page 63


 2419              		.section	.text.b14_write,"ax",%progbits
 2420              		.align	2
 2421              		.global	b14_write
 2422              		.thumb
 2423              		.thumb_func
 2424              		.type	b14_write, %function
 2425              	b14_write:
 2426              	.LFB108:
 880:led_manager.c **** }
 881:led_manager.c **** void b14_write(int bool) {
 2427              		.loc 1 881 0
 2428              		.cfi_startproc
 2429              		@ args = 0, pretend = 0, frame = 0
 2430              		@ frame_needed = 0, uses_anonymous_args = 0
 2431              		@ link register save eliminated.
 2432              	.LVL292:
 882:led_manager.c **** 	uint8_t bit = 0x10;
 883:led_manager.c **** 	if(bool == 1) 	//led on
 2433              		.loc 1 883 0
 2434 0000 0128     		cmp	r0, #1
 2435 0002 05D1     		bne	.L195
 884:led_manager.c **** 		byte06_2 = byte06_2 | bit;
 2436              		.loc 1 884 0
 2437 0004 054A     		ldr	r2, .L197
 2438 0006 5379     		ldrb	r3, [r2, #5]	@ zero_extendqisi2
 2439 0008 43F01003 		orr	r3, r3, #16
 2440 000c 5371     		strb	r3, [r2, #5]
 2441 000e 7047     		bx	lr
 2442              	.L195:
 885:led_manager.c **** 	else			//led off
 886:led_manager.c **** 		byte06_2 = byte06_2 & ~bit;
 2443              		.loc 1 886 0
 2444 0010 024A     		ldr	r2, .L197
 2445 0012 5379     		ldrb	r3, [r2, #5]	@ zero_extendqisi2
 2446 0014 23F01003 		bic	r3, r3, #16
 2447 0018 5371     		strb	r3, [r2, #5]
 2448 001a 7047     		bx	lr
 2449              	.L198:
 2450              		.align	2
 2451              	.L197:
 2452 001c 00000000 		.word	.LANCHOR0
 2453              		.cfi_endproc
 2454              	.LFE108:
 2455              		.size	b14_write, .-b14_write
 2456              		.section	.text.b15_write,"ax",%progbits
 2457              		.align	2
 2458              		.global	b15_write
 2459              		.thumb
 2460              		.thumb_func
 2461              		.type	b15_write, %function
 2462              	b15_write:
 2463              	.LFB109:
 887:led_manager.c **** }
 888:led_manager.c **** void b15_write(int bool) {
 2464              		.loc 1 888 0
 2465              		.cfi_startproc
 2466              		@ args = 0, pretend = 0, frame = 0
ARM GAS  D:\Windows\AppData\Local\Temp\ccP1kfgz.s 			page 64


 2467              		@ frame_needed = 0, uses_anonymous_args = 0
 2468              		@ link register save eliminated.
 2469              	.LVL293:
 889:led_manager.c **** 	uint8_t bit = 0x01;
 890:led_manager.c **** 	if(bool == 1) 	//led on
 2470              		.loc 1 890 0
 2471 0000 0128     		cmp	r0, #1
 2472 0002 05D1     		bne	.L200
 891:led_manager.c **** 		byte07_2 = byte07_2 | bit;
 2473              		.loc 1 891 0
 2474 0004 054A     		ldr	r2, .L202
 2475 0006 9379     		ldrb	r3, [r2, #6]	@ zero_extendqisi2
 2476 0008 43F00103 		orr	r3, r3, #1
 2477 000c 9371     		strb	r3, [r2, #6]
 2478 000e 7047     		bx	lr
 2479              	.L200:
 892:led_manager.c **** 	else			//led off
 893:led_manager.c **** 		byte07_2 = byte07_2 & ~bit;
 2480              		.loc 1 893 0
 2481 0010 024A     		ldr	r2, .L202
 2482 0012 9379     		ldrb	r3, [r2, #6]	@ zero_extendqisi2
 2483 0014 23F00103 		bic	r3, r3, #1
 2484 0018 9371     		strb	r3, [r2, #6]
 2485 001a 7047     		bx	lr
 2486              	.L203:
 2487              		.align	2
 2488              	.L202:
 2489 001c 00000000 		.word	.LANCHOR0
 2490              		.cfi_endproc
 2491              	.LFE109:
 2492              		.size	b15_write, .-b15_write
 2493              		.section	.text.b1_crit_isr,"ax",%progbits
 2494              		.align	2
 2495              		.global	b1_crit_isr
 2496              		.thumb
 2497              		.thumb_func
 2498              		.type	b1_crit_isr, %function
 2499              	b1_crit_isr:
 2500              	.LFB64:
  78:led_manager.c **** 	b1_crit_led = b1_crit_led == 0 ? 1:0;
 2501              		.loc 1 78 0
 2502              		.cfi_startproc
 2503              		@ args = 0, pretend = 0, frame = 0
 2504              		@ frame_needed = 0, uses_anonymous_args = 0
 2505 0000 10B5     		push	{r4, lr}
 2506              		.cfi_def_cfa_offset 8
 2507              		.cfi_offset 4, -8
 2508              		.cfi_offset 14, -4
  79:led_manager.c **** 	b11_write(b1_crit_led);
 2509              		.loc 1 79 0
 2510 0002 0B4C     		ldr	r4, .L206
 2511 0004 A06E     		ldr	r0, [r4, #104]
 2512 0006 B0FA80F0 		clz	r0, r0
 2513 000a 4009     		lsrs	r0, r0, #5
 2514 000c A066     		str	r0, [r4, #104]
  80:led_manager.c **** 	b12_write(b1_crit_led);
 2515              		.loc 1 80 0
ARM GAS  D:\Windows\AppData\Local\Temp\ccP1kfgz.s 			page 65


 2516 000e FFF7FEFF 		bl	b11_write
 2517              	.LVL294:
  81:led_manager.c **** 	b13_write(b1_crit_led);
 2518              		.loc 1 81 0
 2519 0012 A06E     		ldr	r0, [r4, #104]
 2520 0014 FFF7FEFF 		bl	b12_write
 2521              	.LVL295:
  82:led_manager.c **** 	b14_write(b1_crit_led);
 2522              		.loc 1 82 0
 2523 0018 A06E     		ldr	r0, [r4, #104]
 2524 001a FFF7FEFF 		bl	b13_write
 2525              	.LVL296:
  83:led_manager.c **** 	b15_write(b1_crit_led);
 2526              		.loc 1 83 0
 2527 001e A06E     		ldr	r0, [r4, #104]
 2528 0020 FFF7FEFF 		bl	b14_write
 2529              	.LVL297:
  84:led_manager.c ****     led_update_stat();
 2530              		.loc 1 84 0
 2531 0024 A06E     		ldr	r0, [r4, #104]
 2532 0026 FFF7FEFF 		bl	b15_write
 2533              	.LVL298:
  85:led_manager.c **** 
 2534              		.loc 1 85 0
 2535 002a FFF7FEFF 		bl	led_update_stat
 2536              	.LVL299:
 2537 002e 10BD     		pop	{r4, pc}
 2538              	.L207:
 2539              		.align	2
 2540              	.L206:
 2541 0030 00000000 		.word	.LANCHOR0
 2542              		.cfi_endproc
 2543              	.LFE64:
 2544              		.size	b1_crit_isr, .-b1_crit_isr
 2545              		.section	.text.led_write_b1,"ax",%progbits
 2546              		.align	2
 2547              		.global	led_write_b1
 2548              		.thumb
 2549              		.thumb_func
 2550              		.type	led_write_b1, %function
 2551              	led_write_b1:
 2552              	.LFB70:
 271:led_manager.c ****     if(BMS_TEMP < mtr_temp_map[4]) { //temperature has cooled down, stop blinking
 2553              		.loc 1 271 0
 2554              		.cfi_startproc
 2555              		@ args = 0, pretend = 0, frame = 0
 2556              		@ frame_needed = 0, uses_anonymous_args = 0
 2557              	.LVL300:
 2558 0000 10B5     		push	{r4, lr}
 2559              		.cfi_def_cfa_offset 8
 2560              		.cfi_offset 4, -8
 2561              		.cfi_offset 14, -4
 2562 0002 0446     		mov	r4, r0
 272:led_manager.c ****         if(b1_critical) {
 2563              		.loc 1 272 0
 2564 0004 384B     		ldr	r3, .L228
 2565 0006 1B69     		ldr	r3, [r3, #16]
ARM GAS  D:\Windows\AppData\Local\Temp\ccP1kfgz.s 			page 66


 2566 0008 9842     		cmp	r0, r3
 2567 000a 09DA     		bge	.L209
 273:led_manager.c ****             b1_critical = 0;
 2568              		.loc 1 273 0
 2569 000c 374B     		ldr	r3, .L228+4
 2570 000e DB6E     		ldr	r3, [r3, #108]
 2571 0010 33B1     		cbz	r3, .L209
 274:led_manager.c ****             b1_crit_int_Stop();
 2572              		.loc 1 274 0
 2573 0012 0022     		movs	r2, #0
 2574 0014 354B     		ldr	r3, .L228+4
 2575 0016 DA66     		str	r2, [r3, #108]
 275:led_manager.c ****             b1_critical_timer_Stop();
 2576              		.loc 1 275 0
 2577 0018 FFF7FEFF 		bl	b1_crit_int_Stop
 2578              	.LVL301:
 276:led_manager.c ****         } //if 
 2579              		.loc 1 276 0
 2580 001c FFF7FEFF 		bl	b1_critical_timer_Stop
 2581              	.LVL302:
 2582              	.L209:
 281:led_manager.c **** 		steps = 1;
 2583              		.loc 1 281 0
 2584 0020 314B     		ldr	r3, .L228
 2585 0022 5B69     		ldr	r3, [r3, #20]
 2586 0024 9C42     		cmp	r4, r3
 2587 0026 29DD     		ble	.L220
 283:led_manager.c **** 		steps = 2;
 2588              		.loc 1 283 0
 2589 0028 03DD     		ble	.L211
 283:led_manager.c **** 		steps = 2;
 2590              		.loc 1 283 0 is_stmt 0 discriminator 1
 2591 002a 2F4B     		ldr	r3, .L228
 2592 002c 9B69     		ldr	r3, [r3, #24]
 2593 002e 9C42     		cmp	r4, r3
 2594 0030 26DD     		ble	.L221
 2595              	.L211:
 285:led_manager.c **** 		steps = 3;
 2596              		.loc 1 285 0 is_stmt 1
 2597 0032 2D4B     		ldr	r3, .L228
 2598 0034 9B69     		ldr	r3, [r3, #24]
 2599 0036 9C42     		cmp	r4, r3
 2600 0038 03DD     		ble	.L212
 285:led_manager.c **** 		steps = 3;
 2601              		.loc 1 285 0 is_stmt 0 discriminator 1
 2602 003a 2B4B     		ldr	r3, .L228
 2603 003c DB69     		ldr	r3, [r3, #28]
 2604 003e 9C42     		cmp	r4, r3
 2605 0040 20DD     		ble	.L222
 2606              	.L212:
 287:led_manager.c **** 		steps = 4;
 2607              		.loc 1 287 0 is_stmt 1
 2608 0042 294B     		ldr	r3, .L228
 2609 0044 DB69     		ldr	r3, [r3, #28]
 2610 0046 9C42     		cmp	r4, r3
 2611 0048 03DD     		ble	.L213
 287:led_manager.c **** 		steps = 4;
ARM GAS  D:\Windows\AppData\Local\Temp\ccP1kfgz.s 			page 67


 2612              		.loc 1 287 0 is_stmt 0 discriminator 1
 2613 004a 274B     		ldr	r3, .L228
 2614 004c 1B6A     		ldr	r3, [r3, #32]
 2615 004e 9C42     		cmp	r4, r3
 2616 0050 1ADD     		ble	.L223
 2617              	.L213:
 289:led_manager.c **** 		steps = 5;
 2618              		.loc 1 289 0 is_stmt 1
 2619 0052 254B     		ldr	r3, .L228
 2620 0054 1B6A     		ldr	r3, [r3, #32]
 2621 0056 9C42     		cmp	r4, r3
 2622 0058 03DD     		ble	.L214
 289:led_manager.c **** 		steps = 5;
 2623              		.loc 1 289 0 is_stmt 0 discriminator 1
 2624 005a 234B     		ldr	r3, .L228
 2625 005c 5B6A     		ldr	r3, [r3, #36]
 2626 005e 9C42     		cmp	r4, r3
 2627 0060 14DB     		blt	.L224
 2628              	.L214:
 292:led_manager.c **** 			b1_critical_timer_Start();
 2629              		.loc 1 292 0 is_stmt 1
 2630 0062 224B     		ldr	r3, .L228+4
 2631 0064 DB6E     		ldr	r3, [r3, #108]
 2632 0066 9BB9     		cbnz	r3, .L225
 293:led_manager.c **** 			b1_crit_int_StartEx(b1_crit_isr);
 2633              		.loc 1 293 0
 2634 0068 FFF7FEFF 		bl	b1_critical_timer_Start
 2635              	.LVL303:
 294:led_manager.c **** 			b1_critical = 1;
 2636              		.loc 1 294 0
 2637 006c 2048     		ldr	r0, .L228+8
 2638 006e FFF7FEFF 		bl	b1_crit_int_StartEx
 2639              	.LVL304:
 295:led_manager.c **** 		} //if
 2640              		.loc 1 295 0
 2641 0072 0122     		movs	r2, #1
 2642 0074 1D4B     		ldr	r3, .L228+4
 2643 0076 DA66     		str	r2, [r3, #108]
 280:led_manager.c **** 	if (BMS_TEMP <= bms_temp_map[0])
 2644              		.loc 1 280 0
 2645 0078 0023     		movs	r3, #0
 2646 007a 0AE0     		b	.L210
 2647              	.L220:
 282:led_manager.c **** 	else if (BMS_TEMP > bms_temp_map[0] && BMS_TEMP <= bms_temp_map[1])
 2648              		.loc 1 282 0
 2649 007c 0123     		movs	r3, #1
 2650 007e 08E0     		b	.L210
 2651              	.L221:
 284:led_manager.c **** 	else if (BMS_TEMP > bms_temp_map[1] && BMS_TEMP <= bms_temp_map[2])
 2652              		.loc 1 284 0
 2653 0080 0223     		movs	r3, #2
 2654 0082 06E0     		b	.L210
 2655              	.L222:
 286:led_manager.c **** 	else if (BMS_TEMP > bms_temp_map[2] && BMS_TEMP <= bms_temp_map[3])
 2656              		.loc 1 286 0
 2657 0084 0323     		movs	r3, #3
 2658 0086 04E0     		b	.L210
ARM GAS  D:\Windows\AppData\Local\Temp\ccP1kfgz.s 			page 68


 2659              	.L223:
 288:led_manager.c **** 	else if (BMS_TEMP > bms_temp_map[3] && BMS_TEMP < bms_temp_map[4])
 2660              		.loc 1 288 0
 2661 0088 0423     		movs	r3, #4
 2662 008a 02E0     		b	.L210
 2663              	.L224:
 290:led_manager.c **** 	else {	//(BMS_TEMP >= 60)
 2664              		.loc 1 290 0
 2665 008c 0523     		movs	r3, #5
 2666 008e 00E0     		b	.L210
 2667              	.L225:
 280:led_manager.c **** 	if (BMS_TEMP <= bms_temp_map[0])
 2668              		.loc 1 280 0
 2669 0090 0023     		movs	r3, #0
 2670              	.L210:
 2671              	.LVL305:
 299:led_manager.c **** 		int i;
 2672              		.loc 1 299 0
 2673 0092 164A     		ldr	r2, .L228+4
 2674 0094 D26E     		ldr	r2, [r2, #108]
 2675 0096 3AB1     		cbz	r2, .L226
 2676 0098 10BD     		pop	{r4, pc}
 2677              	.LVL306:
 2678              	.L217:
 2679              	.LBB4:
 302:led_manager.c **** 		for(i=steps; i<5; i++)
 2680              		.loc 1 302 0 discriminator 3
 2681 009a 1449     		ldr	r1, .L228+4
 2682 009c 01EB8201 		add	r1, r1, r2, lsl #2
 2683 00a0 0120     		movs	r0, #1
 2684 00a2 0867     		str	r0, [r1, #112]
 301:led_manager.c **** 			b1_arr[i] = 1;	//on leds
 2685              		.loc 1 301 0 discriminator 3
 2686 00a4 0244     		add	r2, r2, r0
 2687              	.LVL307:
 2688 00a6 00E0     		b	.L215
 2689              	.LVL308:
 2690              	.L226:
 2691              	.LBE4:
 2692 00a8 0022     		movs	r2, #0
 2693              	.L215:
 2694              	.LVL309:
 2695              	.LBB5:
 301:led_manager.c **** 			b1_arr[i] = 1;	//on leds
 2696              		.loc 1 301 0 is_stmt 0 discriminator 1
 2697 00aa 9A42     		cmp	r2, r3
 2698 00ac F5DB     		blt	.L217
 2699 00ae 05E0     		b	.L218
 2700              	.LVL310:
 2701              	.L219:
 304:led_manager.c **** 		
 2702              		.loc 1 304 0 is_stmt 1 discriminator 3
 2703 00b0 0E4A     		ldr	r2, .L228+4
 2704 00b2 02EB8302 		add	r2, r2, r3, lsl #2
 2705 00b6 0021     		movs	r1, #0
 2706 00b8 1167     		str	r1, [r2, #112]
 303:led_manager.c **** 			b1_arr[i] = 0;	//off leds
ARM GAS  D:\Windows\AppData\Local\Temp\ccP1kfgz.s 			page 69


 2707              		.loc 1 303 0 discriminator 3
 2708 00ba 0133     		adds	r3, r3, #1
 2709              	.LVL311:
 2710              	.L218:
 303:led_manager.c **** 			b1_arr[i] = 0;	//off leds
 2711              		.loc 1 303 0 is_stmt 0 discriminator 1
 2712 00bc 042B     		cmp	r3, #4
 2713 00be F7DD     		ble	.L219
 306:led_manager.c **** 		b12_write(b1_arr[1]);
 2714              		.loc 1 306 0 is_stmt 1
 2715 00c0 0A4C     		ldr	r4, .L228+4
 2716 00c2 206F     		ldr	r0, [r4, #112]
 2717 00c4 FFF7FEFF 		bl	b11_write
 2718              	.LVL312:
 307:led_manager.c **** 		b13_write(b1_arr[2]);
 2719              		.loc 1 307 0
 2720 00c8 606F     		ldr	r0, [r4, #116]
 2721 00ca FFF7FEFF 		bl	b12_write
 2722              	.LVL313:
 308:led_manager.c **** 		b14_write(b1_arr[3]);
 2723              		.loc 1 308 0
 2724 00ce A06F     		ldr	r0, [r4, #120]
 2725 00d0 FFF7FEFF 		bl	b13_write
 2726              	.LVL314:
 309:led_manager.c **** 		b15_write(b1_arr[4]);
 2727              		.loc 1 309 0
 2728 00d4 E06F     		ldr	r0, [r4, #124]
 2729 00d6 FFF7FEFF 		bl	b14_write
 2730              	.LVL315:
 310:led_manager.c ****         led_update_stat();
 2731              		.loc 1 310 0
 2732 00da D4F88000 		ldr	r0, [r4, #128]
 2733 00de FFF7FEFF 		bl	b15_write
 2734              	.LVL316:
 311:led_manager.c **** 	} //if
 2735              		.loc 1 311 0
 2736 00e2 FFF7FEFF 		bl	led_update_stat
 2737              	.LVL317:
 2738 00e6 10BD     		pop	{r4, pc}
 2739              	.L229:
 2740              		.align	2
 2741              	.L228:
 2742 00e8 00000000 		.word	.LANCHOR1
 2743 00ec 00000000 		.word	.LANCHOR0
 2744 00f0 00000000 		.word	b1_crit_isr
 2745              	.LBE5:
 2746              		.cfi_endproc
 2747              	.LFE70:
 2748              		.size	led_write_b1, .-led_write_b1
 2749              		.section	.text.b21_write,"ax",%progbits
 2750              		.align	2
 2751              		.global	b21_write
 2752              		.thumb
 2753              		.thumb_func
 2754              		.type	b21_write, %function
 2755              	b21_write:
 2756              	.LFB110:
ARM GAS  D:\Windows\AppData\Local\Temp\ccP1kfgz.s 			page 70


 894:led_manager.c **** }
 895:led_manager.c **** 
 896:led_manager.c **** //center vertical bar
 897:led_manager.c **** void b21_write(int bool) {
 2757              		.loc 1 897 0
 2758              		.cfi_startproc
 2759              		@ args = 0, pretend = 0, frame = 0
 2760              		@ frame_needed = 0, uses_anonymous_args = 0
 2761              		@ link register save eliminated.
 2762              	.LVL318:
 898:led_manager.c **** 	uint8_t bit = 0x10;
 899:led_manager.c **** 	if(bool == 1) 	//led on
 2763              		.loc 1 899 0
 2764 0000 0128     		cmp	r0, #1
 2765 0002 05D1     		bne	.L231
 900:led_manager.c **** 		byte07_2 = byte07_2 | bit;
 2766              		.loc 1 900 0
 2767 0004 054A     		ldr	r2, .L233
 2768 0006 9379     		ldrb	r3, [r2, #6]	@ zero_extendqisi2
 2769 0008 43F01003 		orr	r3, r3, #16
 2770 000c 9371     		strb	r3, [r2, #6]
 2771 000e 7047     		bx	lr
 2772              	.L231:
 901:led_manager.c **** 	else			//led off
 902:led_manager.c **** 		byte07_2 = byte07_2 & ~bit;
 2773              		.loc 1 902 0
 2774 0010 024A     		ldr	r2, .L233
 2775 0012 9379     		ldrb	r3, [r2, #6]	@ zero_extendqisi2
 2776 0014 23F01003 		bic	r3, r3, #16
 2777 0018 9371     		strb	r3, [r2, #6]
 2778 001a 7047     		bx	lr
 2779              	.L234:
 2780              		.align	2
 2781              	.L233:
 2782 001c 00000000 		.word	.LANCHOR0
 2783              		.cfi_endproc
 2784              	.LFE110:
 2785              		.size	b21_write, .-b21_write
 2786              		.section	.text.b22_write,"ax",%progbits
 2787              		.align	2
 2788              		.global	b22_write
 2789              		.thumb
 2790              		.thumb_func
 2791              		.type	b22_write, %function
 2792              	b22_write:
 2793              	.LFB111:
 903:led_manager.c **** }
 904:led_manager.c **** void b22_write(int bool) {
 2794              		.loc 1 904 0
 2795              		.cfi_startproc
 2796              		@ args = 0, pretend = 0, frame = 0
 2797              		@ frame_needed = 0, uses_anonymous_args = 0
 2798              		@ link register save eliminated.
 2799              	.LVL319:
 905:led_manager.c **** 	uint8_t bit = 0x01;
 906:led_manager.c **** 	if(bool == 1) 	//led on
 2800              		.loc 1 906 0
ARM GAS  D:\Windows\AppData\Local\Temp\ccP1kfgz.s 			page 71


 2801 0000 0128     		cmp	r0, #1
 2802 0002 05D1     		bne	.L236
 907:led_manager.c **** 		byte08_2 = byte08_2 | bit;
 2803              		.loc 1 907 0
 2804 0004 054A     		ldr	r2, .L238
 2805 0006 D379     		ldrb	r3, [r2, #7]	@ zero_extendqisi2
 2806 0008 43F00103 		orr	r3, r3, #1
 2807 000c D371     		strb	r3, [r2, #7]
 2808 000e 7047     		bx	lr
 2809              	.L236:
 908:led_manager.c **** 	else			//led off
 909:led_manager.c **** 		byte08_2 = byte08_2 & ~bit;
 2810              		.loc 1 909 0
 2811 0010 024A     		ldr	r2, .L238
 2812 0012 D379     		ldrb	r3, [r2, #7]	@ zero_extendqisi2
 2813 0014 23F00103 		bic	r3, r3, #1
 2814 0018 D371     		strb	r3, [r2, #7]
 2815 001a 7047     		bx	lr
 2816              	.L239:
 2817              		.align	2
 2818              	.L238:
 2819 001c 00000000 		.word	.LANCHOR0
 2820              		.cfi_endproc
 2821              	.LFE111:
 2822              		.size	b22_write, .-b22_write
 2823              		.section	.text.b23_write,"ax",%progbits
 2824              		.align	2
 2825              		.global	b23_write
 2826              		.thumb
 2827              		.thumb_func
 2828              		.type	b23_write, %function
 2829              	b23_write:
 2830              	.LFB112:
 910:led_manager.c **** }
 911:led_manager.c **** void b23_write(int bool) {
 2831              		.loc 1 911 0
 2832              		.cfi_startproc
 2833              		@ args = 0, pretend = 0, frame = 0
 2834              		@ frame_needed = 0, uses_anonymous_args = 0
 2835              		@ link register save eliminated.
 2836              	.LVL320:
 912:led_manager.c **** 	uint8_t bit = 0x10;
 913:led_manager.c **** 	if(bool == 1) 	//led on
 2837              		.loc 1 913 0
 2838 0000 0128     		cmp	r0, #1
 2839 0002 05D1     		bne	.L241
 914:led_manager.c **** 		byte08_2 = byte08_2 | bit;
 2840              		.loc 1 914 0
 2841 0004 054A     		ldr	r2, .L243
 2842 0006 D379     		ldrb	r3, [r2, #7]	@ zero_extendqisi2
 2843 0008 43F01003 		orr	r3, r3, #16
 2844 000c D371     		strb	r3, [r2, #7]
 2845 000e 7047     		bx	lr
 2846              	.L241:
 915:led_manager.c **** 	else			//led off
 916:led_manager.c **** 		byte08_2 = byte08_2 & ~bit;
 2847              		.loc 1 916 0
ARM GAS  D:\Windows\AppData\Local\Temp\ccP1kfgz.s 			page 72


 2848 0010 024A     		ldr	r2, .L243
 2849 0012 D379     		ldrb	r3, [r2, #7]	@ zero_extendqisi2
 2850 0014 23F01003 		bic	r3, r3, #16
 2851 0018 D371     		strb	r3, [r2, #7]
 2852 001a 7047     		bx	lr
 2853              	.L244:
 2854              		.align	2
 2855              	.L243:
 2856 001c 00000000 		.word	.LANCHOR0
 2857              		.cfi_endproc
 2858              	.LFE112:
 2859              		.size	b23_write, .-b23_write
 2860              		.section	.text.b24_write,"ax",%progbits
 2861              		.align	2
 2862              		.global	b24_write
 2863              		.thumb
 2864              		.thumb_func
 2865              		.type	b24_write, %function
 2866              	b24_write:
 2867              	.LFB113:
 917:led_manager.c **** }
 918:led_manager.c **** void b24_write(int bool) {
 2868              		.loc 1 918 0
 2869              		.cfi_startproc
 2870              		@ args = 0, pretend = 0, frame = 0
 2871              		@ frame_needed = 0, uses_anonymous_args = 0
 2872              		@ link register save eliminated.
 2873              	.LVL321:
 919:led_manager.c **** 	uint8_t bit = 0x02;
 920:led_manager.c **** 	if(bool == 1) 	//led on
 2874              		.loc 1 920 0
 2875 0000 0128     		cmp	r0, #1
 2876 0002 05D1     		bne	.L246
 921:led_manager.c **** 		byte05_2 = byte05_2 | bit;
 2877              		.loc 1 921 0
 2878 0004 054A     		ldr	r2, .L248
 2879 0006 1379     		ldrb	r3, [r2, #4]	@ zero_extendqisi2
 2880 0008 43F00203 		orr	r3, r3, #2
 2881 000c 1371     		strb	r3, [r2, #4]
 2882 000e 7047     		bx	lr
 2883              	.L246:
 922:led_manager.c **** 	else			//led off
 923:led_manager.c **** 		byte05_2 = byte05_2 & ~bit;
 2884              		.loc 1 923 0
 2885 0010 024A     		ldr	r2, .L248
 2886 0012 1379     		ldrb	r3, [r2, #4]	@ zero_extendqisi2
 2887 0014 23F00203 		bic	r3, r3, #2
 2888 0018 1371     		strb	r3, [r2, #4]
 2889 001a 7047     		bx	lr
 2890              	.L249:
 2891              		.align	2
 2892              	.L248:
 2893 001c 00000000 		.word	.LANCHOR0
 2894              		.cfi_endproc
 2895              	.LFE113:
 2896              		.size	b24_write, .-b24_write
 2897              		.section	.text.b25_write,"ax",%progbits
ARM GAS  D:\Windows\AppData\Local\Temp\ccP1kfgz.s 			page 73


 2898              		.align	2
 2899              		.global	b25_write
 2900              		.thumb
 2901              		.thumb_func
 2902              		.type	b25_write, %function
 2903              	b25_write:
 2904              	.LFB114:
 924:led_manager.c **** }
 925:led_manager.c **** void b25_write(int bool) {
 2905              		.loc 1 925 0
 2906              		.cfi_startproc
 2907              		@ args = 0, pretend = 0, frame = 0
 2908              		@ frame_needed = 0, uses_anonymous_args = 0
 2909              		@ link register save eliminated.
 2910              	.LVL322:
 926:led_manager.c **** 	uint8_t bit = 0x20;
 927:led_manager.c **** 	if(bool == 1) 	//led on
 2911              		.loc 1 927 0
 2912 0000 0128     		cmp	r0, #1
 2913 0002 05D1     		bne	.L251
 928:led_manager.c **** 		byte05_2 = byte05_2 | bit;
 2914              		.loc 1 928 0
 2915 0004 054A     		ldr	r2, .L253
 2916 0006 1379     		ldrb	r3, [r2, #4]	@ zero_extendqisi2
 2917 0008 43F02003 		orr	r3, r3, #32
 2918 000c 1371     		strb	r3, [r2, #4]
 2919 000e 7047     		bx	lr
 2920              	.L251:
 929:led_manager.c **** 	else			//led off
 930:led_manager.c **** 		byte05_2 = byte05_2 & ~bit;
 2921              		.loc 1 930 0
 2922 0010 024A     		ldr	r2, .L253
 2923 0012 1379     		ldrb	r3, [r2, #4]	@ zero_extendqisi2
 2924 0014 23F02003 		bic	r3, r3, #32
 2925 0018 1371     		strb	r3, [r2, #4]
 2926 001a 7047     		bx	lr
 2927              	.L254:
 2928              		.align	2
 2929              	.L253:
 2930 001c 00000000 		.word	.LANCHOR0
 2931              		.cfi_endproc
 2932              	.LFE114:
 2933              		.size	b25_write, .-b25_write
 2934              		.section	.text.b2_crit_isr,"ax",%progbits
 2935              		.align	2
 2936              		.global	b2_crit_isr
 2937              		.thumb
 2938              		.thumb_func
 2939              		.type	b2_crit_isr, %function
 2940              	b2_crit_isr:
 2941              	.LFB65:
  88:led_manager.c **** 	b2_crit_led = b2_crit_led == 0 ? 1:0;
 2942              		.loc 1 88 0
 2943              		.cfi_startproc
 2944              		@ args = 0, pretend = 0, frame = 0
 2945              		@ frame_needed = 0, uses_anonymous_args = 0
 2946 0000 10B5     		push	{r4, lr}
ARM GAS  D:\Windows\AppData\Local\Temp\ccP1kfgz.s 			page 74


 2947              		.cfi_def_cfa_offset 8
 2948              		.cfi_offset 4, -8
 2949              		.cfi_offset 14, -4
  89:led_manager.c **** 	b21_write(b2_crit_led);
 2950              		.loc 1 89 0
 2951 0002 0E4C     		ldr	r4, .L257
 2952 0004 D4F88400 		ldr	r0, [r4, #132]
 2953 0008 B0FA80F0 		clz	r0, r0
 2954 000c 4009     		lsrs	r0, r0, #5
 2955 000e C4F88400 		str	r0, [r4, #132]
  90:led_manager.c **** 	b22_write(b2_crit_led);
 2956              		.loc 1 90 0
 2957 0012 FFF7FEFF 		bl	b21_write
 2958              	.LVL323:
  91:led_manager.c **** 	b23_write(b2_crit_led);
 2959              		.loc 1 91 0
 2960 0016 D4F88400 		ldr	r0, [r4, #132]
 2961 001a FFF7FEFF 		bl	b22_write
 2962              	.LVL324:
  92:led_manager.c **** 	b24_write(b2_crit_led);
 2963              		.loc 1 92 0
 2964 001e D4F88400 		ldr	r0, [r4, #132]
 2965 0022 FFF7FEFF 		bl	b23_write
 2966              	.LVL325:
  93:led_manager.c **** 	b25_write(b2_crit_led);
 2967              		.loc 1 93 0
 2968 0026 D4F88400 		ldr	r0, [r4, #132]
 2969 002a FFF7FEFF 		bl	b24_write
 2970              	.LVL326:
  94:led_manager.c ****     led_update_stat();
 2971              		.loc 1 94 0
 2972 002e D4F88400 		ldr	r0, [r4, #132]
 2973 0032 FFF7FEFF 		bl	b25_write
 2974              	.LVL327:
  95:led_manager.c **** 
 2975              		.loc 1 95 0
 2976 0036 FFF7FEFF 		bl	led_update_stat
 2977              	.LVL328:
 2978 003a 10BD     		pop	{r4, pc}
 2979              	.L258:
 2980              		.align	2
 2981              	.L257:
 2982 003c 00000000 		.word	.LANCHOR0
 2983              		.cfi_endproc
 2984              	.LFE65:
 2985              		.size	b2_crit_isr, .-b2_crit_isr
 2986              		.section	.text.led_write_b2,"ax",%progbits
 2987              		.align	2
 2988              		.global	led_write_b2
 2989              		.thumb
 2990              		.thumb_func
 2991              		.type	led_write_b2, %function
 2992              	led_write_b2:
 2993              	.LFB71:
 315:led_manager.c ****     if(MTR_TEMP < mtr_temp_map[4]) { //temperature has cooled down, stop blinking
 2994              		.loc 1 315 0
 2995              		.cfi_startproc
ARM GAS  D:\Windows\AppData\Local\Temp\ccP1kfgz.s 			page 75


 2996              		@ args = 0, pretend = 0, frame = 0
 2997              		@ frame_needed = 0, uses_anonymous_args = 0
 2998              	.LVL329:
 2999 0000 10B5     		push	{r4, lr}
 3000              		.cfi_def_cfa_offset 8
 3001              		.cfi_offset 4, -8
 3002              		.cfi_offset 14, -4
 3003 0002 0446     		mov	r4, r0
 316:led_manager.c ****         if(b2_critical) {
 3004              		.loc 1 316 0
 3005 0004 3E4B     		ldr	r3, .L279
 3006 0006 1B69     		ldr	r3, [r3, #16]
 3007 0008 9842     		cmp	r0, r3
 3008 000a 0BDA     		bge	.L260
 317:led_manager.c ****             b2_critical = 0;
 3009              		.loc 1 317 0
 3010 000c 3D4B     		ldr	r3, .L279+4
 3011 000e D3F88830 		ldr	r3, [r3, #136]
 3012 0012 3BB1     		cbz	r3, .L260
 318:led_manager.c ****             b2_crit_int_Stop();
 3013              		.loc 1 318 0
 3014 0014 0022     		movs	r2, #0
 3015 0016 3B4B     		ldr	r3, .L279+4
 3016 0018 C3F88820 		str	r2, [r3, #136]
 319:led_manager.c ****             b2_critical_timer_Stop();
 3017              		.loc 1 319 0
 3018 001c FFF7FEFF 		bl	b2_crit_int_Stop
 3019              	.LVL330:
 320:led_manager.c ****         } //if 
 3020              		.loc 1 320 0
 3021 0020 FFF7FEFF 		bl	b2_critical_timer_Stop
 3022              	.LVL331:
 3023              	.L260:
 325:led_manager.c **** 		steps = 1;
 3024              		.loc 1 325 0
 3025 0024 364B     		ldr	r3, .L279
 3026 0026 1B68     		ldr	r3, [r3]
 3027 0028 9C42     		cmp	r4, r3
 3028 002a 2BDD     		ble	.L271
 327:led_manager.c **** 		steps = 2;
 3029              		.loc 1 327 0
 3030 002c 03DD     		ble	.L262
 327:led_manager.c **** 		steps = 2;
 3031              		.loc 1 327 0 is_stmt 0 discriminator 1
 3032 002e 344B     		ldr	r3, .L279
 3033 0030 5B68     		ldr	r3, [r3, #4]
 3034 0032 9C42     		cmp	r4, r3
 3035 0034 28DD     		ble	.L272
 3036              	.L262:
 329:led_manager.c **** 		steps = 3;
 3037              		.loc 1 329 0 is_stmt 1
 3038 0036 324B     		ldr	r3, .L279
 3039 0038 5B68     		ldr	r3, [r3, #4]
 3040 003a 9C42     		cmp	r4, r3
 3041 003c 03DD     		ble	.L263
 329:led_manager.c **** 		steps = 3;
 3042              		.loc 1 329 0 is_stmt 0 discriminator 1
ARM GAS  D:\Windows\AppData\Local\Temp\ccP1kfgz.s 			page 76


 3043 003e 304B     		ldr	r3, .L279
 3044 0040 9B68     		ldr	r3, [r3, #8]
 3045 0042 9C42     		cmp	r4, r3
 3046 0044 22DD     		ble	.L273
 3047              	.L263:
 331:led_manager.c **** 		steps = 4;
 3048              		.loc 1 331 0 is_stmt 1
 3049 0046 2E4B     		ldr	r3, .L279
 3050 0048 9B68     		ldr	r3, [r3, #8]
 3051 004a 9C42     		cmp	r4, r3
 3052 004c 03DD     		ble	.L264
 331:led_manager.c **** 		steps = 4;
 3053              		.loc 1 331 0 is_stmt 0 discriminator 1
 3054 004e 2C4B     		ldr	r3, .L279
 3055 0050 DB68     		ldr	r3, [r3, #12]
 3056 0052 9C42     		cmp	r4, r3
 3057 0054 1CDD     		ble	.L274
 3058              	.L264:
 333:led_manager.c **** 		steps = 5;
 3059              		.loc 1 333 0 is_stmt 1
 3060 0056 2A4B     		ldr	r3, .L279
 3061 0058 DB68     		ldr	r3, [r3, #12]
 3062 005a 9C42     		cmp	r4, r3
 3063 005c 03DD     		ble	.L265
 333:led_manager.c **** 		steps = 5;
 3064              		.loc 1 333 0 is_stmt 0 discriminator 1
 3065 005e 284B     		ldr	r3, .L279
 3066 0060 1B69     		ldr	r3, [r3, #16]
 3067 0062 9C42     		cmp	r4, r3
 3068 0064 16DD     		ble	.L275
 3069              	.L265:
 336:led_manager.c **** 			b2_critical_timer_Start();
 3070              		.loc 1 336 0 is_stmt 1
 3071 0066 274B     		ldr	r3, .L279+4
 3072 0068 D3F88830 		ldr	r3, [r3, #136]
 3073 006c A3B9     		cbnz	r3, .L276
 337:led_manager.c **** 			b2_crit_int_StartEx(b2_crit_isr);
 3074              		.loc 1 337 0
 3075 006e FFF7FEFF 		bl	b2_critical_timer_Start
 3076              	.LVL332:
 338:led_manager.c **** 			b2_critical = 1;
 3077              		.loc 1 338 0
 3078 0072 2548     		ldr	r0, .L279+8
 3079 0074 FFF7FEFF 		bl	b2_crit_int_StartEx
 3080              	.LVL333:
 339:led_manager.c **** 		} //if
 3081              		.loc 1 339 0
 3082 0078 0122     		movs	r2, #1
 3083 007a 224B     		ldr	r3, .L279+4
 3084 007c C3F88820 		str	r2, [r3, #136]
 324:led_manager.c **** 	if (MTR_TEMP <= mtr_temp_map[0])
 3085              		.loc 1 324 0
 3086 0080 0023     		movs	r3, #0
 3087 0082 0AE0     		b	.L261
 3088              	.L271:
 326:led_manager.c **** 	else if (MTR_TEMP > mtr_temp_map[0] && MTR_TEMP <= mtr_temp_map[1])
 3089              		.loc 1 326 0
ARM GAS  D:\Windows\AppData\Local\Temp\ccP1kfgz.s 			page 77


 3090 0084 0123     		movs	r3, #1
 3091 0086 08E0     		b	.L261
 3092              	.L272:
 328:led_manager.c **** 	else if (MTR_TEMP > mtr_temp_map[1] && MTR_TEMP <= mtr_temp_map[2])
 3093              		.loc 1 328 0
 3094 0088 0223     		movs	r3, #2
 3095 008a 06E0     		b	.L261
 3096              	.L273:
 330:led_manager.c **** 	else if (MTR_TEMP > mtr_temp_map[2] && MTR_TEMP <= mtr_temp_map[3])
 3097              		.loc 1 330 0
 3098 008c 0323     		movs	r3, #3
 3099 008e 04E0     		b	.L261
 3100              	.L274:
 332:led_manager.c **** 	else if (MTR_TEMP > mtr_temp_map[3] && MTR_TEMP <= mtr_temp_map[4])
 3101              		.loc 1 332 0
 3102 0090 0423     		movs	r3, #4
 3103 0092 02E0     		b	.L261
 3104              	.L275:
 334:led_manager.c **** 	else {	//(MTR_TEMP >= 60)
 3105              		.loc 1 334 0
 3106 0094 0523     		movs	r3, #5
 3107 0096 00E0     		b	.L261
 3108              	.L276:
 324:led_manager.c **** 	if (MTR_TEMP <= mtr_temp_map[0])
 3109              		.loc 1 324 0
 3110 0098 0023     		movs	r3, #0
 3111              	.L261:
 3112              	.LVL334:
 343:led_manager.c **** 		int i;
 3113              		.loc 1 343 0
 3114 009a 1A4A     		ldr	r2, .L279+4
 3115 009c D2F88820 		ldr	r2, [r2, #136]
 3116 00a0 42B1     		cbz	r2, .L277
 3117 00a2 10BD     		pop	{r4, pc}
 3118              	.LVL335:
 3119              	.L268:
 3120              	.LBB6:
 346:led_manager.c **** 		for(i=steps; i<5; i++)
 3121              		.loc 1 346 0 discriminator 3
 3122 00a4 1749     		ldr	r1, .L279+4
 3123 00a6 01EB8201 		add	r1, r1, r2, lsl #2
 3124 00aa 0120     		movs	r0, #1
 3125 00ac C1F88C00 		str	r0, [r1, #140]
 345:led_manager.c **** 			b2_arr[i] = 1;	//on leds
 3126              		.loc 1 345 0 discriminator 3
 3127 00b0 0244     		add	r2, r2, r0
 3128              	.LVL336:
 3129 00b2 00E0     		b	.L266
 3130              	.LVL337:
 3131              	.L277:
 3132              	.LBE6:
 3133 00b4 0022     		movs	r2, #0
 3134              	.L266:
 3135              	.LVL338:
 3136              	.LBB7:
 345:led_manager.c **** 			b2_arr[i] = 1;	//on leds
 3137              		.loc 1 345 0 is_stmt 0 discriminator 1
ARM GAS  D:\Windows\AppData\Local\Temp\ccP1kfgz.s 			page 78


 3138 00b6 9A42     		cmp	r2, r3
 3139 00b8 F4DB     		blt	.L268
 3140 00ba 06E0     		b	.L269
 3141              	.LVL339:
 3142              	.L270:
 348:led_manager.c **** 		
 3143              		.loc 1 348 0 is_stmt 1 discriminator 3
 3144 00bc 114A     		ldr	r2, .L279+4
 3145 00be 02EB8302 		add	r2, r2, r3, lsl #2
 3146 00c2 0021     		movs	r1, #0
 3147 00c4 C2F88C10 		str	r1, [r2, #140]
 347:led_manager.c **** 			b2_arr[i] = 0;	//off leds
 3148              		.loc 1 347 0 discriminator 3
 3149 00c8 0133     		adds	r3, r3, #1
 3150              	.LVL340:
 3151              	.L269:
 347:led_manager.c **** 			b2_arr[i] = 0;	//off leds
 3152              		.loc 1 347 0 is_stmt 0 discriminator 1
 3153 00ca 042B     		cmp	r3, #4
 3154 00cc F6DD     		ble	.L270
 350:led_manager.c **** 		b22_write(b2_arr[1]);
 3155              		.loc 1 350 0 is_stmt 1
 3156 00ce 0D4C     		ldr	r4, .L279+4
 3157 00d0 D4F88C00 		ldr	r0, [r4, #140]
 3158 00d4 FFF7FEFF 		bl	b21_write
 3159              	.LVL341:
 351:led_manager.c **** 		b23_write(b2_arr[2]);
 3160              		.loc 1 351 0
 3161 00d8 D4F89000 		ldr	r0, [r4, #144]
 3162 00dc FFF7FEFF 		bl	b22_write
 3163              	.LVL342:
 352:led_manager.c **** 		b24_write(b2_arr[3]);
 3164              		.loc 1 352 0
 3165 00e0 D4F89400 		ldr	r0, [r4, #148]
 3166 00e4 FFF7FEFF 		bl	b23_write
 3167              	.LVL343:
 353:led_manager.c **** 		b25_write(b2_arr[4]);
 3168              		.loc 1 353 0
 3169 00e8 D4F89800 		ldr	r0, [r4, #152]
 3170 00ec FFF7FEFF 		bl	b24_write
 3171              	.LVL344:
 354:led_manager.c ****         led_update_stat();
 3172              		.loc 1 354 0
 3173 00f0 D4F89C00 		ldr	r0, [r4, #156]
 3174 00f4 FFF7FEFF 		bl	b25_write
 3175              	.LVL345:
 355:led_manager.c **** 	} //if
 3176              		.loc 1 355 0
 3177 00f8 FFF7FEFF 		bl	led_update_stat
 3178              	.LVL346:
 3179 00fc 10BD     		pop	{r4, pc}
 3180              	.L280:
 3181 00fe 00BF     		.align	2
 3182              	.L279:
 3183 0100 00000000 		.word	.LANCHOR1
 3184 0104 00000000 		.word	.LANCHOR0
 3185 0108 00000000 		.word	b2_crit_isr
ARM GAS  D:\Windows\AppData\Local\Temp\ccP1kfgz.s 			page 79


 3186              	.LBE7:
 3187              		.cfi_endproc
 3188              	.LFE71:
 3189              		.size	led_write_b2, .-led_write_b2
 3190              		.section	.text.b31_write,"ax",%progbits
 3191              		.align	2
 3192              		.global	b31_write
 3193              		.thumb
 3194              		.thumb_func
 3195              		.type	b31_write, %function
 3196              	b31_write:
 3197              	.LFB115:
 931:led_manager.c **** }
 932:led_manager.c **** 
 933:led_manager.c **** //right bar
 934:led_manager.c **** void b31_write(int bool) {
 3198              		.loc 1 934 0
 3199              		.cfi_startproc
 3200              		@ args = 0, pretend = 0, frame = 0
 3201              		@ frame_needed = 0, uses_anonymous_args = 0
 3202              		@ link register save eliminated.
 3203              	.LVL347:
 935:led_manager.c **** 	uint8_t bit = 0x02;
 936:led_manager.c **** 	if(bool == 1) 	//led on
 3204              		.loc 1 936 0
 3205 0000 0128     		cmp	r0, #1
 3206 0002 05D1     		bne	.L282
 937:led_manager.c **** 		byte06_2 = byte06_2 | bit;
 3207              		.loc 1 937 0
 3208 0004 054A     		ldr	r2, .L284
 3209 0006 5379     		ldrb	r3, [r2, #5]	@ zero_extendqisi2
 3210 0008 43F00203 		orr	r3, r3, #2
 3211 000c 5371     		strb	r3, [r2, #5]
 3212 000e 7047     		bx	lr
 3213              	.L282:
 938:led_manager.c **** 	else			//led off
 939:led_manager.c **** 		byte06_2 = byte06_2 & ~bit;
 3214              		.loc 1 939 0
 3215 0010 024A     		ldr	r2, .L284
 3216 0012 5379     		ldrb	r3, [r2, #5]	@ zero_extendqisi2
 3217 0014 23F00203 		bic	r3, r3, #2
 3218 0018 5371     		strb	r3, [r2, #5]
 3219 001a 7047     		bx	lr
 3220              	.L285:
 3221              		.align	2
 3222              	.L284:
 3223 001c 00000000 		.word	.LANCHOR0
 3224              		.cfi_endproc
 3225              	.LFE115:
 3226              		.size	b31_write, .-b31_write
 3227              		.section	.text.b32_write,"ax",%progbits
 3228              		.align	2
 3229              		.global	b32_write
 3230              		.thumb
 3231              		.thumb_func
 3232              		.type	b32_write, %function
 3233              	b32_write:
ARM GAS  D:\Windows\AppData\Local\Temp\ccP1kfgz.s 			page 80


 3234              	.LFB116:
 940:led_manager.c **** }
 941:led_manager.c **** void b32_write(int bool) {
 3235              		.loc 1 941 0
 3236              		.cfi_startproc
 3237              		@ args = 0, pretend = 0, frame = 0
 3238              		@ frame_needed = 0, uses_anonymous_args = 0
 3239              		@ link register save eliminated.
 3240              	.LVL348:
 942:led_manager.c **** 	uint8_t bit = 0x20;
 943:led_manager.c **** 	if(bool == 1) 	//led on
 3241              		.loc 1 943 0
 3242 0000 0128     		cmp	r0, #1
 3243 0002 05D1     		bne	.L287
 944:led_manager.c **** 		byte06_2 = byte06_2 | bit;
 3244              		.loc 1 944 0
 3245 0004 054A     		ldr	r2, .L289
 3246 0006 5379     		ldrb	r3, [r2, #5]	@ zero_extendqisi2
 3247 0008 43F02003 		orr	r3, r3, #32
 3248 000c 5371     		strb	r3, [r2, #5]
 3249 000e 7047     		bx	lr
 3250              	.L287:
 945:led_manager.c **** 	else			//led off
 946:led_manager.c **** 		byte06_2 = byte06_2 & ~bit;
 3251              		.loc 1 946 0
 3252 0010 024A     		ldr	r2, .L289
 3253 0012 5379     		ldrb	r3, [r2, #5]	@ zero_extendqisi2
 3254 0014 23F02003 		bic	r3, r3, #32
 3255 0018 5371     		strb	r3, [r2, #5]
 3256 001a 7047     		bx	lr
 3257              	.L290:
 3258              		.align	2
 3259              	.L289:
 3260 001c 00000000 		.word	.LANCHOR0
 3261              		.cfi_endproc
 3262              	.LFE116:
 3263              		.size	b32_write, .-b32_write
 3264              		.section	.text.b33_write,"ax",%progbits
 3265              		.align	2
 3266              		.global	b33_write
 3267              		.thumb
 3268              		.thumb_func
 3269              		.type	b33_write, %function
 3270              	b33_write:
 3271              	.LFB117:
 947:led_manager.c **** }
 948:led_manager.c **** void b33_write(int bool) {
 3272              		.loc 1 948 0
 3273              		.cfi_startproc
 3274              		@ args = 0, pretend = 0, frame = 0
 3275              		@ frame_needed = 0, uses_anonymous_args = 0
 3276              		@ link register save eliminated.
 3277              	.LVL349:
 949:led_manager.c **** 	uint8_t bit = 0x02;
 950:led_manager.c **** 	if(bool == 1) 	//led on
 3278              		.loc 1 950 0
 3279 0000 0128     		cmp	r0, #1
ARM GAS  D:\Windows\AppData\Local\Temp\ccP1kfgz.s 			page 81


 3280 0002 05D1     		bne	.L292
 951:led_manager.c **** 		byte07_2 = byte07_2 | bit;
 3281              		.loc 1 951 0
 3282 0004 054A     		ldr	r2, .L294
 3283 0006 9379     		ldrb	r3, [r2, #6]	@ zero_extendqisi2
 3284 0008 43F00203 		orr	r3, r3, #2
 3285 000c 9371     		strb	r3, [r2, #6]
 3286 000e 7047     		bx	lr
 3287              	.L292:
 952:led_manager.c **** 	else			//led off
 953:led_manager.c **** 		byte07_2 = byte07_2 & ~bit;
 3288              		.loc 1 953 0
 3289 0010 024A     		ldr	r2, .L294
 3290 0012 9379     		ldrb	r3, [r2, #6]	@ zero_extendqisi2
 3291 0014 23F00203 		bic	r3, r3, #2
 3292 0018 9371     		strb	r3, [r2, #6]
 3293 001a 7047     		bx	lr
 3294              	.L295:
 3295              		.align	2
 3296              	.L294:
 3297 001c 00000000 		.word	.LANCHOR0
 3298              		.cfi_endproc
 3299              	.LFE117:
 3300              		.size	b33_write, .-b33_write
 3301              		.section	.text.b34_write,"ax",%progbits
 3302              		.align	2
 3303              		.global	b34_write
 3304              		.thumb
 3305              		.thumb_func
 3306              		.type	b34_write, %function
 3307              	b34_write:
 3308              	.LFB118:
 954:led_manager.c **** }
 955:led_manager.c **** void b34_write(int bool) {
 3309              		.loc 1 955 0
 3310              		.cfi_startproc
 3311              		@ args = 0, pretend = 0, frame = 0
 3312              		@ frame_needed = 0, uses_anonymous_args = 0
 3313              		@ link register save eliminated.
 3314              	.LVL350:
 956:led_manager.c **** 	uint8_t bit = 0x20;
 957:led_manager.c **** 	if(bool == 1) 	//led on
 3315              		.loc 1 957 0
 3316 0000 0128     		cmp	r0, #1
 3317 0002 05D1     		bne	.L297
 958:led_manager.c **** 		byte07_2 = byte07_2 | bit;
 3318              		.loc 1 958 0
 3319 0004 054A     		ldr	r2, .L299
 3320 0006 9379     		ldrb	r3, [r2, #6]	@ zero_extendqisi2
 3321 0008 43F02003 		orr	r3, r3, #32
 3322 000c 9371     		strb	r3, [r2, #6]
 3323 000e 7047     		bx	lr
 3324              	.L297:
 959:led_manager.c **** 	else			//led off
 960:led_manager.c **** 		byte07_2 = byte07_2 & ~bit;
 3325              		.loc 1 960 0
 3326 0010 024A     		ldr	r2, .L299
ARM GAS  D:\Windows\AppData\Local\Temp\ccP1kfgz.s 			page 82


 3327 0012 9379     		ldrb	r3, [r2, #6]	@ zero_extendqisi2
 3328 0014 23F02003 		bic	r3, r3, #32
 3329 0018 9371     		strb	r3, [r2, #6]
 3330 001a 7047     		bx	lr
 3331              	.L300:
 3332              		.align	2
 3333              	.L299:
 3334 001c 00000000 		.word	.LANCHOR0
 3335              		.cfi_endproc
 3336              	.LFE118:
 3337              		.size	b34_write, .-b34_write
 3338              		.section	.text.b35_write,"ax",%progbits
 3339              		.align	2
 3340              		.global	b35_write
 3341              		.thumb
 3342              		.thumb_func
 3343              		.type	b35_write, %function
 3344              	b35_write:
 3345              	.LFB119:
 961:led_manager.c **** }
 962:led_manager.c **** void b35_write(int bool) {
 3346              		.loc 1 962 0
 3347              		.cfi_startproc
 3348              		@ args = 0, pretend = 0, frame = 0
 3349              		@ frame_needed = 0, uses_anonymous_args = 0
 3350              		@ link register save eliminated.
 3351              	.LVL351:
 963:led_manager.c **** 	uint8_t bit = 0x02;
 964:led_manager.c **** 	if(bool == 1) 	//led on
 3352              		.loc 1 964 0
 3353 0000 0128     		cmp	r0, #1
 3354 0002 05D1     		bne	.L302
 965:led_manager.c **** 		byte08_2 = byte08_2 | bit;
 3355              		.loc 1 965 0
 3356 0004 054A     		ldr	r2, .L304
 3357 0006 D379     		ldrb	r3, [r2, #7]	@ zero_extendqisi2
 3358 0008 43F00203 		orr	r3, r3, #2
 3359 000c D371     		strb	r3, [r2, #7]
 3360 000e 7047     		bx	lr
 3361              	.L302:
 966:led_manager.c **** 	else			//led off
 967:led_manager.c **** 		byte08_2 = byte08_2 & ~bit;
 3362              		.loc 1 967 0
 3363 0010 024A     		ldr	r2, .L304
 3364 0012 D379     		ldrb	r3, [r2, #7]	@ zero_extendqisi2
 3365 0014 23F00203 		bic	r3, r3, #2
 3366 0018 D371     		strb	r3, [r2, #7]
 3367 001a 7047     		bx	lr
 3368              	.L305:
 3369              		.align	2
 3370              	.L304:
 3371 001c 00000000 		.word	.LANCHOR0
 3372              		.cfi_endproc
 3373              	.LFE119:
 3374              		.size	b35_write, .-b35_write
 3375              		.section	.text.b3_crit_isr,"ax",%progbits
 3376              		.align	2
ARM GAS  D:\Windows\AppData\Local\Temp\ccP1kfgz.s 			page 83


 3377              		.global	b3_crit_isr
 3378              		.thumb
 3379              		.thumb_func
 3380              		.type	b3_crit_isr, %function
 3381              	b3_crit_isr:
 3382              	.LFB66:
  98:led_manager.c **** 	b3_crit_led = b3_crit_led == 0 ? 1:0;
 3383              		.loc 1 98 0
 3384              		.cfi_startproc
 3385              		@ args = 0, pretend = 0, frame = 0
 3386              		@ frame_needed = 0, uses_anonymous_args = 0
 3387 0000 10B5     		push	{r4, lr}
 3388              		.cfi_def_cfa_offset 8
 3389              		.cfi_offset 4, -8
 3390              		.cfi_offset 14, -4
  99:led_manager.c **** 	b31_write(b3_crit_led);
 3391              		.loc 1 99 0
 3392 0002 0E4C     		ldr	r4, .L308
 3393 0004 D4F8A000 		ldr	r0, [r4, #160]
 3394 0008 B0FA80F0 		clz	r0, r0
 3395 000c 4009     		lsrs	r0, r0, #5
 3396 000e C4F8A000 		str	r0, [r4, #160]
 100:led_manager.c **** 	b32_write(b3_crit_led);
 3397              		.loc 1 100 0
 3398 0012 FFF7FEFF 		bl	b31_write
 3399              	.LVL352:
 101:led_manager.c **** 	b33_write(b3_crit_led);
 3400              		.loc 1 101 0
 3401 0016 D4F8A000 		ldr	r0, [r4, #160]
 3402 001a FFF7FEFF 		bl	b32_write
 3403              	.LVL353:
 102:led_manager.c **** 	b34_write(b3_crit_led);
 3404              		.loc 1 102 0
 3405 001e D4F8A000 		ldr	r0, [r4, #160]
 3406 0022 FFF7FEFF 		bl	b33_write
 3407              	.LVL354:
 103:led_manager.c **** 	b35_write(b3_crit_led);
 3408              		.loc 1 103 0
 3409 0026 D4F8A000 		ldr	r0, [r4, #160]
 3410 002a FFF7FEFF 		bl	b34_write
 3411              	.LVL355:
 104:led_manager.c ****     led_update_stat();
 3412              		.loc 1 104 0
 3413 002e D4F8A000 		ldr	r0, [r4, #160]
 3414 0032 FFF7FEFF 		bl	b35_write
 3415              	.LVL356:
 105:led_manager.c **** 
 3416              		.loc 1 105 0
 3417 0036 FFF7FEFF 		bl	led_update_stat
 3418              	.LVL357:
 3419 003a 10BD     		pop	{r4, pc}
 3420              	.L309:
 3421              		.align	2
 3422              	.L308:
 3423 003c 00000000 		.word	.LANCHOR0
 3424              		.cfi_endproc
 3425              	.LFE66:
ARM GAS  D:\Windows\AppData\Local\Temp\ccP1kfgz.s 			page 84


 3426              		.size	b3_crit_isr, .-b3_crit_isr
 3427              		.section	.text.led_write_b3,"ax",%progbits
 3428              		.align	2
 3429              		.global	led_write_b3
 3430              		.thumb
 3431              		.thumb_func
 3432              		.type	led_write_b3, %function
 3433              	led_write_b3:
 3434              	.LFB72:
 359:led_manager.c ****     if(MTR_CTRL_TEMP < mtr_ctrl_temp_map[4]) { //temperature has cooled down, stop blinking
 3435              		.loc 1 359 0
 3436              		.cfi_startproc
 3437              		@ args = 0, pretend = 0, frame = 0
 3438              		@ frame_needed = 0, uses_anonymous_args = 0
 3439              	.LVL358:
 3440 0000 10B5     		push	{r4, lr}
 3441              		.cfi_def_cfa_offset 8
 3442              		.cfi_offset 4, -8
 3443              		.cfi_offset 14, -4
 3444 0002 0446     		mov	r4, r0
 360:led_manager.c ****         if(b3_critical) {
 3445              		.loc 1 360 0
 3446 0004 3E4B     		ldr	r3, .L330
 3447 0006 9B6B     		ldr	r3, [r3, #56]
 3448 0008 9842     		cmp	r0, r3
 3449 000a 0BDA     		bge	.L311
 361:led_manager.c ****             b3_critical = 0;
 3450              		.loc 1 361 0
 3451 000c 3D4B     		ldr	r3, .L330+4
 3452 000e D3F8A430 		ldr	r3, [r3, #164]
 3453 0012 3BB1     		cbz	r3, .L311
 362:led_manager.c ****             b3_crit_int_Stop();
 3454              		.loc 1 362 0
 3455 0014 0022     		movs	r2, #0
 3456 0016 3B4B     		ldr	r3, .L330+4
 3457 0018 C3F8A420 		str	r2, [r3, #164]
 363:led_manager.c ****             b3_critical_timer_Stop();
 3458              		.loc 1 363 0
 3459 001c FFF7FEFF 		bl	b3_crit_int_Stop
 3460              	.LVL359:
 364:led_manager.c ****         } //if 
 3461              		.loc 1 364 0
 3462 0020 FFF7FEFF 		bl	b3_critical_timer_Stop
 3463              	.LVL360:
 3464              	.L311:
 369:led_manager.c **** 		steps = 1;
 3465              		.loc 1 369 0
 3466 0024 364B     		ldr	r3, .L330
 3467 0026 9B6A     		ldr	r3, [r3, #40]
 3468 0028 9C42     		cmp	r4, r3
 3469 002a 2BDD     		ble	.L322
 371:led_manager.c **** 		steps = 2;
 3470              		.loc 1 371 0
 3471 002c 03DD     		ble	.L313
 371:led_manager.c **** 		steps = 2;
 3472              		.loc 1 371 0 is_stmt 0 discriminator 1
 3473 002e 344B     		ldr	r3, .L330
ARM GAS  D:\Windows\AppData\Local\Temp\ccP1kfgz.s 			page 85


 3474 0030 DB6A     		ldr	r3, [r3, #44]
 3475 0032 9C42     		cmp	r4, r3
 3476 0034 28DD     		ble	.L323
 3477              	.L313:
 373:led_manager.c **** 		steps = 3;
 3478              		.loc 1 373 0 is_stmt 1
 3479 0036 324B     		ldr	r3, .L330
 3480 0038 DB6A     		ldr	r3, [r3, #44]
 3481 003a 9C42     		cmp	r4, r3
 3482 003c 03DD     		ble	.L314
 373:led_manager.c **** 		steps = 3;
 3483              		.loc 1 373 0 is_stmt 0 discriminator 1
 3484 003e 304B     		ldr	r3, .L330
 3485 0040 1B6B     		ldr	r3, [r3, #48]
 3486 0042 9C42     		cmp	r4, r3
 3487 0044 22DD     		ble	.L324
 3488              	.L314:
 375:led_manager.c **** 		steps = 4;
 3489              		.loc 1 375 0 is_stmt 1
 3490 0046 2E4B     		ldr	r3, .L330
 3491 0048 1B6B     		ldr	r3, [r3, #48]
 3492 004a 9C42     		cmp	r4, r3
 3493 004c 03DD     		ble	.L315
 375:led_manager.c **** 		steps = 4;
 3494              		.loc 1 375 0 is_stmt 0 discriminator 1
 3495 004e 2C4B     		ldr	r3, .L330
 3496 0050 5B6B     		ldr	r3, [r3, #52]
 3497 0052 9C42     		cmp	r4, r3
 3498 0054 1CDD     		ble	.L325
 3499              	.L315:
 377:led_manager.c **** 		steps = 5;
 3500              		.loc 1 377 0 is_stmt 1
 3501 0056 2A4B     		ldr	r3, .L330
 3502 0058 5B6B     		ldr	r3, [r3, #52]
 3503 005a 9C42     		cmp	r4, r3
 3504 005c 03DD     		ble	.L316
 377:led_manager.c **** 		steps = 5;
 3505              		.loc 1 377 0 is_stmt 0 discriminator 1
 3506 005e 284B     		ldr	r3, .L330
 3507 0060 9B6B     		ldr	r3, [r3, #56]
 3508 0062 9C42     		cmp	r4, r3
 3509 0064 16DD     		ble	.L326
 3510              	.L316:
 380:led_manager.c **** 			b3_critical_timer_Start();
 3511              		.loc 1 380 0 is_stmt 1
 3512 0066 274B     		ldr	r3, .L330+4
 3513 0068 D3F8A430 		ldr	r3, [r3, #164]
 3514 006c A3B9     		cbnz	r3, .L327
 381:led_manager.c **** 			b3_crit_int_StartEx(b3_crit_isr);
 3515              		.loc 1 381 0
 3516 006e FFF7FEFF 		bl	b3_critical_timer_Start
 3517              	.LVL361:
 382:led_manager.c **** 			b3_critical = 1;
 3518              		.loc 1 382 0
 3519 0072 2548     		ldr	r0, .L330+8
 3520 0074 FFF7FEFF 		bl	b3_crit_int_StartEx
 3521              	.LVL362:
ARM GAS  D:\Windows\AppData\Local\Temp\ccP1kfgz.s 			page 86


 383:led_manager.c **** 		} //if
 3522              		.loc 1 383 0
 3523 0078 0122     		movs	r2, #1
 3524 007a 224B     		ldr	r3, .L330+4
 3525 007c C3F8A420 		str	r2, [r3, #164]
 368:led_manager.c **** 	if (MTR_CTRL_TEMP <= mtr_ctrl_temp_map[0])
 3526              		.loc 1 368 0
 3527 0080 0023     		movs	r3, #0
 3528 0082 0AE0     		b	.L312
 3529              	.L322:
 370:led_manager.c **** 	else if (MTR_CTRL_TEMP > mtr_ctrl_temp_map[0] && MTR_CTRL_TEMP <= mtr_ctrl_temp_map[1])
 3530              		.loc 1 370 0
 3531 0084 0123     		movs	r3, #1
 3532 0086 08E0     		b	.L312
 3533              	.L323:
 372:led_manager.c **** 	else if (MTR_CTRL_TEMP > mtr_ctrl_temp_map[1] && MTR_CTRL_TEMP <= mtr_ctrl_temp_map[2])
 3534              		.loc 1 372 0
 3535 0088 0223     		movs	r3, #2
 3536 008a 06E0     		b	.L312
 3537              	.L324:
 374:led_manager.c **** 	else if (MTR_CTRL_TEMP > mtr_ctrl_temp_map[2] && MTR_CTRL_TEMP <= mtr_ctrl_temp_map[3])
 3538              		.loc 1 374 0
 3539 008c 0323     		movs	r3, #3
 3540 008e 04E0     		b	.L312
 3541              	.L325:
 376:led_manager.c **** 	else if (MTR_CTRL_TEMP > mtr_ctrl_temp_map[3] && MTR_CTRL_TEMP <= mtr_ctrl_temp_map[4])
 3542              		.loc 1 376 0
 3543 0090 0423     		movs	r3, #4
 3544 0092 02E0     		b	.L312
 3545              	.L326:
 378:led_manager.c **** 	else {	//(MTR_CTRL_TEMP >= 59)
 3546              		.loc 1 378 0
 3547 0094 0523     		movs	r3, #5
 3548 0096 00E0     		b	.L312
 3549              	.L327:
 368:led_manager.c **** 	if (MTR_CTRL_TEMP <= mtr_ctrl_temp_map[0])
 3550              		.loc 1 368 0
 3551 0098 0023     		movs	r3, #0
 3552              	.L312:
 3553              	.LVL363:
 387:led_manager.c **** 		int i;
 3554              		.loc 1 387 0
 3555 009a 1A4A     		ldr	r2, .L330+4
 3556 009c D2F8A420 		ldr	r2, [r2, #164]
 3557 00a0 42B1     		cbz	r2, .L328
 3558 00a2 10BD     		pop	{r4, pc}
 3559              	.LVL364:
 3560              	.L319:
 3561              	.LBB8:
 390:led_manager.c **** 		for(i=steps; i<5; i++)
 3562              		.loc 1 390 0 discriminator 3
 3563 00a4 1749     		ldr	r1, .L330+4
 3564 00a6 01EB8201 		add	r1, r1, r2, lsl #2
 3565 00aa 0120     		movs	r0, #1
 3566 00ac C1F8A800 		str	r0, [r1, #168]
 389:led_manager.c **** 			b3_arr[i] = 1;	//on leds
 3567              		.loc 1 389 0 discriminator 3
ARM GAS  D:\Windows\AppData\Local\Temp\ccP1kfgz.s 			page 87


 3568 00b0 0244     		add	r2, r2, r0
 3569              	.LVL365:
 3570 00b2 00E0     		b	.L317
 3571              	.LVL366:
 3572              	.L328:
 3573              	.LBE8:
 3574 00b4 0022     		movs	r2, #0
 3575              	.L317:
 3576              	.LVL367:
 3577              	.LBB9:
 389:led_manager.c **** 			b3_arr[i] = 1;	//on leds
 3578              		.loc 1 389 0 is_stmt 0 discriminator 1
 3579 00b6 9A42     		cmp	r2, r3
 3580 00b8 F4DB     		blt	.L319
 3581 00ba 06E0     		b	.L320
 3582              	.LVL368:
 3583              	.L321:
 392:led_manager.c **** 		
 3584              		.loc 1 392 0 is_stmt 1 discriminator 3
 3585 00bc 114A     		ldr	r2, .L330+4
 3586 00be 02EB8302 		add	r2, r2, r3, lsl #2
 3587 00c2 0021     		movs	r1, #0
 3588 00c4 C2F8A810 		str	r1, [r2, #168]
 391:led_manager.c **** 			b3_arr[i] = 0;	//off leds
 3589              		.loc 1 391 0 discriminator 3
 3590 00c8 0133     		adds	r3, r3, #1
 3591              	.LVL369:
 3592              	.L320:
 391:led_manager.c **** 			b3_arr[i] = 0;	//off leds
 3593              		.loc 1 391 0 is_stmt 0 discriminator 1
 3594 00ca 042B     		cmp	r3, #4
 3595 00cc F6DD     		ble	.L321
 394:led_manager.c **** 		b32_write(b3_arr[1]);
 3596              		.loc 1 394 0 is_stmt 1
 3597 00ce 0D4C     		ldr	r4, .L330+4
 3598 00d0 D4F8A800 		ldr	r0, [r4, #168]
 3599 00d4 FFF7FEFF 		bl	b31_write
 3600              	.LVL370:
 395:led_manager.c **** 		b33_write(b3_arr[2]);
 3601              		.loc 1 395 0
 3602 00d8 D4F8AC00 		ldr	r0, [r4, #172]
 3603 00dc FFF7FEFF 		bl	b32_write
 3604              	.LVL371:
 396:led_manager.c **** 		b34_write(b3_arr[3]);
 3605              		.loc 1 396 0
 3606 00e0 D4F8B000 		ldr	r0, [r4, #176]
 3607 00e4 FFF7FEFF 		bl	b33_write
 3608              	.LVL372:
 397:led_manager.c **** 		b35_write(b3_arr[4]);
 3609              		.loc 1 397 0
 3610 00e8 D4F8B400 		ldr	r0, [r4, #180]
 3611 00ec FFF7FEFF 		bl	b34_write
 3612              	.LVL373:
 398:led_manager.c ****         led_update_stat();
 3613              		.loc 1 398 0
 3614 00f0 D4F8B800 		ldr	r0, [r4, #184]
 3615 00f4 FFF7FEFF 		bl	b35_write
ARM GAS  D:\Windows\AppData\Local\Temp\ccP1kfgz.s 			page 88


 3616              	.LVL374:
 399:led_manager.c **** 	} //if
 3617              		.loc 1 399 0
 3618 00f8 FFF7FEFF 		bl	led_update_stat
 3619              	.LVL375:
 3620 00fc 10BD     		pop	{r4, pc}
 3621              	.L331:
 3622 00fe 00BF     		.align	2
 3623              	.L330:
 3624 0100 00000000 		.word	.LANCHOR1
 3625 0104 00000000 		.word	.LANCHOR0
 3626 0108 00000000 		.word	b3_crit_isr
 3627              	.LBE9:
 3628              		.cfi_endproc
 3629              	.LFE72:
 3630              		.size	led_write_b3, .-led_write_b3
 3631              		.section	.text.c5_write,"ax",%progbits
 3632              		.align	2
 3633              		.global	c5_write
 3634              		.thumb
 3635              		.thumb_func
 3636              		.type	c5_write, %function
 3637              	c5_write:
 3638              	.LFB120:
 968:led_manager.c **** }
 969:led_manager.c **** 
 970:led_manager.c **** //main center horizontal bar
 971:led_manager.c **** void c5_write(int bool) {
 3639              		.loc 1 971 0
 3640              		.cfi_startproc
 3641              		@ args = 0, pretend = 0, frame = 0
 3642              		@ frame_needed = 0, uses_anonymous_args = 0
 3643              		@ link register save eliminated.
 3644              	.LVL376:
 972:led_manager.c **** 	uint8_t bit = 0x20;
 973:led_manager.c **** 	if(bool == 1) 	//led on
 3645              		.loc 1 973 0
 3646 0000 0128     		cmp	r0, #1
 3647 0002 05D1     		bne	.L333
 974:led_manager.c **** 		byte08_2 = byte08_2 | bit;
 3648              		.loc 1 974 0
 3649 0004 054A     		ldr	r2, .L335
 3650 0006 D379     		ldrb	r3, [r2, #7]	@ zero_extendqisi2
 3651 0008 43F02003 		orr	r3, r3, #32
 3652 000c D371     		strb	r3, [r2, #7]
 3653 000e 7047     		bx	lr
 3654              	.L333:
 975:led_manager.c **** 	else			//led off
 976:led_manager.c **** 		byte08_2 = byte08_2 & ~bit;
 3655              		.loc 1 976 0
 3656 0010 024A     		ldr	r2, .L335
 3657 0012 D379     		ldrb	r3, [r2, #7]	@ zero_extendqisi2
 3658 0014 23F02003 		bic	r3, r3, #32
 3659 0018 D371     		strb	r3, [r2, #7]
 3660 001a 7047     		bx	lr
 3661              	.L336:
 3662              		.align	2
ARM GAS  D:\Windows\AppData\Local\Temp\ccP1kfgz.s 			page 89


 3663              	.L335:
 3664 001c 00000000 		.word	.LANCHOR0
 3665              		.cfi_endproc
 3666              	.LFE120:
 3667              		.size	c5_write, .-c5_write
 3668              		.section	.text.c4_write,"ax",%progbits
 3669              		.align	2
 3670              		.global	c4_write
 3671              		.thumb
 3672              		.thumb_func
 3673              		.type	c4_write, %function
 3674              	c4_write:
 3675              	.LFB121:
 977:led_manager.c **** }
 978:led_manager.c **** void c4_write(int bool) {
 3676              		.loc 1 978 0
 3677              		.cfi_startproc
 3678              		@ args = 0, pretend = 0, frame = 0
 3679              		@ frame_needed = 0, uses_anonymous_args = 0
 3680              		@ link register save eliminated.
 3681              	.LVL377:
 979:led_manager.c **** 	uint8_t bit = 0x04;
 980:led_manager.c **** 	if(bool == 1) 	//led on
 3682              		.loc 1 980 0
 3683 0000 0128     		cmp	r0, #1
 3684 0002 05D1     		bne	.L338
 981:led_manager.c **** 		byte05_2 = byte05_2 | bit;
 3685              		.loc 1 981 0
 3686 0004 054A     		ldr	r2, .L340
 3687 0006 1379     		ldrb	r3, [r2, #4]	@ zero_extendqisi2
 3688 0008 43F00403 		orr	r3, r3, #4
 3689 000c 1371     		strb	r3, [r2, #4]
 3690 000e 7047     		bx	lr
 3691              	.L338:
 982:led_manager.c **** 	else			//led off
 983:led_manager.c **** 		byte05_2 = byte05_2 & ~bit;
 3692              		.loc 1 983 0
 3693 0010 024A     		ldr	r2, .L340
 3694 0012 1379     		ldrb	r3, [r2, #4]	@ zero_extendqisi2
 3695 0014 23F00403 		bic	r3, r3, #4
 3696 0018 1371     		strb	r3, [r2, #4]
 3697 001a 7047     		bx	lr
 3698              	.L341:
 3699              		.align	2
 3700              	.L340:
 3701 001c 00000000 		.word	.LANCHOR0
 3702              		.cfi_endproc
 3703              	.LFE121:
 3704              		.size	c4_write, .-c4_write
 3705              		.section	.text.c3_write,"ax",%progbits
 3706              		.align	2
 3707              		.global	c3_write
 3708              		.thumb
 3709              		.thumb_func
 3710              		.type	c3_write, %function
 3711              	c3_write:
 3712              	.LFB122:
ARM GAS  D:\Windows\AppData\Local\Temp\ccP1kfgz.s 			page 90


 984:led_manager.c **** }
 985:led_manager.c **** void c3_write(int bool) {
 3713              		.loc 1 985 0
 3714              		.cfi_startproc
 3715              		@ args = 0, pretend = 0, frame = 0
 3716              		@ frame_needed = 0, uses_anonymous_args = 0
 3717              		@ link register save eliminated.
 3718              	.LVL378:
 986:led_manager.c **** 	uint8_t bit = 0x40;
 987:led_manager.c **** 	if(bool == 1) 	//led on
 3719              		.loc 1 987 0
 3720 0000 0128     		cmp	r0, #1
 3721 0002 05D1     		bne	.L343
 988:led_manager.c **** 		byte05_2 = byte05_2 | bit;
 3722              		.loc 1 988 0
 3723 0004 054A     		ldr	r2, .L345
 3724 0006 1379     		ldrb	r3, [r2, #4]	@ zero_extendqisi2
 3725 0008 43F04003 		orr	r3, r3, #64
 3726 000c 1371     		strb	r3, [r2, #4]
 3727 000e 7047     		bx	lr
 3728              	.L343:
 989:led_manager.c **** 	else			//led off
 990:led_manager.c **** 		byte05_2 = byte05_2 & ~bit;
 3729              		.loc 1 990 0
 3730 0010 024A     		ldr	r2, .L345
 3731 0012 1379     		ldrb	r3, [r2, #4]	@ zero_extendqisi2
 3732 0014 23F04003 		bic	r3, r3, #64
 3733 0018 1371     		strb	r3, [r2, #4]
 3734 001a 7047     		bx	lr
 3735              	.L346:
 3736              		.align	2
 3737              	.L345:
 3738 001c 00000000 		.word	.LANCHOR0
 3739              		.cfi_endproc
 3740              	.LFE122:
 3741              		.size	c3_write, .-c3_write
 3742              		.section	.text.c2_write,"ax",%progbits
 3743              		.align	2
 3744              		.global	c2_write
 3745              		.thumb
 3746              		.thumb_func
 3747              		.type	c2_write, %function
 3748              	c2_write:
 3749              	.LFB123:
 991:led_manager.c **** }
 992:led_manager.c **** //right bar
 993:led_manager.c **** void c2_write(int bool) {
 3750              		.loc 1 993 0
 3751              		.cfi_startproc
 3752              		@ args = 0, pretend = 0, frame = 0
 3753              		@ frame_needed = 0, uses_anonymous_args = 0
 3754              		@ link register save eliminated.
 3755              	.LVL379:
 994:led_manager.c **** 	uint8_t bit = 0x04;
 995:led_manager.c **** 	if(bool == 1) 	//led on
 3756              		.loc 1 995 0
 3757 0000 0128     		cmp	r0, #1
ARM GAS  D:\Windows\AppData\Local\Temp\ccP1kfgz.s 			page 91


 3758 0002 05D1     		bne	.L348
 996:led_manager.c **** 		byte06_2 = byte06_2 | bit;
 3759              		.loc 1 996 0
 3760 0004 054A     		ldr	r2, .L350
 3761 0006 5379     		ldrb	r3, [r2, #5]	@ zero_extendqisi2
 3762 0008 43F00403 		orr	r3, r3, #4
 3763 000c 5371     		strb	r3, [r2, #5]
 3764 000e 7047     		bx	lr
 3765              	.L348:
 997:led_manager.c **** 	else			//led off
 998:led_manager.c **** 		byte06_2 = byte06_2 & ~bit;
 3766              		.loc 1 998 0
 3767 0010 024A     		ldr	r2, .L350
 3768 0012 5379     		ldrb	r3, [r2, #5]	@ zero_extendqisi2
 3769 0014 23F00403 		bic	r3, r3, #4
 3770 0018 5371     		strb	r3, [r2, #5]
 3771 001a 7047     		bx	lr
 3772              	.L351:
 3773              		.align	2
 3774              	.L350:
 3775 001c 00000000 		.word	.LANCHOR0
 3776              		.cfi_endproc
 3777              	.LFE123:
 3778              		.size	c2_write, .-c2_write
 3779              		.section	.text.c1_write,"ax",%progbits
 3780              		.align	2
 3781              		.global	c1_write
 3782              		.thumb
 3783              		.thumb_func
 3784              		.type	c1_write, %function
 3785              	c1_write:
 3786              	.LFB124:
 999:led_manager.c **** }
1000:led_manager.c **** //right bar
1001:led_manager.c **** void c1_write(int bool) {
 3787              		.loc 1 1001 0
 3788              		.cfi_startproc
 3789              		@ args = 0, pretend = 0, frame = 0
 3790              		@ frame_needed = 0, uses_anonymous_args = 0
 3791              		@ link register save eliminated.
 3792              	.LVL380:
1002:led_manager.c **** 	uint8_t bit = 0x40;
1003:led_manager.c **** 	if(bool == 1) 	//led on
 3793              		.loc 1 1003 0
 3794 0000 0128     		cmp	r0, #1
 3795 0002 05D1     		bne	.L353
1004:led_manager.c **** 		byte06_2 = byte06_2 | bit;
 3796              		.loc 1 1004 0
 3797 0004 054A     		ldr	r2, .L355
 3798 0006 5379     		ldrb	r3, [r2, #5]	@ zero_extendqisi2
 3799 0008 43F04003 		orr	r3, r3, #64
 3800 000c 5371     		strb	r3, [r2, #5]
 3801 000e 7047     		bx	lr
 3802              	.L353:
1005:led_manager.c **** 	else			//led off
1006:led_manager.c **** 		byte06_2 = byte06_2 & ~bit;
 3803              		.loc 1 1006 0
ARM GAS  D:\Windows\AppData\Local\Temp\ccP1kfgz.s 			page 92


 3804 0010 024A     		ldr	r2, .L355
 3805 0012 5379     		ldrb	r3, [r2, #5]	@ zero_extendqisi2
 3806 0014 23F04003 		bic	r3, r3, #64
 3807 0018 5371     		strb	r3, [r2, #5]
 3808 001a 7047     		bx	lr
 3809              	.L356:
 3810              		.align	2
 3811              	.L355:
 3812 001c 00000000 		.word	.LANCHOR0
 3813              		.cfi_endproc
 3814              	.LFE124:
 3815              		.size	c1_write, .-c1_write
 3816              		.section	.text.c1_crit_isr,"ax",%progbits
 3817              		.align	2
 3818              		.global	c1_crit_isr
 3819              		.thumb
 3820              		.thumb_func
 3821              		.type	c1_crit_isr, %function
 3822              	c1_crit_isr:
 3823              	.LFB67:
 108:led_manager.c **** 	c1_crit_led = c1_crit_led == 0 ? 1:0;
 3824              		.loc 1 108 0
 3825              		.cfi_startproc
 3826              		@ args = 0, pretend = 0, frame = 0
 3827              		@ frame_needed = 0, uses_anonymous_args = 0
 3828 0000 10B5     		push	{r4, lr}
 3829              		.cfi_def_cfa_offset 8
 3830              		.cfi_offset 4, -8
 3831              		.cfi_offset 14, -4
 109:led_manager.c **** 	c1_write(c1_crit_led);
 3832              		.loc 1 109 0
 3833 0002 0E4C     		ldr	r4, .L359
 3834 0004 D4F8BC00 		ldr	r0, [r4, #188]
 3835 0008 B0FA80F0 		clz	r0, r0
 3836 000c 4009     		lsrs	r0, r0, #5
 3837 000e C4F8BC00 		str	r0, [r4, #188]
 110:led_manager.c **** 	c2_write(c1_crit_led);
 3838              		.loc 1 110 0
 3839 0012 FFF7FEFF 		bl	c1_write
 3840              	.LVL381:
 111:led_manager.c **** 	c3_write(c1_crit_led);
 3841              		.loc 1 111 0
 3842 0016 D4F8BC00 		ldr	r0, [r4, #188]
 3843 001a FFF7FEFF 		bl	c2_write
 3844              	.LVL382:
 112:led_manager.c **** 	c4_write(c1_crit_led);
 3845              		.loc 1 112 0
 3846 001e D4F8BC00 		ldr	r0, [r4, #188]
 3847 0022 FFF7FEFF 		bl	c3_write
 3848              	.LVL383:
 113:led_manager.c **** 	c5_write(c1_crit_led);
 3849              		.loc 1 113 0
 3850 0026 D4F8BC00 		ldr	r0, [r4, #188]
 3851 002a FFF7FEFF 		bl	c4_write
 3852              	.LVL384:
 114:led_manager.c ****     led_update_stat();
 3853              		.loc 1 114 0
ARM GAS  D:\Windows\AppData\Local\Temp\ccP1kfgz.s 			page 93


 3854 002e D4F8BC00 		ldr	r0, [r4, #188]
 3855 0032 FFF7FEFF 		bl	c5_write
 3856              	.LVL385:
 115:led_manager.c **** }
 3857              		.loc 1 115 0
 3858 0036 FFF7FEFF 		bl	led_update_stat
 3859              	.LVL386:
 3860 003a 10BD     		pop	{r4, pc}
 3861              	.L360:
 3862              		.align	2
 3863              	.L359:
 3864 003c 00000000 		.word	.LANCHOR0
 3865              		.cfi_endproc
 3866              	.LFE67:
 3867              		.size	c1_crit_isr, .-c1_crit_isr
 3868              		.section	.text.led_write_c1,"ax",%progbits
 3869              		.align	2
 3870              		.global	led_write_c1
 3871              		.thumb
 3872              		.thumb_func
 3873              		.type	led_write_c1, %function
 3874              	led_write_c1:
 3875              	.LFB73:
 403:led_manager.c **** 	int steps = 0;
 3876              		.loc 1 403 0
 3877              		.cfi_startproc
 3878              		@ args = 0, pretend = 0, frame = 0
 3879              		@ frame_needed = 0, uses_anonymous_args = 0
 3880              	.LVL387:
 3881 0000 10B5     		push	{r4, lr}
 3882              		.cfi_def_cfa_offset 8
 3883              		.cfi_offset 4, -8
 3884              		.cfi_offset 14, -4
 3885              	.LVL388:
 405:led_manager.c **** 		steps = 5;
 3886              		.loc 1 405 0
 3887 0002 A0F15103 		sub	r3, r0, #81
 3888 0006 DBB2     		uxtb	r3, r3
 3889 0008 122B     		cmp	r3, #18
 3890 000a 21D9     		bls	.L368
 407:led_manager.c **** 		steps = 4;
 3891              		.loc 1 407 0
 3892 000c A0F13D03 		sub	r3, r0, #61
 3893 0010 DBB2     		uxtb	r3, r3
 3894 0012 122B     		cmp	r3, #18
 3895 0014 1ED9     		bls	.L369
 409:led_manager.c **** 		steps = 3;
 3896              		.loc 1 409 0
 3897 0016 A0F12903 		sub	r3, r0, #41
 3898 001a DBB2     		uxtb	r3, r3
 3899 001c 122B     		cmp	r3, #18
 3900 001e 1BD9     		bls	.L370
 411:led_manager.c **** 		steps = 2;
 3901              		.loc 1 411 0
 3902 0020 A0F11503 		sub	r3, r0, #21
 3903 0024 DBB2     		uxtb	r3, r3
 3904 0026 122B     		cmp	r3, #18
ARM GAS  D:\Windows\AppData\Local\Temp\ccP1kfgz.s 			page 94


 3905 0028 18D9     		bls	.L371
 413:led_manager.c **** 		steps = 1;
 3906              		.loc 1 413 0
 3907 002a 0B38     		subs	r0, r0, #11
 3908              	.LVL389:
 3909 002c C0B2     		uxtb	r0, r0
 3910 002e 0828     		cmp	r0, #8
 3911 0030 16D9     		bls	.L372
 416:led_manager.c **** 			c1_critical_timer_Start();
 3912              		.loc 1 416 0
 3913 0032 264B     		ldr	r3, .L376
 3914 0034 D3F8C030 		ldr	r3, [r3, #192]
 3915 0038 A3B9     		cbnz	r3, .L373
 417:led_manager.c **** 			c1_crit_int_StartEx(c1_crit_isr);
 3916              		.loc 1 417 0
 3917 003a FFF7FEFF 		bl	c1_critical_timer_Start
 3918              	.LVL390:
 418:led_manager.c **** 			c1_critical = 1;
 3919              		.loc 1 418 0
 3920 003e 2448     		ldr	r0, .L376+4
 3921 0040 FFF7FEFF 		bl	c1_crit_int_StartEx
 3922              	.LVL391:
 419:led_manager.c **** 		} //if
 3923              		.loc 1 419 0
 3924 0044 0122     		movs	r2, #1
 3925 0046 214B     		ldr	r3, .L376
 3926 0048 C3F8C020 		str	r2, [r3, #192]
 404:led_manager.c **** 	if (SoC > 80 && SoC < 100)
 3927              		.loc 1 404 0
 3928 004c 0023     		movs	r3, #0
 3929 004e 0AE0     		b	.L362
 3930              	.LVL392:
 3931              	.L368:
 406:led_manager.c **** 	else if (SoC > 60  && SoC < 80)
 3932              		.loc 1 406 0
 3933 0050 0523     		movs	r3, #5
 3934 0052 08E0     		b	.L362
 3935              	.L369:
 408:led_manager.c **** 	else if (SoC > 40 && SoC < 60)
 3936              		.loc 1 408 0
 3937 0054 0423     		movs	r3, #4
 3938 0056 06E0     		b	.L362
 3939              	.L370:
 410:led_manager.c **** 	else if (SoC > 20 && SoC < 40)
 3940              		.loc 1 410 0
 3941 0058 0323     		movs	r3, #3
 3942 005a 04E0     		b	.L362
 3943              	.L371:
 412:led_manager.c **** 	else if (SoC > 10 && SoC < 20)
 3944              		.loc 1 412 0
 3945 005c 0223     		movs	r3, #2
 3946 005e 02E0     		b	.L362
 3947              	.LVL393:
 3948              	.L372:
 414:led_manager.c **** 	else {	//(SoC <= 10)
 3949              		.loc 1 414 0
 3950 0060 0123     		movs	r3, #1
ARM GAS  D:\Windows\AppData\Local\Temp\ccP1kfgz.s 			page 95


 3951 0062 00E0     		b	.L362
 3952              	.L373:
 404:led_manager.c **** 	if (SoC > 80 && SoC < 100)
 3953              		.loc 1 404 0
 3954 0064 0023     		movs	r3, #0
 3955              	.L362:
 3956              	.LVL394:
 423:led_manager.c **** 		int i;
 3957              		.loc 1 423 0
 3958 0066 194A     		ldr	r2, .L376
 3959 0068 D2F8C020 		ldr	r2, [r2, #192]
 3960 006c 42B1     		cbz	r2, .L374
 3961 006e 10BD     		pop	{r4, pc}
 3962              	.LVL395:
 3963              	.L365:
 3964              	.LBB10:
 426:led_manager.c **** 		for(i=steps; i<5; i++)
 3965              		.loc 1 426 0 discriminator 3
 3966 0070 1649     		ldr	r1, .L376
 3967 0072 01EB8201 		add	r1, r1, r2, lsl #2
 3968 0076 0120     		movs	r0, #1
 3969 0078 C1F8C400 		str	r0, [r1, #196]
 425:led_manager.c **** 			c1_arr[i] = 1;	//on leds
 3970              		.loc 1 425 0 discriminator 3
 3971 007c 0244     		add	r2, r2, r0
 3972              	.LVL396:
 3973 007e 00E0     		b	.L363
 3974              	.LVL397:
 3975              	.L374:
 3976              	.LBE10:
 3977 0080 0022     		movs	r2, #0
 3978              	.L363:
 3979              	.LVL398:
 3980              	.LBB11:
 425:led_manager.c **** 			c1_arr[i] = 1;	//on leds
 3981              		.loc 1 425 0 is_stmt 0 discriminator 1
 3982 0082 9A42     		cmp	r2, r3
 3983 0084 F4DB     		blt	.L365
 3984 0086 06E0     		b	.L366
 3985              	.LVL399:
 3986              	.L367:
 428:led_manager.c **** 		
 3987              		.loc 1 428 0 is_stmt 1 discriminator 3
 3988 0088 104A     		ldr	r2, .L376
 3989 008a 02EB8302 		add	r2, r2, r3, lsl #2
 3990 008e 0021     		movs	r1, #0
 3991 0090 C2F8C410 		str	r1, [r2, #196]
 427:led_manager.c **** 			c1_arr[i] = 0;	//off leds
 3992              		.loc 1 427 0 discriminator 3
 3993 0094 0133     		adds	r3, r3, #1
 3994              	.LVL400:
 3995              	.L366:
 427:led_manager.c **** 			c1_arr[i] = 0;	//off leds
 3996              		.loc 1 427 0 is_stmt 0 discriminator 1
 3997 0096 042B     		cmp	r3, #4
 3998 0098 F6DD     		ble	.L367
 430:led_manager.c **** 		c2_write(c1_arr[1]);
ARM GAS  D:\Windows\AppData\Local\Temp\ccP1kfgz.s 			page 96


 3999              		.loc 1 430 0 is_stmt 1
 4000 009a 0C4C     		ldr	r4, .L376
 4001 009c D4F8C400 		ldr	r0, [r4, #196]
 4002 00a0 FFF7FEFF 		bl	c1_write
 4003              	.LVL401:
 431:led_manager.c **** 		c3_write(c1_arr[2]);
 4004              		.loc 1 431 0
 4005 00a4 D4F8C800 		ldr	r0, [r4, #200]
 4006 00a8 FFF7FEFF 		bl	c2_write
 4007              	.LVL402:
 432:led_manager.c **** 		c4_write(c1_arr[3]);
 4008              		.loc 1 432 0
 4009 00ac D4F8CC00 		ldr	r0, [r4, #204]
 4010 00b0 FFF7FEFF 		bl	c3_write
 4011              	.LVL403:
 433:led_manager.c **** 		c5_write(c1_arr[4]);
 4012              		.loc 1 433 0
 4013 00b4 D4F8D000 		ldr	r0, [r4, #208]
 4014 00b8 FFF7FEFF 		bl	c4_write
 4015              	.LVL404:
 434:led_manager.c ****         led_update_stat();
 4016              		.loc 1 434 0
 4017 00bc D4F8D400 		ldr	r0, [r4, #212]
 4018 00c0 FFF7FEFF 		bl	c5_write
 4019              	.LVL405:
 435:led_manager.c **** 	} //if
 4020              		.loc 1 435 0
 4021 00c4 FFF7FEFF 		bl	led_update_stat
 4022              	.LVL406:
 4023 00c8 10BD     		pop	{r4, pc}
 4024              	.L377:
 4025 00ca 00BF     		.align	2
 4026              	.L376:
 4027 00cc 00000000 		.word	.LANCHOR0
 4028 00d0 00000000 		.word	c1_crit_isr
 4029              	.LBE11:
 4030              		.cfi_endproc
 4031              	.LFE73:
 4032              		.size	led_write_c1, .-led_write_c1
 4033              		.section	.text.write_startup_stat,"ax",%progbits
 4034              		.align	2
 4035              		.global	write_startup_stat
 4036              		.thumb
 4037              		.thumb_func
 4038              		.type	write_startup_stat, %function
 4039              	write_startup_stat:
 4040              	.LFB79:
 545:led_manager.c ****     //slowly turns on all bars of each monitor at a time
 4041              		.loc 1 545 0
 4042              		.cfi_startproc
 4043              		@ args = 0, pretend = 0, frame = 0
 4044              		@ frame_needed = 0, uses_anonymous_args = 0
 4045 0000 08B5     		push	{r3, lr}
 4046              		.cfi_def_cfa_offset 8
 4047              		.cfi_offset 3, -8
 4048              		.cfi_offset 14, -4
 547:led_manager.c ****     LED_Driver2_MasterWriteByte(0x01);
ARM GAS  D:\Windows\AppData\Local\Temp\ccP1kfgz.s 			page 97


 4049              		.loc 1 547 0
 4050 0002 4020     		movs	r0, #64
 4051 0004 0021     		movs	r1, #0
 4052 0006 FFF7FEFF 		bl	LED_Driver2_MasterSendStart
 4053              	.LVL407:
 548:led_manager.c ****     LED_Driver2_MasterWriteByte(0x77);
 4054              		.loc 1 548 0
 4055 000a 0120     		movs	r0, #1
 4056 000c FFF7FEFF 		bl	LED_Driver2_MasterWriteByte
 4057              	.LVL408:
 549:led_manager.c ****     LED_Driver2_MasterSendStop();
 4058              		.loc 1 549 0
 4059 0010 7720     		movs	r0, #119
 4060 0012 FFF7FEFF 		bl	LED_Driver2_MasterWriteByte
 4061              	.LVL409:
 550:led_manager.c ****     
 4062              		.loc 1 550 0
 4063 0016 FFF7FEFF 		bl	LED_Driver2_MasterSendStop
 4064              	.LVL410:
 552:led_manager.c ****     CyDelay(500);
 4065              		.loc 1 552 0
 4066 001a 3B20     		movs	r0, #59
 4067 001c FFF7FEFF 		bl	led_write_b1
 4068              	.LVL411:
 553:led_manager.c ****     led_write_b2(59);
 4069              		.loc 1 553 0
 4070 0020 4FF4FA70 		mov	r0, #500
 4071 0024 FFF7FEFF 		bl	CyDelay
 4072              	.LVL412:
 554:led_manager.c ****     CyDelay(500);
 4073              		.loc 1 554 0
 4074 0028 3B20     		movs	r0, #59
 4075 002a FFF7FEFF 		bl	led_write_b2
 4076              	.LVL413:
 555:led_manager.c ****     led_write_b3(59);
 4077              		.loc 1 555 0
 4078 002e 4FF4FA70 		mov	r0, #500
 4079 0032 FFF7FEFF 		bl	CyDelay
 4080              	.LVL414:
 556:led_manager.c ****     CyDelay(500);
 4081              		.loc 1 556 0
 4082 0036 3B20     		movs	r0, #59
 4083 0038 FFF7FEFF 		bl	led_write_b3
 4084              	.LVL415:
 557:led_manager.c ****     led_write_c1(99);
 4085              		.loc 1 557 0
 4086 003c 4FF4FA70 		mov	r0, #500
 4087 0040 FFF7FEFF 		bl	CyDelay
 4088              	.LVL416:
 558:led_manager.c ****     
 4089              		.loc 1 558 0
 4090 0044 6320     		movs	r0, #99
 4091 0046 FFF7FEFF 		bl	led_write_c1
 4092              	.LVL417:
 560:led_manager.c ****     LED_Driver2_MasterWriteByte(0x01);
 4093              		.loc 1 560 0
 4094 004a 4020     		movs	r0, #64
ARM GAS  D:\Windows\AppData\Local\Temp\ccP1kfgz.s 			page 98


 4095 004c 0021     		movs	r1, #0
 4096 004e FFF7FEFF 		bl	LED_Driver2_MasterSendStart
 4097              	.LVL418:
 561:led_manager.c ****     LED_Driver2_MasterWriteByte(0x00);
 4098              		.loc 1 561 0
 4099 0052 0120     		movs	r0, #1
 4100 0054 FFF7FEFF 		bl	LED_Driver2_MasterWriteByte
 4101              	.LVL419:
 562:led_manager.c ****     LED_Driver2_MasterSendStop();
 4102              		.loc 1 562 0
 4103 0058 0020     		movs	r0, #0
 4104 005a FFF7FEFF 		bl	LED_Driver2_MasterWriteByte
 4105              	.LVL420:
 563:led_manager.c **** }
 4106              		.loc 1 563 0
 4107 005e FFF7FEFF 		bl	LED_Driver2_MasterSendStop
 4108              	.LVL421:
 4109 0062 08BD     		pop	{r3, pc}
 4110              		.cfi_endproc
 4111              	.LFE79:
 4112              		.size	write_startup_stat, .-write_startup_stat
 4113              		.global	c1_crit_led
 4114              		.global	b3_crit_led
 4115              		.global	b2_crit_led
 4116              		.global	b1_crit_led
 4117              		.global	tach_crit_led
 4118              		.global	c1_critical
 4119              		.global	b3_critical
 4120              		.global	b2_critical
 4121              		.global	b1_critical
 4122              		.global	tach_critical
 4123              		.global	c1_arr
 4124              		.global	b3_arr
 4125              		.global	b2_arr
 4126              		.global	b1_arr
 4127              		.global	tach_arr
 4128              		.global	byte08_2
 4129              		.global	byte07_2
 4130              		.global	byte06_2
 4131              		.global	byte05_2
 4132              		.global	byte08
 4133              		.global	byte07
 4134              		.global	byte06
 4135              		.global	byte05
 4136              		.global	mtr_ctrl_temp_map
 4137              		.global	mtr_temp_map
 4138              		.global	bms_temp_map
 4139              		.data
 4140              		.align	2
 4141              		.set	.LANCHOR1,. + 0
 4142              		.type	mtr_temp_map, %object
 4143              		.size	mtr_temp_map, 20
 4144              	mtr_temp_map:
 4145 0000 32000000 		.word	50
 4146 0004 4B000000 		.word	75
 4147 0008 64000000 		.word	100
 4148 000c 7D000000 		.word	125
ARM GAS  D:\Windows\AppData\Local\Temp\ccP1kfgz.s 			page 99


 4149 0010 96000000 		.word	150
 4150              		.type	bms_temp_map, %object
 4151              		.size	bms_temp_map, 20
 4152              	bms_temp_map:
 4153 0014 40000000 		.word	64
 4154 0018 45000000 		.word	69
 4155 001c 50000000 		.word	80
 4156 0020 55000000 		.word	85
 4157 0024 60000000 		.word	96
 4158              		.type	mtr_ctrl_temp_map, %object
 4159              		.size	mtr_ctrl_temp_map, 20
 4160              	mtr_ctrl_temp_map:
 4161 0028 3C000000 		.word	60
 4162 002c 46000000 		.word	70
 4163 0030 50000000 		.word	80
 4164 0034 5A000000 		.word	90
 4165 0038 64000000 		.word	100
 4166              		.bss
 4167              		.align	2
 4168              		.set	.LANCHOR0,. + 0
 4169              		.type	byte05, %object
 4170              		.size	byte05, 1
 4171              	byte05:
 4172 0000 00       		.space	1
 4173              		.type	byte06, %object
 4174              		.size	byte06, 1
 4175              	byte06:
 4176 0001 00       		.space	1
 4177              		.type	byte07, %object
 4178              		.size	byte07, 1
 4179              	byte07:
 4180 0002 00       		.space	1
 4181              		.type	byte08, %object
 4182              		.size	byte08, 1
 4183              	byte08:
 4184 0003 00       		.space	1
 4185              		.type	byte05_2, %object
 4186              		.size	byte05_2, 1
 4187              	byte05_2:
 4188 0004 00       		.space	1
 4189              		.type	byte06_2, %object
 4190              		.size	byte06_2, 1
 4191              	byte06_2:
 4192 0005 00       		.space	1
 4193              		.type	byte07_2, %object
 4194              		.size	byte07_2, 1
 4195              	byte07_2:
 4196 0006 00       		.space	1
 4197              		.type	byte08_2, %object
 4198              		.size	byte08_2, 1
 4199              	byte08_2:
 4200 0007 00       		.space	1
 4201              		.type	tach_crit_led, %object
 4202              		.size	tach_crit_led, 4
 4203              	tach_crit_led:
 4204 0008 00000000 		.space	4
 4205              		.type	tach_critical, %object
ARM GAS  D:\Windows\AppData\Local\Temp\ccP1kfgz.s 			page 100


 4206              		.size	tach_critical, 4
 4207              	tach_critical:
 4208 000c 00000000 		.space	4
 4209              		.type	tach_arr, %object
 4210              		.size	tach_arr, 88
 4211              	tach_arr:
 4212 0010 00000000 		.space	88
 4212      00000000 
 4212      00000000 
 4212      00000000 
 4212      00000000 
 4213              		.type	b1_crit_led, %object
 4214              		.size	b1_crit_led, 4
 4215              	b1_crit_led:
 4216 0068 00000000 		.space	4
 4217              		.type	b1_critical, %object
 4218              		.size	b1_critical, 4
 4219              	b1_critical:
 4220 006c 00000000 		.space	4
 4221              		.type	b1_arr, %object
 4222              		.size	b1_arr, 20
 4223              	b1_arr:
 4224 0070 00000000 		.space	20
 4224      00000000 
 4224      00000000 
 4224      00000000 
 4224      00000000 
 4225              		.type	b2_crit_led, %object
 4226              		.size	b2_crit_led, 4
 4227              	b2_crit_led:
 4228 0084 00000000 		.space	4
 4229              		.type	b2_critical, %object
 4230              		.size	b2_critical, 4
 4231              	b2_critical:
 4232 0088 00000000 		.space	4
 4233              		.type	b2_arr, %object
 4234              		.size	b2_arr, 20
 4235              	b2_arr:
 4236 008c 00000000 		.space	20
 4236      00000000 
 4236      00000000 
 4236      00000000 
 4236      00000000 
 4237              		.type	b3_crit_led, %object
 4238              		.size	b3_crit_led, 4
 4239              	b3_crit_led:
 4240 00a0 00000000 		.space	4
 4241              		.type	b3_critical, %object
 4242              		.size	b3_critical, 4
 4243              	b3_critical:
 4244 00a4 00000000 		.space	4
 4245              		.type	b3_arr, %object
 4246              		.size	b3_arr, 20
 4247              	b3_arr:
 4248 00a8 00000000 		.space	20
 4248      00000000 
 4248      00000000 
ARM GAS  D:\Windows\AppData\Local\Temp\ccP1kfgz.s 			page 101


 4248      00000000 
 4248      00000000 
 4249              		.type	c1_crit_led, %object
 4250              		.size	c1_crit_led, 4
 4251              	c1_crit_led:
 4252 00bc 00000000 		.space	4
 4253              		.type	c1_critical, %object
 4254              		.size	c1_critical, 4
 4255              	c1_critical:
 4256 00c0 00000000 		.space	4
 4257              		.type	c1_arr, %object
 4258              		.size	c1_arr, 20
 4259              	c1_arr:
 4260 00c4 00000000 		.space	20
 4260      00000000 
 4260      00000000 
 4260      00000000 
 4260      00000000 
 4261              		.text
 4262              	.Letext0:
 4263              		.file 2 "d:\\programming\\cypress\\psoc creator\\4.0\\psoc creator\\import\\gnu\\arm\\4.9.3\\arm-n
 4264              		.file 3 "d:\\programming\\cypress\\psoc creator\\4.0\\psoc creator\\import\\gnu\\arm\\4.9.3\\arm-n
 4265              		.file 4 "Generated_Source\\PSoC5/cytypes.h"
 4266              		.file 5 "Generated_Source\\PSoC5/core_cm3.h"
 4267              		.file 6 "Generated_Source\\PSoC5/LED_Driver1.h"
 4268              		.file 7 "Generated_Source\\PSoC5/LED_Driver2.h"
 4269              		.file 8 "Generated_Source\\PSoC5/tach_crit_int.h"
 4270              		.file 9 "Generated_Source\\PSoC5/tach_critical_timer.h"
 4271              		.file 10 "Generated_Source\\PSoC5/CyLib.h"
 4272              		.file 11 "Generated_Source\\PSoC5/b1_crit_int.h"
 4273              		.file 12 "Generated_Source\\PSoC5/b1_critical_timer.h"
 4274              		.file 13 "Generated_Source\\PSoC5/b2_crit_int.h"
 4275              		.file 14 "Generated_Source\\PSoC5/b2_critical_timer.h"
 4276              		.file 15 "Generated_Source\\PSoC5/b3_crit_int.h"
 4277              		.file 16 "Generated_Source\\PSoC5/b3_critical_timer.h"
 4278              		.file 17 "Generated_Source\\PSoC5/c1_critical_timer.h"
 4279              		.file 18 "Generated_Source\\PSoC5/c1_crit_int.h"
 4280              		.section	.debug_info,"",%progbits
 4281              	.Ldebug_info0:
 4282 0000 60220000 		.4byte	0x2260
 4283 0004 0400     		.2byte	0x4
 4284 0006 00000000 		.4byte	.Ldebug_abbrev0
 4285 000a 04       		.byte	0x4
 4286 000b 01       		.uleb128 0x1
 4287 000c 39060000 		.4byte	.LASF144
 4288 0010 01       		.byte	0x1
 4289 0011 B3040000 		.4byte	.LASF145
 4290 0015 4F000000 		.4byte	.LASF146
 4291 0019 78000000 		.4byte	.Ldebug_ranges0+0x78
 4292 001d 00000000 		.4byte	0
 4293 0021 00000000 		.4byte	.Ldebug_line0
 4294 0025 02       		.uleb128 0x2
 4295 0026 01       		.byte	0x1
 4296 0027 06       		.byte	0x6
 4297 0028 6A070000 		.4byte	.LASF0
 4298 002c 03       		.uleb128 0x3
 4299 002d 0D050000 		.4byte	.LASF3
ARM GAS  D:\Windows\AppData\Local\Temp\ccP1kfgz.s 			page 102


 4300 0031 02       		.byte	0x2
 4301 0032 1D       		.byte	0x1d
 4302 0033 37000000 		.4byte	0x37
 4303 0037 02       		.uleb128 0x2
 4304 0038 01       		.byte	0x1
 4305 0039 08       		.byte	0x8
 4306 003a 2B060000 		.4byte	.LASF1
 4307 003e 02       		.uleb128 0x2
 4308 003f 02       		.byte	0x2
 4309 0040 05       		.byte	0x5
 4310 0041 7D040000 		.4byte	.LASF2
 4311 0045 03       		.uleb128 0x3
 4312 0046 A7010000 		.4byte	.LASF4
 4313 004a 02       		.byte	0x2
 4314 004b 2B       		.byte	0x2b
 4315 004c 50000000 		.4byte	0x50
 4316 0050 02       		.uleb128 0x2
 4317 0051 02       		.byte	0x2
 4318 0052 07       		.byte	0x7
 4319 0053 7F070000 		.4byte	.LASF5
 4320 0057 03       		.uleb128 0x3
 4321 0058 E1000000 		.4byte	.LASF6
 4322 005c 02       		.byte	0x2
 4323 005d 3F       		.byte	0x3f
 4324 005e 62000000 		.4byte	0x62
 4325 0062 02       		.uleb128 0x2
 4326 0063 04       		.byte	0x4
 4327 0064 05       		.byte	0x5
 4328 0065 8D040000 		.4byte	.LASF7
 4329 0069 02       		.uleb128 0x2
 4330 006a 04       		.byte	0x4
 4331 006b 07       		.byte	0x7
 4332 006c 8A050000 		.4byte	.LASF8
 4333 0070 02       		.uleb128 0x2
 4334 0071 08       		.byte	0x8
 4335 0072 05       		.byte	0x5
 4336 0073 33030000 		.4byte	.LASF9
 4337 0077 02       		.uleb128 0x2
 4338 0078 08       		.byte	0x8
 4339 0079 07       		.byte	0x7
 4340 007a 86010000 		.4byte	.LASF10
 4341 007e 04       		.uleb128 0x4
 4342 007f 04       		.byte	0x4
 4343 0080 05       		.byte	0x5
 4344 0081 696E7400 		.ascii	"int\000"
 4345 0085 02       		.uleb128 0x2
 4346 0086 04       		.byte	0x4
 4347 0087 07       		.byte	0x7
 4348 0088 D4000000 		.4byte	.LASF11
 4349 008c 03       		.uleb128 0x3
 4350 008d EB020000 		.4byte	.LASF12
 4351 0091 03       		.byte	0x3
 4352 0092 15       		.byte	0x15
 4353 0093 2C000000 		.4byte	0x2c
 4354 0097 03       		.uleb128 0x3
 4355 0098 3D040000 		.4byte	.LASF13
 4356 009c 03       		.byte	0x3
ARM GAS  D:\Windows\AppData\Local\Temp\ccP1kfgz.s 			page 103


 4357 009d 21       		.byte	0x21
 4358 009e 45000000 		.4byte	0x45
 4359 00a2 03       		.uleb128 0x3
 4360 00a3 A8050000 		.4byte	.LASF14
 4361 00a7 03       		.byte	0x3
 4362 00a8 2C       		.byte	0x2c
 4363 00a9 57000000 		.4byte	0x57
 4364 00ad 05       		.uleb128 0x5
 4365 00ae D0070000 		.4byte	.LASF15
 4366 00b2 04       		.byte	0x4
 4367 00b3 3801     		.2byte	0x138
 4368 00b5 37000000 		.4byte	0x37
 4369 00b9 05       		.uleb128 0x5
 4370 00ba E8030000 		.4byte	.LASF16
 4371 00be 04       		.byte	0x4
 4372 00bf 3A01     		.2byte	0x13a
 4373 00c1 69000000 		.4byte	0x69
 4374 00c5 02       		.uleb128 0x2
 4375 00c6 04       		.byte	0x4
 4376 00c7 04       		.byte	0x4
 4377 00c8 49010000 		.4byte	.LASF17
 4378 00cc 02       		.uleb128 0x2
 4379 00cd 08       		.byte	0x8
 4380 00ce 04       		.byte	0x4
 4381 00cf D6070000 		.4byte	.LASF18
 4382 00d3 02       		.uleb128 0x2
 4383 00d4 01       		.byte	0x1
 4384 00d5 08       		.byte	0x8
 4385 00d6 7D020000 		.4byte	.LASF19
 4386 00da 05       		.uleb128 0x5
 4387 00db C6030000 		.4byte	.LASF20
 4388 00df 04       		.byte	0x4
 4389 00e0 F401     		.2byte	0x1f4
 4390 00e2 E6000000 		.4byte	0xe6
 4391 00e6 06       		.uleb128 0x6
 4392 00e7 04       		.byte	0x4
 4393 00e8 EC000000 		.4byte	0xec
 4394 00ec 07       		.uleb128 0x7
 4395 00ed 02       		.uleb128 0x2
 4396 00ee 04       		.byte	0x4
 4397 00ef 07       		.byte	0x7
 4398 00f0 69050000 		.4byte	.LASF21
 4399 00f4 08       		.uleb128 0x8
 4400 00f5 BE010000 		.4byte	.LASF22
 4401 00f9 01       		.byte	0x1
 4402 00fa B701     		.2byte	0x1b7
 4403 00fc 00000000 		.4byte	.LFB74
 4404 0100 4E000000 		.4byte	.LFE74-.LFB74
 4405 0104 01       		.uleb128 0x1
 4406 0105 9C       		.byte	0x9c
 4407 0106 F9010000 		.4byte	0x1f9
 4408 010a 09       		.uleb128 0x9
 4409 010b 9A030000 		.4byte	.LASF24
 4410 010f 01       		.byte	0x1
 4411 0110 B701     		.2byte	0x1b7
 4412 0112 7E000000 		.4byte	0x7e
 4413 0116 00000000 		.4byte	.LLST0
ARM GAS  D:\Windows\AppData\Local\Temp\ccP1kfgz.s 			page 104


 4414 011a 0A       		.uleb128 0xa
 4415 011b 87040000 		.4byte	.LASF25
 4416 011f 01       		.byte	0x1
 4417 0120 B801     		.2byte	0x1b8
 4418 0122 8C000000 		.4byte	0x8c
 4419 0126 77       		.byte	0x77
 4420 0127 0B       		.uleb128 0xb
 4421 0128 0C000000 		.4byte	.LVL3
 4422 012c 24210000 		.4byte	0x2124
 4423 0130 40010000 		.4byte	0x140
 4424 0134 0C       		.uleb128 0xc
 4425 0135 01       		.uleb128 0x1
 4426 0136 51       		.byte	0x51
 4427 0137 01       		.uleb128 0x1
 4428 0138 30       		.byte	0x30
 4429 0139 0C       		.uleb128 0xc
 4430 013a 01       		.uleb128 0x1
 4431 013b 50       		.byte	0x50
 4432 013c 02       		.uleb128 0x2
 4433 013d 08       		.byte	0x8
 4434 013e 40       		.byte	0x40
 4435 013f 00       		.byte	0
 4436 0140 0B       		.uleb128 0xb
 4437 0141 12000000 		.4byte	.LVL4
 4438 0145 3E210000 		.4byte	0x213e
 4439 0149 53010000 		.4byte	0x153
 4440 014d 0C       		.uleb128 0xc
 4441 014e 01       		.uleb128 0x1
 4442 014f 50       		.byte	0x50
 4443 0150 01       		.uleb128 0x1
 4444 0151 35       		.byte	0x35
 4445 0152 00       		.byte	0
 4446 0153 0B       		.uleb128 0xb
 4447 0154 1C000000 		.4byte	.LVL5
 4448 0158 3E210000 		.4byte	0x213e
 4449 015c 67010000 		.4byte	0x167
 4450 0160 0C       		.uleb128 0xc
 4451 0161 01       		.uleb128 0x1
 4452 0162 50       		.byte	0x50
 4453 0163 02       		.uleb128 0x2
 4454 0164 08       		.byte	0x8
 4455 0165 77       		.byte	0x77
 4456 0166 00       		.byte	0
 4457 0167 0B       		.uleb128 0xb
 4458 0168 22000000 		.4byte	.LVL6
 4459 016c 3E210000 		.4byte	0x213e
 4460 0170 7B010000 		.4byte	0x17b
 4461 0174 0C       		.uleb128 0xc
 4462 0175 01       		.uleb128 0x1
 4463 0176 50       		.byte	0x50
 4464 0177 02       		.uleb128 0x2
 4465 0178 08       		.byte	0x8
 4466 0179 77       		.byte	0x77
 4467 017a 00       		.byte	0
 4468 017b 0B       		.uleb128 0xb
 4469 017c 28000000 		.4byte	.LVL7
 4470 0180 3E210000 		.4byte	0x213e
ARM GAS  D:\Windows\AppData\Local\Temp\ccP1kfgz.s 			page 105


 4471 0184 8F010000 		.4byte	0x18f
 4472 0188 0C       		.uleb128 0xc
 4473 0189 01       		.uleb128 0x1
 4474 018a 50       		.byte	0x50
 4475 018b 02       		.uleb128 0x2
 4476 018c 08       		.byte	0x8
 4477 018d 77       		.byte	0x77
 4478 018e 00       		.byte	0
 4479 018f 0B       		.uleb128 0xb
 4480 0190 2E000000 		.4byte	.LVL8
 4481 0194 3E210000 		.4byte	0x213e
 4482 0198 A3010000 		.4byte	0x1a3
 4483 019c 0C       		.uleb128 0xc
 4484 019d 01       		.uleb128 0x1
 4485 019e 50       		.byte	0x50
 4486 019f 02       		.uleb128 0x2
 4487 01a0 08       		.byte	0x8
 4488 01a1 77       		.byte	0x77
 4489 01a2 00       		.byte	0
 4490 01a3 0B       		.uleb128 0xb
 4491 01a4 36000000 		.4byte	.LVL9
 4492 01a8 3E210000 		.4byte	0x213e
 4493 01ac B6010000 		.4byte	0x1b6
 4494 01b0 0C       		.uleb128 0xc
 4495 01b1 01       		.uleb128 0x1
 4496 01b2 50       		.byte	0x50
 4497 01b3 01       		.uleb128 0x1
 4498 01b4 30       		.byte	0x30
 4499 01b5 00       		.byte	0
 4500 01b6 0B       		.uleb128 0xb
 4501 01b7 3C000000 		.4byte	.LVL10
 4502 01bb 3E210000 		.4byte	0x213e
 4503 01bf C9010000 		.4byte	0x1c9
 4504 01c3 0C       		.uleb128 0xc
 4505 01c4 01       		.uleb128 0x1
 4506 01c5 50       		.byte	0x50
 4507 01c6 01       		.uleb128 0x1
 4508 01c7 30       		.byte	0x30
 4509 01c8 00       		.byte	0
 4510 01c9 0B       		.uleb128 0xb
 4511 01ca 42000000 		.4byte	.LVL11
 4512 01ce 3E210000 		.4byte	0x213e
 4513 01d2 DC010000 		.4byte	0x1dc
 4514 01d6 0C       		.uleb128 0xc
 4515 01d7 01       		.uleb128 0x1
 4516 01d8 50       		.byte	0x50
 4517 01d9 01       		.uleb128 0x1
 4518 01da 30       		.byte	0x30
 4519 01db 00       		.byte	0
 4520 01dc 0B       		.uleb128 0xb
 4521 01dd 48000000 		.4byte	.LVL12
 4522 01e1 3E210000 		.4byte	0x213e
 4523 01e5 EF010000 		.4byte	0x1ef
 4524 01e9 0C       		.uleb128 0xc
 4525 01ea 01       		.uleb128 0x1
 4526 01eb 50       		.byte	0x50
 4527 01ec 01       		.uleb128 0x1
ARM GAS  D:\Windows\AppData\Local\Temp\ccP1kfgz.s 			page 106


 4528 01ed 30       		.byte	0x30
 4529 01ee 00       		.byte	0
 4530 01ef 0D       		.uleb128 0xd
 4531 01f0 4C000000 		.4byte	.LVL13
 4532 01f4 53210000 		.4byte	0x2153
 4533 01f8 00       		.byte	0
 4534 01f9 08       		.uleb128 0x8
 4535 01fa FF000000 		.4byte	.LASF23
 4536 01fe 01       		.byte	0x1
 4537 01ff CB01     		.2byte	0x1cb
 4538 0201 00000000 		.4byte	.LFB75
 4539 0205 4E000000 		.4byte	.LFE75-.LFB75
 4540 0209 01       		.uleb128 0x1
 4541 020a 9C       		.byte	0x9c
 4542 020b FE020000 		.4byte	0x2fe
 4543 020f 09       		.uleb128 0x9
 4544 0210 9A030000 		.4byte	.LASF24
 4545 0214 01       		.byte	0x1
 4546 0215 CB01     		.2byte	0x1cb
 4547 0217 7E000000 		.4byte	0x7e
 4548 021b 1E000000 		.4byte	.LLST1
 4549 021f 0A       		.uleb128 0xa
 4550 0220 87040000 		.4byte	.LASF25
 4551 0224 01       		.byte	0x1
 4552 0225 CC01     		.2byte	0x1cc
 4553 0227 8C000000 		.4byte	0x8c
 4554 022b 77       		.byte	0x77
 4555 022c 0B       		.uleb128 0xb
 4556 022d 0C000000 		.4byte	.LVL17
 4557 0231 5E210000 		.4byte	0x215e
 4558 0235 45020000 		.4byte	0x245
 4559 0239 0C       		.uleb128 0xc
 4560 023a 01       		.uleb128 0x1
 4561 023b 51       		.byte	0x51
 4562 023c 01       		.uleb128 0x1
 4563 023d 30       		.byte	0x30
 4564 023e 0C       		.uleb128 0xc
 4565 023f 01       		.uleb128 0x1
 4566 0240 50       		.byte	0x50
 4567 0241 02       		.uleb128 0x2
 4568 0242 08       		.byte	0x8
 4569 0243 40       		.byte	0x40
 4570 0244 00       		.byte	0
 4571 0245 0B       		.uleb128 0xb
 4572 0246 12000000 		.4byte	.LVL18
 4573 024a 78210000 		.4byte	0x2178
 4574 024e 58020000 		.4byte	0x258
 4575 0252 0C       		.uleb128 0xc
 4576 0253 01       		.uleb128 0x1
 4577 0254 50       		.byte	0x50
 4578 0255 01       		.uleb128 0x1
 4579 0256 35       		.byte	0x35
 4580 0257 00       		.byte	0
 4581 0258 0B       		.uleb128 0xb
 4582 0259 1C000000 		.4byte	.LVL19
 4583 025d 78210000 		.4byte	0x2178
 4584 0261 6C020000 		.4byte	0x26c
ARM GAS  D:\Windows\AppData\Local\Temp\ccP1kfgz.s 			page 107


 4585 0265 0C       		.uleb128 0xc
 4586 0266 01       		.uleb128 0x1
 4587 0267 50       		.byte	0x50
 4588 0268 02       		.uleb128 0x2
 4589 0269 08       		.byte	0x8
 4590 026a 77       		.byte	0x77
 4591 026b 00       		.byte	0
 4592 026c 0B       		.uleb128 0xb
 4593 026d 22000000 		.4byte	.LVL20
 4594 0271 78210000 		.4byte	0x2178
 4595 0275 80020000 		.4byte	0x280
 4596 0279 0C       		.uleb128 0xc
 4597 027a 01       		.uleb128 0x1
 4598 027b 50       		.byte	0x50
 4599 027c 02       		.uleb128 0x2
 4600 027d 08       		.byte	0x8
 4601 027e 77       		.byte	0x77
 4602 027f 00       		.byte	0
 4603 0280 0B       		.uleb128 0xb
 4604 0281 28000000 		.4byte	.LVL21
 4605 0285 78210000 		.4byte	0x2178
 4606 0289 94020000 		.4byte	0x294
 4607 028d 0C       		.uleb128 0xc
 4608 028e 01       		.uleb128 0x1
 4609 028f 50       		.byte	0x50
 4610 0290 02       		.uleb128 0x2
 4611 0291 08       		.byte	0x8
 4612 0292 77       		.byte	0x77
 4613 0293 00       		.byte	0
 4614 0294 0B       		.uleb128 0xb
 4615 0295 2E000000 		.4byte	.LVL22
 4616 0299 78210000 		.4byte	0x2178
 4617 029d A8020000 		.4byte	0x2a8
 4618 02a1 0C       		.uleb128 0xc
 4619 02a2 01       		.uleb128 0x1
 4620 02a3 50       		.byte	0x50
 4621 02a4 02       		.uleb128 0x2
 4622 02a5 08       		.byte	0x8
 4623 02a6 77       		.byte	0x77
 4624 02a7 00       		.byte	0
 4625 02a8 0B       		.uleb128 0xb
 4626 02a9 36000000 		.4byte	.LVL23
 4627 02ad 78210000 		.4byte	0x2178
 4628 02b1 BB020000 		.4byte	0x2bb
 4629 02b5 0C       		.uleb128 0xc
 4630 02b6 01       		.uleb128 0x1
 4631 02b7 50       		.byte	0x50
 4632 02b8 01       		.uleb128 0x1
 4633 02b9 30       		.byte	0x30
 4634 02ba 00       		.byte	0
 4635 02bb 0B       		.uleb128 0xb
 4636 02bc 3C000000 		.4byte	.LVL24
 4637 02c0 78210000 		.4byte	0x2178
 4638 02c4 CE020000 		.4byte	0x2ce
 4639 02c8 0C       		.uleb128 0xc
 4640 02c9 01       		.uleb128 0x1
 4641 02ca 50       		.byte	0x50
ARM GAS  D:\Windows\AppData\Local\Temp\ccP1kfgz.s 			page 108


 4642 02cb 01       		.uleb128 0x1
 4643 02cc 30       		.byte	0x30
 4644 02cd 00       		.byte	0
 4645 02ce 0B       		.uleb128 0xb
 4646 02cf 42000000 		.4byte	.LVL25
 4647 02d3 78210000 		.4byte	0x2178
 4648 02d7 E1020000 		.4byte	0x2e1
 4649 02db 0C       		.uleb128 0xc
 4650 02dc 01       		.uleb128 0x1
 4651 02dd 50       		.byte	0x50
 4652 02de 01       		.uleb128 0x1
 4653 02df 30       		.byte	0x30
 4654 02e0 00       		.byte	0
 4655 02e1 0B       		.uleb128 0xb
 4656 02e2 48000000 		.4byte	.LVL26
 4657 02e6 78210000 		.4byte	0x2178
 4658 02ea F4020000 		.4byte	0x2f4
 4659 02ee 0C       		.uleb128 0xc
 4660 02ef 01       		.uleb128 0x1
 4661 02f0 50       		.byte	0x50
 4662 02f1 01       		.uleb128 0x1
 4663 02f2 30       		.byte	0x30
 4664 02f3 00       		.byte	0
 4665 02f4 0D       		.uleb128 0xd
 4666 02f5 4C000000 		.4byte	.LVL27
 4667 02f9 8D210000 		.4byte	0x218d
 4668 02fd 00       		.byte	0
 4669 02fe 0E       		.uleb128 0xe
 4670 02ff 96040000 		.4byte	.LASF26
 4671 0303 01       		.byte	0x1
 4672 0304 77       		.byte	0x77
 4673 0305 00000000 		.4byte	.LFB68
 4674 0309 08010000 		.4byte	.LFE68-.LFB68
 4675 030d 01       		.uleb128 0x1
 4676 030e 9C       		.byte	0x9c
 4677 030f 42060000 		.4byte	0x642
 4678 0313 0D       		.uleb128 0xd
 4679 0314 06000000 		.4byte	.LVL28
 4680 0318 98210000 		.4byte	0x2198
 4681 031c 0D       		.uleb128 0xd
 4682 031d 0A000000 		.4byte	.LVL29
 4683 0321 9F210000 		.4byte	0x219f
 4684 0325 0B       		.uleb128 0xb
 4685 0326 12000000 		.4byte	.LVL30
 4686 032a 24210000 		.4byte	0x2124
 4687 032e 3E030000 		.4byte	0x33e
 4688 0332 0C       		.uleb128 0xc
 4689 0333 01       		.uleb128 0x1
 4690 0334 51       		.byte	0x51
 4691 0335 01       		.uleb128 0x1
 4692 0336 30       		.byte	0x30
 4693 0337 0C       		.uleb128 0xc
 4694 0338 01       		.uleb128 0x1
 4695 0339 50       		.byte	0x50
 4696 033a 02       		.uleb128 0x2
 4697 033b 08       		.byte	0x8
 4698 033c 40       		.byte	0x40
ARM GAS  D:\Windows\AppData\Local\Temp\ccP1kfgz.s 			page 109


 4699 033d 00       		.byte	0
 4700 033e 0B       		.uleb128 0xb
 4701 033f 18000000 		.4byte	.LVL31
 4702 0343 3E210000 		.4byte	0x213e
 4703 0347 51030000 		.4byte	0x351
 4704 034b 0C       		.uleb128 0xc
 4705 034c 01       		.uleb128 0x1
 4706 034d 50       		.byte	0x50
 4707 034e 01       		.uleb128 0x1
 4708 034f 30       		.byte	0x30
 4709 0350 00       		.byte	0
 4710 0351 0B       		.uleb128 0xb
 4711 0352 1E000000 		.4byte	.LVL32
 4712 0356 3E210000 		.4byte	0x213e
 4713 035a 64030000 		.4byte	0x364
 4714 035e 0C       		.uleb128 0xc
 4715 035f 01       		.uleb128 0x1
 4716 0360 50       		.byte	0x50
 4717 0361 01       		.uleb128 0x1
 4718 0362 30       		.byte	0x30
 4719 0363 00       		.byte	0
 4720 0364 0B       		.uleb128 0xb
 4721 0365 24000000 		.4byte	.LVL33
 4722 0369 3E210000 		.4byte	0x213e
 4723 036d 77030000 		.4byte	0x377
 4724 0371 0C       		.uleb128 0xc
 4725 0372 01       		.uleb128 0x1
 4726 0373 50       		.byte	0x50
 4727 0374 01       		.uleb128 0x1
 4728 0375 30       		.byte	0x30
 4729 0376 00       		.byte	0
 4730 0377 0B       		.uleb128 0xb
 4731 0378 2A000000 		.4byte	.LVL34
 4732 037c 3E210000 		.4byte	0x213e
 4733 0380 8A030000 		.4byte	0x38a
 4734 0384 0C       		.uleb128 0xc
 4735 0385 01       		.uleb128 0x1
 4736 0386 50       		.byte	0x50
 4737 0387 01       		.uleb128 0x1
 4738 0388 4F       		.byte	0x4f
 4739 0389 00       		.byte	0
 4740 038a 0B       		.uleb128 0xb
 4741 038b 30000000 		.4byte	.LVL35
 4742 038f 3E210000 		.4byte	0x213e
 4743 0393 9D030000 		.4byte	0x39d
 4744 0397 0C       		.uleb128 0xc
 4745 0398 01       		.uleb128 0x1
 4746 0399 50       		.byte	0x50
 4747 039a 01       		.uleb128 0x1
 4748 039b 4F       		.byte	0x4f
 4749 039c 00       		.byte	0
 4750 039d 0B       		.uleb128 0xb
 4751 039e 36000000 		.4byte	.LVL36
 4752 03a2 3E210000 		.4byte	0x213e
 4753 03a6 B0030000 		.4byte	0x3b0
 4754 03aa 0C       		.uleb128 0xc
 4755 03ab 01       		.uleb128 0x1
ARM GAS  D:\Windows\AppData\Local\Temp\ccP1kfgz.s 			page 110


 4756 03ac 50       		.byte	0x50
 4757 03ad 01       		.uleb128 0x1
 4758 03ae 4F       		.byte	0x4f
 4759 03af 00       		.byte	0
 4760 03b0 0D       		.uleb128 0xd
 4761 03b1 3A000000 		.4byte	.LVL37
 4762 03b5 53210000 		.4byte	0x2153
 4763 03b9 0B       		.uleb128 0xb
 4764 03ba 42000000 		.4byte	.LVL38
 4765 03be 24210000 		.4byte	0x2124
 4766 03c2 D2030000 		.4byte	0x3d2
 4767 03c6 0C       		.uleb128 0xc
 4768 03c7 01       		.uleb128 0x1
 4769 03c8 51       		.byte	0x51
 4770 03c9 01       		.uleb128 0x1
 4771 03ca 30       		.byte	0x30
 4772 03cb 0C       		.uleb128 0xc
 4773 03cc 01       		.uleb128 0x1
 4774 03cd 50       		.byte	0x50
 4775 03ce 02       		.uleb128 0x2
 4776 03cf 08       		.byte	0x8
 4777 03d0 40       		.byte	0x40
 4778 03d1 00       		.byte	0
 4779 03d2 0B       		.uleb128 0xb
 4780 03d3 48000000 		.4byte	.LVL39
 4781 03d7 3E210000 		.4byte	0x213e
 4782 03db E5030000 		.4byte	0x3e5
 4783 03df 0C       		.uleb128 0xc
 4784 03e0 01       		.uleb128 0x1
 4785 03e1 50       		.byte	0x50
 4786 03e2 01       		.uleb128 0x1
 4787 03e3 39       		.byte	0x39
 4788 03e4 00       		.byte	0
 4789 03e5 0B       		.uleb128 0xb
 4790 03e6 4E000000 		.4byte	.LVL40
 4791 03ea 3E210000 		.4byte	0x213e
 4792 03ee F9030000 		.4byte	0x3f9
 4793 03f2 0C       		.uleb128 0xc
 4794 03f3 01       		.uleb128 0x1
 4795 03f4 50       		.byte	0x50
 4796 03f5 02       		.uleb128 0x2
 4797 03f6 08       		.byte	0x8
 4798 03f7 55       		.byte	0x55
 4799 03f8 00       		.byte	0
 4800 03f9 0B       		.uleb128 0xb
 4801 03fa 54000000 		.4byte	.LVL41
 4802 03fe 3E210000 		.4byte	0x213e
 4803 0402 0D040000 		.4byte	0x40d
 4804 0406 0C       		.uleb128 0xc
 4805 0407 01       		.uleb128 0x1
 4806 0408 50       		.byte	0x50
 4807 0409 02       		.uleb128 0x2
 4808 040a 08       		.byte	0x8
 4809 040b 55       		.byte	0x55
 4810 040c 00       		.byte	0
 4811 040d 0B       		.uleb128 0xb
 4812 040e 5A000000 		.4byte	.LVL42
ARM GAS  D:\Windows\AppData\Local\Temp\ccP1kfgz.s 			page 111


 4813 0412 3E210000 		.4byte	0x213e
 4814 0416 21040000 		.4byte	0x421
 4815 041a 0C       		.uleb128 0xc
 4816 041b 01       		.uleb128 0x1
 4817 041c 50       		.byte	0x50
 4818 041d 02       		.uleb128 0x2
 4819 041e 08       		.byte	0x8
 4820 041f 55       		.byte	0x55
 4821 0420 00       		.byte	0
 4822 0421 0B       		.uleb128 0xb
 4823 0422 60000000 		.4byte	.LVL43
 4824 0426 3E210000 		.4byte	0x213e
 4825 042a 35040000 		.4byte	0x435
 4826 042e 0C       		.uleb128 0xc
 4827 042f 01       		.uleb128 0x1
 4828 0430 50       		.byte	0x50
 4829 0431 02       		.uleb128 0x2
 4830 0432 08       		.byte	0x8
 4831 0433 55       		.byte	0x55
 4832 0434 00       		.byte	0
 4833 0435 0B       		.uleb128 0xb
 4834 0436 66000000 		.4byte	.LVL44
 4835 043a 3E210000 		.4byte	0x213e
 4836 043e 49040000 		.4byte	0x449
 4837 0442 0C       		.uleb128 0xc
 4838 0443 01       		.uleb128 0x1
 4839 0444 50       		.byte	0x50
 4840 0445 02       		.uleb128 0x2
 4841 0446 08       		.byte	0x8
 4842 0447 55       		.byte	0x55
 4843 0448 00       		.byte	0
 4844 0449 0B       		.uleb128 0xb
 4845 044a 6C000000 		.4byte	.LVL45
 4846 044e 3E210000 		.4byte	0x213e
 4847 0452 5D040000 		.4byte	0x45d
 4848 0456 0C       		.uleb128 0xc
 4849 0457 01       		.uleb128 0x1
 4850 0458 50       		.byte	0x50
 4851 0459 02       		.uleb128 0x2
 4852 045a 08       		.byte	0x8
 4853 045b 55       		.byte	0x55
 4854 045c 00       		.byte	0
 4855 045d 0B       		.uleb128 0xb
 4856 045e 72000000 		.4byte	.LVL46
 4857 0462 3E210000 		.4byte	0x213e
 4858 0466 71040000 		.4byte	0x471
 4859 046a 0C       		.uleb128 0xc
 4860 046b 01       		.uleb128 0x1
 4861 046c 50       		.byte	0x50
 4862 046d 02       		.uleb128 0x2
 4863 046e 09       		.byte	0x9
 4864 046f FF       		.byte	0xff
 4865 0470 00       		.byte	0
 4866 0471 0B       		.uleb128 0xb
 4867 0472 78000000 		.4byte	.LVL47
 4868 0476 3E210000 		.4byte	0x213e
 4869 047a 85040000 		.4byte	0x485
ARM GAS  D:\Windows\AppData\Local\Temp\ccP1kfgz.s 			page 112


 4870 047e 0C       		.uleb128 0xc
 4871 047f 01       		.uleb128 0x1
 4872 0480 50       		.byte	0x50
 4873 0481 02       		.uleb128 0x2
 4874 0482 09       		.byte	0x9
 4875 0483 FF       		.byte	0xff
 4876 0484 00       		.byte	0
 4877 0485 0B       		.uleb128 0xb
 4878 0486 7E000000 		.4byte	.LVL48
 4879 048a 3E210000 		.4byte	0x213e
 4880 048e 99040000 		.4byte	0x499
 4881 0492 0C       		.uleb128 0xc
 4882 0493 01       		.uleb128 0x1
 4883 0494 50       		.byte	0x50
 4884 0495 02       		.uleb128 0x2
 4885 0496 09       		.byte	0x9
 4886 0497 FF       		.byte	0xff
 4887 0498 00       		.byte	0
 4888 0499 0D       		.uleb128 0xd
 4889 049a 82000000 		.4byte	.LVL49
 4890 049e 53210000 		.4byte	0x2153
 4891 04a2 0B       		.uleb128 0xb
 4892 04a3 8A000000 		.4byte	.LVL50
 4893 04a7 5E210000 		.4byte	0x215e
 4894 04ab BB040000 		.4byte	0x4bb
 4895 04af 0C       		.uleb128 0xc
 4896 04b0 01       		.uleb128 0x1
 4897 04b1 51       		.byte	0x51
 4898 04b2 01       		.uleb128 0x1
 4899 04b3 30       		.byte	0x30
 4900 04b4 0C       		.uleb128 0xc
 4901 04b5 01       		.uleb128 0x1
 4902 04b6 50       		.byte	0x50
 4903 04b7 02       		.uleb128 0x2
 4904 04b8 08       		.byte	0x8
 4905 04b9 40       		.byte	0x40
 4906 04ba 00       		.byte	0
 4907 04bb 0B       		.uleb128 0xb
 4908 04bc 90000000 		.4byte	.LVL51
 4909 04c0 78210000 		.4byte	0x2178
 4910 04c4 CE040000 		.4byte	0x4ce
 4911 04c8 0C       		.uleb128 0xc
 4912 04c9 01       		.uleb128 0x1
 4913 04ca 50       		.byte	0x50
 4914 04cb 01       		.uleb128 0x1
 4915 04cc 30       		.byte	0x30
 4916 04cd 00       		.byte	0
 4917 04ce 0B       		.uleb128 0xb
 4918 04cf 96000000 		.4byte	.LVL52
 4919 04d3 78210000 		.4byte	0x2178
 4920 04d7 E1040000 		.4byte	0x4e1
 4921 04db 0C       		.uleb128 0xc
 4922 04dc 01       		.uleb128 0x1
 4923 04dd 50       		.byte	0x50
 4924 04de 01       		.uleb128 0x1
 4925 04df 30       		.byte	0x30
 4926 04e0 00       		.byte	0
ARM GAS  D:\Windows\AppData\Local\Temp\ccP1kfgz.s 			page 113


 4927 04e1 0B       		.uleb128 0xb
 4928 04e2 9C000000 		.4byte	.LVL53
 4929 04e6 78210000 		.4byte	0x2178
 4930 04ea F4040000 		.4byte	0x4f4
 4931 04ee 0C       		.uleb128 0xc
 4932 04ef 01       		.uleb128 0x1
 4933 04f0 50       		.byte	0x50
 4934 04f1 01       		.uleb128 0x1
 4935 04f2 30       		.byte	0x30
 4936 04f3 00       		.byte	0
 4937 04f4 0B       		.uleb128 0xb
 4938 04f5 A2000000 		.4byte	.LVL54
 4939 04f9 78210000 		.4byte	0x2178
 4940 04fd 07050000 		.4byte	0x507
 4941 0501 0C       		.uleb128 0xc
 4942 0502 01       		.uleb128 0x1
 4943 0503 50       		.byte	0x50
 4944 0504 01       		.uleb128 0x1
 4945 0505 4F       		.byte	0x4f
 4946 0506 00       		.byte	0
 4947 0507 0B       		.uleb128 0xb
 4948 0508 A8000000 		.4byte	.LVL55
 4949 050c 78210000 		.4byte	0x2178
 4950 0510 1A050000 		.4byte	0x51a
 4951 0514 0C       		.uleb128 0xc
 4952 0515 01       		.uleb128 0x1
 4953 0516 50       		.byte	0x50
 4954 0517 01       		.uleb128 0x1
 4955 0518 4F       		.byte	0x4f
 4956 0519 00       		.byte	0
 4957 051a 0B       		.uleb128 0xb
 4958 051b AE000000 		.4byte	.LVL56
 4959 051f 78210000 		.4byte	0x2178
 4960 0523 2D050000 		.4byte	0x52d
 4961 0527 0C       		.uleb128 0xc
 4962 0528 01       		.uleb128 0x1
 4963 0529 50       		.byte	0x50
 4964 052a 01       		.uleb128 0x1
 4965 052b 4F       		.byte	0x4f
 4966 052c 00       		.byte	0
 4967 052d 0D       		.uleb128 0xd
 4968 052e B2000000 		.4byte	.LVL57
 4969 0532 8D210000 		.4byte	0x218d
 4970 0536 0B       		.uleb128 0xb
 4971 0537 BA000000 		.4byte	.LVL58
 4972 053b 5E210000 		.4byte	0x215e
 4973 053f 4F050000 		.4byte	0x54f
 4974 0543 0C       		.uleb128 0xc
 4975 0544 01       		.uleb128 0x1
 4976 0545 51       		.byte	0x51
 4977 0546 01       		.uleb128 0x1
 4978 0547 30       		.byte	0x30
 4979 0548 0C       		.uleb128 0xc
 4980 0549 01       		.uleb128 0x1
 4981 054a 50       		.byte	0x50
 4982 054b 02       		.uleb128 0x2
 4983 054c 08       		.byte	0x8
ARM GAS  D:\Windows\AppData\Local\Temp\ccP1kfgz.s 			page 114


 4984 054d 40       		.byte	0x40
 4985 054e 00       		.byte	0
 4986 054f 0B       		.uleb128 0xb
 4987 0550 C0000000 		.4byte	.LVL59
 4988 0554 78210000 		.4byte	0x2178
 4989 0558 62050000 		.4byte	0x562
 4990 055c 0C       		.uleb128 0xc
 4991 055d 01       		.uleb128 0x1
 4992 055e 50       		.byte	0x50
 4993 055f 01       		.uleb128 0x1
 4994 0560 39       		.byte	0x39
 4995 0561 00       		.byte	0
 4996 0562 0B       		.uleb128 0xb
 4997 0563 C6000000 		.4byte	.LVL60
 4998 0567 78210000 		.4byte	0x2178
 4999 056b 76050000 		.4byte	0x576
 5000 056f 0C       		.uleb128 0xc
 5001 0570 01       		.uleb128 0x1
 5002 0571 50       		.byte	0x50
 5003 0572 02       		.uleb128 0x2
 5004 0573 08       		.byte	0x8
 5005 0574 55       		.byte	0x55
 5006 0575 00       		.byte	0
 5007 0576 0B       		.uleb128 0xb
 5008 0577 CC000000 		.4byte	.LVL61
 5009 057b 78210000 		.4byte	0x2178
 5010 057f 8A050000 		.4byte	0x58a
 5011 0583 0C       		.uleb128 0xc
 5012 0584 01       		.uleb128 0x1
 5013 0585 50       		.byte	0x50
 5014 0586 02       		.uleb128 0x2
 5015 0587 08       		.byte	0x8
 5016 0588 55       		.byte	0x55
 5017 0589 00       		.byte	0
 5018 058a 0B       		.uleb128 0xb
 5019 058b D2000000 		.4byte	.LVL62
 5020 058f 78210000 		.4byte	0x2178
 5021 0593 9E050000 		.4byte	0x59e
 5022 0597 0C       		.uleb128 0xc
 5023 0598 01       		.uleb128 0x1
 5024 0599 50       		.byte	0x50
 5025 059a 02       		.uleb128 0x2
 5026 059b 08       		.byte	0x8
 5027 059c 55       		.byte	0x55
 5028 059d 00       		.byte	0
 5029 059e 0B       		.uleb128 0xb
 5030 059f D8000000 		.4byte	.LVL63
 5031 05a3 78210000 		.4byte	0x2178
 5032 05a7 B2050000 		.4byte	0x5b2
 5033 05ab 0C       		.uleb128 0xc
 5034 05ac 01       		.uleb128 0x1
 5035 05ad 50       		.byte	0x50
 5036 05ae 02       		.uleb128 0x2
 5037 05af 08       		.byte	0x8
 5038 05b0 55       		.byte	0x55
 5039 05b1 00       		.byte	0
 5040 05b2 0B       		.uleb128 0xb
ARM GAS  D:\Windows\AppData\Local\Temp\ccP1kfgz.s 			page 115


 5041 05b3 DE000000 		.4byte	.LVL64
 5042 05b7 78210000 		.4byte	0x2178
 5043 05bb C6050000 		.4byte	0x5c6
 5044 05bf 0C       		.uleb128 0xc
 5045 05c0 01       		.uleb128 0x1
 5046 05c1 50       		.byte	0x50
 5047 05c2 02       		.uleb128 0x2
 5048 05c3 08       		.byte	0x8
 5049 05c4 55       		.byte	0x55
 5050 05c5 00       		.byte	0
 5051 05c6 0B       		.uleb128 0xb
 5052 05c7 E4000000 		.4byte	.LVL65
 5053 05cb 78210000 		.4byte	0x2178
 5054 05cf DA050000 		.4byte	0x5da
 5055 05d3 0C       		.uleb128 0xc
 5056 05d4 01       		.uleb128 0x1
 5057 05d5 50       		.byte	0x50
 5058 05d6 02       		.uleb128 0x2
 5059 05d7 08       		.byte	0x8
 5060 05d8 55       		.byte	0x55
 5061 05d9 00       		.byte	0
 5062 05da 0B       		.uleb128 0xb
 5063 05db EA000000 		.4byte	.LVL66
 5064 05df 78210000 		.4byte	0x2178
 5065 05e3 EE050000 		.4byte	0x5ee
 5066 05e7 0C       		.uleb128 0xc
 5067 05e8 01       		.uleb128 0x1
 5068 05e9 50       		.byte	0x50
 5069 05ea 02       		.uleb128 0x2
 5070 05eb 09       		.byte	0x9
 5071 05ec FF       		.byte	0xff
 5072 05ed 00       		.byte	0
 5073 05ee 0B       		.uleb128 0xb
 5074 05ef F0000000 		.4byte	.LVL67
 5075 05f3 78210000 		.4byte	0x2178
 5076 05f7 02060000 		.4byte	0x602
 5077 05fb 0C       		.uleb128 0xc
 5078 05fc 01       		.uleb128 0x1
 5079 05fd 50       		.byte	0x50
 5080 05fe 02       		.uleb128 0x2
 5081 05ff 09       		.byte	0x9
 5082 0600 FF       		.byte	0xff
 5083 0601 00       		.byte	0
 5084 0602 0B       		.uleb128 0xb
 5085 0603 F6000000 		.4byte	.LVL68
 5086 0607 78210000 		.4byte	0x2178
 5087 060b 16060000 		.4byte	0x616
 5088 060f 0C       		.uleb128 0xc
 5089 0610 01       		.uleb128 0x1
 5090 0611 50       		.byte	0x50
 5091 0612 02       		.uleb128 0x2
 5092 0613 09       		.byte	0x9
 5093 0614 FF       		.byte	0xff
 5094 0615 00       		.byte	0
 5095 0616 0D       		.uleb128 0xd
 5096 0617 FA000000 		.4byte	.LVL69
 5097 061b 8D210000 		.4byte	0x218d
ARM GAS  D:\Windows\AppData\Local\Temp\ccP1kfgz.s 			page 116


 5098 061f 0B       		.uleb128 0xb
 5099 0620 00010000 		.4byte	.LVL70
 5100 0624 F4000000 		.4byte	0xf4
 5101 0628 32060000 		.4byte	0x632
 5102 062c 0C       		.uleb128 0xc
 5103 062d 01       		.uleb128 0x1
 5104 062e 50       		.byte	0x50
 5105 062f 01       		.uleb128 0x1
 5106 0630 30       		.byte	0x30
 5107 0631 00       		.byte	0
 5108 0632 0F       		.uleb128 0xf
 5109 0633 06010000 		.4byte	.LVL71
 5110 0637 F9010000 		.4byte	0x1f9
 5111 063b 0C       		.uleb128 0xc
 5112 063c 01       		.uleb128 0x1
 5113 063d 50       		.byte	0x50
 5114 063e 01       		.uleb128 0x1
 5115 063f 30       		.byte	0x30
 5116 0640 00       		.byte	0
 5117 0641 00       		.byte	0
 5118 0642 10       		.uleb128 0x10
 5119 0643 F3020000 		.4byte	.LASF27
 5120 0647 01       		.byte	0x1
 5121 0648 E001     		.2byte	0x1e0
 5122 064a 00000000 		.4byte	.LFB76
 5123 064e 34000000 		.4byte	.LFE76-.LFB76
 5124 0652 01       		.uleb128 0x1
 5125 0653 9C       		.byte	0x9c
 5126 0654 B2060000 		.4byte	0x6b2
 5127 0658 0B       		.uleb128 0xb
 5128 0659 0A000000 		.4byte	.LVL72
 5129 065d 24210000 		.4byte	0x2124
 5130 0661 71060000 		.4byte	0x671
 5131 0665 0C       		.uleb128 0xc
 5132 0666 01       		.uleb128 0x1
 5133 0667 51       		.byte	0x51
 5134 0668 01       		.uleb128 0x1
 5135 0669 30       		.byte	0x30
 5136 066a 0C       		.uleb128 0xc
 5137 066b 01       		.uleb128 0x1
 5138 066c 50       		.byte	0x50
 5139 066d 02       		.uleb128 0x2
 5140 066e 08       		.byte	0x8
 5141 066f 40       		.byte	0x40
 5142 0670 00       		.byte	0
 5143 0671 0B       		.uleb128 0xb
 5144 0672 10000000 		.4byte	.LVL73
 5145 0676 3E210000 		.4byte	0x213e
 5146 067a 84060000 		.4byte	0x684
 5147 067e 0C       		.uleb128 0xc
 5148 067f 01       		.uleb128 0x1
 5149 0680 50       		.byte	0x50
 5150 0681 01       		.uleb128 0x1
 5151 0682 35       		.byte	0x35
 5152 0683 00       		.byte	0
 5153 0684 0D       		.uleb128 0xd
 5154 0685 18000000 		.4byte	.LVL74
ARM GAS  D:\Windows\AppData\Local\Temp\ccP1kfgz.s 			page 117


 5155 0689 3E210000 		.4byte	0x213e
 5156 068d 0D       		.uleb128 0xd
 5157 068e 1E000000 		.4byte	.LVL75
 5158 0692 3E210000 		.4byte	0x213e
 5159 0696 0D       		.uleb128 0xd
 5160 0697 24000000 		.4byte	.LVL76
 5161 069b 3E210000 		.4byte	0x213e
 5162 069f 0D       		.uleb128 0xd
 5163 06a0 2A000000 		.4byte	.LVL77
 5164 06a4 3E210000 		.4byte	0x213e
 5165 06a8 0D       		.uleb128 0xd
 5166 06a9 2E000000 		.4byte	.LVL78
 5167 06ad 53210000 		.4byte	0x2153
 5168 06b1 00       		.byte	0
 5169 06b2 10       		.uleb128 0x10
 5170 06b3 EA010000 		.4byte	.LASF28
 5171 06b7 01       		.byte	0x1
 5172 06b8 EA01     		.2byte	0x1ea
 5173 06ba 00000000 		.4byte	.LFB77
 5174 06be 34000000 		.4byte	.LFE77-.LFB77
 5175 06c2 01       		.uleb128 0x1
 5176 06c3 9C       		.byte	0x9c
 5177 06c4 22070000 		.4byte	0x722
 5178 06c8 0B       		.uleb128 0xb
 5179 06c9 0A000000 		.4byte	.LVL79
 5180 06cd 5E210000 		.4byte	0x215e
 5181 06d1 E1060000 		.4byte	0x6e1
 5182 06d5 0C       		.uleb128 0xc
 5183 06d6 01       		.uleb128 0x1
 5184 06d7 51       		.byte	0x51
 5185 06d8 01       		.uleb128 0x1
 5186 06d9 30       		.byte	0x30
 5187 06da 0C       		.uleb128 0xc
 5188 06db 01       		.uleb128 0x1
 5189 06dc 50       		.byte	0x50
 5190 06dd 02       		.uleb128 0x2
 5191 06de 08       		.byte	0x8
 5192 06df 40       		.byte	0x40
 5193 06e0 00       		.byte	0
 5194 06e1 0B       		.uleb128 0xb
 5195 06e2 10000000 		.4byte	.LVL80
 5196 06e6 78210000 		.4byte	0x2178
 5197 06ea F4060000 		.4byte	0x6f4
 5198 06ee 0C       		.uleb128 0xc
 5199 06ef 01       		.uleb128 0x1
 5200 06f0 50       		.byte	0x50
 5201 06f1 01       		.uleb128 0x1
 5202 06f2 35       		.byte	0x35
 5203 06f3 00       		.byte	0
 5204 06f4 0D       		.uleb128 0xd
 5205 06f5 18000000 		.4byte	.LVL81
 5206 06f9 78210000 		.4byte	0x2178
 5207 06fd 0D       		.uleb128 0xd
 5208 06fe 1E000000 		.4byte	.LVL82
 5209 0702 78210000 		.4byte	0x2178
 5210 0706 0D       		.uleb128 0xd
 5211 0707 24000000 		.4byte	.LVL83
ARM GAS  D:\Windows\AppData\Local\Temp\ccP1kfgz.s 			page 118


 5212 070b 78210000 		.4byte	0x2178
 5213 070f 0D       		.uleb128 0xd
 5214 0710 2A000000 		.4byte	.LVL84
 5215 0714 78210000 		.4byte	0x2178
 5216 0718 0D       		.uleb128 0xd
 5217 0719 2E000000 		.4byte	.LVL85
 5218 071d 8D210000 		.4byte	0x218d
 5219 0721 00       		.byte	0
 5220 0722 08       		.uleb128 0x8
 5221 0723 CD010000 		.4byte	.LASF29
 5222 0727 01       		.byte	0x1
 5223 0728 BE02     		.2byte	0x2be
 5224 072a 00000000 		.4byte	.LFB83
 5225 072e 20000000 		.4byte	.LFE83-.LFB83
 5226 0732 01       		.uleb128 0x1
 5227 0733 9C       		.byte	0x9c
 5228 0734 54070000 		.4byte	0x754
 5229 0738 11       		.uleb128 0x11
 5230 0739 9A030000 		.4byte	.LASF24
 5231 073d 01       		.byte	0x1
 5232 073e BE02     		.2byte	0x2be
 5233 0740 7E000000 		.4byte	0x7e
 5234 0744 01       		.uleb128 0x1
 5235 0745 50       		.byte	0x50
 5236 0746 12       		.uleb128 0x12
 5237 0747 62697400 		.ascii	"bit\000"
 5238 074b 01       		.byte	0x1
 5239 074c BF02     		.2byte	0x2bf
 5240 074e 8C000000 		.4byte	0x8c
 5241 0752 01       		.byte	0x1
 5242 0753 00       		.byte	0
 5243 0754 08       		.uleb128 0x8
 5244 0755 F1060000 		.4byte	.LASF30
 5245 0759 01       		.byte	0x1
 5246 075a C502     		.2byte	0x2c5
 5247 075c 00000000 		.4byte	.LFB84
 5248 0760 20000000 		.4byte	.LFE84-.LFB84
 5249 0764 01       		.uleb128 0x1
 5250 0765 9C       		.byte	0x9c
 5251 0766 86070000 		.4byte	0x786
 5252 076a 11       		.uleb128 0x11
 5253 076b 9A030000 		.4byte	.LASF24
 5254 076f 01       		.byte	0x1
 5255 0770 C502     		.2byte	0x2c5
 5256 0772 7E000000 		.4byte	0x7e
 5257 0776 01       		.uleb128 0x1
 5258 0777 50       		.byte	0x50
 5259 0778 12       		.uleb128 0x12
 5260 0779 62697400 		.ascii	"bit\000"
 5261 077d 01       		.byte	0x1
 5262 077e C602     		.2byte	0x2c6
 5263 0780 8C000000 		.4byte	0x8c
 5264 0784 10       		.byte	0x10
 5265 0785 00       		.byte	0
 5266 0786 08       		.uleb128 0x8
 5267 0787 FA010000 		.4byte	.LASF31
 5268 078b 01       		.byte	0x1
ARM GAS  D:\Windows\AppData\Local\Temp\ccP1kfgz.s 			page 119


 5269 078c CC02     		.2byte	0x2cc
 5270 078e 00000000 		.4byte	.LFB85
 5271 0792 20000000 		.4byte	.LFE85-.LFB85
 5272 0796 01       		.uleb128 0x1
 5273 0797 9C       		.byte	0x9c
 5274 0798 B8070000 		.4byte	0x7b8
 5275 079c 11       		.uleb128 0x11
 5276 079d 9A030000 		.4byte	.LASF24
 5277 07a1 01       		.byte	0x1
 5278 07a2 CC02     		.2byte	0x2cc
 5279 07a4 7E000000 		.4byte	0x7e
 5280 07a8 01       		.uleb128 0x1
 5281 07a9 50       		.byte	0x50
 5282 07aa 12       		.uleb128 0x12
 5283 07ab 62697400 		.ascii	"bit\000"
 5284 07af 01       		.byte	0x1
 5285 07b0 CD02     		.2byte	0x2cd
 5286 07b2 8C000000 		.4byte	0x8c
 5287 07b6 01       		.byte	0x1
 5288 07b7 00       		.byte	0
 5289 07b8 08       		.uleb128 0x8
 5290 07b9 0E070000 		.4byte	.LASF32
 5291 07bd 01       		.byte	0x1
 5292 07be D402     		.2byte	0x2d4
 5293 07c0 00000000 		.4byte	.LFB86
 5294 07c4 20000000 		.4byte	.LFE86-.LFB86
 5295 07c8 01       		.uleb128 0x1
 5296 07c9 9C       		.byte	0x9c
 5297 07ca EA070000 		.4byte	0x7ea
 5298 07ce 11       		.uleb128 0x11
 5299 07cf 9A030000 		.4byte	.LASF24
 5300 07d3 01       		.byte	0x1
 5301 07d4 D402     		.2byte	0x2d4
 5302 07d6 7E000000 		.4byte	0x7e
 5303 07da 01       		.uleb128 0x1
 5304 07db 50       		.byte	0x50
 5305 07dc 12       		.uleb128 0x12
 5306 07dd 62697400 		.ascii	"bit\000"
 5307 07e1 01       		.byte	0x1
 5308 07e2 D502     		.2byte	0x2d5
 5309 07e4 8C000000 		.4byte	0x8c
 5310 07e8 10       		.byte	0x10
 5311 07e9 00       		.byte	0
 5312 07ea 08       		.uleb128 0x8
 5313 07eb B1020000 		.4byte	.LASF33
 5314 07ef 01       		.byte	0x1
 5315 07f0 DB02     		.2byte	0x2db
 5316 07f2 00000000 		.4byte	.LFB87
 5317 07f6 20000000 		.4byte	.LFE87-.LFB87
 5318 07fa 01       		.uleb128 0x1
 5319 07fb 9C       		.byte	0x9c
 5320 07fc 1C080000 		.4byte	0x81c
 5321 0800 11       		.uleb128 0x11
 5322 0801 9A030000 		.4byte	.LASF24
 5323 0805 01       		.byte	0x1
 5324 0806 DB02     		.2byte	0x2db
 5325 0808 7E000000 		.4byte	0x7e
ARM GAS  D:\Windows\AppData\Local\Temp\ccP1kfgz.s 			page 120


 5326 080c 01       		.uleb128 0x1
 5327 080d 50       		.byte	0x50
 5328 080e 12       		.uleb128 0x12
 5329 080f 62697400 		.ascii	"bit\000"
 5330 0813 01       		.byte	0x1
 5331 0814 DC02     		.2byte	0x2dc
 5332 0816 8C000000 		.4byte	0x8c
 5333 081a 01       		.byte	0x1
 5334 081b 00       		.byte	0
 5335 081c 08       		.uleb128 0x8
 5336 081d 0A000000 		.4byte	.LASF34
 5337 0821 01       		.byte	0x1
 5338 0822 E202     		.2byte	0x2e2
 5339 0824 00000000 		.4byte	.LFB88
 5340 0828 20000000 		.4byte	.LFE88-.LFB88
 5341 082c 01       		.uleb128 0x1
 5342 082d 9C       		.byte	0x9c
 5343 082e 4E080000 		.4byte	0x84e
 5344 0832 11       		.uleb128 0x11
 5345 0833 9A030000 		.4byte	.LASF24
 5346 0837 01       		.byte	0x1
 5347 0838 E202     		.2byte	0x2e2
 5348 083a 7E000000 		.4byte	0x7e
 5349 083e 01       		.uleb128 0x1
 5350 083f 50       		.byte	0x50
 5351 0840 12       		.uleb128 0x12
 5352 0841 62697400 		.ascii	"bit\000"
 5353 0845 01       		.byte	0x1
 5354 0846 E302     		.2byte	0x2e3
 5355 0848 8C000000 		.4byte	0x8c
 5356 084c 10       		.byte	0x10
 5357 084d 00       		.byte	0
 5358 084e 08       		.uleb128 0x8
 5359 084f EF030000 		.4byte	.LASF35
 5360 0853 01       		.byte	0x1
 5361 0854 E902     		.2byte	0x2e9
 5362 0856 00000000 		.4byte	.LFB89
 5363 085a 20000000 		.4byte	.LFE89-.LFB89
 5364 085e 01       		.uleb128 0x1
 5365 085f 9C       		.byte	0x9c
 5366 0860 80080000 		.4byte	0x880
 5367 0864 11       		.uleb128 0x11
 5368 0865 9A030000 		.4byte	.LASF24
 5369 0869 01       		.byte	0x1
 5370 086a E902     		.2byte	0x2e9
 5371 086c 7E000000 		.4byte	0x7e
 5372 0870 01       		.uleb128 0x1
 5373 0871 50       		.byte	0x50
 5374 0872 12       		.uleb128 0x12
 5375 0873 62697400 		.ascii	"bit\000"
 5376 0877 01       		.byte	0x1
 5377 0878 EA02     		.2byte	0x2ea
 5378 087a 8C000000 		.4byte	0x8c
 5379 087e 01       		.byte	0x1
 5380 087f 00       		.byte	0
 5381 0880 08       		.uleb128 0x8
 5382 0881 0E010000 		.4byte	.LASF36
ARM GAS  D:\Windows\AppData\Local\Temp\ccP1kfgz.s 			page 121


 5383 0885 01       		.byte	0x1
 5384 0886 F002     		.2byte	0x2f0
 5385 0888 00000000 		.4byte	.LFB90
 5386 088c 20000000 		.4byte	.LFE90-.LFB90
 5387 0890 01       		.uleb128 0x1
 5388 0891 9C       		.byte	0x9c
 5389 0892 B2080000 		.4byte	0x8b2
 5390 0896 11       		.uleb128 0x11
 5391 0897 9A030000 		.4byte	.LASF24
 5392 089b 01       		.byte	0x1
 5393 089c F002     		.2byte	0x2f0
 5394 089e 7E000000 		.4byte	0x7e
 5395 08a2 01       		.uleb128 0x1
 5396 08a3 50       		.byte	0x50
 5397 08a4 12       		.uleb128 0x12
 5398 08a5 62697400 		.ascii	"bit\000"
 5399 08a9 01       		.byte	0x1
 5400 08aa F102     		.2byte	0x2f1
 5401 08ac 8C000000 		.4byte	0x8c
 5402 08b0 10       		.byte	0x10
 5403 08b1 00       		.byte	0
 5404 08b2 08       		.uleb128 0x8
 5405 08b3 C1040000 		.4byte	.LASF37
 5406 08b7 01       		.byte	0x1
 5407 08b8 F702     		.2byte	0x2f7
 5408 08ba 00000000 		.4byte	.LFB91
 5409 08be 20000000 		.4byte	.LFE91-.LFB91
 5410 08c2 01       		.uleb128 0x1
 5411 08c3 9C       		.byte	0x9c
 5412 08c4 E4080000 		.4byte	0x8e4
 5413 08c8 11       		.uleb128 0x11
 5414 08c9 9A030000 		.4byte	.LASF24
 5415 08cd 01       		.byte	0x1
 5416 08ce F702     		.2byte	0x2f7
 5417 08d0 7E000000 		.4byte	0x7e
 5418 08d4 01       		.uleb128 0x1
 5419 08d5 50       		.byte	0x50
 5420 08d6 12       		.uleb128 0x12
 5421 08d7 62697400 		.ascii	"bit\000"
 5422 08db 01       		.byte	0x1
 5423 08dc F802     		.2byte	0x2f8
 5424 08de 8C000000 		.4byte	0x8c
 5425 08e2 02       		.byte	0x2
 5426 08e3 00       		.byte	0
 5427 08e4 08       		.uleb128 0x8
 5428 08e5 41030000 		.4byte	.LASF38
 5429 08e9 01       		.byte	0x1
 5430 08ea FE02     		.2byte	0x2fe
 5431 08ec 00000000 		.4byte	.LFB92
 5432 08f0 20000000 		.4byte	.LFE92-.LFB92
 5433 08f4 01       		.uleb128 0x1
 5434 08f5 9C       		.byte	0x9c
 5435 08f6 16090000 		.4byte	0x916
 5436 08fa 11       		.uleb128 0x11
 5437 08fb 9A030000 		.4byte	.LASF24
 5438 08ff 01       		.byte	0x1
 5439 0900 FE02     		.2byte	0x2fe
ARM GAS  D:\Windows\AppData\Local\Temp\ccP1kfgz.s 			page 122


 5440 0902 7E000000 		.4byte	0x7e
 5441 0906 01       		.uleb128 0x1
 5442 0907 50       		.byte	0x50
 5443 0908 12       		.uleb128 0x12
 5444 0909 62697400 		.ascii	"bit\000"
 5445 090d 01       		.byte	0x1
 5446 090e FF02     		.2byte	0x2ff
 5447 0910 8C000000 		.4byte	0x8c
 5448 0914 20       		.byte	0x20
 5449 0915 00       		.byte	0
 5450 0916 08       		.uleb128 0x8
 5451 0917 C1000000 		.4byte	.LASF39
 5452 091b 01       		.byte	0x1
 5453 091c 0503     		.2byte	0x305
 5454 091e 00000000 		.4byte	.LFB93
 5455 0922 20000000 		.4byte	.LFE93-.LFB93
 5456 0926 01       		.uleb128 0x1
 5457 0927 9C       		.byte	0x9c
 5458 0928 48090000 		.4byte	0x948
 5459 092c 11       		.uleb128 0x11
 5460 092d 9A030000 		.4byte	.LASF24
 5461 0931 01       		.byte	0x1
 5462 0932 0503     		.2byte	0x305
 5463 0934 7E000000 		.4byte	0x7e
 5464 0938 01       		.uleb128 0x1
 5465 0939 50       		.byte	0x50
 5466 093a 12       		.uleb128 0x12
 5467 093b 62697400 		.ascii	"bit\000"
 5468 093f 01       		.byte	0x1
 5469 0940 0603     		.2byte	0x306
 5470 0942 8C000000 		.4byte	0x8c
 5471 0946 02       		.byte	0x2
 5472 0947 00       		.byte	0
 5473 0948 08       		.uleb128 0x8
 5474 0949 33040000 		.4byte	.LASF40
 5475 094d 01       		.byte	0x1
 5476 094e 0C03     		.2byte	0x30c
 5477 0950 00000000 		.4byte	.LFB94
 5478 0954 20000000 		.4byte	.LFE94-.LFB94
 5479 0958 01       		.uleb128 0x1
 5480 0959 9C       		.byte	0x9c
 5481 095a 7A090000 		.4byte	0x97a
 5482 095e 11       		.uleb128 0x11
 5483 095f 9A030000 		.4byte	.LASF24
 5484 0963 01       		.byte	0x1
 5485 0964 0C03     		.2byte	0x30c
 5486 0966 7E000000 		.4byte	0x7e
 5487 096a 01       		.uleb128 0x1
 5488 096b 50       		.byte	0x50
 5489 096c 12       		.uleb128 0x12
 5490 096d 62697400 		.ascii	"bit\000"
 5491 0971 01       		.byte	0x1
 5492 0972 0D03     		.2byte	0x30d
 5493 0974 8C000000 		.4byte	0x8c
 5494 0978 20       		.byte	0x20
 5495 0979 00       		.byte	0
 5496 097a 08       		.uleb128 0x8
ARM GAS  D:\Windows\AppData\Local\Temp\ccP1kfgz.s 			page 123


 5497 097b 2F010000 		.4byte	.LASF41
 5498 097f 01       		.byte	0x1
 5499 0980 1303     		.2byte	0x313
 5500 0982 00000000 		.4byte	.LFB95
 5501 0986 20000000 		.4byte	.LFE95-.LFB95
 5502 098a 01       		.uleb128 0x1
 5503 098b 9C       		.byte	0x9c
 5504 098c AC090000 		.4byte	0x9ac
 5505 0990 11       		.uleb128 0x11
 5506 0991 9A030000 		.4byte	.LASF24
 5507 0995 01       		.byte	0x1
 5508 0996 1303     		.2byte	0x313
 5509 0998 7E000000 		.4byte	0x7e
 5510 099c 01       		.uleb128 0x1
 5511 099d 50       		.byte	0x50
 5512 099e 12       		.uleb128 0x12
 5513 099f 62697400 		.ascii	"bit\000"
 5514 09a3 01       		.byte	0x1
 5515 09a4 1403     		.2byte	0x314
 5516 09a6 8C000000 		.4byte	0x8c
 5517 09aa 02       		.byte	0x2
 5518 09ab 00       		.byte	0
 5519 09ac 08       		.uleb128 0x8
 5520 09ad 21050000 		.4byte	.LASF42
 5521 09b1 01       		.byte	0x1
 5522 09b2 1A03     		.2byte	0x31a
 5523 09b4 00000000 		.4byte	.LFB96
 5524 09b8 20000000 		.4byte	.LFE96-.LFB96
 5525 09bc 01       		.uleb128 0x1
 5526 09bd 9C       		.byte	0x9c
 5527 09be DE090000 		.4byte	0x9de
 5528 09c2 11       		.uleb128 0x11
 5529 09c3 9A030000 		.4byte	.LASF24
 5530 09c7 01       		.byte	0x1
 5531 09c8 1A03     		.2byte	0x31a
 5532 09ca 7E000000 		.4byte	0x7e
 5533 09ce 01       		.uleb128 0x1
 5534 09cf 50       		.byte	0x50
 5535 09d0 12       		.uleb128 0x12
 5536 09d1 62697400 		.ascii	"bit\000"
 5537 09d5 01       		.byte	0x1
 5538 09d6 1B03     		.2byte	0x31b
 5539 09d8 8C000000 		.4byte	0x8c
 5540 09dc 20       		.byte	0x20
 5541 09dd 00       		.byte	0
 5542 09de 08       		.uleb128 0x8
 5543 09df 3F010000 		.4byte	.LASF43
 5544 09e3 01       		.byte	0x1
 5545 09e4 2103     		.2byte	0x321
 5546 09e6 00000000 		.4byte	.LFB97
 5547 09ea 20000000 		.4byte	.LFE97-.LFB97
 5548 09ee 01       		.uleb128 0x1
 5549 09ef 9C       		.byte	0x9c
 5550 09f0 100A0000 		.4byte	0xa10
 5551 09f4 11       		.uleb128 0x11
 5552 09f5 9A030000 		.4byte	.LASF24
 5553 09f9 01       		.byte	0x1
ARM GAS  D:\Windows\AppData\Local\Temp\ccP1kfgz.s 			page 124


 5554 09fa 2103     		.2byte	0x321
 5555 09fc 7E000000 		.4byte	0x7e
 5556 0a00 01       		.uleb128 0x1
 5557 0a01 50       		.byte	0x50
 5558 0a02 12       		.uleb128 0x12
 5559 0a03 62697400 		.ascii	"bit\000"
 5560 0a07 01       		.byte	0x1
 5561 0a08 2203     		.2byte	0x322
 5562 0a0a 8C000000 		.4byte	0x8c
 5563 0a0e 02       		.byte	0x2
 5564 0a0f 00       		.byte	0
 5565 0a10 08       		.uleb128 0x8
 5566 0a11 5F050000 		.4byte	.LASF44
 5567 0a15 01       		.byte	0x1
 5568 0a16 2803     		.2byte	0x328
 5569 0a18 00000000 		.4byte	.LFB98
 5570 0a1c 20000000 		.4byte	.LFE98-.LFB98
 5571 0a20 01       		.uleb128 0x1
 5572 0a21 9C       		.byte	0x9c
 5573 0a22 420A0000 		.4byte	0xa42
 5574 0a26 11       		.uleb128 0x11
 5575 0a27 9A030000 		.4byte	.LASF24
 5576 0a2b 01       		.byte	0x1
 5577 0a2c 2803     		.2byte	0x328
 5578 0a2e 7E000000 		.4byte	0x7e
 5579 0a32 01       		.uleb128 0x1
 5580 0a33 50       		.byte	0x50
 5581 0a34 12       		.uleb128 0x12
 5582 0a35 62697400 		.ascii	"bit\000"
 5583 0a39 01       		.byte	0x1
 5584 0a3a 2903     		.2byte	0x329
 5585 0a3c 8C000000 		.4byte	0x8c
 5586 0a40 20       		.byte	0x20
 5587 0a41 00       		.byte	0
 5588 0a42 08       		.uleb128 0x8
 5589 0a43 22020000 		.4byte	.LASF45
 5590 0a47 01       		.byte	0x1
 5591 0a48 2F03     		.2byte	0x32f
 5592 0a4a 00000000 		.4byte	.LFB99
 5593 0a4e 20000000 		.4byte	.LFE99-.LFB99
 5594 0a52 01       		.uleb128 0x1
 5595 0a53 9C       		.byte	0x9c
 5596 0a54 740A0000 		.4byte	0xa74
 5597 0a58 11       		.uleb128 0x11
 5598 0a59 9A030000 		.4byte	.LASF24
 5599 0a5d 01       		.byte	0x1
 5600 0a5e 2F03     		.2byte	0x32f
 5601 0a60 7E000000 		.4byte	0x7e
 5602 0a64 01       		.uleb128 0x1
 5603 0a65 50       		.byte	0x50
 5604 0a66 12       		.uleb128 0x12
 5605 0a67 62697400 		.ascii	"bit\000"
 5606 0a6b 01       		.byte	0x1
 5607 0a6c 3003     		.2byte	0x330
 5608 0a6e 8C000000 		.4byte	0x8c
 5609 0a72 04       		.byte	0x4
 5610 0a73 00       		.byte	0
ARM GAS  D:\Windows\AppData\Local\Temp\ccP1kfgz.s 			page 125


 5611 0a74 08       		.uleb128 0x8
 5612 0a75 60070000 		.4byte	.LASF46
 5613 0a79 01       		.byte	0x1
 5614 0a7a 3603     		.2byte	0x336
 5615 0a7c 00000000 		.4byte	.LFB100
 5616 0a80 20000000 		.4byte	.LFE100-.LFB100
 5617 0a84 01       		.uleb128 0x1
 5618 0a85 9C       		.byte	0x9c
 5619 0a86 A60A0000 		.4byte	0xaa6
 5620 0a8a 11       		.uleb128 0x11
 5621 0a8b 9A030000 		.4byte	.LASF24
 5622 0a8f 01       		.byte	0x1
 5623 0a90 3603     		.2byte	0x336
 5624 0a92 7E000000 		.4byte	0x7e
 5625 0a96 01       		.uleb128 0x1
 5626 0a97 50       		.byte	0x50
 5627 0a98 12       		.uleb128 0x12
 5628 0a99 62697400 		.ascii	"bit\000"
 5629 0a9d 01       		.byte	0x1
 5630 0a9e 3703     		.2byte	0x337
 5631 0aa0 8C000000 		.4byte	0x8c
 5632 0aa4 40       		.byte	0x40
 5633 0aa5 00       		.byte	0
 5634 0aa6 08       		.uleb128 0x8
 5635 0aa7 03030000 		.4byte	.LASF47
 5636 0aab 01       		.byte	0x1
 5637 0aac 3D03     		.2byte	0x33d
 5638 0aae 00000000 		.4byte	.LFB101
 5639 0ab2 20000000 		.4byte	.LFE101-.LFB101
 5640 0ab6 01       		.uleb128 0x1
 5641 0ab7 9C       		.byte	0x9c
 5642 0ab8 D80A0000 		.4byte	0xad8
 5643 0abc 11       		.uleb128 0x11
 5644 0abd 9A030000 		.4byte	.LASF24
 5645 0ac1 01       		.byte	0x1
 5646 0ac2 3D03     		.2byte	0x33d
 5647 0ac4 7E000000 		.4byte	0x7e
 5648 0ac8 01       		.uleb128 0x1
 5649 0ac9 50       		.byte	0x50
 5650 0aca 12       		.uleb128 0x12
 5651 0acb 62697400 		.ascii	"bit\000"
 5652 0acf 01       		.byte	0x1
 5653 0ad0 3E03     		.2byte	0x33e
 5654 0ad2 8C000000 		.4byte	0x8c
 5655 0ad6 04       		.byte	0x4
 5656 0ad7 00       		.byte	0
 5657 0ad8 10       		.uleb128 0x10
 5658 0ad9 8C020000 		.4byte	.LASF48
 5659 0add 01       		.byte	0x1
 5660 0ade 3802     		.2byte	0x238
 5661 0ae0 00000000 		.4byte	.LFB80
 5662 0ae4 1C000000 		.4byte	.LFE80-.LFB80
 5663 0ae8 01       		.uleb128 0x1
 5664 0ae9 9C       		.byte	0x9c
 5665 0aea 370B0000 		.4byte	0xb37
 5666 0aee 0B       		.uleb128 0xb
 5667 0aef 08000000 		.4byte	.LVL105
ARM GAS  D:\Windows\AppData\Local\Temp\ccP1kfgz.s 			page 126


 5668 0af3 22070000 		.4byte	0x722
 5669 0af7 010B0000 		.4byte	0xb01
 5670 0afb 0C       		.uleb128 0xc
 5671 0afc 01       		.uleb128 0x1
 5672 0afd 50       		.byte	0x50
 5673 0afe 01       		.uleb128 0x1
 5674 0aff 31       		.byte	0x31
 5675 0b00 00       		.byte	0
 5676 0b01 0B       		.uleb128 0xb
 5677 0b02 0E000000 		.4byte	.LVL106
 5678 0b06 AC090000 		.4byte	0x9ac
 5679 0b0a 140B0000 		.4byte	0xb14
 5680 0b0e 0C       		.uleb128 0xc
 5681 0b0f 01       		.uleb128 0x1
 5682 0b10 50       		.byte	0x50
 5683 0b11 01       		.uleb128 0x1
 5684 0b12 31       		.byte	0x31
 5685 0b13 00       		.byte	0
 5686 0b14 0B       		.uleb128 0xb
 5687 0b15 14000000 		.4byte	.LVL107
 5688 0b19 DE090000 		.4byte	0x9de
 5689 0b1d 270B0000 		.4byte	0xb27
 5690 0b21 0C       		.uleb128 0xc
 5691 0b22 01       		.uleb128 0x1
 5692 0b23 50       		.byte	0x50
 5693 0b24 01       		.uleb128 0x1
 5694 0b25 31       		.byte	0x31
 5695 0b26 00       		.byte	0
 5696 0b27 0F       		.uleb128 0xf
 5697 0b28 1A000000 		.4byte	.LVL108
 5698 0b2c A60A0000 		.4byte	0xaa6
 5699 0b30 0C       		.uleb128 0xc
 5700 0b31 01       		.uleb128 0x1
 5701 0b32 50       		.byte	0x50
 5702 0b33 01       		.uleb128 0x1
 5703 0b34 31       		.byte	0x31
 5704 0b35 00       		.byte	0
 5705 0b36 00       		.byte	0
 5706 0b37 10       		.uleb128 0x10
 5707 0b38 5E040000 		.4byte	.LASF49
 5708 0b3c 01       		.byte	0x1
 5709 0b3d 6B02     		.2byte	0x26b
 5710 0b3f 00000000 		.4byte	.LFB81
 5711 0b43 1C000000 		.4byte	.LFE81-.LFB81
 5712 0b47 01       		.uleb128 0x1
 5713 0b48 9C       		.byte	0x9c
 5714 0b49 960B0000 		.4byte	0xb96
 5715 0b4d 0B       		.uleb128 0xb
 5716 0b4e 08000000 		.4byte	.LVL109
 5717 0b52 22070000 		.4byte	0x722
 5718 0b56 600B0000 		.4byte	0xb60
 5719 0b5a 0C       		.uleb128 0xc
 5720 0b5b 01       		.uleb128 0x1
 5721 0b5c 50       		.byte	0x50
 5722 0b5d 01       		.uleb128 0x1
 5723 0b5e 30       		.byte	0x30
 5724 0b5f 00       		.byte	0
ARM GAS  D:\Windows\AppData\Local\Temp\ccP1kfgz.s 			page 127


 5725 0b60 0B       		.uleb128 0xb
 5726 0b61 0E000000 		.4byte	.LVL110
 5727 0b65 AC090000 		.4byte	0x9ac
 5728 0b69 730B0000 		.4byte	0xb73
 5729 0b6d 0C       		.uleb128 0xc
 5730 0b6e 01       		.uleb128 0x1
 5731 0b6f 50       		.byte	0x50
 5732 0b70 01       		.uleb128 0x1
 5733 0b71 30       		.byte	0x30
 5734 0b72 00       		.byte	0
 5735 0b73 0B       		.uleb128 0xb
 5736 0b74 14000000 		.4byte	.LVL111
 5737 0b78 DE090000 		.4byte	0x9de
 5738 0b7c 860B0000 		.4byte	0xb86
 5739 0b80 0C       		.uleb128 0xc
 5740 0b81 01       		.uleb128 0x1
 5741 0b82 50       		.byte	0x50
 5742 0b83 01       		.uleb128 0x1
 5743 0b84 30       		.byte	0x30
 5744 0b85 00       		.byte	0
 5745 0b86 0F       		.uleb128 0xf
 5746 0b87 1A000000 		.4byte	.LVL112
 5747 0b8b A60A0000 		.4byte	0xaa6
 5748 0b8f 0C       		.uleb128 0xc
 5749 0b90 01       		.uleb128 0x1
 5750 0b91 50       		.byte	0x50
 5751 0b92 01       		.uleb128 0x1
 5752 0b93 30       		.byte	0x30
 5753 0b94 00       		.byte	0
 5754 0b95 00       		.byte	0
 5755 0b96 08       		.uleb128 0x8
 5756 0b97 04070000 		.4byte	.LASF50
 5757 0b9b 01       		.byte	0x1
 5758 0b9c 4403     		.2byte	0x344
 5759 0b9e 00000000 		.4byte	.LFB102
 5760 0ba2 20000000 		.4byte	.LFE102-.LFB102
 5761 0ba6 01       		.uleb128 0x1
 5762 0ba7 9C       		.byte	0x9c
 5763 0ba8 C80B0000 		.4byte	0xbc8
 5764 0bac 11       		.uleb128 0x11
 5765 0bad 9A030000 		.4byte	.LASF24
 5766 0bb1 01       		.byte	0x1
 5767 0bb2 4403     		.2byte	0x344
 5768 0bb4 7E000000 		.4byte	0x7e
 5769 0bb8 01       		.uleb128 0x1
 5770 0bb9 50       		.byte	0x50
 5771 0bba 12       		.uleb128 0x12
 5772 0bbb 62697400 		.ascii	"bit\000"
 5773 0bbf 01       		.byte	0x1
 5774 0bc0 4503     		.2byte	0x345
 5775 0bc2 8C000000 		.4byte	0x8c
 5776 0bc6 40       		.byte	0x40
 5777 0bc7 00       		.byte	0
 5778 0bc8 08       		.uleb128 0x8
 5779 0bc9 A7020000 		.4byte	.LASF51
 5780 0bcd 01       		.byte	0x1
 5781 0bce 4B03     		.2byte	0x34b
ARM GAS  D:\Windows\AppData\Local\Temp\ccP1kfgz.s 			page 128


 5782 0bd0 00000000 		.4byte	.LFB103
 5783 0bd4 20000000 		.4byte	.LFE103-.LFB103
 5784 0bd8 01       		.uleb128 0x1
 5785 0bd9 9C       		.byte	0x9c
 5786 0bda FA0B0000 		.4byte	0xbfa
 5787 0bde 11       		.uleb128 0x11
 5788 0bdf 9A030000 		.4byte	.LASF24
 5789 0be3 01       		.byte	0x1
 5790 0be4 4B03     		.2byte	0x34b
 5791 0be6 7E000000 		.4byte	0x7e
 5792 0bea 01       		.uleb128 0x1
 5793 0beb 50       		.byte	0x50
 5794 0bec 12       		.uleb128 0x12
 5795 0bed 62697400 		.ascii	"bit\000"
 5796 0bf1 01       		.byte	0x1
 5797 0bf2 4C03     		.2byte	0x34c
 5798 0bf4 8C000000 		.4byte	0x8c
 5799 0bf8 04       		.byte	0x4
 5800 0bf9 00       		.byte	0
 5801 0bfa 08       		.uleb128 0x8
 5802 0bfb 00000000 		.4byte	.LASF52
 5803 0bff 01       		.byte	0x1
 5804 0c00 5203     		.2byte	0x352
 5805 0c02 00000000 		.4byte	.LFB104
 5806 0c06 20000000 		.4byte	.LFE104-.LFB104
 5807 0c0a 01       		.uleb128 0x1
 5808 0c0b 9C       		.byte	0x9c
 5809 0c0c 2C0C0000 		.4byte	0xc2c
 5810 0c10 11       		.uleb128 0x11
 5811 0c11 9A030000 		.4byte	.LASF24
 5812 0c15 01       		.byte	0x1
 5813 0c16 5203     		.2byte	0x352
 5814 0c18 7E000000 		.4byte	0x7e
 5815 0c1c 01       		.uleb128 0x1
 5816 0c1d 50       		.byte	0x50
 5817 0c1e 12       		.uleb128 0x12
 5818 0c1f 62697400 		.ascii	"bit\000"
 5819 0c23 01       		.byte	0x1
 5820 0c24 5303     		.2byte	0x353
 5821 0c26 8C000000 		.4byte	0x8c
 5822 0c2a 40       		.byte	0x40
 5823 0c2b 00       		.byte	0
 5824 0c2c 13       		.uleb128 0x13
 5825 0c2d E6040000 		.4byte	.LASF53
 5826 0c31 01       		.byte	0x1
 5827 0c32 32       		.byte	0x32
 5828 0c33 00000000 		.4byte	.LFB63
 5829 0c37 9C000000 		.4byte	.LFE63-.LFB63
 5830 0c3b 01       		.uleb128 0x1
 5831 0c3c 9C       		.byte	0x9c
 5832 0c3d 170D0000 		.4byte	0xd17
 5833 0c41 0D       		.uleb128 0xd
 5834 0c42 12000000 		.4byte	.LVL116
 5835 0c46 22070000 		.4byte	0x722
 5836 0c4a 0D       		.uleb128 0xd
 5837 0c4b 18000000 		.4byte	.LVL117
 5838 0c4f 54070000 		.4byte	0x754
ARM GAS  D:\Windows\AppData\Local\Temp\ccP1kfgz.s 			page 129


 5839 0c53 0D       		.uleb128 0xd
 5840 0c54 1E000000 		.4byte	.LVL118
 5841 0c58 86070000 		.4byte	0x786
 5842 0c5c 0D       		.uleb128 0xd
 5843 0c5d 24000000 		.4byte	.LVL119
 5844 0c61 B8070000 		.4byte	0x7b8
 5845 0c65 0D       		.uleb128 0xd
 5846 0c66 2A000000 		.4byte	.LVL120
 5847 0c6a EA070000 		.4byte	0x7ea
 5848 0c6e 0D       		.uleb128 0xd
 5849 0c6f 30000000 		.4byte	.LVL121
 5850 0c73 1C080000 		.4byte	0x81c
 5851 0c77 0D       		.uleb128 0xd
 5852 0c78 36000000 		.4byte	.LVL122
 5853 0c7c 4E080000 		.4byte	0x84e
 5854 0c80 0D       		.uleb128 0xd
 5855 0c81 3C000000 		.4byte	.LVL123
 5856 0c85 80080000 		.4byte	0x880
 5857 0c89 0D       		.uleb128 0xd
 5858 0c8a 42000000 		.4byte	.LVL124
 5859 0c8e B2080000 		.4byte	0x8b2
 5860 0c92 0D       		.uleb128 0xd
 5861 0c93 48000000 		.4byte	.LVL125
 5862 0c97 E4080000 		.4byte	0x8e4
 5863 0c9b 0D       		.uleb128 0xd
 5864 0c9c 4E000000 		.4byte	.LVL126
 5865 0ca0 16090000 		.4byte	0x916
 5866 0ca4 0D       		.uleb128 0xd
 5867 0ca5 54000000 		.4byte	.LVL127
 5868 0ca9 48090000 		.4byte	0x948
 5869 0cad 0D       		.uleb128 0xd
 5870 0cae 5A000000 		.4byte	.LVL128
 5871 0cb2 7A090000 		.4byte	0x97a
 5872 0cb6 0D       		.uleb128 0xd
 5873 0cb7 60000000 		.4byte	.LVL129
 5874 0cbb AC090000 		.4byte	0x9ac
 5875 0cbf 0D       		.uleb128 0xd
 5876 0cc0 66000000 		.4byte	.LVL130
 5877 0cc4 DE090000 		.4byte	0x9de
 5878 0cc8 0D       		.uleb128 0xd
 5879 0cc9 6C000000 		.4byte	.LVL131
 5880 0ccd 100A0000 		.4byte	0xa10
 5881 0cd1 0D       		.uleb128 0xd
 5882 0cd2 72000000 		.4byte	.LVL132
 5883 0cd6 420A0000 		.4byte	0xa42
 5884 0cda 0D       		.uleb128 0xd
 5885 0cdb 78000000 		.4byte	.LVL133
 5886 0cdf 740A0000 		.4byte	0xa74
 5887 0ce3 0D       		.uleb128 0xd
 5888 0ce4 7E000000 		.4byte	.LVL134
 5889 0ce8 A60A0000 		.4byte	0xaa6
 5890 0cec 0D       		.uleb128 0xd
 5891 0ced 84000000 		.4byte	.LVL135
 5892 0cf1 960B0000 		.4byte	0xb96
 5893 0cf5 0D       		.uleb128 0xd
 5894 0cf6 8A000000 		.4byte	.LVL136
 5895 0cfa C80B0000 		.4byte	0xbc8
ARM GAS  D:\Windows\AppData\Local\Temp\ccP1kfgz.s 			page 130


 5896 0cfe 0D       		.uleb128 0xd
 5897 0cff 90000000 		.4byte	.LVL137
 5898 0d03 FA0B0000 		.4byte	0xbfa
 5899 0d07 0F       		.uleb128 0xf
 5900 0d08 96000000 		.4byte	.LVL138
 5901 0d0c 42060000 		.4byte	0x642
 5902 0d10 0C       		.uleb128 0xc
 5903 0d11 01       		.uleb128 0x1
 5904 0d12 50       		.byte	0x50
 5905 0d13 01       		.uleb128 0x1
 5906 0d14 30       		.byte	0x30
 5907 0d15 00       		.byte	0
 5908 0d16 00       		.byte	0
 5909 0d17 13       		.uleb128 0x13
 5910 0d18 50050000 		.4byte	.LASF54
 5911 0d1c 01       		.byte	0x1
 5912 0d1d AD       		.byte	0xad
 5913 0d1e 00000000 		.4byte	.LFB69
 5914 0d22 FC010000 		.4byte	.LFE69-.LFB69
 5915 0d26 01       		.uleb128 0x1
 5916 0d27 9C       		.byte	0x9c
 5917 0d28 8B0E0000 		.4byte	0xe8b
 5918 0d2c 14       		.uleb128 0x14
 5919 0d2d 3C020000 		.4byte	.LASF55
 5920 0d31 01       		.byte	0x1
 5921 0d32 AD       		.byte	0xad
 5922 0d33 97000000 		.4byte	0x97
 5923 0d37 3C000000 		.4byte	.LLST2
 5924 0d3b 15       		.uleb128 0x15
 5925 0d3c 76010000 		.4byte	.LASF56
 5926 0d40 01       		.byte	0x1
 5927 0d41 AE       		.byte	0xae
 5928 0d42 62000000 		.4byte	0x62
 5929 0d46 5D000000 		.4byte	.LLST3
 5930 0d4a 15       		.uleb128 0x15
 5931 0d4b 39010000 		.4byte	.LASF57
 5932 0d4f 01       		.byte	0x1
 5933 0d50 AF       		.byte	0xaf
 5934 0d51 7E000000 		.4byte	0x7e
 5935 0d55 97000000 		.4byte	.LLST4
 5936 0d59 16       		.uleb128 0x16
 5937 0d5a 00000000 		.4byte	.Ldebug_ranges0+0
 5938 0d5e 3F0E0000 		.4byte	0xe3f
 5939 0d62 17       		.uleb128 0x17
 5940 0d63 6900     		.ascii	"i\000"
 5941 0d65 01       		.byte	0x1
 5942 0d66 EF       		.byte	0xef
 5943 0d67 7E000000 		.4byte	0x7e
 5944 0d6b B6000000 		.4byte	.LLST5
 5945 0d6f 0D       		.uleb128 0xd
 5946 0d70 6C010000 		.4byte	.LVL157
 5947 0d74 22070000 		.4byte	0x722
 5948 0d78 0D       		.uleb128 0xd
 5949 0d79 72010000 		.4byte	.LVL158
 5950 0d7d 54070000 		.4byte	0x754
 5951 0d81 0D       		.uleb128 0xd
 5952 0d82 78010000 		.4byte	.LVL159
ARM GAS  D:\Windows\AppData\Local\Temp\ccP1kfgz.s 			page 131


 5953 0d86 86070000 		.4byte	0x786
 5954 0d8a 0D       		.uleb128 0xd
 5955 0d8b 7E010000 		.4byte	.LVL160
 5956 0d8f B8070000 		.4byte	0x7b8
 5957 0d93 0D       		.uleb128 0xd
 5958 0d94 84010000 		.4byte	.LVL161
 5959 0d98 EA070000 		.4byte	0x7ea
 5960 0d9c 0D       		.uleb128 0xd
 5961 0d9d 8A010000 		.4byte	.LVL162
 5962 0da1 1C080000 		.4byte	0x81c
 5963 0da5 0D       		.uleb128 0xd
 5964 0da6 90010000 		.4byte	.LVL163
 5965 0daa 4E080000 		.4byte	0x84e
 5966 0dae 0D       		.uleb128 0xd
 5967 0daf 96010000 		.4byte	.LVL164
 5968 0db3 80080000 		.4byte	0x880
 5969 0db7 0D       		.uleb128 0xd
 5970 0db8 9C010000 		.4byte	.LVL165
 5971 0dbc B2080000 		.4byte	0x8b2
 5972 0dc0 0D       		.uleb128 0xd
 5973 0dc1 A2010000 		.4byte	.LVL166
 5974 0dc5 E4080000 		.4byte	0x8e4
 5975 0dc9 0D       		.uleb128 0xd
 5976 0dca A8010000 		.4byte	.LVL167
 5977 0dce 16090000 		.4byte	0x916
 5978 0dd2 0D       		.uleb128 0xd
 5979 0dd3 AE010000 		.4byte	.LVL168
 5980 0dd7 48090000 		.4byte	0x948
 5981 0ddb 0D       		.uleb128 0xd
 5982 0ddc B4010000 		.4byte	.LVL169
 5983 0de0 7A090000 		.4byte	0x97a
 5984 0de4 0D       		.uleb128 0xd
 5985 0de5 BA010000 		.4byte	.LVL170
 5986 0de9 AC090000 		.4byte	0x9ac
 5987 0ded 0D       		.uleb128 0xd
 5988 0dee C0010000 		.4byte	.LVL171
 5989 0df2 DE090000 		.4byte	0x9de
 5990 0df6 0D       		.uleb128 0xd
 5991 0df7 C6010000 		.4byte	.LVL172
 5992 0dfb 100A0000 		.4byte	0xa10
 5993 0dff 0D       		.uleb128 0xd
 5994 0e00 CC010000 		.4byte	.LVL173
 5995 0e04 420A0000 		.4byte	0xa42
 5996 0e08 0D       		.uleb128 0xd
 5997 0e09 D2010000 		.4byte	.LVL174
 5998 0e0d 740A0000 		.4byte	0xa74
 5999 0e11 0D       		.uleb128 0xd
 6000 0e12 D8010000 		.4byte	.LVL175
 6001 0e16 A60A0000 		.4byte	0xaa6
 6002 0e1a 0D       		.uleb128 0xd
 6003 0e1b DE010000 		.4byte	.LVL176
 6004 0e1f 960B0000 		.4byte	0xb96
 6005 0e23 0D       		.uleb128 0xd
 6006 0e24 E4010000 		.4byte	.LVL177
 6007 0e28 C80B0000 		.4byte	0xbc8
 6008 0e2c 0D       		.uleb128 0xd
 6009 0e2d EA010000 		.4byte	.LVL178
ARM GAS  D:\Windows\AppData\Local\Temp\ccP1kfgz.s 			page 132


 6010 0e31 FA0B0000 		.4byte	0xbfa
 6011 0e35 0D       		.uleb128 0xd
 6012 0e36 EE010000 		.4byte	.LVL179
 6013 0e3a 42060000 		.4byte	0x642
 6014 0e3e 00       		.byte	0
 6015 0e3f 0D       		.uleb128 0xd
 6016 0e40 1A000000 		.4byte	.LVL141
 6017 0e44 A6210000 		.4byte	0x21a6
 6018 0e48 0D       		.uleb128 0xd
 6019 0e49 1E000000 		.4byte	.LVL142
 6020 0e4d AD210000 		.4byte	0x21ad
 6021 0e51 0B       		.uleb128 0xb
 6022 0e52 24000000 		.4byte	.LVL143
 6023 0e56 FA0B0000 		.4byte	0xbfa
 6024 0e5a 650E0000 		.4byte	0xe65
 6025 0e5e 0C       		.uleb128 0xc
 6026 0e5f 01       		.uleb128 0x1
 6027 0e60 50       		.byte	0x50
 6028 0e61 02       		.uleb128 0x2
 6029 0e62 75       		.byte	0x75
 6030 0e63 00       		.sleb128 0
 6031 0e64 00       		.byte	0
 6032 0e65 0D       		.uleb128 0xd
 6033 0e66 28000000 		.4byte	.LVL144
 6034 0e6a 42060000 		.4byte	0x642
 6035 0e6e 0D       		.uleb128 0xd
 6036 0e6f D0000000 		.4byte	.LVL146
 6037 0e73 B4210000 		.4byte	0x21b4
 6038 0e77 0F       		.uleb128 0xf
 6039 0e78 D6000000 		.4byte	.LVL147
 6040 0e7c BB210000 		.4byte	0x21bb
 6041 0e80 0C       		.uleb128 0xc
 6042 0e81 01       		.uleb128 0x1
 6043 0e82 50       		.byte	0x50
 6044 0e83 05       		.uleb128 0x5
 6045 0e84 03       		.byte	0x3
 6046 0e85 00000000 		.4byte	tach_crit_isr
 6047 0e89 00       		.byte	0
 6048 0e8a 00       		.byte	0
 6049 0e8b 10       		.uleb128 0x10
 6050 0e8c 16030000 		.4byte	.LASF58
 6051 0e90 01       		.byte	0x1
 6052 0e91 F501     		.2byte	0x1f5
 6053 0e93 00000000 		.4byte	.LFB78
 6054 0e97 3E020000 		.4byte	.LFE78-.LFB78
 6055 0e9b 01       		.uleb128 0x1
 6056 0e9c 9C       		.byte	0x9c
 6057 0e9d 2B150000 		.4byte	0x152b
 6058 0ea1 0B       		.uleb128 0xb
 6059 0ea2 08000000 		.4byte	.LVL180
 6060 0ea6 170D0000 		.4byte	0xd17
 6061 0eaa B40E0000 		.4byte	0xeb4
 6062 0eae 0C       		.uleb128 0xc
 6063 0eaf 01       		.uleb128 0x1
 6064 0eb0 50       		.byte	0x50
 6065 0eb1 01       		.uleb128 0x1
 6066 0eb2 30       		.byte	0x30
ARM GAS  D:\Windows\AppData\Local\Temp\ccP1kfgz.s 			page 133


 6067 0eb3 00       		.byte	0
 6068 0eb4 0B       		.uleb128 0xb
 6069 0eb5 0E000000 		.4byte	.LVL181
 6070 0eb9 CC210000 		.4byte	0x21cc
 6071 0ebd C80E0000 		.4byte	0xec8
 6072 0ec1 0C       		.uleb128 0xc
 6073 0ec2 01       		.uleb128 0x1
 6074 0ec3 50       		.byte	0x50
 6075 0ec4 02       		.uleb128 0x2
 6076 0ec5 08       		.byte	0x8
 6077 0ec6 32       		.byte	0x32
 6078 0ec7 00       		.byte	0
 6079 0ec8 0B       		.uleb128 0xb
 6080 0ec9 16000000 		.4byte	.LVL182
 6081 0ecd 170D0000 		.4byte	0xd17
 6082 0ed1 DD0E0000 		.4byte	0xedd
 6083 0ed5 0C       		.uleb128 0xc
 6084 0ed6 01       		.uleb128 0x1
 6085 0ed7 50       		.byte	0x50
 6086 0ed8 03       		.uleb128 0x3
 6087 0ed9 0A       		.byte	0xa
 6088 0eda 2C01     		.2byte	0x12c
 6089 0edc 00       		.byte	0
 6090 0edd 0B       		.uleb128 0xb
 6091 0ede 1C000000 		.4byte	.LVL183
 6092 0ee2 CC210000 		.4byte	0x21cc
 6093 0ee6 F10E0000 		.4byte	0xef1
 6094 0eea 0C       		.uleb128 0xc
 6095 0eeb 01       		.uleb128 0x1
 6096 0eec 50       		.byte	0x50
 6097 0eed 02       		.uleb128 0x2
 6098 0eee 08       		.byte	0x8
 6099 0eef 32       		.byte	0x32
 6100 0ef0 00       		.byte	0
 6101 0ef1 0B       		.uleb128 0xb
 6102 0ef2 24000000 		.4byte	.LVL184
 6103 0ef6 170D0000 		.4byte	0xd17
 6104 0efa 060F0000 		.4byte	0xf06
 6105 0efe 0C       		.uleb128 0xc
 6106 0eff 01       		.uleb128 0x1
 6107 0f00 50       		.byte	0x50
 6108 0f01 03       		.uleb128 0x3
 6109 0f02 0A       		.byte	0xa
 6110 0f03 5802     		.2byte	0x258
 6111 0f05 00       		.byte	0
 6112 0f06 0B       		.uleb128 0xb
 6113 0f07 2A000000 		.4byte	.LVL185
 6114 0f0b CC210000 		.4byte	0x21cc
 6115 0f0f 1A0F0000 		.4byte	0xf1a
 6116 0f13 0C       		.uleb128 0xc
 6117 0f14 01       		.uleb128 0x1
 6118 0f15 50       		.byte	0x50
 6119 0f16 02       		.uleb128 0x2
 6120 0f17 08       		.byte	0x8
 6121 0f18 32       		.byte	0x32
 6122 0f19 00       		.byte	0
 6123 0f1a 0B       		.uleb128 0xb
ARM GAS  D:\Windows\AppData\Local\Temp\ccP1kfgz.s 			page 134


 6124 0f1b 32000000 		.4byte	.LVL186
 6125 0f1f 170D0000 		.4byte	0xd17
 6126 0f23 2F0F0000 		.4byte	0xf2f
 6127 0f27 0C       		.uleb128 0xc
 6128 0f28 01       		.uleb128 0x1
 6129 0f29 50       		.byte	0x50
 6130 0f2a 03       		.uleb128 0x3
 6131 0f2b 0A       		.byte	0xa
 6132 0f2c 8403     		.2byte	0x384
 6133 0f2e 00       		.byte	0
 6134 0f2f 0B       		.uleb128 0xb
 6135 0f30 38000000 		.4byte	.LVL187
 6136 0f34 CC210000 		.4byte	0x21cc
 6137 0f38 430F0000 		.4byte	0xf43
 6138 0f3c 0C       		.uleb128 0xc
 6139 0f3d 01       		.uleb128 0x1
 6140 0f3e 50       		.byte	0x50
 6141 0f3f 02       		.uleb128 0x2
 6142 0f40 08       		.byte	0x8
 6143 0f41 32       		.byte	0x32
 6144 0f42 00       		.byte	0
 6145 0f43 0B       		.uleb128 0xb
 6146 0f44 40000000 		.4byte	.LVL188
 6147 0f48 170D0000 		.4byte	0xd17
 6148 0f4c 580F0000 		.4byte	0xf58
 6149 0f50 0C       		.uleb128 0xc
 6150 0f51 01       		.uleb128 0x1
 6151 0f52 50       		.byte	0x50
 6152 0f53 03       		.uleb128 0x3
 6153 0f54 0A       		.byte	0xa
 6154 0f55 B004     		.2byte	0x4b0
 6155 0f57 00       		.byte	0
 6156 0f58 0B       		.uleb128 0xb
 6157 0f59 46000000 		.4byte	.LVL189
 6158 0f5d CC210000 		.4byte	0x21cc
 6159 0f61 6C0F0000 		.4byte	0xf6c
 6160 0f65 0C       		.uleb128 0xc
 6161 0f66 01       		.uleb128 0x1
 6162 0f67 50       		.byte	0x50
 6163 0f68 02       		.uleb128 0x2
 6164 0f69 08       		.byte	0x8
 6165 0f6a 32       		.byte	0x32
 6166 0f6b 00       		.byte	0
 6167 0f6c 0B       		.uleb128 0xb
 6168 0f6d 4E000000 		.4byte	.LVL190
 6169 0f71 170D0000 		.4byte	0xd17
 6170 0f75 810F0000 		.4byte	0xf81
 6171 0f79 0C       		.uleb128 0xc
 6172 0f7a 01       		.uleb128 0x1
 6173 0f7b 50       		.byte	0x50
 6174 0f7c 03       		.uleb128 0x3
 6175 0f7d 0A       		.byte	0xa
 6176 0f7e DC05     		.2byte	0x5dc
 6177 0f80 00       		.byte	0
 6178 0f81 0B       		.uleb128 0xb
 6179 0f82 54000000 		.4byte	.LVL191
 6180 0f86 CC210000 		.4byte	0x21cc
ARM GAS  D:\Windows\AppData\Local\Temp\ccP1kfgz.s 			page 135


 6181 0f8a 950F0000 		.4byte	0xf95
 6182 0f8e 0C       		.uleb128 0xc
 6183 0f8f 01       		.uleb128 0x1
 6184 0f90 50       		.byte	0x50
 6185 0f91 02       		.uleb128 0x2
 6186 0f92 08       		.byte	0x8
 6187 0f93 32       		.byte	0x32
 6188 0f94 00       		.byte	0
 6189 0f95 0B       		.uleb128 0xb
 6190 0f96 5C000000 		.4byte	.LVL192
 6191 0f9a 170D0000 		.4byte	0xd17
 6192 0f9e AA0F0000 		.4byte	0xfaa
 6193 0fa2 0C       		.uleb128 0xc
 6194 0fa3 01       		.uleb128 0x1
 6195 0fa4 50       		.byte	0x50
 6196 0fa5 03       		.uleb128 0x3
 6197 0fa6 0A       		.byte	0xa
 6198 0fa7 0807     		.2byte	0x708
 6199 0fa9 00       		.byte	0
 6200 0faa 0B       		.uleb128 0xb
 6201 0fab 62000000 		.4byte	.LVL193
 6202 0faf CC210000 		.4byte	0x21cc
 6203 0fb3 BE0F0000 		.4byte	0xfbe
 6204 0fb7 0C       		.uleb128 0xc
 6205 0fb8 01       		.uleb128 0x1
 6206 0fb9 50       		.byte	0x50
 6207 0fba 02       		.uleb128 0x2
 6208 0fbb 08       		.byte	0x8
 6209 0fbc 32       		.byte	0x32
 6210 0fbd 00       		.byte	0
 6211 0fbe 0B       		.uleb128 0xb
 6212 0fbf 6A000000 		.4byte	.LVL194
 6213 0fc3 170D0000 		.4byte	0xd17
 6214 0fc7 D30F0000 		.4byte	0xfd3
 6215 0fcb 0C       		.uleb128 0xc
 6216 0fcc 01       		.uleb128 0x1
 6217 0fcd 50       		.byte	0x50
 6218 0fce 03       		.uleb128 0x3
 6219 0fcf 0A       		.byte	0xa
 6220 0fd0 3408     		.2byte	0x834
 6221 0fd2 00       		.byte	0
 6222 0fd3 0B       		.uleb128 0xb
 6223 0fd4 70000000 		.4byte	.LVL195
 6224 0fd8 CC210000 		.4byte	0x21cc
 6225 0fdc E70F0000 		.4byte	0xfe7
 6226 0fe0 0C       		.uleb128 0xc
 6227 0fe1 01       		.uleb128 0x1
 6228 0fe2 50       		.byte	0x50
 6229 0fe3 02       		.uleb128 0x2
 6230 0fe4 08       		.byte	0x8
 6231 0fe5 32       		.byte	0x32
 6232 0fe6 00       		.byte	0
 6233 0fe7 0B       		.uleb128 0xb
 6234 0fe8 78000000 		.4byte	.LVL196
 6235 0fec 170D0000 		.4byte	0xd17
 6236 0ff0 FC0F0000 		.4byte	0xffc
 6237 0ff4 0C       		.uleb128 0xc
ARM GAS  D:\Windows\AppData\Local\Temp\ccP1kfgz.s 			page 136


 6238 0ff5 01       		.uleb128 0x1
 6239 0ff6 50       		.byte	0x50
 6240 0ff7 03       		.uleb128 0x3
 6241 0ff8 0A       		.byte	0xa
 6242 0ff9 6009     		.2byte	0x960
 6243 0ffb 00       		.byte	0
 6244 0ffc 0B       		.uleb128 0xb
 6245 0ffd 7E000000 		.4byte	.LVL197
 6246 1001 CC210000 		.4byte	0x21cc
 6247 1005 10100000 		.4byte	0x1010
 6248 1009 0C       		.uleb128 0xc
 6249 100a 01       		.uleb128 0x1
 6250 100b 50       		.byte	0x50
 6251 100c 02       		.uleb128 0x2
 6252 100d 08       		.byte	0x8
 6253 100e 32       		.byte	0x32
 6254 100f 00       		.byte	0
 6255 1010 0B       		.uleb128 0xb
 6256 1011 86000000 		.4byte	.LVL198
 6257 1015 170D0000 		.4byte	0xd17
 6258 1019 25100000 		.4byte	0x1025
 6259 101d 0C       		.uleb128 0xc
 6260 101e 01       		.uleb128 0x1
 6261 101f 50       		.byte	0x50
 6262 1020 03       		.uleb128 0x3
 6263 1021 0A       		.byte	0xa
 6264 1022 8C0A     		.2byte	0xa8c
 6265 1024 00       		.byte	0
 6266 1025 0B       		.uleb128 0xb
 6267 1026 8C000000 		.4byte	.LVL199
 6268 102a CC210000 		.4byte	0x21cc
 6269 102e 39100000 		.4byte	0x1039
 6270 1032 0C       		.uleb128 0xc
 6271 1033 01       		.uleb128 0x1
 6272 1034 50       		.byte	0x50
 6273 1035 02       		.uleb128 0x2
 6274 1036 08       		.byte	0x8
 6275 1037 32       		.byte	0x32
 6276 1038 00       		.byte	0
 6277 1039 0B       		.uleb128 0xb
 6278 103a 94000000 		.4byte	.LVL200
 6279 103e 170D0000 		.4byte	0xd17
 6280 1042 4E100000 		.4byte	0x104e
 6281 1046 0C       		.uleb128 0xc
 6282 1047 01       		.uleb128 0x1
 6283 1048 50       		.byte	0x50
 6284 1049 03       		.uleb128 0x3
 6285 104a 0A       		.byte	0xa
 6286 104b B80B     		.2byte	0xbb8
 6287 104d 00       		.byte	0
 6288 104e 0B       		.uleb128 0xb
 6289 104f 9A000000 		.4byte	.LVL201
 6290 1053 CC210000 		.4byte	0x21cc
 6291 1057 62100000 		.4byte	0x1062
 6292 105b 0C       		.uleb128 0xc
 6293 105c 01       		.uleb128 0x1
 6294 105d 50       		.byte	0x50
ARM GAS  D:\Windows\AppData\Local\Temp\ccP1kfgz.s 			page 137


 6295 105e 02       		.uleb128 0x2
 6296 105f 08       		.byte	0x8
 6297 1060 32       		.byte	0x32
 6298 1061 00       		.byte	0
 6299 1062 0B       		.uleb128 0xb
 6300 1063 A2000000 		.4byte	.LVL202
 6301 1067 170D0000 		.4byte	0xd17
 6302 106b 77100000 		.4byte	0x1077
 6303 106f 0C       		.uleb128 0xc
 6304 1070 01       		.uleb128 0x1
 6305 1071 50       		.byte	0x50
 6306 1072 03       		.uleb128 0x3
 6307 1073 0A       		.byte	0xa
 6308 1074 E40C     		.2byte	0xce4
 6309 1076 00       		.byte	0
 6310 1077 0B       		.uleb128 0xb
 6311 1078 A8000000 		.4byte	.LVL203
 6312 107c CC210000 		.4byte	0x21cc
 6313 1080 8B100000 		.4byte	0x108b
 6314 1084 0C       		.uleb128 0xc
 6315 1085 01       		.uleb128 0x1
 6316 1086 50       		.byte	0x50
 6317 1087 02       		.uleb128 0x2
 6318 1088 08       		.byte	0x8
 6319 1089 32       		.byte	0x32
 6320 108a 00       		.byte	0
 6321 108b 0B       		.uleb128 0xb
 6322 108c B0000000 		.4byte	.LVL204
 6323 1090 170D0000 		.4byte	0xd17
 6324 1094 A0100000 		.4byte	0x10a0
 6325 1098 0C       		.uleb128 0xc
 6326 1099 01       		.uleb128 0x1
 6327 109a 50       		.byte	0x50
 6328 109b 03       		.uleb128 0x3
 6329 109c 0A       		.byte	0xa
 6330 109d 100E     		.2byte	0xe10
 6331 109f 00       		.byte	0
 6332 10a0 0B       		.uleb128 0xb
 6333 10a1 B6000000 		.4byte	.LVL205
 6334 10a5 CC210000 		.4byte	0x21cc
 6335 10a9 B4100000 		.4byte	0x10b4
 6336 10ad 0C       		.uleb128 0xc
 6337 10ae 01       		.uleb128 0x1
 6338 10af 50       		.byte	0x50
 6339 10b0 02       		.uleb128 0x2
 6340 10b1 08       		.byte	0x8
 6341 10b2 32       		.byte	0x32
 6342 10b3 00       		.byte	0
 6343 10b4 0B       		.uleb128 0xb
 6344 10b5 BE000000 		.4byte	.LVL206
 6345 10b9 170D0000 		.4byte	0xd17
 6346 10bd C9100000 		.4byte	0x10c9
 6347 10c1 0C       		.uleb128 0xc
 6348 10c2 01       		.uleb128 0x1
 6349 10c3 50       		.byte	0x50
 6350 10c4 03       		.uleb128 0x3
 6351 10c5 0A       		.byte	0xa
ARM GAS  D:\Windows\AppData\Local\Temp\ccP1kfgz.s 			page 138


 6352 10c6 3C0F     		.2byte	0xf3c
 6353 10c8 00       		.byte	0
 6354 10c9 0B       		.uleb128 0xb
 6355 10ca C4000000 		.4byte	.LVL207
 6356 10ce CC210000 		.4byte	0x21cc
 6357 10d2 DD100000 		.4byte	0x10dd
 6358 10d6 0C       		.uleb128 0xc
 6359 10d7 01       		.uleb128 0x1
 6360 10d8 50       		.byte	0x50
 6361 10d9 02       		.uleb128 0x2
 6362 10da 08       		.byte	0x8
 6363 10db 32       		.byte	0x32
 6364 10dc 00       		.byte	0
 6365 10dd 0B       		.uleb128 0xb
 6366 10de CC000000 		.4byte	.LVL208
 6367 10e2 170D0000 		.4byte	0xd17
 6368 10e6 F2100000 		.4byte	0x10f2
 6369 10ea 0C       		.uleb128 0xc
 6370 10eb 01       		.uleb128 0x1
 6371 10ec 50       		.byte	0x50
 6372 10ed 03       		.uleb128 0x3
 6373 10ee 0A       		.byte	0xa
 6374 10ef 6810     		.2byte	0x1068
 6375 10f1 00       		.byte	0
 6376 10f2 0B       		.uleb128 0xb
 6377 10f3 D2000000 		.4byte	.LVL209
 6378 10f7 CC210000 		.4byte	0x21cc
 6379 10fb 06110000 		.4byte	0x1106
 6380 10ff 0C       		.uleb128 0xc
 6381 1100 01       		.uleb128 0x1
 6382 1101 50       		.byte	0x50
 6383 1102 02       		.uleb128 0x2
 6384 1103 08       		.byte	0x8
 6385 1104 32       		.byte	0x32
 6386 1105 00       		.byte	0
 6387 1106 0B       		.uleb128 0xb
 6388 1107 DA000000 		.4byte	.LVL210
 6389 110b 170D0000 		.4byte	0xd17
 6390 110f 1B110000 		.4byte	0x111b
 6391 1113 0C       		.uleb128 0xc
 6392 1114 01       		.uleb128 0x1
 6393 1115 50       		.byte	0x50
 6394 1116 03       		.uleb128 0x3
 6395 1117 0A       		.byte	0xa
 6396 1118 9411     		.2byte	0x1194
 6397 111a 00       		.byte	0
 6398 111b 0B       		.uleb128 0xb
 6399 111c E0000000 		.4byte	.LVL211
 6400 1120 CC210000 		.4byte	0x21cc
 6401 1124 2F110000 		.4byte	0x112f
 6402 1128 0C       		.uleb128 0xc
 6403 1129 01       		.uleb128 0x1
 6404 112a 50       		.byte	0x50
 6405 112b 02       		.uleb128 0x2
 6406 112c 08       		.byte	0x8
 6407 112d 32       		.byte	0x32
 6408 112e 00       		.byte	0
ARM GAS  D:\Windows\AppData\Local\Temp\ccP1kfgz.s 			page 139


 6409 112f 0B       		.uleb128 0xb
 6410 1130 E8000000 		.4byte	.LVL212
 6411 1134 170D0000 		.4byte	0xd17
 6412 1138 44110000 		.4byte	0x1144
 6413 113c 0C       		.uleb128 0xc
 6414 113d 01       		.uleb128 0x1
 6415 113e 50       		.byte	0x50
 6416 113f 03       		.uleb128 0x3
 6417 1140 0A       		.byte	0xa
 6418 1141 C012     		.2byte	0x12c0
 6419 1143 00       		.byte	0
 6420 1144 0B       		.uleb128 0xb
 6421 1145 EE000000 		.4byte	.LVL213
 6422 1149 CC210000 		.4byte	0x21cc
 6423 114d 58110000 		.4byte	0x1158
 6424 1151 0C       		.uleb128 0xc
 6425 1152 01       		.uleb128 0x1
 6426 1153 50       		.byte	0x50
 6427 1154 02       		.uleb128 0x2
 6428 1155 08       		.byte	0x8
 6429 1156 32       		.byte	0x32
 6430 1157 00       		.byte	0
 6431 1158 0B       		.uleb128 0xb
 6432 1159 F6000000 		.4byte	.LVL214
 6433 115d 170D0000 		.4byte	0xd17
 6434 1161 6D110000 		.4byte	0x116d
 6435 1165 0C       		.uleb128 0xc
 6436 1166 01       		.uleb128 0x1
 6437 1167 50       		.byte	0x50
 6438 1168 03       		.uleb128 0x3
 6439 1169 0A       		.byte	0xa
 6440 116a EC13     		.2byte	0x13ec
 6441 116c 00       		.byte	0
 6442 116d 0B       		.uleb128 0xb
 6443 116e FC000000 		.4byte	.LVL215
 6444 1172 CC210000 		.4byte	0x21cc
 6445 1176 81110000 		.4byte	0x1181
 6446 117a 0C       		.uleb128 0xc
 6447 117b 01       		.uleb128 0x1
 6448 117c 50       		.byte	0x50
 6449 117d 02       		.uleb128 0x2
 6450 117e 08       		.byte	0x8
 6451 117f 32       		.byte	0x32
 6452 1180 00       		.byte	0
 6453 1181 0B       		.uleb128 0xb
 6454 1182 04010000 		.4byte	.LVL216
 6455 1186 170D0000 		.4byte	0xd17
 6456 118a 96110000 		.4byte	0x1196
 6457 118e 0C       		.uleb128 0xc
 6458 118f 01       		.uleb128 0x1
 6459 1190 50       		.byte	0x50
 6460 1191 03       		.uleb128 0x3
 6461 1192 0A       		.byte	0xa
 6462 1193 1815     		.2byte	0x1518
 6463 1195 00       		.byte	0
 6464 1196 0B       		.uleb128 0xb
 6465 1197 0A010000 		.4byte	.LVL217
ARM GAS  D:\Windows\AppData\Local\Temp\ccP1kfgz.s 			page 140


 6466 119b CC210000 		.4byte	0x21cc
 6467 119f AA110000 		.4byte	0x11aa
 6468 11a3 0C       		.uleb128 0xc
 6469 11a4 01       		.uleb128 0x1
 6470 11a5 50       		.byte	0x50
 6471 11a6 02       		.uleb128 0x2
 6472 11a7 08       		.byte	0x8
 6473 11a8 32       		.byte	0x32
 6474 11a9 00       		.byte	0
 6475 11aa 0B       		.uleb128 0xb
 6476 11ab 12010000 		.4byte	.LVL218
 6477 11af 170D0000 		.4byte	0xd17
 6478 11b3 BF110000 		.4byte	0x11bf
 6479 11b7 0C       		.uleb128 0xc
 6480 11b8 01       		.uleb128 0x1
 6481 11b9 50       		.byte	0x50
 6482 11ba 03       		.uleb128 0x3
 6483 11bb 0A       		.byte	0xa
 6484 11bc 4416     		.2byte	0x1644
 6485 11be 00       		.byte	0
 6486 11bf 0B       		.uleb128 0xb
 6487 11c0 18010000 		.4byte	.LVL219
 6488 11c4 CC210000 		.4byte	0x21cc
 6489 11c8 D3110000 		.4byte	0x11d3
 6490 11cc 0C       		.uleb128 0xc
 6491 11cd 01       		.uleb128 0x1
 6492 11ce 50       		.byte	0x50
 6493 11cf 02       		.uleb128 0x2
 6494 11d0 08       		.byte	0x8
 6495 11d1 32       		.byte	0x32
 6496 11d2 00       		.byte	0
 6497 11d3 0B       		.uleb128 0xb
 6498 11d4 20010000 		.4byte	.LVL220
 6499 11d8 170D0000 		.4byte	0xd17
 6500 11dc E8110000 		.4byte	0x11e8
 6501 11e0 0C       		.uleb128 0xc
 6502 11e1 01       		.uleb128 0x1
 6503 11e2 50       		.byte	0x50
 6504 11e3 03       		.uleb128 0x3
 6505 11e4 0A       		.byte	0xa
 6506 11e5 7017     		.2byte	0x1770
 6507 11e7 00       		.byte	0
 6508 11e8 0B       		.uleb128 0xb
 6509 11e9 26010000 		.4byte	.LVL221
 6510 11ed CC210000 		.4byte	0x21cc
 6511 11f1 FC110000 		.4byte	0x11fc
 6512 11f5 0C       		.uleb128 0xc
 6513 11f6 01       		.uleb128 0x1
 6514 11f7 50       		.byte	0x50
 6515 11f8 02       		.uleb128 0x2
 6516 11f9 08       		.byte	0x8
 6517 11fa 32       		.byte	0x32
 6518 11fb 00       		.byte	0
 6519 11fc 0B       		.uleb128 0xb
 6520 11fd 2E010000 		.4byte	.LVL222
 6521 1201 170D0000 		.4byte	0xd17
 6522 1205 11120000 		.4byte	0x1211
ARM GAS  D:\Windows\AppData\Local\Temp\ccP1kfgz.s 			page 141


 6523 1209 0C       		.uleb128 0xc
 6524 120a 01       		.uleb128 0x1
 6525 120b 50       		.byte	0x50
 6526 120c 03       		.uleb128 0x3
 6527 120d 0A       		.byte	0xa
 6528 120e 4416     		.2byte	0x1644
 6529 1210 00       		.byte	0
 6530 1211 0B       		.uleb128 0xb
 6531 1212 34010000 		.4byte	.LVL223
 6532 1216 CC210000 		.4byte	0x21cc
 6533 121a 25120000 		.4byte	0x1225
 6534 121e 0C       		.uleb128 0xc
 6535 121f 01       		.uleb128 0x1
 6536 1220 50       		.byte	0x50
 6537 1221 02       		.uleb128 0x2
 6538 1222 08       		.byte	0x8
 6539 1223 32       		.byte	0x32
 6540 1224 00       		.byte	0
 6541 1225 0B       		.uleb128 0xb
 6542 1226 3C010000 		.4byte	.LVL224
 6543 122a 170D0000 		.4byte	0xd17
 6544 122e 3A120000 		.4byte	0x123a
 6545 1232 0C       		.uleb128 0xc
 6546 1233 01       		.uleb128 0x1
 6547 1234 50       		.byte	0x50
 6548 1235 03       		.uleb128 0x3
 6549 1236 0A       		.byte	0xa
 6550 1237 1815     		.2byte	0x1518
 6551 1239 00       		.byte	0
 6552 123a 0B       		.uleb128 0xb
 6553 123b 42010000 		.4byte	.LVL225
 6554 123f CC210000 		.4byte	0x21cc
 6555 1243 4E120000 		.4byte	0x124e
 6556 1247 0C       		.uleb128 0xc
 6557 1248 01       		.uleb128 0x1
 6558 1249 50       		.byte	0x50
 6559 124a 02       		.uleb128 0x2
 6560 124b 08       		.byte	0x8
 6561 124c 32       		.byte	0x32
 6562 124d 00       		.byte	0
 6563 124e 0B       		.uleb128 0xb
 6564 124f 4A010000 		.4byte	.LVL226
 6565 1253 170D0000 		.4byte	0xd17
 6566 1257 63120000 		.4byte	0x1263
 6567 125b 0C       		.uleb128 0xc
 6568 125c 01       		.uleb128 0x1
 6569 125d 50       		.byte	0x50
 6570 125e 03       		.uleb128 0x3
 6571 125f 0A       		.byte	0xa
 6572 1260 EC13     		.2byte	0x13ec
 6573 1262 00       		.byte	0
 6574 1263 0B       		.uleb128 0xb
 6575 1264 50010000 		.4byte	.LVL227
 6576 1268 CC210000 		.4byte	0x21cc
 6577 126c 77120000 		.4byte	0x1277
 6578 1270 0C       		.uleb128 0xc
 6579 1271 01       		.uleb128 0x1
ARM GAS  D:\Windows\AppData\Local\Temp\ccP1kfgz.s 			page 142


 6580 1272 50       		.byte	0x50
 6581 1273 02       		.uleb128 0x2
 6582 1274 08       		.byte	0x8
 6583 1275 32       		.byte	0x32
 6584 1276 00       		.byte	0
 6585 1277 0B       		.uleb128 0xb
 6586 1278 58010000 		.4byte	.LVL228
 6587 127c 170D0000 		.4byte	0xd17
 6588 1280 8C120000 		.4byte	0x128c
 6589 1284 0C       		.uleb128 0xc
 6590 1285 01       		.uleb128 0x1
 6591 1286 50       		.byte	0x50
 6592 1287 03       		.uleb128 0x3
 6593 1288 0A       		.byte	0xa
 6594 1289 C012     		.2byte	0x12c0
 6595 128b 00       		.byte	0
 6596 128c 0B       		.uleb128 0xb
 6597 128d 5E010000 		.4byte	.LVL229
 6598 1291 CC210000 		.4byte	0x21cc
 6599 1295 A0120000 		.4byte	0x12a0
 6600 1299 0C       		.uleb128 0xc
 6601 129a 01       		.uleb128 0x1
 6602 129b 50       		.byte	0x50
 6603 129c 02       		.uleb128 0x2
 6604 129d 08       		.byte	0x8
 6605 129e 32       		.byte	0x32
 6606 129f 00       		.byte	0
 6607 12a0 0B       		.uleb128 0xb
 6608 12a1 66010000 		.4byte	.LVL230
 6609 12a5 170D0000 		.4byte	0xd17
 6610 12a9 B5120000 		.4byte	0x12b5
 6611 12ad 0C       		.uleb128 0xc
 6612 12ae 01       		.uleb128 0x1
 6613 12af 50       		.byte	0x50
 6614 12b0 03       		.uleb128 0x3
 6615 12b1 0A       		.byte	0xa
 6616 12b2 9411     		.2byte	0x1194
 6617 12b4 00       		.byte	0
 6618 12b5 0B       		.uleb128 0xb
 6619 12b6 6C010000 		.4byte	.LVL231
 6620 12ba CC210000 		.4byte	0x21cc
 6621 12be C9120000 		.4byte	0x12c9
 6622 12c2 0C       		.uleb128 0xc
 6623 12c3 01       		.uleb128 0x1
 6624 12c4 50       		.byte	0x50
 6625 12c5 02       		.uleb128 0x2
 6626 12c6 08       		.byte	0x8
 6627 12c7 32       		.byte	0x32
 6628 12c8 00       		.byte	0
 6629 12c9 0B       		.uleb128 0xb
 6630 12ca 74010000 		.4byte	.LVL232
 6631 12ce 170D0000 		.4byte	0xd17
 6632 12d2 DE120000 		.4byte	0x12de
 6633 12d6 0C       		.uleb128 0xc
 6634 12d7 01       		.uleb128 0x1
 6635 12d8 50       		.byte	0x50
 6636 12d9 03       		.uleb128 0x3
ARM GAS  D:\Windows\AppData\Local\Temp\ccP1kfgz.s 			page 143


 6637 12da 0A       		.byte	0xa
 6638 12db 6810     		.2byte	0x1068
 6639 12dd 00       		.byte	0
 6640 12de 0B       		.uleb128 0xb
 6641 12df 7A010000 		.4byte	.LVL233
 6642 12e3 CC210000 		.4byte	0x21cc
 6643 12e7 F2120000 		.4byte	0x12f2
 6644 12eb 0C       		.uleb128 0xc
 6645 12ec 01       		.uleb128 0x1
 6646 12ed 50       		.byte	0x50
 6647 12ee 02       		.uleb128 0x2
 6648 12ef 08       		.byte	0x8
 6649 12f0 32       		.byte	0x32
 6650 12f1 00       		.byte	0
 6651 12f2 0B       		.uleb128 0xb
 6652 12f3 82010000 		.4byte	.LVL234
 6653 12f7 170D0000 		.4byte	0xd17
 6654 12fb 07130000 		.4byte	0x1307
 6655 12ff 0C       		.uleb128 0xc
 6656 1300 01       		.uleb128 0x1
 6657 1301 50       		.byte	0x50
 6658 1302 03       		.uleb128 0x3
 6659 1303 0A       		.byte	0xa
 6660 1304 3C0F     		.2byte	0xf3c
 6661 1306 00       		.byte	0
 6662 1307 0B       		.uleb128 0xb
 6663 1308 88010000 		.4byte	.LVL235
 6664 130c CC210000 		.4byte	0x21cc
 6665 1310 1B130000 		.4byte	0x131b
 6666 1314 0C       		.uleb128 0xc
 6667 1315 01       		.uleb128 0x1
 6668 1316 50       		.byte	0x50
 6669 1317 02       		.uleb128 0x2
 6670 1318 08       		.byte	0x8
 6671 1319 32       		.byte	0x32
 6672 131a 00       		.byte	0
 6673 131b 0B       		.uleb128 0xb
 6674 131c 90010000 		.4byte	.LVL236
 6675 1320 170D0000 		.4byte	0xd17
 6676 1324 30130000 		.4byte	0x1330
 6677 1328 0C       		.uleb128 0xc
 6678 1329 01       		.uleb128 0x1
 6679 132a 50       		.byte	0x50
 6680 132b 03       		.uleb128 0x3
 6681 132c 0A       		.byte	0xa
 6682 132d 100E     		.2byte	0xe10
 6683 132f 00       		.byte	0
 6684 1330 0B       		.uleb128 0xb
 6685 1331 96010000 		.4byte	.LVL237
 6686 1335 CC210000 		.4byte	0x21cc
 6687 1339 44130000 		.4byte	0x1344
 6688 133d 0C       		.uleb128 0xc
 6689 133e 01       		.uleb128 0x1
 6690 133f 50       		.byte	0x50
 6691 1340 02       		.uleb128 0x2
 6692 1341 08       		.byte	0x8
 6693 1342 32       		.byte	0x32
ARM GAS  D:\Windows\AppData\Local\Temp\ccP1kfgz.s 			page 144


 6694 1343 00       		.byte	0
 6695 1344 0B       		.uleb128 0xb
 6696 1345 9E010000 		.4byte	.LVL238
 6697 1349 170D0000 		.4byte	0xd17
 6698 134d 59130000 		.4byte	0x1359
 6699 1351 0C       		.uleb128 0xc
 6700 1352 01       		.uleb128 0x1
 6701 1353 50       		.byte	0x50
 6702 1354 03       		.uleb128 0x3
 6703 1355 0A       		.byte	0xa
 6704 1356 E40C     		.2byte	0xce4
 6705 1358 00       		.byte	0
 6706 1359 0B       		.uleb128 0xb
 6707 135a A4010000 		.4byte	.LVL239
 6708 135e CC210000 		.4byte	0x21cc
 6709 1362 6D130000 		.4byte	0x136d
 6710 1366 0C       		.uleb128 0xc
 6711 1367 01       		.uleb128 0x1
 6712 1368 50       		.byte	0x50
 6713 1369 02       		.uleb128 0x2
 6714 136a 08       		.byte	0x8
 6715 136b 32       		.byte	0x32
 6716 136c 00       		.byte	0
 6717 136d 0B       		.uleb128 0xb
 6718 136e AC010000 		.4byte	.LVL240
 6719 1372 170D0000 		.4byte	0xd17
 6720 1376 82130000 		.4byte	0x1382
 6721 137a 0C       		.uleb128 0xc
 6722 137b 01       		.uleb128 0x1
 6723 137c 50       		.byte	0x50
 6724 137d 03       		.uleb128 0x3
 6725 137e 0A       		.byte	0xa
 6726 137f B80B     		.2byte	0xbb8
 6727 1381 00       		.byte	0
 6728 1382 0B       		.uleb128 0xb
 6729 1383 B2010000 		.4byte	.LVL241
 6730 1387 CC210000 		.4byte	0x21cc
 6731 138b 96130000 		.4byte	0x1396
 6732 138f 0C       		.uleb128 0xc
 6733 1390 01       		.uleb128 0x1
 6734 1391 50       		.byte	0x50
 6735 1392 02       		.uleb128 0x2
 6736 1393 08       		.byte	0x8
 6737 1394 32       		.byte	0x32
 6738 1395 00       		.byte	0
 6739 1396 0B       		.uleb128 0xb
 6740 1397 BA010000 		.4byte	.LVL242
 6741 139b 170D0000 		.4byte	0xd17
 6742 139f AB130000 		.4byte	0x13ab
 6743 13a3 0C       		.uleb128 0xc
 6744 13a4 01       		.uleb128 0x1
 6745 13a5 50       		.byte	0x50
 6746 13a6 03       		.uleb128 0x3
 6747 13a7 0A       		.byte	0xa
 6748 13a8 8C0A     		.2byte	0xa8c
 6749 13aa 00       		.byte	0
 6750 13ab 0B       		.uleb128 0xb
ARM GAS  D:\Windows\AppData\Local\Temp\ccP1kfgz.s 			page 145


 6751 13ac C0010000 		.4byte	.LVL243
 6752 13b0 CC210000 		.4byte	0x21cc
 6753 13b4 BF130000 		.4byte	0x13bf
 6754 13b8 0C       		.uleb128 0xc
 6755 13b9 01       		.uleb128 0x1
 6756 13ba 50       		.byte	0x50
 6757 13bb 02       		.uleb128 0x2
 6758 13bc 08       		.byte	0x8
 6759 13bd 32       		.byte	0x32
 6760 13be 00       		.byte	0
 6761 13bf 0B       		.uleb128 0xb
 6762 13c0 C8010000 		.4byte	.LVL244
 6763 13c4 170D0000 		.4byte	0xd17
 6764 13c8 D4130000 		.4byte	0x13d4
 6765 13cc 0C       		.uleb128 0xc
 6766 13cd 01       		.uleb128 0x1
 6767 13ce 50       		.byte	0x50
 6768 13cf 03       		.uleb128 0x3
 6769 13d0 0A       		.byte	0xa
 6770 13d1 6009     		.2byte	0x960
 6771 13d3 00       		.byte	0
 6772 13d4 0B       		.uleb128 0xb
 6773 13d5 CE010000 		.4byte	.LVL245
 6774 13d9 CC210000 		.4byte	0x21cc
 6775 13dd E8130000 		.4byte	0x13e8
 6776 13e1 0C       		.uleb128 0xc
 6777 13e2 01       		.uleb128 0x1
 6778 13e3 50       		.byte	0x50
 6779 13e4 02       		.uleb128 0x2
 6780 13e5 08       		.byte	0x8
 6781 13e6 32       		.byte	0x32
 6782 13e7 00       		.byte	0
 6783 13e8 0B       		.uleb128 0xb
 6784 13e9 D6010000 		.4byte	.LVL246
 6785 13ed 170D0000 		.4byte	0xd17
 6786 13f1 FD130000 		.4byte	0x13fd
 6787 13f5 0C       		.uleb128 0xc
 6788 13f6 01       		.uleb128 0x1
 6789 13f7 50       		.byte	0x50
 6790 13f8 03       		.uleb128 0x3
 6791 13f9 0A       		.byte	0xa
 6792 13fa 3408     		.2byte	0x834
 6793 13fc 00       		.byte	0
 6794 13fd 0B       		.uleb128 0xb
 6795 13fe DC010000 		.4byte	.LVL247
 6796 1402 CC210000 		.4byte	0x21cc
 6797 1406 11140000 		.4byte	0x1411
 6798 140a 0C       		.uleb128 0xc
 6799 140b 01       		.uleb128 0x1
 6800 140c 50       		.byte	0x50
 6801 140d 02       		.uleb128 0x2
 6802 140e 08       		.byte	0x8
 6803 140f 32       		.byte	0x32
 6804 1410 00       		.byte	0
 6805 1411 0B       		.uleb128 0xb
 6806 1412 E4010000 		.4byte	.LVL248
 6807 1416 170D0000 		.4byte	0xd17
ARM GAS  D:\Windows\AppData\Local\Temp\ccP1kfgz.s 			page 146


 6808 141a 26140000 		.4byte	0x1426
 6809 141e 0C       		.uleb128 0xc
 6810 141f 01       		.uleb128 0x1
 6811 1420 50       		.byte	0x50
 6812 1421 03       		.uleb128 0x3
 6813 1422 0A       		.byte	0xa
 6814 1423 0807     		.2byte	0x708
 6815 1425 00       		.byte	0
 6816 1426 0B       		.uleb128 0xb
 6817 1427 EA010000 		.4byte	.LVL249
 6818 142b CC210000 		.4byte	0x21cc
 6819 142f 3A140000 		.4byte	0x143a
 6820 1433 0C       		.uleb128 0xc
 6821 1434 01       		.uleb128 0x1
 6822 1435 50       		.byte	0x50
 6823 1436 02       		.uleb128 0x2
 6824 1437 08       		.byte	0x8
 6825 1438 32       		.byte	0x32
 6826 1439 00       		.byte	0
 6827 143a 0B       		.uleb128 0xb
 6828 143b F2010000 		.4byte	.LVL250
 6829 143f 170D0000 		.4byte	0xd17
 6830 1443 4F140000 		.4byte	0x144f
 6831 1447 0C       		.uleb128 0xc
 6832 1448 01       		.uleb128 0x1
 6833 1449 50       		.byte	0x50
 6834 144a 03       		.uleb128 0x3
 6835 144b 0A       		.byte	0xa
 6836 144c DC05     		.2byte	0x5dc
 6837 144e 00       		.byte	0
 6838 144f 0B       		.uleb128 0xb
 6839 1450 F8010000 		.4byte	.LVL251
 6840 1454 CC210000 		.4byte	0x21cc
 6841 1458 63140000 		.4byte	0x1463
 6842 145c 0C       		.uleb128 0xc
 6843 145d 01       		.uleb128 0x1
 6844 145e 50       		.byte	0x50
 6845 145f 02       		.uleb128 0x2
 6846 1460 08       		.byte	0x8
 6847 1461 32       		.byte	0x32
 6848 1462 00       		.byte	0
 6849 1463 0B       		.uleb128 0xb
 6850 1464 00020000 		.4byte	.LVL252
 6851 1468 170D0000 		.4byte	0xd17
 6852 146c 78140000 		.4byte	0x1478
 6853 1470 0C       		.uleb128 0xc
 6854 1471 01       		.uleb128 0x1
 6855 1472 50       		.byte	0x50
 6856 1473 03       		.uleb128 0x3
 6857 1474 0A       		.byte	0xa
 6858 1475 B004     		.2byte	0x4b0
 6859 1477 00       		.byte	0
 6860 1478 0B       		.uleb128 0xb
 6861 1479 06020000 		.4byte	.LVL253
 6862 147d CC210000 		.4byte	0x21cc
 6863 1481 8C140000 		.4byte	0x148c
 6864 1485 0C       		.uleb128 0xc
ARM GAS  D:\Windows\AppData\Local\Temp\ccP1kfgz.s 			page 147


 6865 1486 01       		.uleb128 0x1
 6866 1487 50       		.byte	0x50
 6867 1488 02       		.uleb128 0x2
 6868 1489 08       		.byte	0x8
 6869 148a 32       		.byte	0x32
 6870 148b 00       		.byte	0
 6871 148c 0B       		.uleb128 0xb
 6872 148d 0E020000 		.4byte	.LVL254
 6873 1491 170D0000 		.4byte	0xd17
 6874 1495 A1140000 		.4byte	0x14a1
 6875 1499 0C       		.uleb128 0xc
 6876 149a 01       		.uleb128 0x1
 6877 149b 50       		.byte	0x50
 6878 149c 03       		.uleb128 0x3
 6879 149d 0A       		.byte	0xa
 6880 149e 8403     		.2byte	0x384
 6881 14a0 00       		.byte	0
 6882 14a1 0B       		.uleb128 0xb
 6883 14a2 14020000 		.4byte	.LVL255
 6884 14a6 CC210000 		.4byte	0x21cc
 6885 14aa B5140000 		.4byte	0x14b5
 6886 14ae 0C       		.uleb128 0xc
 6887 14af 01       		.uleb128 0x1
 6888 14b0 50       		.byte	0x50
 6889 14b1 02       		.uleb128 0x2
 6890 14b2 08       		.byte	0x8
 6891 14b3 32       		.byte	0x32
 6892 14b4 00       		.byte	0
 6893 14b5 0B       		.uleb128 0xb
 6894 14b6 1C020000 		.4byte	.LVL256
 6895 14ba 170D0000 		.4byte	0xd17
 6896 14be CA140000 		.4byte	0x14ca
 6897 14c2 0C       		.uleb128 0xc
 6898 14c3 01       		.uleb128 0x1
 6899 14c4 50       		.byte	0x50
 6900 14c5 03       		.uleb128 0x3
 6901 14c6 0A       		.byte	0xa
 6902 14c7 5802     		.2byte	0x258
 6903 14c9 00       		.byte	0
 6904 14ca 0B       		.uleb128 0xb
 6905 14cb 22020000 		.4byte	.LVL257
 6906 14cf CC210000 		.4byte	0x21cc
 6907 14d3 DE140000 		.4byte	0x14de
 6908 14d7 0C       		.uleb128 0xc
 6909 14d8 01       		.uleb128 0x1
 6910 14d9 50       		.byte	0x50
 6911 14da 02       		.uleb128 0x2
 6912 14db 08       		.byte	0x8
 6913 14dc 32       		.byte	0x32
 6914 14dd 00       		.byte	0
 6915 14de 0B       		.uleb128 0xb
 6916 14df 2A020000 		.4byte	.LVL258
 6917 14e3 170D0000 		.4byte	0xd17
 6918 14e7 F3140000 		.4byte	0x14f3
 6919 14eb 0C       		.uleb128 0xc
 6920 14ec 01       		.uleb128 0x1
 6921 14ed 50       		.byte	0x50
ARM GAS  D:\Windows\AppData\Local\Temp\ccP1kfgz.s 			page 148


 6922 14ee 03       		.uleb128 0x3
 6923 14ef 0A       		.byte	0xa
 6924 14f0 2C01     		.2byte	0x12c
 6925 14f2 00       		.byte	0
 6926 14f3 0B       		.uleb128 0xb
 6927 14f4 30020000 		.4byte	.LVL259
 6928 14f8 CC210000 		.4byte	0x21cc
 6929 14fc 07150000 		.4byte	0x1507
 6930 1500 0C       		.uleb128 0xc
 6931 1501 01       		.uleb128 0x1
 6932 1502 50       		.byte	0x50
 6933 1503 02       		.uleb128 0x2
 6934 1504 08       		.byte	0x8
 6935 1505 32       		.byte	0x32
 6936 1506 00       		.byte	0
 6937 1507 0B       		.uleb128 0xb
 6938 1508 36020000 		.4byte	.LVL260
 6939 150c 170D0000 		.4byte	0xd17
 6940 1510 1A150000 		.4byte	0x151a
 6941 1514 0C       		.uleb128 0xc
 6942 1515 01       		.uleb128 0x1
 6943 1516 50       		.byte	0x50
 6944 1517 01       		.uleb128 0x1
 6945 1518 30       		.byte	0x30
 6946 1519 00       		.byte	0
 6947 151a 0F       		.uleb128 0xf
 6948 151b 3C020000 		.4byte	.LVL261
 6949 151f CC210000 		.4byte	0x21cc
 6950 1523 0C       		.uleb128 0xc
 6951 1524 01       		.uleb128 0x1
 6952 1525 50       		.byte	0x50
 6953 1526 02       		.uleb128 0x2
 6954 1527 08       		.byte	0x8
 6955 1528 32       		.byte	0x32
 6956 1529 00       		.byte	0
 6957 152a 00       		.byte	0
 6958 152b 18       		.uleb128 0x18
 6959 152c 17010000 		.4byte	.LASF147
 6960 1530 01       		.byte	0x1
 6961 1531 9D02     		.2byte	0x29d
 6962 1533 7E000000 		.4byte	0x7e
 6963 1537 00000000 		.4byte	.LFB82
 6964 153b B8000000 		.4byte	.LFE82-.LFB82
 6965 153f 01       		.uleb128 0x1
 6966 1540 9C       		.byte	0x9c
 6967 1541 2A160000 		.4byte	0x162a
 6968 1545 19       		.uleb128 0x19
 6969 1546 6900     		.ascii	"i\000"
 6970 1548 01       		.byte	0x1
 6971 1549 9D02     		.2byte	0x29d
 6972 154b 7E000000 		.4byte	0x7e
 6973 154f DF000000 		.4byte	.LLST6
 6974 1553 19       		.uleb128 0x19
 6975 1554 61727200 		.ascii	"arr\000"
 6976 1558 01       		.byte	0x1
 6977 1559 9D02     		.2byte	0x29d
 6978 155b 2A160000 		.4byte	0x162a
ARM GAS  D:\Windows\AppData\Local\Temp\ccP1kfgz.s 			page 149


 6979 155f 08010000 		.4byte	.LLST7
 6980 1563 0D       		.uleb128 0xd
 6981 1564 0C000000 		.4byte	.LVL264
 6982 1568 22070000 		.4byte	0x722
 6983 156c 0D       		.uleb128 0xd
 6984 156d 12000000 		.4byte	.LVL265
 6985 1571 54070000 		.4byte	0x754
 6986 1575 0D       		.uleb128 0xd
 6987 1576 18000000 		.4byte	.LVL266
 6988 157a 86070000 		.4byte	0x786
 6989 157e 0D       		.uleb128 0xd
 6990 157f 1E000000 		.4byte	.LVL267
 6991 1583 B8070000 		.4byte	0x7b8
 6992 1587 0D       		.uleb128 0xd
 6993 1588 24000000 		.4byte	.LVL268
 6994 158c EA070000 		.4byte	0x7ea
 6995 1590 0D       		.uleb128 0xd
 6996 1591 2A000000 		.4byte	.LVL269
 6997 1595 1C080000 		.4byte	0x81c
 6998 1599 0D       		.uleb128 0xd
 6999 159a 30000000 		.4byte	.LVL270
 7000 159e 4E080000 		.4byte	0x84e
 7001 15a2 0D       		.uleb128 0xd
 7002 15a3 36000000 		.4byte	.LVL271
 7003 15a7 80080000 		.4byte	0x880
 7004 15ab 0D       		.uleb128 0xd
 7005 15ac 3C000000 		.4byte	.LVL272
 7006 15b0 B2080000 		.4byte	0x8b2
 7007 15b4 0D       		.uleb128 0xd
 7008 15b5 42000000 		.4byte	.LVL273
 7009 15b9 E4080000 		.4byte	0x8e4
 7010 15bd 0D       		.uleb128 0xd
 7011 15be 48000000 		.4byte	.LVL274
 7012 15c2 16090000 		.4byte	0x916
 7013 15c6 0D       		.uleb128 0xd
 7014 15c7 4E000000 		.4byte	.LVL275
 7015 15cb 48090000 		.4byte	0x948
 7016 15cf 0D       		.uleb128 0xd
 7017 15d0 54000000 		.4byte	.LVL276
 7018 15d4 7A090000 		.4byte	0x97a
 7019 15d8 0D       		.uleb128 0xd
 7020 15d9 5A000000 		.4byte	.LVL277
 7021 15dd AC090000 		.4byte	0x9ac
 7022 15e1 0D       		.uleb128 0xd
 7023 15e2 60000000 		.4byte	.LVL278
 7024 15e6 DE090000 		.4byte	0x9de
 7025 15ea 0D       		.uleb128 0xd
 7026 15eb 66000000 		.4byte	.LVL279
 7027 15ef 100A0000 		.4byte	0xa10
 7028 15f3 0D       		.uleb128 0xd
 7029 15f4 6C000000 		.4byte	.LVL280
 7030 15f8 420A0000 		.4byte	0xa42
 7031 15fc 0D       		.uleb128 0xd
 7032 15fd 72000000 		.4byte	.LVL281
 7033 1601 740A0000 		.4byte	0xa74
 7034 1605 0D       		.uleb128 0xd
 7035 1606 78000000 		.4byte	.LVL282
ARM GAS  D:\Windows\AppData\Local\Temp\ccP1kfgz.s 			page 150


 7036 160a A60A0000 		.4byte	0xaa6
 7037 160e 0D       		.uleb128 0xd
 7038 160f 7E000000 		.4byte	.LVL283
 7039 1613 960B0000 		.4byte	0xb96
 7040 1617 0D       		.uleb128 0xd
 7041 1618 84000000 		.4byte	.LVL284
 7042 161c C80B0000 		.4byte	0xbc8
 7043 1620 0D       		.uleb128 0xd
 7044 1621 8A000000 		.4byte	.LVL285
 7045 1625 FA0B0000 		.4byte	0xbfa
 7046 1629 00       		.byte	0
 7047 162a 06       		.uleb128 0x6
 7048 162b 04       		.byte	0x4
 7049 162c 7E000000 		.4byte	0x7e
 7050 1630 08       		.uleb128 0x8
 7051 1631 29030000 		.4byte	.LASF59
 7052 1635 01       		.byte	0x1
 7053 1636 5C03     		.2byte	0x35c
 7054 1638 00000000 		.4byte	.LFB105
 7055 163c 20000000 		.4byte	.LFE105-.LFB105
 7056 1640 01       		.uleb128 0x1
 7057 1641 9C       		.byte	0x9c
 7058 1642 62160000 		.4byte	0x1662
 7059 1646 11       		.uleb128 0x11
 7060 1647 9A030000 		.4byte	.LASF24
 7061 164b 01       		.byte	0x1
 7062 164c 5C03     		.2byte	0x35c
 7063 164e 7E000000 		.4byte	0x7e
 7064 1652 01       		.uleb128 0x1
 7065 1653 50       		.byte	0x50
 7066 1654 12       		.uleb128 0x12
 7067 1655 62697400 		.ascii	"bit\000"
 7068 1659 01       		.byte	0x1
 7069 165a 5D03     		.2byte	0x35d
 7070 165c 8C000000 		.4byte	0x8c
 7071 1660 01       		.byte	0x1
 7072 1661 00       		.byte	0
 7073 1662 08       		.uleb128 0x8
 7074 1663 B7000000 		.4byte	.LASF60
 7075 1667 01       		.byte	0x1
 7076 1668 6303     		.2byte	0x363
 7077 166a 00000000 		.4byte	.LFB106
 7078 166e 20000000 		.4byte	.LFE106-.LFB106
 7079 1672 01       		.uleb128 0x1
 7080 1673 9C       		.byte	0x9c
 7081 1674 94160000 		.4byte	0x1694
 7082 1678 11       		.uleb128 0x11
 7083 1679 9A030000 		.4byte	.LASF24
 7084 167d 01       		.byte	0x1
 7085 167e 6303     		.2byte	0x363
 7086 1680 7E000000 		.4byte	0x7e
 7087 1684 01       		.uleb128 0x1
 7088 1685 50       		.byte	0x50
 7089 1686 12       		.uleb128 0x12
 7090 1687 62697400 		.ascii	"bit\000"
 7091 168b 01       		.byte	0x1
 7092 168c 6403     		.2byte	0x364
ARM GAS  D:\Windows\AppData\Local\Temp\ccP1kfgz.s 			page 151


 7093 168e 8C000000 		.4byte	0x8c
 7094 1692 10       		.byte	0x10
 7095 1693 00       		.byte	0
 7096 1694 08       		.uleb128 0x8
 7097 1695 0D040000 		.4byte	.LASF61
 7098 1699 01       		.byte	0x1
 7099 169a 6A03     		.2byte	0x36a
 7100 169c 00000000 		.4byte	.LFB107
 7101 16a0 20000000 		.4byte	.LFE107-.LFB107
 7102 16a4 01       		.uleb128 0x1
 7103 16a5 9C       		.byte	0x9c
 7104 16a6 C6160000 		.4byte	0x16c6
 7105 16aa 11       		.uleb128 0x11
 7106 16ab 9A030000 		.4byte	.LASF24
 7107 16af 01       		.byte	0x1
 7108 16b0 6A03     		.2byte	0x36a
 7109 16b2 7E000000 		.4byte	0x7e
 7110 16b6 01       		.uleb128 0x1
 7111 16b7 50       		.byte	0x50
 7112 16b8 12       		.uleb128 0x12
 7113 16b9 62697400 		.ascii	"bit\000"
 7114 16bd 01       		.byte	0x1
 7115 16be 6B03     		.2byte	0x36b
 7116 16c0 8C000000 		.4byte	0x8c
 7117 16c4 01       		.byte	0x1
 7118 16c5 00       		.byte	0
 7119 16c6 08       		.uleb128 0x8
 7120 16c7 25010000 		.4byte	.LASF62
 7121 16cb 01       		.byte	0x1
 7122 16cc 7103     		.2byte	0x371
 7123 16ce 00000000 		.4byte	.LFB108
 7124 16d2 20000000 		.4byte	.LFE108-.LFB108
 7125 16d6 01       		.uleb128 0x1
 7126 16d7 9C       		.byte	0x9c
 7127 16d8 F8160000 		.4byte	0x16f8
 7128 16dc 11       		.uleb128 0x11
 7129 16dd 9A030000 		.4byte	.LASF24
 7130 16e1 01       		.byte	0x1
 7131 16e2 7103     		.2byte	0x371
 7132 16e4 7E000000 		.4byte	0x7e
 7133 16e8 01       		.uleb128 0x1
 7134 16e9 50       		.byte	0x50
 7135 16ea 12       		.uleb128 0x12
 7136 16eb 62697400 		.ascii	"bit\000"
 7137 16ef 01       		.byte	0x1
 7138 16f0 7203     		.2byte	0x372
 7139 16f2 8C000000 		.4byte	0x8c
 7140 16f6 10       		.byte	0x10
 7141 16f7 00       		.byte	0
 7142 16f8 08       		.uleb128 0x8
 7143 16f9 46040000 		.4byte	.LASF63
 7144 16fd 01       		.byte	0x1
 7145 16fe 7803     		.2byte	0x378
 7146 1700 00000000 		.4byte	.LFB109
 7147 1704 20000000 		.4byte	.LFE109-.LFB109
 7148 1708 01       		.uleb128 0x1
 7149 1709 9C       		.byte	0x9c
ARM GAS  D:\Windows\AppData\Local\Temp\ccP1kfgz.s 			page 152


 7150 170a 2A170000 		.4byte	0x172a
 7151 170e 11       		.uleb128 0x11
 7152 170f 9A030000 		.4byte	.LASF24
 7153 1713 01       		.byte	0x1
 7154 1714 7803     		.2byte	0x378
 7155 1716 7E000000 		.4byte	0x7e
 7156 171a 01       		.uleb128 0x1
 7157 171b 50       		.byte	0x50
 7158 171c 12       		.uleb128 0x12
 7159 171d 62697400 		.ascii	"bit\000"
 7160 1721 01       		.byte	0x1
 7161 1722 7903     		.2byte	0x379
 7162 1724 8C000000 		.4byte	0x8c
 7163 1728 01       		.byte	0x1
 7164 1729 00       		.byte	0
 7165 172a 13       		.uleb128 0x13
 7166 172b DC030000 		.4byte	.LASF64
 7167 172f 01       		.byte	0x1
 7168 1730 4E       		.byte	0x4e
 7169 1731 00000000 		.4byte	.LFB64
 7170 1735 34000000 		.4byte	.LFE64-.LFB64
 7171 1739 01       		.uleb128 0x1
 7172 173a 9C       		.byte	0x9c
 7173 173b 76170000 		.4byte	0x1776
 7174 173f 0D       		.uleb128 0xd
 7175 1740 12000000 		.4byte	.LVL294
 7176 1744 30160000 		.4byte	0x1630
 7177 1748 0D       		.uleb128 0xd
 7178 1749 18000000 		.4byte	.LVL295
 7179 174d 62160000 		.4byte	0x1662
 7180 1751 0D       		.uleb128 0xd
 7181 1752 1E000000 		.4byte	.LVL296
 7182 1756 94160000 		.4byte	0x1694
 7183 175a 0D       		.uleb128 0xd
 7184 175b 24000000 		.4byte	.LVL297
 7185 175f C6160000 		.4byte	0x16c6
 7186 1763 0D       		.uleb128 0xd
 7187 1764 2A000000 		.4byte	.LVL298
 7188 1768 F8160000 		.4byte	0x16f8
 7189 176c 0D       		.uleb128 0xd
 7190 176d 2E000000 		.4byte	.LVL299
 7191 1771 B2060000 		.4byte	0x6b2
 7192 1775 00       		.byte	0
 7193 1776 08       		.uleb128 0x8
 7194 1777 39070000 		.4byte	.LASF65
 7195 177b 01       		.byte	0x1
 7196 177c 0F01     		.2byte	0x10f
 7197 177e 00000000 		.4byte	.LFB70
 7198 1782 F4000000 		.4byte	.LFE70-.LFB70
 7199 1786 01       		.uleb128 0x1
 7200 1787 9C       		.byte	0x9c
 7201 1788 29180000 		.4byte	0x1829
 7202 178c 09       		.uleb128 0x9
 7203 178d 6B030000 		.4byte	.LASF66
 7204 1791 01       		.byte	0x1
 7205 1792 0F01     		.2byte	0x10f
 7206 1794 8C000000 		.4byte	0x8c
ARM GAS  D:\Windows\AppData\Local\Temp\ccP1kfgz.s 			page 153


 7207 1798 34010000 		.4byte	.LLST8
 7208 179c 1A       		.uleb128 0x1a
 7209 179d 39010000 		.4byte	.LASF57
 7210 17a1 01       		.byte	0x1
 7211 17a2 1801     		.2byte	0x118
 7212 17a4 7E000000 		.4byte	0x7e
 7213 17a8 55010000 		.4byte	.LLST9
 7214 17ac 16       		.uleb128 0x16
 7215 17ad 18000000 		.4byte	.Ldebug_ranges0+0x18
 7216 17b1 FA170000 		.4byte	0x17fa
 7217 17b5 1B       		.uleb128 0x1b
 7218 17b6 6900     		.ascii	"i\000"
 7219 17b8 01       		.byte	0x1
 7220 17b9 2C01     		.2byte	0x12c
 7221 17bb 7E000000 		.4byte	0x7e
 7222 17bf 74010000 		.4byte	.LLST10
 7223 17c3 0D       		.uleb128 0xd
 7224 17c4 C8000000 		.4byte	.LVL312
 7225 17c8 30160000 		.4byte	0x1630
 7226 17cc 0D       		.uleb128 0xd
 7227 17cd CE000000 		.4byte	.LVL313
 7228 17d1 62160000 		.4byte	0x1662
 7229 17d5 0D       		.uleb128 0xd
 7230 17d6 D4000000 		.4byte	.LVL314
 7231 17da 94160000 		.4byte	0x1694
 7232 17de 0D       		.uleb128 0xd
 7233 17df DA000000 		.4byte	.LVL315
 7234 17e3 C6160000 		.4byte	0x16c6
 7235 17e7 0D       		.uleb128 0xd
 7236 17e8 E2000000 		.4byte	.LVL316
 7237 17ec F8160000 		.4byte	0x16f8
 7238 17f0 0D       		.uleb128 0xd
 7239 17f1 E6000000 		.4byte	.LVL317
 7240 17f5 B2060000 		.4byte	0x6b2
 7241 17f9 00       		.byte	0
 7242 17fa 0D       		.uleb128 0xd
 7243 17fb 1C000000 		.4byte	.LVL301
 7244 17ff DD210000 		.4byte	0x21dd
 7245 1803 0D       		.uleb128 0xd
 7246 1804 20000000 		.4byte	.LVL302
 7247 1808 E4210000 		.4byte	0x21e4
 7248 180c 0D       		.uleb128 0xd
 7249 180d 6C000000 		.4byte	.LVL303
 7250 1811 EB210000 		.4byte	0x21eb
 7251 1815 0F       		.uleb128 0xf
 7252 1816 72000000 		.4byte	.LVL304
 7253 181a F2210000 		.4byte	0x21f2
 7254 181e 0C       		.uleb128 0xc
 7255 181f 01       		.uleb128 0x1
 7256 1820 50       		.byte	0x50
 7257 1821 05       		.uleb128 0x5
 7258 1822 03       		.byte	0x3
 7259 1823 00000000 		.4byte	b1_crit_isr
 7260 1827 00       		.byte	0
 7261 1828 00       		.byte	0
 7262 1829 08       		.uleb128 0x8
 7263 182a FA060000 		.4byte	.LASF67
ARM GAS  D:\Windows\AppData\Local\Temp\ccP1kfgz.s 			page 154


 7264 182e 01       		.byte	0x1
 7265 182f 8103     		.2byte	0x381
 7266 1831 00000000 		.4byte	.LFB110
 7267 1835 20000000 		.4byte	.LFE110-.LFB110
 7268 1839 01       		.uleb128 0x1
 7269 183a 9C       		.byte	0x9c
 7270 183b 5B180000 		.4byte	0x185b
 7271 183f 11       		.uleb128 0x11
 7272 1840 9A030000 		.4byte	.LASF24
 7273 1844 01       		.byte	0x1
 7274 1845 8103     		.2byte	0x381
 7275 1847 7E000000 		.4byte	0x7e
 7276 184b 01       		.uleb128 0x1
 7277 184c 50       		.byte	0x50
 7278 184d 12       		.uleb128 0x12
 7279 184e 62697400 		.ascii	"bit\000"
 7280 1852 01       		.byte	0x1
 7281 1853 8203     		.2byte	0x382
 7282 1855 8C000000 		.4byte	0x8c
 7283 1859 10       		.byte	0x10
 7284 185a 00       		.byte	0
 7285 185b 08       		.uleb128 0x8
 7286 185c 82020000 		.4byte	.LASF68
 7287 1860 01       		.byte	0x1
 7288 1861 8803     		.2byte	0x388
 7289 1863 00000000 		.4byte	.LFB111
 7290 1867 20000000 		.4byte	.LFE111-.LFB111
 7291 186b 01       		.uleb128 0x1
 7292 186c 9C       		.byte	0x9c
 7293 186d 8D180000 		.4byte	0x188d
 7294 1871 11       		.uleb128 0x11
 7295 1872 9A030000 		.4byte	.LASF24
 7296 1876 01       		.byte	0x1
 7297 1877 8803     		.2byte	0x388
 7298 1879 7E000000 		.4byte	0x7e
 7299 187d 01       		.uleb128 0x1
 7300 187e 50       		.byte	0x50
 7301 187f 12       		.uleb128 0x12
 7302 1880 62697400 		.ascii	"bit\000"
 7303 1884 01       		.byte	0x1
 7304 1885 8903     		.2byte	0x389
 7305 1887 8C000000 		.4byte	0x8c
 7306 188b 01       		.byte	0x1
 7307 188c 00       		.byte	0
 7308 188d 08       		.uleb128 0x8
 7309 188e 17070000 		.4byte	.LASF69
 7310 1892 01       		.byte	0x1
 7311 1893 8F03     		.2byte	0x38f
 7312 1895 00000000 		.4byte	.LFB112
 7313 1899 20000000 		.4byte	.LFE112-.LFB112
 7314 189d 01       		.uleb128 0x1
 7315 189e 9C       		.byte	0x9c
 7316 189f BF180000 		.4byte	0x18bf
 7317 18a3 11       		.uleb128 0x11
 7318 18a4 9A030000 		.4byte	.LASF24
 7319 18a8 01       		.byte	0x1
 7320 18a9 8F03     		.2byte	0x38f
ARM GAS  D:\Windows\AppData\Local\Temp\ccP1kfgz.s 			page 155


 7321 18ab 7E000000 		.4byte	0x7e
 7322 18af 01       		.uleb128 0x1
 7323 18b0 50       		.byte	0x50
 7324 18b1 12       		.uleb128 0x12
 7325 18b2 62697400 		.ascii	"bit\000"
 7326 18b6 01       		.byte	0x1
 7327 18b7 9003     		.2byte	0x390
 7328 18b9 8C000000 		.4byte	0x8c
 7329 18bd 10       		.byte	0x10
 7330 18be 00       		.byte	0
 7331 18bf 08       		.uleb128 0x8
 7332 18c0 D4020000 		.4byte	.LASF70
 7333 18c4 01       		.byte	0x1
 7334 18c5 9603     		.2byte	0x396
 7335 18c7 00000000 		.4byte	.LFB113
 7336 18cb 20000000 		.4byte	.LFE113-.LFB113
 7337 18cf 01       		.uleb128 0x1
 7338 18d0 9C       		.byte	0x9c
 7339 18d1 F1180000 		.4byte	0x18f1
 7340 18d5 11       		.uleb128 0x11
 7341 18d6 9A030000 		.4byte	.LASF24
 7342 18da 01       		.byte	0x1
 7343 18db 9603     		.2byte	0x396
 7344 18dd 7E000000 		.4byte	0x7e
 7345 18e1 01       		.uleb128 0x1
 7346 18e2 50       		.byte	0x50
 7347 18e3 12       		.uleb128 0x12
 7348 18e4 62697400 		.ascii	"bit\000"
 7349 18e8 01       		.byte	0x1
 7350 18e9 9703     		.2byte	0x397
 7351 18eb 8C000000 		.4byte	0x8c
 7352 18ef 02       		.byte	0x2
 7353 18f0 00       		.byte	0
 7354 18f1 08       		.uleb128 0x8
 7355 18f2 22000000 		.4byte	.LASF71
 7356 18f6 01       		.byte	0x1
 7357 18f7 9D03     		.2byte	0x39d
 7358 18f9 00000000 		.4byte	.LFB114
 7359 18fd 20000000 		.4byte	.LFE114-.LFB114
 7360 1901 01       		.uleb128 0x1
 7361 1902 9C       		.byte	0x9c
 7362 1903 23190000 		.4byte	0x1923
 7363 1907 11       		.uleb128 0x11
 7364 1908 9A030000 		.4byte	.LASF24
 7365 190c 01       		.byte	0x1
 7366 190d 9D03     		.2byte	0x39d
 7367 190f 7E000000 		.4byte	0x7e
 7368 1913 01       		.uleb128 0x1
 7369 1914 50       		.byte	0x50
 7370 1915 12       		.uleb128 0x12
 7371 1916 62697400 		.ascii	"bit\000"
 7372 191a 01       		.byte	0x1
 7373 191b 9E03     		.2byte	0x39e
 7374 191d 8C000000 		.4byte	0x8c
 7375 1921 20       		.byte	0x20
 7376 1922 00       		.byte	0
 7377 1923 13       		.uleb128 0x13
ARM GAS  D:\Windows\AppData\Local\Temp\ccP1kfgz.s 			page 156


 7378 1924 9C050000 		.4byte	.LASF72
 7379 1928 01       		.byte	0x1
 7380 1929 58       		.byte	0x58
 7381 192a 00000000 		.4byte	.LFB65
 7382 192e 40000000 		.4byte	.LFE65-.LFB65
 7383 1932 01       		.uleb128 0x1
 7384 1933 9C       		.byte	0x9c
 7385 1934 6F190000 		.4byte	0x196f
 7386 1938 0D       		.uleb128 0xd
 7387 1939 16000000 		.4byte	.LVL323
 7388 193d 29180000 		.4byte	0x1829
 7389 1941 0D       		.uleb128 0xd
 7390 1942 1E000000 		.4byte	.LVL324
 7391 1946 5B180000 		.4byte	0x185b
 7392 194a 0D       		.uleb128 0xd
 7393 194b 26000000 		.4byte	.LVL325
 7394 194f 8D180000 		.4byte	0x188d
 7395 1953 0D       		.uleb128 0xd
 7396 1954 2E000000 		.4byte	.LVL326
 7397 1958 BF180000 		.4byte	0x18bf
 7398 195c 0D       		.uleb128 0xd
 7399 195d 36000000 		.4byte	.LVL327
 7400 1961 F1180000 		.4byte	0x18f1
 7401 1965 0D       		.uleb128 0xd
 7402 1966 3A000000 		.4byte	.LVL328
 7403 196a B2060000 		.4byte	0x6b2
 7404 196e 00       		.byte	0
 7405 196f 08       		.uleb128 0x8
 7406 1970 46070000 		.4byte	.LASF73
 7407 1974 01       		.byte	0x1
 7408 1975 3B01     		.2byte	0x13b
 7409 1977 00000000 		.4byte	.LFB71
 7410 197b 0C010000 		.4byte	.LFE71-.LFB71
 7411 197f 01       		.uleb128 0x1
 7412 1980 9C       		.byte	0x9c
 7413 1981 221A0000 		.4byte	0x1a22
 7414 1985 09       		.uleb128 0x9
 7415 1986 FB040000 		.4byte	.LASF74
 7416 198a 01       		.byte	0x1
 7417 198b 3B01     		.2byte	0x13b
 7418 198d 8C000000 		.4byte	0x8c
 7419 1991 9D010000 		.4byte	.LLST11
 7420 1995 1A       		.uleb128 0x1a
 7421 1996 39010000 		.4byte	.LASF57
 7422 199a 01       		.byte	0x1
 7423 199b 4401     		.2byte	0x144
 7424 199d 7E000000 		.4byte	0x7e
 7425 19a1 BE010000 		.4byte	.LLST12
 7426 19a5 16       		.uleb128 0x16
 7427 19a6 30000000 		.4byte	.Ldebug_ranges0+0x30
 7428 19aa F3190000 		.4byte	0x19f3
 7429 19ae 1B       		.uleb128 0x1b
 7430 19af 6900     		.ascii	"i\000"
 7431 19b1 01       		.byte	0x1
 7432 19b2 5801     		.2byte	0x158
 7433 19b4 7E000000 		.4byte	0x7e
 7434 19b8 DD010000 		.4byte	.LLST13
ARM GAS  D:\Windows\AppData\Local\Temp\ccP1kfgz.s 			page 157


 7435 19bc 0D       		.uleb128 0xd
 7436 19bd D8000000 		.4byte	.LVL341
 7437 19c1 29180000 		.4byte	0x1829
 7438 19c5 0D       		.uleb128 0xd
 7439 19c6 E0000000 		.4byte	.LVL342
 7440 19ca 5B180000 		.4byte	0x185b
 7441 19ce 0D       		.uleb128 0xd
 7442 19cf E8000000 		.4byte	.LVL343
 7443 19d3 8D180000 		.4byte	0x188d
 7444 19d7 0D       		.uleb128 0xd
 7445 19d8 F0000000 		.4byte	.LVL344
 7446 19dc BF180000 		.4byte	0x18bf
 7447 19e0 0D       		.uleb128 0xd
 7448 19e1 F8000000 		.4byte	.LVL345
 7449 19e5 F1180000 		.4byte	0x18f1
 7450 19e9 0D       		.uleb128 0xd
 7451 19ea FC000000 		.4byte	.LVL346
 7452 19ee B2060000 		.4byte	0x6b2
 7453 19f2 00       		.byte	0
 7454 19f3 0D       		.uleb128 0xd
 7455 19f4 20000000 		.4byte	.LVL330
 7456 19f8 03220000 		.4byte	0x2203
 7457 19fc 0D       		.uleb128 0xd
 7458 19fd 24000000 		.4byte	.LVL331
 7459 1a01 0A220000 		.4byte	0x220a
 7460 1a05 0D       		.uleb128 0xd
 7461 1a06 72000000 		.4byte	.LVL332
 7462 1a0a 11220000 		.4byte	0x2211
 7463 1a0e 0F       		.uleb128 0xf
 7464 1a0f 78000000 		.4byte	.LVL333
 7465 1a13 18220000 		.4byte	0x2218
 7466 1a17 0C       		.uleb128 0xc
 7467 1a18 01       		.uleb128 0x1
 7468 1a19 50       		.byte	0x50
 7469 1a1a 05       		.uleb128 0x5
 7470 1a1b 03       		.byte	0x3
 7471 1a1c 00000000 		.4byte	b2_crit_isr
 7472 1a20 00       		.byte	0
 7473 1a21 00       		.byte	0
 7474 1a22 08       		.uleb128 0x8
 7475 1a23 04080000 		.4byte	.LASF75
 7476 1a27 01       		.byte	0x1
 7477 1a28 A603     		.2byte	0x3a6
 7478 1a2a 00000000 		.4byte	.LFB115
 7479 1a2e 20000000 		.4byte	.LFE115-.LFB115
 7480 1a32 01       		.uleb128 0x1
 7481 1a33 9C       		.byte	0x9c
 7482 1a34 541A0000 		.4byte	0x1a54
 7483 1a38 11       		.uleb128 0x11
 7484 1a39 9A030000 		.4byte	.LASF24
 7485 1a3d 01       		.byte	0x1
 7486 1a3e A603     		.2byte	0x3a6
 7487 1a40 7E000000 		.4byte	0x7e
 7488 1a44 01       		.uleb128 0x1
 7489 1a45 50       		.byte	0x50
 7490 1a46 12       		.uleb128 0x12
 7491 1a47 62697400 		.ascii	"bit\000"
ARM GAS  D:\Windows\AppData\Local\Temp\ccP1kfgz.s 			page 158


 7492 1a4b 01       		.byte	0x1
 7493 1a4c A703     		.2byte	0x3a7
 7494 1a4e 8C000000 		.4byte	0x8c
 7495 1a52 02       		.byte	0x2
 7496 1a53 00       		.byte	0
 7497 1a54 08       		.uleb128 0x8
 7498 1a55 17050000 		.4byte	.LASF76
 7499 1a59 01       		.byte	0x1
 7500 1a5a AD03     		.2byte	0x3ad
 7501 1a5c 00000000 		.4byte	.LFB116
 7502 1a60 20000000 		.4byte	.LFE116-.LFB116
 7503 1a64 01       		.uleb128 0x1
 7504 1a65 9C       		.byte	0x9c
 7505 1a66 861A0000 		.4byte	0x1a86
 7506 1a6a 11       		.uleb128 0x11
 7507 1a6b 9A030000 		.4byte	.LASF24
 7508 1a6f 01       		.byte	0x1
 7509 1a70 AD03     		.2byte	0x3ad
 7510 1a72 7E000000 		.4byte	0x7e
 7511 1a76 01       		.uleb128 0x1
 7512 1a77 50       		.byte	0x50
 7513 1a78 12       		.uleb128 0x12
 7514 1a79 62697400 		.ascii	"bit\000"
 7515 1a7d 01       		.byte	0x1
 7516 1a7e AE03     		.2byte	0x3ae
 7517 1a80 8C000000 		.4byte	0x8c
 7518 1a84 20       		.byte	0x20
 7519 1a85 00       		.byte	0
 7520 1a86 08       		.uleb128 0x8
 7521 1a87 9D010000 		.4byte	.LASF77
 7522 1a8b 01       		.byte	0x1
 7523 1a8c B403     		.2byte	0x3b4
 7524 1a8e 00000000 		.4byte	.LFB117
 7525 1a92 20000000 		.4byte	.LFE117-.LFB117
 7526 1a96 01       		.uleb128 0x1
 7527 1a97 9C       		.byte	0x9c
 7528 1a98 B81A0000 		.4byte	0x1ab8
 7529 1a9c 11       		.uleb128 0x11
 7530 1a9d 9A030000 		.4byte	.LASF24
 7531 1aa1 01       		.byte	0x1
 7532 1aa2 B403     		.2byte	0x3b4
 7533 1aa4 7E000000 		.4byte	0x7e
 7534 1aa8 01       		.uleb128 0x1
 7535 1aa9 50       		.byte	0x50
 7536 1aaa 12       		.uleb128 0x12
 7537 1aab 62697400 		.ascii	"bit\000"
 7538 1aaf 01       		.byte	0x1
 7539 1ab0 B503     		.2byte	0x3b5
 7540 1ab2 8C000000 		.4byte	0x8c
 7541 1ab6 02       		.byte	0x2
 7542 1ab7 00       		.byte	0
 7543 1ab8 08       		.uleb128 0x8
 7544 1ab9 05060000 		.4byte	.LASF78
 7545 1abd 01       		.byte	0x1
 7546 1abe BB03     		.2byte	0x3bb
 7547 1ac0 00000000 		.4byte	.LFB118
 7548 1ac4 20000000 		.4byte	.LFE118-.LFB118
ARM GAS  D:\Windows\AppData\Local\Temp\ccP1kfgz.s 			page 159


 7549 1ac8 01       		.uleb128 0x1
 7550 1ac9 9C       		.byte	0x9c
 7551 1aca EA1A0000 		.4byte	0x1aea
 7552 1ace 11       		.uleb128 0x11
 7553 1acf 9A030000 		.4byte	.LASF24
 7554 1ad3 01       		.byte	0x1
 7555 1ad4 BB03     		.2byte	0x3bb
 7556 1ad6 7E000000 		.4byte	0x7e
 7557 1ada 01       		.uleb128 0x1
 7558 1adb 50       		.byte	0x50
 7559 1adc 12       		.uleb128 0x12
 7560 1add 62697400 		.ascii	"bit\000"
 7561 1ae1 01       		.byte	0x1
 7562 1ae2 BC03     		.2byte	0x3bc
 7563 1ae4 8C000000 		.4byte	0x8c
 7564 1ae8 20       		.byte	0x20
 7565 1ae9 00       		.byte	0
 7566 1aea 08       		.uleb128 0x8
 7567 1aeb 5C020000 		.4byte	.LASF79
 7568 1aef 01       		.byte	0x1
 7569 1af0 C203     		.2byte	0x3c2
 7570 1af2 00000000 		.4byte	.LFB119
 7571 1af6 20000000 		.4byte	.LFE119-.LFB119
 7572 1afa 01       		.uleb128 0x1
 7573 1afb 9C       		.byte	0x9c
 7574 1afc 1C1B0000 		.4byte	0x1b1c
 7575 1b00 11       		.uleb128 0x11
 7576 1b01 9A030000 		.4byte	.LASF24
 7577 1b05 01       		.byte	0x1
 7578 1b06 C203     		.2byte	0x3c2
 7579 1b08 7E000000 		.4byte	0x7e
 7580 1b0c 01       		.uleb128 0x1
 7581 1b0d 50       		.byte	0x50
 7582 1b0e 12       		.uleb128 0x12
 7583 1b0f 62697400 		.ascii	"bit\000"
 7584 1b13 01       		.byte	0x1
 7585 1b14 C303     		.2byte	0x3c3
 7586 1b16 8C000000 		.4byte	0x8c
 7587 1b1a 02       		.byte	0x2
 7588 1b1b 00       		.byte	0
 7589 1b1c 13       		.uleb128 0x13
 7590 1b1d 2C000000 		.4byte	.LASF80
 7591 1b21 01       		.byte	0x1
 7592 1b22 62       		.byte	0x62
 7593 1b23 00000000 		.4byte	.LFB66
 7594 1b27 40000000 		.4byte	.LFE66-.LFB66
 7595 1b2b 01       		.uleb128 0x1
 7596 1b2c 9C       		.byte	0x9c
 7597 1b2d 681B0000 		.4byte	0x1b68
 7598 1b31 0D       		.uleb128 0xd
 7599 1b32 16000000 		.4byte	.LVL352
 7600 1b36 221A0000 		.4byte	0x1a22
 7601 1b3a 0D       		.uleb128 0xd
 7602 1b3b 1E000000 		.4byte	.LVL353
 7603 1b3f 541A0000 		.4byte	0x1a54
 7604 1b43 0D       		.uleb128 0xd
 7605 1b44 26000000 		.4byte	.LVL354
ARM GAS  D:\Windows\AppData\Local\Temp\ccP1kfgz.s 			page 160


 7606 1b48 861A0000 		.4byte	0x1a86
 7607 1b4c 0D       		.uleb128 0xd
 7608 1b4d 2E000000 		.4byte	.LVL355
 7609 1b51 B81A0000 		.4byte	0x1ab8
 7610 1b55 0D       		.uleb128 0xd
 7611 1b56 36000000 		.4byte	.LVL356
 7612 1b5a EA1A0000 		.4byte	0x1aea
 7613 1b5e 0D       		.uleb128 0xd
 7614 1b5f 3A000000 		.4byte	.LVL357
 7615 1b63 B2060000 		.4byte	0x6b2
 7616 1b67 00       		.byte	0
 7617 1b68 08       		.uleb128 0x8
 7618 1b69 53070000 		.4byte	.LASF81
 7619 1b6d 01       		.byte	0x1
 7620 1b6e 6701     		.2byte	0x167
 7621 1b70 00000000 		.4byte	.LFB72
 7622 1b74 0C010000 		.4byte	.LFE72-.LFB72
 7623 1b78 01       		.uleb128 0x1
 7624 1b79 9C       		.byte	0x9c
 7625 1b7a 1B1C0000 		.4byte	0x1c1b
 7626 1b7e 09       		.uleb128 0x9
 7627 1b7f 50040000 		.4byte	.LASF82
 7628 1b83 01       		.byte	0x1
 7629 1b84 6701     		.2byte	0x167
 7630 1b86 8C000000 		.4byte	0x8c
 7631 1b8a 06020000 		.4byte	.LLST14
 7632 1b8e 1A       		.uleb128 0x1a
 7633 1b8f 39010000 		.4byte	.LASF57
 7634 1b93 01       		.byte	0x1
 7635 1b94 7001     		.2byte	0x170
 7636 1b96 7E000000 		.4byte	0x7e
 7637 1b9a 27020000 		.4byte	.LLST15
 7638 1b9e 16       		.uleb128 0x16
 7639 1b9f 48000000 		.4byte	.Ldebug_ranges0+0x48
 7640 1ba3 EC1B0000 		.4byte	0x1bec
 7641 1ba7 1B       		.uleb128 0x1b
 7642 1ba8 6900     		.ascii	"i\000"
 7643 1baa 01       		.byte	0x1
 7644 1bab 8401     		.2byte	0x184
 7645 1bad 7E000000 		.4byte	0x7e
 7646 1bb1 46020000 		.4byte	.LLST16
 7647 1bb5 0D       		.uleb128 0xd
 7648 1bb6 D8000000 		.4byte	.LVL370
 7649 1bba 221A0000 		.4byte	0x1a22
 7650 1bbe 0D       		.uleb128 0xd
 7651 1bbf E0000000 		.4byte	.LVL371
 7652 1bc3 541A0000 		.4byte	0x1a54
 7653 1bc7 0D       		.uleb128 0xd
 7654 1bc8 E8000000 		.4byte	.LVL372
 7655 1bcc 861A0000 		.4byte	0x1a86
 7656 1bd0 0D       		.uleb128 0xd
 7657 1bd1 F0000000 		.4byte	.LVL373
 7658 1bd5 B81A0000 		.4byte	0x1ab8
 7659 1bd9 0D       		.uleb128 0xd
 7660 1bda F8000000 		.4byte	.LVL374
 7661 1bde EA1A0000 		.4byte	0x1aea
 7662 1be2 0D       		.uleb128 0xd
ARM GAS  D:\Windows\AppData\Local\Temp\ccP1kfgz.s 			page 161


 7663 1be3 FC000000 		.4byte	.LVL375
 7664 1be7 B2060000 		.4byte	0x6b2
 7665 1beb 00       		.byte	0
 7666 1bec 0D       		.uleb128 0xd
 7667 1bed 20000000 		.4byte	.LVL359
 7668 1bf1 29220000 		.4byte	0x2229
 7669 1bf5 0D       		.uleb128 0xd
 7670 1bf6 24000000 		.4byte	.LVL360
 7671 1bfa 30220000 		.4byte	0x2230
 7672 1bfe 0D       		.uleb128 0xd
 7673 1bff 72000000 		.4byte	.LVL361
 7674 1c03 37220000 		.4byte	0x2237
 7675 1c07 0F       		.uleb128 0xf
 7676 1c08 78000000 		.4byte	.LVL362
 7677 1c0c 3E220000 		.4byte	0x223e
 7678 1c10 0C       		.uleb128 0xc
 7679 1c11 01       		.uleb128 0x1
 7680 1c12 50       		.byte	0x50
 7681 1c13 05       		.uleb128 0x5
 7682 1c14 03       		.byte	0x3
 7683 1c15 00000000 		.4byte	b3_crit_isr
 7684 1c19 00       		.byte	0
 7685 1c1a 00       		.byte	0
 7686 1c1b 08       		.uleb128 0x8
 7687 1c1c CB000000 		.4byte	.LASF83
 7688 1c20 01       		.byte	0x1
 7689 1c21 CB03     		.2byte	0x3cb
 7690 1c23 00000000 		.4byte	.LFB120
 7691 1c27 20000000 		.4byte	.LFE120-.LFB120
 7692 1c2b 01       		.uleb128 0x1
 7693 1c2c 9C       		.byte	0x9c
 7694 1c2d 4D1C0000 		.4byte	0x1c4d
 7695 1c31 11       		.uleb128 0x11
 7696 1c32 9A030000 		.4byte	.LASF24
 7697 1c36 01       		.byte	0x1
 7698 1c37 CB03     		.2byte	0x3cb
 7699 1c39 7E000000 		.4byte	0x7e
 7700 1c3d 01       		.uleb128 0x1
 7701 1c3e 50       		.byte	0x50
 7702 1c3f 12       		.uleb128 0x12
 7703 1c40 62697400 		.ascii	"bit\000"
 7704 1c44 01       		.byte	0x1
 7705 1c45 CC03     		.2byte	0x3cc
 7706 1c47 8C000000 		.4byte	0x8c
 7707 1c4b 20       		.byte	0x20
 7708 1c4c 00       		.byte	0
 7709 1c4d 08       		.uleb128 0x8
 7710 1c4e 04040000 		.4byte	.LASF84
 7711 1c52 01       		.byte	0x1
 7712 1c53 D203     		.2byte	0x3d2
 7713 1c55 00000000 		.4byte	.LFB121
 7714 1c59 20000000 		.4byte	.LFE121-.LFB121
 7715 1c5d 01       		.uleb128 0x1
 7716 1c5e 9C       		.byte	0x9c
 7717 1c5f 7F1C0000 		.4byte	0x1c7f
 7718 1c63 11       		.uleb128 0x11
 7719 1c64 9A030000 		.4byte	.LASF24
ARM GAS  D:\Windows\AppData\Local\Temp\ccP1kfgz.s 			page 162


 7720 1c68 01       		.byte	0x1
 7721 1c69 D203     		.2byte	0x3d2
 7722 1c6b 7E000000 		.4byte	0x7e
 7723 1c6f 01       		.uleb128 0x1
 7724 1c70 50       		.byte	0x50
 7725 1c71 12       		.uleb128 0x12
 7726 1c72 62697400 		.ascii	"bit\000"
 7727 1c76 01       		.byte	0x1
 7728 1c77 D303     		.2byte	0x3d3
 7729 1c79 8C000000 		.4byte	0x8c
 7730 1c7d 04       		.byte	0x4
 7731 1c7e 00       		.byte	0
 7732 1c7f 08       		.uleb128 0x8
 7733 1c80 95000000 		.4byte	.LASF85
 7734 1c84 01       		.byte	0x1
 7735 1c85 D903     		.2byte	0x3d9
 7736 1c87 00000000 		.4byte	.LFB122
 7737 1c8b 20000000 		.4byte	.LFE122-.LFB122
 7738 1c8f 01       		.uleb128 0x1
 7739 1c90 9C       		.byte	0x9c
 7740 1c91 B11C0000 		.4byte	0x1cb1
 7741 1c95 11       		.uleb128 0x11
 7742 1c96 9A030000 		.4byte	.LASF24
 7743 1c9a 01       		.byte	0x1
 7744 1c9b D903     		.2byte	0x3d9
 7745 1c9d 7E000000 		.4byte	0x7e
 7746 1ca1 01       		.uleb128 0x1
 7747 1ca2 50       		.byte	0x50
 7748 1ca3 12       		.uleb128 0x12
 7749 1ca4 62697400 		.ascii	"bit\000"
 7750 1ca8 01       		.byte	0x1
 7751 1ca9 DA03     		.2byte	0x3da
 7752 1cab 8C000000 		.4byte	0x8c
 7753 1caf 40       		.byte	0x40
 7754 1cb0 00       		.byte	0
 7755 1cb1 08       		.uleb128 0x8
 7756 1cb2 0D030000 		.4byte	.LASF86
 7757 1cb6 01       		.byte	0x1
 7758 1cb7 E103     		.2byte	0x3e1
 7759 1cb9 00000000 		.4byte	.LFB123
 7760 1cbd 20000000 		.4byte	.LFE123-.LFB123
 7761 1cc1 01       		.uleb128 0x1
 7762 1cc2 9C       		.byte	0x9c
 7763 1cc3 E31C0000 		.4byte	0x1ce3
 7764 1cc7 11       		.uleb128 0x11
 7765 1cc8 9A030000 		.4byte	.LASF24
 7766 1ccc 01       		.byte	0x1
 7767 1ccd E103     		.2byte	0x3e1
 7768 1ccf 7E000000 		.4byte	0x7e
 7769 1cd3 01       		.uleb128 0x1
 7770 1cd4 50       		.byte	0x50
 7771 1cd5 12       		.uleb128 0x12
 7772 1cd6 62697400 		.ascii	"bit\000"
 7773 1cda 01       		.byte	0x1
 7774 1cdb E203     		.2byte	0x3e2
 7775 1cdd 8C000000 		.4byte	0x8c
 7776 1ce1 04       		.byte	0x4
ARM GAS  D:\Windows\AppData\Local\Temp\ccP1kfgz.s 			page 163


 7777 1ce2 00       		.byte	0
 7778 1ce3 08       		.uleb128 0x8
 7779 1ce4 76070000 		.4byte	.LASF87
 7780 1ce8 01       		.byte	0x1
 7781 1ce9 E903     		.2byte	0x3e9
 7782 1ceb 00000000 		.4byte	.LFB124
 7783 1cef 20000000 		.4byte	.LFE124-.LFB124
 7784 1cf3 01       		.uleb128 0x1
 7785 1cf4 9C       		.byte	0x9c
 7786 1cf5 151D0000 		.4byte	0x1d15
 7787 1cf9 11       		.uleb128 0x11
 7788 1cfa 9A030000 		.4byte	.LASF24
 7789 1cfe 01       		.byte	0x1
 7790 1cff E903     		.2byte	0x3e9
 7791 1d01 7E000000 		.4byte	0x7e
 7792 1d05 01       		.uleb128 0x1
 7793 1d06 50       		.byte	0x50
 7794 1d07 12       		.uleb128 0x12
 7795 1d08 62697400 		.ascii	"bit\000"
 7796 1d0c 01       		.byte	0x1
 7797 1d0d EA03     		.2byte	0x3ea
 7798 1d0f 8C000000 		.4byte	0x8c
 7799 1d13 40       		.byte	0x40
 7800 1d14 00       		.byte	0
 7801 1d15 13       		.uleb128 0x13
 7802 1d16 03020000 		.4byte	.LASF88
 7803 1d1a 01       		.byte	0x1
 7804 1d1b 6C       		.byte	0x6c
 7805 1d1c 00000000 		.4byte	.LFB67
 7806 1d20 40000000 		.4byte	.LFE67-.LFB67
 7807 1d24 01       		.uleb128 0x1
 7808 1d25 9C       		.byte	0x9c
 7809 1d26 611D0000 		.4byte	0x1d61
 7810 1d2a 0D       		.uleb128 0xd
 7811 1d2b 16000000 		.4byte	.LVL381
 7812 1d2f E31C0000 		.4byte	0x1ce3
 7813 1d33 0D       		.uleb128 0xd
 7814 1d34 1E000000 		.4byte	.LVL382
 7815 1d38 B11C0000 		.4byte	0x1cb1
 7816 1d3c 0D       		.uleb128 0xd
 7817 1d3d 26000000 		.4byte	.LVL383
 7818 1d41 7F1C0000 		.4byte	0x1c7f
 7819 1d45 0D       		.uleb128 0xd
 7820 1d46 2E000000 		.4byte	.LVL384
 7821 1d4a 4D1C0000 		.4byte	0x1c4d
 7822 1d4e 0D       		.uleb128 0xd
 7823 1d4f 36000000 		.4byte	.LVL385
 7824 1d53 1B1C0000 		.4byte	0x1c1b
 7825 1d57 0D       		.uleb128 0xd
 7826 1d58 3A000000 		.4byte	.LVL386
 7827 1d5c B2060000 		.4byte	0x6b2
 7828 1d60 00       		.byte	0
 7829 1d61 08       		.uleb128 0x8
 7830 1d62 F7070000 		.4byte	.LASF89
 7831 1d66 01       		.byte	0x1
 7832 1d67 9301     		.2byte	0x193
 7833 1d69 00000000 		.4byte	.LFB73
ARM GAS  D:\Windows\AppData\Local\Temp\ccP1kfgz.s 			page 164


 7834 1d6d D4000000 		.4byte	.LFE73-.LFB73
 7835 1d71 01       		.uleb128 0x1
 7836 1d72 9C       		.byte	0x9c
 7837 1d73 021E0000 		.4byte	0x1e02
 7838 1d77 19       		.uleb128 0x19
 7839 1d78 536F4300 		.ascii	"SoC\000"
 7840 1d7c 01       		.byte	0x1
 7841 1d7d 9301     		.2byte	0x193
 7842 1d7f 8C000000 		.4byte	0x8c
 7843 1d83 6F020000 		.4byte	.LLST17
 7844 1d87 1A       		.uleb128 0x1a
 7845 1d88 39010000 		.4byte	.LASF57
 7846 1d8c 01       		.byte	0x1
 7847 1d8d 9401     		.2byte	0x194
 7848 1d8f 7E000000 		.4byte	0x7e
 7849 1d93 A9020000 		.4byte	.LLST18
 7850 1d97 16       		.uleb128 0x16
 7851 1d98 60000000 		.4byte	.Ldebug_ranges0+0x60
 7852 1d9c E51D0000 		.4byte	0x1de5
 7853 1da0 1B       		.uleb128 0x1b
 7854 1da1 6900     		.ascii	"i\000"
 7855 1da3 01       		.byte	0x1
 7856 1da4 A801     		.2byte	0x1a8
 7857 1da6 7E000000 		.4byte	0x7e
 7858 1daa C8020000 		.4byte	.LLST19
 7859 1dae 0D       		.uleb128 0xd
 7860 1daf A4000000 		.4byte	.LVL401
 7861 1db3 E31C0000 		.4byte	0x1ce3
 7862 1db7 0D       		.uleb128 0xd
 7863 1db8 AC000000 		.4byte	.LVL402
 7864 1dbc B11C0000 		.4byte	0x1cb1
 7865 1dc0 0D       		.uleb128 0xd
 7866 1dc1 B4000000 		.4byte	.LVL403
 7867 1dc5 7F1C0000 		.4byte	0x1c7f
 7868 1dc9 0D       		.uleb128 0xd
 7869 1dca BC000000 		.4byte	.LVL404
 7870 1dce 4D1C0000 		.4byte	0x1c4d
 7871 1dd2 0D       		.uleb128 0xd
 7872 1dd3 C4000000 		.4byte	.LVL405
 7873 1dd7 1B1C0000 		.4byte	0x1c1b
 7874 1ddb 0D       		.uleb128 0xd
 7875 1ddc C8000000 		.4byte	.LVL406
 7876 1de0 B2060000 		.4byte	0x6b2
 7877 1de4 00       		.byte	0
 7878 1de5 0D       		.uleb128 0xd
 7879 1de6 3E000000 		.4byte	.LVL390
 7880 1dea 4F220000 		.4byte	0x224f
 7881 1dee 0F       		.uleb128 0xf
 7882 1def 44000000 		.4byte	.LVL391
 7883 1df3 56220000 		.4byte	0x2256
 7884 1df7 0C       		.uleb128 0xc
 7885 1df8 01       		.uleb128 0x1
 7886 1df9 50       		.byte	0x50
 7887 1dfa 05       		.uleb128 0x5
 7888 1dfb 03       		.byte	0x3
 7889 1dfc 00000000 		.4byte	c1_crit_isr
 7890 1e00 00       		.byte	0
ARM GAS  D:\Windows\AppData\Local\Temp\ccP1kfgz.s 			page 165


 7891 1e01 00       		.byte	0
 7892 1e02 10       		.uleb128 0x10
 7893 1e03 0F020000 		.4byte	.LASF90
 7894 1e07 01       		.byte	0x1
 7895 1e08 2102     		.2byte	0x221
 7896 1e0a 00000000 		.4byte	.LFB79
 7897 1e0e 64000000 		.4byte	.LFE79-.LFB79
 7898 1e12 01       		.uleb128 0x1
 7899 1e13 9C       		.byte	0x9c
 7900 1e14 391F0000 		.4byte	0x1f39
 7901 1e18 0B       		.uleb128 0xb
 7902 1e19 0A000000 		.4byte	.LVL407
 7903 1e1d 5E210000 		.4byte	0x215e
 7904 1e21 311E0000 		.4byte	0x1e31
 7905 1e25 0C       		.uleb128 0xc
 7906 1e26 01       		.uleb128 0x1
 7907 1e27 51       		.byte	0x51
 7908 1e28 01       		.uleb128 0x1
 7909 1e29 30       		.byte	0x30
 7910 1e2a 0C       		.uleb128 0xc
 7911 1e2b 01       		.uleb128 0x1
 7912 1e2c 50       		.byte	0x50
 7913 1e2d 02       		.uleb128 0x2
 7914 1e2e 08       		.byte	0x8
 7915 1e2f 40       		.byte	0x40
 7916 1e30 00       		.byte	0
 7917 1e31 0B       		.uleb128 0xb
 7918 1e32 10000000 		.4byte	.LVL408
 7919 1e36 78210000 		.4byte	0x2178
 7920 1e3a 441E0000 		.4byte	0x1e44
 7921 1e3e 0C       		.uleb128 0xc
 7922 1e3f 01       		.uleb128 0x1
 7923 1e40 50       		.byte	0x50
 7924 1e41 01       		.uleb128 0x1
 7925 1e42 31       		.byte	0x31
 7926 1e43 00       		.byte	0
 7927 1e44 0B       		.uleb128 0xb
 7928 1e45 16000000 		.4byte	.LVL409
 7929 1e49 78210000 		.4byte	0x2178
 7930 1e4d 581E0000 		.4byte	0x1e58
 7931 1e51 0C       		.uleb128 0xc
 7932 1e52 01       		.uleb128 0x1
 7933 1e53 50       		.byte	0x50
 7934 1e54 02       		.uleb128 0x2
 7935 1e55 08       		.byte	0x8
 7936 1e56 77       		.byte	0x77
 7937 1e57 00       		.byte	0
 7938 1e58 0D       		.uleb128 0xd
 7939 1e59 1A000000 		.4byte	.LVL410
 7940 1e5d 8D210000 		.4byte	0x218d
 7941 1e61 0B       		.uleb128 0xb
 7942 1e62 20000000 		.4byte	.LVL411
 7943 1e66 76170000 		.4byte	0x1776
 7944 1e6a 751E0000 		.4byte	0x1e75
 7945 1e6e 0C       		.uleb128 0xc
 7946 1e6f 01       		.uleb128 0x1
 7947 1e70 50       		.byte	0x50
ARM GAS  D:\Windows\AppData\Local\Temp\ccP1kfgz.s 			page 166


 7948 1e71 02       		.uleb128 0x2
 7949 1e72 08       		.byte	0x8
 7950 1e73 3B       		.byte	0x3b
 7951 1e74 00       		.byte	0
 7952 1e75 0B       		.uleb128 0xb
 7953 1e76 28000000 		.4byte	.LVL412
 7954 1e7a CC210000 		.4byte	0x21cc
 7955 1e7e 8A1E0000 		.4byte	0x1e8a
 7956 1e82 0C       		.uleb128 0xc
 7957 1e83 01       		.uleb128 0x1
 7958 1e84 50       		.byte	0x50
 7959 1e85 03       		.uleb128 0x3
 7960 1e86 0A       		.byte	0xa
 7961 1e87 F401     		.2byte	0x1f4
 7962 1e89 00       		.byte	0
 7963 1e8a 0B       		.uleb128 0xb
 7964 1e8b 2E000000 		.4byte	.LVL413
 7965 1e8f 6F190000 		.4byte	0x196f
 7966 1e93 9E1E0000 		.4byte	0x1e9e
 7967 1e97 0C       		.uleb128 0xc
 7968 1e98 01       		.uleb128 0x1
 7969 1e99 50       		.byte	0x50
 7970 1e9a 02       		.uleb128 0x2
 7971 1e9b 08       		.byte	0x8
 7972 1e9c 3B       		.byte	0x3b
 7973 1e9d 00       		.byte	0
 7974 1e9e 0B       		.uleb128 0xb
 7975 1e9f 36000000 		.4byte	.LVL414
 7976 1ea3 CC210000 		.4byte	0x21cc
 7977 1ea7 B31E0000 		.4byte	0x1eb3
 7978 1eab 0C       		.uleb128 0xc
 7979 1eac 01       		.uleb128 0x1
 7980 1ead 50       		.byte	0x50
 7981 1eae 03       		.uleb128 0x3
 7982 1eaf 0A       		.byte	0xa
 7983 1eb0 F401     		.2byte	0x1f4
 7984 1eb2 00       		.byte	0
 7985 1eb3 0B       		.uleb128 0xb
 7986 1eb4 3C000000 		.4byte	.LVL415
 7987 1eb8 681B0000 		.4byte	0x1b68
 7988 1ebc C71E0000 		.4byte	0x1ec7
 7989 1ec0 0C       		.uleb128 0xc
 7990 1ec1 01       		.uleb128 0x1
 7991 1ec2 50       		.byte	0x50
 7992 1ec3 02       		.uleb128 0x2
 7993 1ec4 08       		.byte	0x8
 7994 1ec5 3B       		.byte	0x3b
 7995 1ec6 00       		.byte	0
 7996 1ec7 0B       		.uleb128 0xb
 7997 1ec8 44000000 		.4byte	.LVL416
 7998 1ecc CC210000 		.4byte	0x21cc
 7999 1ed0 DC1E0000 		.4byte	0x1edc
 8000 1ed4 0C       		.uleb128 0xc
 8001 1ed5 01       		.uleb128 0x1
 8002 1ed6 50       		.byte	0x50
 8003 1ed7 03       		.uleb128 0x3
 8004 1ed8 0A       		.byte	0xa
ARM GAS  D:\Windows\AppData\Local\Temp\ccP1kfgz.s 			page 167


 8005 1ed9 F401     		.2byte	0x1f4
 8006 1edb 00       		.byte	0
 8007 1edc 0B       		.uleb128 0xb
 8008 1edd 4A000000 		.4byte	.LVL417
 8009 1ee1 611D0000 		.4byte	0x1d61
 8010 1ee5 F01E0000 		.4byte	0x1ef0
 8011 1ee9 0C       		.uleb128 0xc
 8012 1eea 01       		.uleb128 0x1
 8013 1eeb 50       		.byte	0x50
 8014 1eec 02       		.uleb128 0x2
 8015 1eed 08       		.byte	0x8
 8016 1eee 63       		.byte	0x63
 8017 1eef 00       		.byte	0
 8018 1ef0 0B       		.uleb128 0xb
 8019 1ef1 52000000 		.4byte	.LVL418
 8020 1ef5 5E210000 		.4byte	0x215e
 8021 1ef9 091F0000 		.4byte	0x1f09
 8022 1efd 0C       		.uleb128 0xc
 8023 1efe 01       		.uleb128 0x1
 8024 1eff 51       		.byte	0x51
 8025 1f00 01       		.uleb128 0x1
 8026 1f01 30       		.byte	0x30
 8027 1f02 0C       		.uleb128 0xc
 8028 1f03 01       		.uleb128 0x1
 8029 1f04 50       		.byte	0x50
 8030 1f05 02       		.uleb128 0x2
 8031 1f06 08       		.byte	0x8
 8032 1f07 40       		.byte	0x40
 8033 1f08 00       		.byte	0
 8034 1f09 0B       		.uleb128 0xb
 8035 1f0a 58000000 		.4byte	.LVL419
 8036 1f0e 78210000 		.4byte	0x2178
 8037 1f12 1C1F0000 		.4byte	0x1f1c
 8038 1f16 0C       		.uleb128 0xc
 8039 1f17 01       		.uleb128 0x1
 8040 1f18 50       		.byte	0x50
 8041 1f19 01       		.uleb128 0x1
 8042 1f1a 31       		.byte	0x31
 8043 1f1b 00       		.byte	0
 8044 1f1c 0B       		.uleb128 0xb
 8045 1f1d 5E000000 		.4byte	.LVL420
 8046 1f21 78210000 		.4byte	0x2178
 8047 1f25 2F1F0000 		.4byte	0x1f2f
 8048 1f29 0C       		.uleb128 0xc
 8049 1f2a 01       		.uleb128 0x1
 8050 1f2b 50       		.byte	0x50
 8051 1f2c 01       		.uleb128 0x1
 8052 1f2d 30       		.byte	0x30
 8053 1f2e 00       		.byte	0
 8054 1f2f 0D       		.uleb128 0xd
 8055 1f30 62000000 		.4byte	.LVL421
 8056 1f34 8D210000 		.4byte	0x218d
 8057 1f38 00       		.byte	0
 8058 1f39 1C       		.uleb128 0x1c
 8059 1f3a A6040000 		.4byte	.LASF91
 8060 1f3e 05       		.byte	0x5
 8061 1f3f 5506     		.2byte	0x655
ARM GAS  D:\Windows\AppData\Local\Temp\ccP1kfgz.s 			page 168


 8062 1f41 451F0000 		.4byte	0x1f45
 8063 1f45 1D       		.uleb128 0x1d
 8064 1f46 A2000000 		.4byte	0xa2
 8065 1f4a 1E       		.uleb128 0x1e
 8066 1f4b 7E000000 		.4byte	0x7e
 8067 1f4f 5A1F0000 		.4byte	0x1f5a
 8068 1f53 1F       		.uleb128 0x1f
 8069 1f54 ED000000 		.4byte	0xed
 8070 1f58 04       		.byte	0x4
 8071 1f59 00       		.byte	0
 8072 1f5a 20       		.uleb128 0x20
 8073 1f5b 9E000000 		.4byte	.LASF92
 8074 1f5f 01       		.byte	0x1
 8075 1f60 10       		.byte	0x10
 8076 1f61 4A1F0000 		.4byte	0x1f4a
 8077 1f65 05       		.uleb128 0x5
 8078 1f66 03       		.byte	0x3
 8079 1f67 00000000 		.4byte	bms_temp_map
 8080 1f6b 20       		.uleb128 0x20
 8081 1f6c DE020000 		.4byte	.LASF93
 8082 1f70 01       		.byte	0x1
 8083 1f71 11       		.byte	0x11
 8084 1f72 4A1F0000 		.4byte	0x1f4a
 8085 1f76 05       		.uleb128 0x5
 8086 1f77 03       		.byte	0x3
 8087 1f78 00000000 		.4byte	mtr_temp_map
 8088 1f7c 20       		.uleb128 0x20
 8089 1f7d C7060000 		.4byte	.LASF94
 8090 1f81 01       		.byte	0x1
 8091 1f82 12       		.byte	0x12
 8092 1f83 4A1F0000 		.4byte	0x1f4a
 8093 1f87 05       		.uleb128 0x5
 8094 1f88 03       		.byte	0x3
 8095 1f89 00000000 		.4byte	mtr_ctrl_temp_map
 8096 1f8d 20       		.uleb128 0x20
 8097 1f8e B0050000 		.4byte	.LASF95
 8098 1f92 01       		.byte	0x1
 8099 1f93 15       		.byte	0x15
 8100 1f94 8C000000 		.4byte	0x8c
 8101 1f98 05       		.uleb128 0x5
 8102 1f99 03       		.byte	0x3
 8103 1f9a 00000000 		.4byte	byte05
 8104 1f9e 20       		.uleb128 0x20
 8105 1f9f B7050000 		.4byte	.LASF96
 8106 1fa3 01       		.byte	0x1
 8107 1fa4 16       		.byte	0x16
 8108 1fa5 8C000000 		.4byte	0x8c
 8109 1fa9 05       		.uleb128 0x5
 8110 1faa 03       		.byte	0x3
 8111 1fab 00000000 		.4byte	byte06
 8112 1faf 20       		.uleb128 0x20
 8113 1fb0 BE050000 		.4byte	.LASF97
 8114 1fb4 01       		.byte	0x1
 8115 1fb5 17       		.byte	0x17
 8116 1fb6 8C000000 		.4byte	0x8c
 8117 1fba 05       		.uleb128 0x5
 8118 1fbb 03       		.byte	0x3
ARM GAS  D:\Windows\AppData\Local\Temp\ccP1kfgz.s 			page 169


 8119 1fbc 00000000 		.4byte	byte07
 8120 1fc0 20       		.uleb128 0x20
 8121 1fc1 C5050000 		.4byte	.LASF98
 8122 1fc5 01       		.byte	0x1
 8123 1fc6 18       		.byte	0x18
 8124 1fc7 8C000000 		.4byte	0x8c
 8125 1fcb 05       		.uleb128 0x5
 8126 1fcc 03       		.byte	0x3
 8127 1fcd 00000000 		.4byte	byte08
 8128 1fd1 20       		.uleb128 0x20
 8129 1fd2 D3030000 		.4byte	.LASF99
 8130 1fd6 01       		.byte	0x1
 8131 1fd7 1A       		.byte	0x1a
 8132 1fd8 8C000000 		.4byte	0x8c
 8133 1fdc 05       		.uleb128 0x5
 8134 1fdd 03       		.byte	0x3
 8135 1fde 00000000 		.4byte	byte05_2
 8136 1fe2 20       		.uleb128 0x20
 8137 1fe3 EE070000 		.4byte	.LASF100
 8138 1fe7 01       		.byte	0x1
 8139 1fe8 1B       		.byte	0x1b
 8140 1fe9 8C000000 		.4byte	0x8c
 8141 1fed 05       		.uleb128 0x5
 8142 1fee 03       		.byte	0x3
 8143 1fef 00000000 		.4byte	byte06_2
 8144 1ff3 20       		.uleb128 0x20
 8145 1ff4 2C020000 		.4byte	.LASF101
 8146 1ff8 01       		.byte	0x1
 8147 1ff9 1C       		.byte	0x1c
 8148 1ffa 8C000000 		.4byte	0x8c
 8149 1ffe 05       		.uleb128 0x5
 8150 1fff 03       		.byte	0x3
 8151 2000 00000000 		.4byte	byte07_2
 8152 2004 20       		.uleb128 0x20
 8153 2005 04050000 		.4byte	.LASF102
 8154 2009 01       		.byte	0x1
 8155 200a 1D       		.byte	0x1d
 8156 200b 8C000000 		.4byte	0x8c
 8157 200f 05       		.uleb128 0x5
 8158 2010 03       		.byte	0x3
 8159 2011 00000000 		.4byte	byte08_2
 8160 2015 1E       		.uleb128 0x1e
 8161 2016 7E000000 		.4byte	0x7e
 8162 201a 25200000 		.4byte	0x2025
 8163 201e 1F       		.uleb128 0x1f
 8164 201f ED000000 		.4byte	0xed
 8165 2023 15       		.byte	0x15
 8166 2024 00       		.byte	0
 8167 2025 20       		.uleb128 0x20
 8168 2026 8C000000 		.4byte	.LASF103
 8169 202a 01       		.byte	0x1
 8170 202b 20       		.byte	0x20
 8171 202c 15200000 		.4byte	0x2015
 8172 2030 05       		.uleb128 0x5
 8173 2031 03       		.byte	0x3
 8174 2032 00000000 		.4byte	tach_arr
 8175 2036 20       		.uleb128 0x20
ARM GAS  D:\Windows\AppData\Local\Temp\ccP1kfgz.s 			page 170


 8176 2037 F4040000 		.4byte	.LASF104
 8177 203b 01       		.byte	0x1
 8178 203c 21       		.byte	0x21
 8179 203d 4A1F0000 		.4byte	0x1f4a
 8180 2041 05       		.uleb128 0x5
 8181 2042 03       		.byte	0x3
 8182 2043 00000000 		.4byte	b1_arr
 8183 2047 20       		.uleb128 0x20
 8184 2048 35020000 		.4byte	.LASF105
 8185 204c 01       		.byte	0x1
 8186 204d 22       		.byte	0x22
 8187 204e 4A1F0000 		.4byte	0x1f4a
 8188 2052 05       		.uleb128 0x5
 8189 2053 03       		.byte	0x3
 8190 2054 00000000 		.4byte	b2_arr
 8191 2058 20       		.uleb128 0x20
 8192 2059 1B000000 		.4byte	.LASF106
 8193 205d 01       		.byte	0x1
 8194 205e 23       		.byte	0x23
 8195 205f 4A1F0000 		.4byte	0x1f4a
 8196 2063 05       		.uleb128 0x5
 8197 2064 03       		.byte	0x3
 8198 2065 00000000 		.4byte	b3_arr
 8199 2069 20       		.uleb128 0x20
 8200 206a 7F010000 		.4byte	.LASF107
 8201 206e 01       		.byte	0x1
 8202 206f 24       		.byte	0x24
 8203 2070 4A1F0000 		.4byte	0x1f4a
 8204 2074 05       		.uleb128 0x5
 8205 2075 03       		.byte	0x3
 8206 2076 00000000 		.4byte	c1_arr
 8207 207a 20       		.uleb128 0x20
 8208 207b C6020000 		.4byte	.LASF108
 8209 207f 01       		.byte	0x1
 8210 2080 26       		.byte	0x26
 8211 2081 7E000000 		.4byte	0x7e
 8212 2085 05       		.uleb128 0x5
 8213 2086 03       		.byte	0x3
 8214 2087 00000000 		.4byte	tach_critical
 8215 208b 20       		.uleb128 0x20
 8216 208c 2B050000 		.4byte	.LASF109
 8217 2090 01       		.byte	0x1
 8218 2091 27       		.byte	0x27
 8219 2092 7E000000 		.4byte	0x7e
 8220 2096 05       		.uleb128 0x5
 8221 2097 03       		.byte	0x3
 8222 2098 00000000 		.4byte	b1_critical
 8223 209c 20       		.uleb128 0x20
 8224 209d BA020000 		.4byte	.LASF110
 8225 20a1 01       		.byte	0x1
 8226 20a2 28       		.byte	0x28
 8227 20a3 7E000000 		.4byte	0x7e
 8228 20a7 05       		.uleb128 0x5
 8229 20a8 03       		.byte	0x3
 8230 20a9 00000000 		.4byte	b2_critical
 8231 20ad 20       		.uleb128 0x20
 8232 20ae 6A010000 		.4byte	.LASF111
ARM GAS  D:\Windows\AppData\Local\Temp\ccP1kfgz.s 			page 171


 8233 20b2 01       		.byte	0x1
 8234 20b3 29       		.byte	0x29
 8235 20b4 7E000000 		.4byte	0x7e
 8236 20b8 05       		.uleb128 0x5
 8237 20b9 03       		.byte	0x3
 8238 20ba 00000000 		.4byte	b3_critical
 8239 20be 20       		.uleb128 0x20
 8240 20bf 8E030000 		.4byte	.LASF112
 8241 20c3 01       		.byte	0x1
 8242 20c4 2A       		.byte	0x2a
 8243 20c5 7E000000 		.4byte	0x7e
 8244 20c9 05       		.uleb128 0x5
 8245 20ca 03       		.byte	0x3
 8246 20cb 00000000 		.4byte	c1_critical
 8247 20cf 20       		.uleb128 0x20
 8248 20d0 5D030000 		.4byte	.LASF113
 8249 20d4 01       		.byte	0x1
 8250 20d5 2C       		.byte	0x2c
 8251 20d6 7E000000 		.4byte	0x7e
 8252 20da 05       		.uleb128 0x5
 8253 20db 03       		.byte	0x3
 8254 20dc 00000000 		.4byte	tach_crit_led
 8255 20e0 20       		.uleb128 0x20
 8256 20e1 F9050000 		.4byte	.LASF114
 8257 20e5 01       		.byte	0x1
 8258 20e6 2D       		.byte	0x2d
 8259 20e7 7E000000 		.4byte	0x7e
 8260 20eb 05       		.uleb128 0x5
 8261 20ec 03       		.byte	0x3
 8262 20ed 00000000 		.4byte	b1_crit_led
 8263 20f1 20       		.uleb128 0x20
 8264 20f2 AB000000 		.4byte	.LASF115
 8265 20f6 01       		.byte	0x1
 8266 20f7 2E       		.byte	0x2e
 8267 20f8 7E000000 		.4byte	0x7e
 8268 20fc 05       		.uleb128 0x5
 8269 20fd 03       		.byte	0x3
 8270 20fe 00000000 		.4byte	b2_crit_led
 8271 2102 20       		.uleb128 0x20
 8272 2103 B2010000 		.4byte	.LASF116
 8273 2107 01       		.byte	0x1
 8274 2108 2F       		.byte	0x2f
 8275 2109 7E000000 		.4byte	0x7e
 8276 210d 05       		.uleb128 0x5
 8277 210e 03       		.byte	0x3
 8278 210f 00000000 		.4byte	b3_crit_led
 8279 2113 20       		.uleb128 0x20
 8280 2114 F8030000 		.4byte	.LASF117
 8281 2118 01       		.byte	0x1
 8282 2119 30       		.byte	0x30
 8283 211a 7E000000 		.4byte	0x7e
 8284 211e 05       		.uleb128 0x5
 8285 211f 03       		.byte	0x3
 8286 2120 00000000 		.4byte	c1_crit_led
 8287 2124 21       		.uleb128 0x21
 8288 2125 17040000 		.4byte	.LASF118
 8289 2129 06       		.byte	0x6
ARM GAS  D:\Windows\AppData\Local\Temp\ccP1kfgz.s 			page 172


 8290 212a B1       		.byte	0xb1
 8291 212b AD000000 		.4byte	0xad
 8292 212f 3E210000 		.4byte	0x213e
 8293 2133 22       		.uleb128 0x22
 8294 2134 AD000000 		.4byte	0xad
 8295 2138 22       		.uleb128 0x22
 8296 2139 AD000000 		.4byte	0xad
 8297 213d 00       		.byte	0
 8298 213e 21       		.uleb128 0x21
 8299 213f DD050000 		.4byte	.LASF119
 8300 2143 06       		.byte	0x6
 8301 2144 B6       		.byte	0xb6
 8302 2145 AD000000 		.4byte	0xad
 8303 2149 53210000 		.4byte	0x2153
 8304 214d 22       		.uleb128 0x22
 8305 214e AD000000 		.4byte	0xad
 8306 2152 00       		.byte	0
 8307 2153 23       		.uleb128 0x23
 8308 2154 92070000 		.4byte	.LASF122
 8309 2158 06       		.byte	0x6
 8310 2159 B5       		.byte	0xb5
 8311 215a AD000000 		.4byte	0xad
 8312 215e 21       		.uleb128 0x21
 8313 215f 0F060000 		.4byte	.LASF120
 8314 2163 07       		.byte	0x7
 8315 2164 B1       		.byte	0xb1
 8316 2165 AD000000 		.4byte	0xad
 8317 2169 78210000 		.4byte	0x2178
 8318 216d 22       		.uleb128 0x22
 8319 216e AD000000 		.4byte	0xad
 8320 2172 22       		.uleb128 0x22
 8321 2173 AD000000 		.4byte	0xad
 8322 2177 00       		.byte	0
 8323 2178 21       		.uleb128 0x21
 8324 2179 CA040000 		.4byte	.LASF121
 8325 217d 07       		.byte	0x7
 8326 217e B6       		.byte	0xb6
 8327 217f AD000000 		.4byte	0xad
 8328 2183 8D210000 		.4byte	0x218d
 8329 2187 22       		.uleb128 0x22
 8330 2188 AD000000 		.4byte	0xad
 8331 218c 00       		.byte	0
 8332 218d 23       		.uleb128 0x23
 8333 218e 4F010000 		.4byte	.LASF123
 8334 2192 07       		.byte	0x7
 8335 2193 B5       		.byte	0xb5
 8336 2194 AD000000 		.4byte	0xad
 8337 2198 24       		.uleb128 0x24
 8338 2199 BE070000 		.4byte	.LASF124
 8339 219d 06       		.byte	0x6
 8340 219e 93       		.byte	0x93
 8341 219f 24       		.uleb128 0x24
 8342 21a0 4B030000 		.4byte	.LASF125
 8343 21a4 07       		.byte	0x7
 8344 21a5 93       		.byte	0x93
 8345 21a6 24       		.uleb128 0x24
 8346 21a7 B3030000 		.4byte	.LASF126
ARM GAS  D:\Windows\AppData\Local\Temp\ccP1kfgz.s 			page 173


 8347 21ab 08       		.byte	0x8
 8348 21ac 19       		.byte	0x19
 8349 21ad 24       		.uleb128 0x24
 8350 21ae 37050000 		.4byte	.LASF127
 8351 21b2 09       		.byte	0x9
 8352 21b3 5B       		.byte	0x5b
 8353 21b4 24       		.uleb128 0x24
 8354 21b5 74030000 		.4byte	.LASF128
 8355 21b9 09       		.byte	0x9
 8356 21ba 5A       		.byte	0x5a
 8357 21bb 25       		.uleb128 0x25
 8358 21bc 0E080000 		.4byte	.LASF129
 8359 21c0 08       		.byte	0x8
 8360 21c1 18       		.byte	0x18
 8361 21c2 CC210000 		.4byte	0x21cc
 8362 21c6 22       		.uleb128 0x22
 8363 21c7 DA000000 		.4byte	0xda
 8364 21cb 00       		.byte	0
 8365 21cc 25       		.uleb128 0x25
 8366 21cd 13000000 		.4byte	.LASF130
 8367 21d1 0A       		.byte	0xa
 8368 21d2 77       		.byte	0x77
 8369 21d3 DD210000 		.4byte	0x21dd
 8370 21d7 22       		.uleb128 0x22
 8371 21d8 B9000000 		.4byte	0xb9
 8372 21dc 00       		.byte	0
 8373 21dd 24       		.uleb128 0x24
 8374 21de DD070000 		.4byte	.LASF131
 8375 21e2 0B       		.byte	0xb
 8376 21e3 19       		.byte	0x19
 8377 21e4 24       		.uleb128 0x24
 8378 21e5 66020000 		.4byte	.LASF132
 8379 21e9 0C       		.byte	0xc
 8380 21ea 5B       		.byte	0x5b
 8381 21eb 24       		.uleb128 0x24
 8382 21ec 21070000 		.4byte	.LASF133
 8383 21f0 0C       		.byte	0xc
 8384 21f1 5A       		.byte	0x5a
 8385 21f2 25       		.uleb128 0x25
 8386 21f3 EB000000 		.4byte	.LASF134
 8387 21f7 0B       		.byte	0xb
 8388 21f8 18       		.byte	0x18
 8389 21f9 03220000 		.4byte	0x2203
 8390 21fd 22       		.uleb128 0x22
 8391 21fe DA000000 		.4byte	0xda
 8392 2202 00       		.byte	0
 8393 2203 24       		.uleb128 0x24
 8394 2204 AD070000 		.4byte	.LASF135
 8395 2208 0D       		.byte	0xd
 8396 2209 19       		.byte	0x19
 8397 220a 24       		.uleb128 0x24
 8398 220b 38000000 		.4byte	.LASF136
 8399 220f 0E       		.byte	0xe
 8400 2210 5B       		.byte	0x5b
 8401 2211 24       		.uleb128 0x24
 8402 2212 44020000 		.4byte	.LASF137
 8403 2216 0E       		.byte	0xe
ARM GAS  D:\Windows\AppData\Local\Temp\ccP1kfgz.s 			page 174


 8404 2217 5A       		.byte	0x5a
 8405 2218 25       		.uleb128 0x25
 8406 2219 93020000 		.4byte	.LASF138
 8407 221d 0D       		.byte	0xd
 8408 221e 18       		.byte	0x18
 8409 221f 29220000 		.4byte	0x2229
 8410 2223 22       		.uleb128 0x22
 8411 2224 DA000000 		.4byte	0xda
 8412 2228 00       		.byte	0
 8413 2229 24       		.uleb128 0x24
 8414 222a CC050000 		.4byte	.LASF139
 8415 222e 0F       		.byte	0xf
 8416 222f 19       		.byte	0x19
 8417 2230 24       		.uleb128 0x24
 8418 2231 66040000 		.4byte	.LASF140
 8419 2235 10       		.byte	0x10
 8420 2236 5B       		.byte	0x5b
 8421 2237 24       		.uleb128 0x24
 8422 2238 D9060000 		.4byte	.LASF141
 8423 223c 10       		.byte	0x10
 8424 223d 5A       		.byte	0x5a
 8425 223e 25       		.uleb128 0x25
 8426 223f D6010000 		.4byte	.LASF142
 8427 2243 0F       		.byte	0xf
 8428 2244 18       		.byte	0x18
 8429 2245 4F220000 		.4byte	0x224f
 8430 2249 22       		.uleb128 0x22
 8431 224a DA000000 		.4byte	0xda
 8432 224e 00       		.byte	0
 8433 224f 24       		.uleb128 0x24
 8434 2250 72050000 		.4byte	.LASF143
 8435 2254 11       		.byte	0x11
 8436 2255 5A       		.byte	0x5a
 8437 2256 26       		.uleb128 0x26
 8438 2257 9F030000 		.4byte	.LASF148
 8439 225b 12       		.byte	0x12
 8440 225c 18       		.byte	0x18
 8441 225d 22       		.uleb128 0x22
 8442 225e DA000000 		.4byte	0xda
 8443 2262 00       		.byte	0
 8444 2263 00       		.byte	0
 8445              		.section	.debug_abbrev,"",%progbits
 8446              	.Ldebug_abbrev0:
 8447 0000 01       		.uleb128 0x1
 8448 0001 11       		.uleb128 0x11
 8449 0002 01       		.byte	0x1
 8450 0003 25       		.uleb128 0x25
 8451 0004 0E       		.uleb128 0xe
 8452 0005 13       		.uleb128 0x13
 8453 0006 0B       		.uleb128 0xb
 8454 0007 03       		.uleb128 0x3
 8455 0008 0E       		.uleb128 0xe
 8456 0009 1B       		.uleb128 0x1b
 8457 000a 0E       		.uleb128 0xe
 8458 000b 55       		.uleb128 0x55
 8459 000c 17       		.uleb128 0x17
 8460 000d 11       		.uleb128 0x11
ARM GAS  D:\Windows\AppData\Local\Temp\ccP1kfgz.s 			page 175


 8461 000e 01       		.uleb128 0x1
 8462 000f 10       		.uleb128 0x10
 8463 0010 17       		.uleb128 0x17
 8464 0011 00       		.byte	0
 8465 0012 00       		.byte	0
 8466 0013 02       		.uleb128 0x2
 8467 0014 24       		.uleb128 0x24
 8468 0015 00       		.byte	0
 8469 0016 0B       		.uleb128 0xb
 8470 0017 0B       		.uleb128 0xb
 8471 0018 3E       		.uleb128 0x3e
 8472 0019 0B       		.uleb128 0xb
 8473 001a 03       		.uleb128 0x3
 8474 001b 0E       		.uleb128 0xe
 8475 001c 00       		.byte	0
 8476 001d 00       		.byte	0
 8477 001e 03       		.uleb128 0x3
 8478 001f 16       		.uleb128 0x16
 8479 0020 00       		.byte	0
 8480 0021 03       		.uleb128 0x3
 8481 0022 0E       		.uleb128 0xe
 8482 0023 3A       		.uleb128 0x3a
 8483 0024 0B       		.uleb128 0xb
 8484 0025 3B       		.uleb128 0x3b
 8485 0026 0B       		.uleb128 0xb
 8486 0027 49       		.uleb128 0x49
 8487 0028 13       		.uleb128 0x13
 8488 0029 00       		.byte	0
 8489 002a 00       		.byte	0
 8490 002b 04       		.uleb128 0x4
 8491 002c 24       		.uleb128 0x24
 8492 002d 00       		.byte	0
 8493 002e 0B       		.uleb128 0xb
 8494 002f 0B       		.uleb128 0xb
 8495 0030 3E       		.uleb128 0x3e
 8496 0031 0B       		.uleb128 0xb
 8497 0032 03       		.uleb128 0x3
 8498 0033 08       		.uleb128 0x8
 8499 0034 00       		.byte	0
 8500 0035 00       		.byte	0
 8501 0036 05       		.uleb128 0x5
 8502 0037 16       		.uleb128 0x16
 8503 0038 00       		.byte	0
 8504 0039 03       		.uleb128 0x3
 8505 003a 0E       		.uleb128 0xe
 8506 003b 3A       		.uleb128 0x3a
 8507 003c 0B       		.uleb128 0xb
 8508 003d 3B       		.uleb128 0x3b
 8509 003e 05       		.uleb128 0x5
 8510 003f 49       		.uleb128 0x49
 8511 0040 13       		.uleb128 0x13
 8512 0041 00       		.byte	0
 8513 0042 00       		.byte	0
 8514 0043 06       		.uleb128 0x6
 8515 0044 0F       		.uleb128 0xf
 8516 0045 00       		.byte	0
 8517 0046 0B       		.uleb128 0xb
ARM GAS  D:\Windows\AppData\Local\Temp\ccP1kfgz.s 			page 176


 8518 0047 0B       		.uleb128 0xb
 8519 0048 49       		.uleb128 0x49
 8520 0049 13       		.uleb128 0x13
 8521 004a 00       		.byte	0
 8522 004b 00       		.byte	0
 8523 004c 07       		.uleb128 0x7
 8524 004d 15       		.uleb128 0x15
 8525 004e 00       		.byte	0
 8526 004f 27       		.uleb128 0x27
 8527 0050 19       		.uleb128 0x19
 8528 0051 00       		.byte	0
 8529 0052 00       		.byte	0
 8530 0053 08       		.uleb128 0x8
 8531 0054 2E       		.uleb128 0x2e
 8532 0055 01       		.byte	0x1
 8533 0056 3F       		.uleb128 0x3f
 8534 0057 19       		.uleb128 0x19
 8535 0058 03       		.uleb128 0x3
 8536 0059 0E       		.uleb128 0xe
 8537 005a 3A       		.uleb128 0x3a
 8538 005b 0B       		.uleb128 0xb
 8539 005c 3B       		.uleb128 0x3b
 8540 005d 05       		.uleb128 0x5
 8541 005e 27       		.uleb128 0x27
 8542 005f 19       		.uleb128 0x19
 8543 0060 11       		.uleb128 0x11
 8544 0061 01       		.uleb128 0x1
 8545 0062 12       		.uleb128 0x12
 8546 0063 06       		.uleb128 0x6
 8547 0064 40       		.uleb128 0x40
 8548 0065 18       		.uleb128 0x18
 8549 0066 9742     		.uleb128 0x2117
 8550 0068 19       		.uleb128 0x19
 8551 0069 01       		.uleb128 0x1
 8552 006a 13       		.uleb128 0x13
 8553 006b 00       		.byte	0
 8554 006c 00       		.byte	0
 8555 006d 09       		.uleb128 0x9
 8556 006e 05       		.uleb128 0x5
 8557 006f 00       		.byte	0
 8558 0070 03       		.uleb128 0x3
 8559 0071 0E       		.uleb128 0xe
 8560 0072 3A       		.uleb128 0x3a
 8561 0073 0B       		.uleb128 0xb
 8562 0074 3B       		.uleb128 0x3b
 8563 0075 05       		.uleb128 0x5
 8564 0076 49       		.uleb128 0x49
 8565 0077 13       		.uleb128 0x13
 8566 0078 02       		.uleb128 0x2
 8567 0079 17       		.uleb128 0x17
 8568 007a 00       		.byte	0
 8569 007b 00       		.byte	0
 8570 007c 0A       		.uleb128 0xa
 8571 007d 34       		.uleb128 0x34
 8572 007e 00       		.byte	0
 8573 007f 03       		.uleb128 0x3
 8574 0080 0E       		.uleb128 0xe
ARM GAS  D:\Windows\AppData\Local\Temp\ccP1kfgz.s 			page 177


 8575 0081 3A       		.uleb128 0x3a
 8576 0082 0B       		.uleb128 0xb
 8577 0083 3B       		.uleb128 0x3b
 8578 0084 05       		.uleb128 0x5
 8579 0085 49       		.uleb128 0x49
 8580 0086 13       		.uleb128 0x13
 8581 0087 1C       		.uleb128 0x1c
 8582 0088 0B       		.uleb128 0xb
 8583 0089 00       		.byte	0
 8584 008a 00       		.byte	0
 8585 008b 0B       		.uleb128 0xb
 8586 008c 898201   		.uleb128 0x4109
 8587 008f 01       		.byte	0x1
 8588 0090 11       		.uleb128 0x11
 8589 0091 01       		.uleb128 0x1
 8590 0092 31       		.uleb128 0x31
 8591 0093 13       		.uleb128 0x13
 8592 0094 01       		.uleb128 0x1
 8593 0095 13       		.uleb128 0x13
 8594 0096 00       		.byte	0
 8595 0097 00       		.byte	0
 8596 0098 0C       		.uleb128 0xc
 8597 0099 8A8201   		.uleb128 0x410a
 8598 009c 00       		.byte	0
 8599 009d 02       		.uleb128 0x2
 8600 009e 18       		.uleb128 0x18
 8601 009f 9142     		.uleb128 0x2111
 8602 00a1 18       		.uleb128 0x18
 8603 00a2 00       		.byte	0
 8604 00a3 00       		.byte	0
 8605 00a4 0D       		.uleb128 0xd
 8606 00a5 898201   		.uleb128 0x4109
 8607 00a8 00       		.byte	0
 8608 00a9 11       		.uleb128 0x11
 8609 00aa 01       		.uleb128 0x1
 8610 00ab 31       		.uleb128 0x31
 8611 00ac 13       		.uleb128 0x13
 8612 00ad 00       		.byte	0
 8613 00ae 00       		.byte	0
 8614 00af 0E       		.uleb128 0xe
 8615 00b0 2E       		.uleb128 0x2e
 8616 00b1 01       		.byte	0x1
 8617 00b2 3F       		.uleb128 0x3f
 8618 00b3 19       		.uleb128 0x19
 8619 00b4 03       		.uleb128 0x3
 8620 00b5 0E       		.uleb128 0xe
 8621 00b6 3A       		.uleb128 0x3a
 8622 00b7 0B       		.uleb128 0xb
 8623 00b8 3B       		.uleb128 0x3b
 8624 00b9 0B       		.uleb128 0xb
 8625 00ba 11       		.uleb128 0x11
 8626 00bb 01       		.uleb128 0x1
 8627 00bc 12       		.uleb128 0x12
 8628 00bd 06       		.uleb128 0x6
 8629 00be 40       		.uleb128 0x40
 8630 00bf 18       		.uleb128 0x18
 8631 00c0 9742     		.uleb128 0x2117
ARM GAS  D:\Windows\AppData\Local\Temp\ccP1kfgz.s 			page 178


 8632 00c2 19       		.uleb128 0x19
 8633 00c3 01       		.uleb128 0x1
 8634 00c4 13       		.uleb128 0x13
 8635 00c5 00       		.byte	0
 8636 00c6 00       		.byte	0
 8637 00c7 0F       		.uleb128 0xf
 8638 00c8 898201   		.uleb128 0x4109
 8639 00cb 01       		.byte	0x1
 8640 00cc 11       		.uleb128 0x11
 8641 00cd 01       		.uleb128 0x1
 8642 00ce 31       		.uleb128 0x31
 8643 00cf 13       		.uleb128 0x13
 8644 00d0 00       		.byte	0
 8645 00d1 00       		.byte	0
 8646 00d2 10       		.uleb128 0x10
 8647 00d3 2E       		.uleb128 0x2e
 8648 00d4 01       		.byte	0x1
 8649 00d5 3F       		.uleb128 0x3f
 8650 00d6 19       		.uleb128 0x19
 8651 00d7 03       		.uleb128 0x3
 8652 00d8 0E       		.uleb128 0xe
 8653 00d9 3A       		.uleb128 0x3a
 8654 00da 0B       		.uleb128 0xb
 8655 00db 3B       		.uleb128 0x3b
 8656 00dc 05       		.uleb128 0x5
 8657 00dd 11       		.uleb128 0x11
 8658 00de 01       		.uleb128 0x1
 8659 00df 12       		.uleb128 0x12
 8660 00e0 06       		.uleb128 0x6
 8661 00e1 40       		.uleb128 0x40
 8662 00e2 18       		.uleb128 0x18
 8663 00e3 9742     		.uleb128 0x2117
 8664 00e5 19       		.uleb128 0x19
 8665 00e6 01       		.uleb128 0x1
 8666 00e7 13       		.uleb128 0x13
 8667 00e8 00       		.byte	0
 8668 00e9 00       		.byte	0
 8669 00ea 11       		.uleb128 0x11
 8670 00eb 05       		.uleb128 0x5
 8671 00ec 00       		.byte	0
 8672 00ed 03       		.uleb128 0x3
 8673 00ee 0E       		.uleb128 0xe
 8674 00ef 3A       		.uleb128 0x3a
 8675 00f0 0B       		.uleb128 0xb
 8676 00f1 3B       		.uleb128 0x3b
 8677 00f2 05       		.uleb128 0x5
 8678 00f3 49       		.uleb128 0x49
 8679 00f4 13       		.uleb128 0x13
 8680 00f5 02       		.uleb128 0x2
 8681 00f6 18       		.uleb128 0x18
 8682 00f7 00       		.byte	0
 8683 00f8 00       		.byte	0
 8684 00f9 12       		.uleb128 0x12
 8685 00fa 34       		.uleb128 0x34
 8686 00fb 00       		.byte	0
 8687 00fc 03       		.uleb128 0x3
 8688 00fd 08       		.uleb128 0x8
ARM GAS  D:\Windows\AppData\Local\Temp\ccP1kfgz.s 			page 179


 8689 00fe 3A       		.uleb128 0x3a
 8690 00ff 0B       		.uleb128 0xb
 8691 0100 3B       		.uleb128 0x3b
 8692 0101 05       		.uleb128 0x5
 8693 0102 49       		.uleb128 0x49
 8694 0103 13       		.uleb128 0x13
 8695 0104 1C       		.uleb128 0x1c
 8696 0105 0B       		.uleb128 0xb
 8697 0106 00       		.byte	0
 8698 0107 00       		.byte	0
 8699 0108 13       		.uleb128 0x13
 8700 0109 2E       		.uleb128 0x2e
 8701 010a 01       		.byte	0x1
 8702 010b 3F       		.uleb128 0x3f
 8703 010c 19       		.uleb128 0x19
 8704 010d 03       		.uleb128 0x3
 8705 010e 0E       		.uleb128 0xe
 8706 010f 3A       		.uleb128 0x3a
 8707 0110 0B       		.uleb128 0xb
 8708 0111 3B       		.uleb128 0x3b
 8709 0112 0B       		.uleb128 0xb
 8710 0113 27       		.uleb128 0x27
 8711 0114 19       		.uleb128 0x19
 8712 0115 11       		.uleb128 0x11
 8713 0116 01       		.uleb128 0x1
 8714 0117 12       		.uleb128 0x12
 8715 0118 06       		.uleb128 0x6
 8716 0119 40       		.uleb128 0x40
 8717 011a 18       		.uleb128 0x18
 8718 011b 9742     		.uleb128 0x2117
 8719 011d 19       		.uleb128 0x19
 8720 011e 01       		.uleb128 0x1
 8721 011f 13       		.uleb128 0x13
 8722 0120 00       		.byte	0
 8723 0121 00       		.byte	0
 8724 0122 14       		.uleb128 0x14
 8725 0123 05       		.uleb128 0x5
 8726 0124 00       		.byte	0
 8727 0125 03       		.uleb128 0x3
 8728 0126 0E       		.uleb128 0xe
 8729 0127 3A       		.uleb128 0x3a
 8730 0128 0B       		.uleb128 0xb
 8731 0129 3B       		.uleb128 0x3b
 8732 012a 0B       		.uleb128 0xb
 8733 012b 49       		.uleb128 0x49
 8734 012c 13       		.uleb128 0x13
 8735 012d 02       		.uleb128 0x2
 8736 012e 17       		.uleb128 0x17
 8737 012f 00       		.byte	0
 8738 0130 00       		.byte	0
 8739 0131 15       		.uleb128 0x15
 8740 0132 34       		.uleb128 0x34
 8741 0133 00       		.byte	0
 8742 0134 03       		.uleb128 0x3
 8743 0135 0E       		.uleb128 0xe
 8744 0136 3A       		.uleb128 0x3a
 8745 0137 0B       		.uleb128 0xb
ARM GAS  D:\Windows\AppData\Local\Temp\ccP1kfgz.s 			page 180


 8746 0138 3B       		.uleb128 0x3b
 8747 0139 0B       		.uleb128 0xb
 8748 013a 49       		.uleb128 0x49
 8749 013b 13       		.uleb128 0x13
 8750 013c 02       		.uleb128 0x2
 8751 013d 17       		.uleb128 0x17
 8752 013e 00       		.byte	0
 8753 013f 00       		.byte	0
 8754 0140 16       		.uleb128 0x16
 8755 0141 0B       		.uleb128 0xb
 8756 0142 01       		.byte	0x1
 8757 0143 55       		.uleb128 0x55
 8758 0144 17       		.uleb128 0x17
 8759 0145 01       		.uleb128 0x1
 8760 0146 13       		.uleb128 0x13
 8761 0147 00       		.byte	0
 8762 0148 00       		.byte	0
 8763 0149 17       		.uleb128 0x17
 8764 014a 34       		.uleb128 0x34
 8765 014b 00       		.byte	0
 8766 014c 03       		.uleb128 0x3
 8767 014d 08       		.uleb128 0x8
 8768 014e 3A       		.uleb128 0x3a
 8769 014f 0B       		.uleb128 0xb
 8770 0150 3B       		.uleb128 0x3b
 8771 0151 0B       		.uleb128 0xb
 8772 0152 49       		.uleb128 0x49
 8773 0153 13       		.uleb128 0x13
 8774 0154 02       		.uleb128 0x2
 8775 0155 17       		.uleb128 0x17
 8776 0156 00       		.byte	0
 8777 0157 00       		.byte	0
 8778 0158 18       		.uleb128 0x18
 8779 0159 2E       		.uleb128 0x2e
 8780 015a 01       		.byte	0x1
 8781 015b 3F       		.uleb128 0x3f
 8782 015c 19       		.uleb128 0x19
 8783 015d 03       		.uleb128 0x3
 8784 015e 0E       		.uleb128 0xe
 8785 015f 3A       		.uleb128 0x3a
 8786 0160 0B       		.uleb128 0xb
 8787 0161 3B       		.uleb128 0x3b
 8788 0162 05       		.uleb128 0x5
 8789 0163 27       		.uleb128 0x27
 8790 0164 19       		.uleb128 0x19
 8791 0165 49       		.uleb128 0x49
 8792 0166 13       		.uleb128 0x13
 8793 0167 11       		.uleb128 0x11
 8794 0168 01       		.uleb128 0x1
 8795 0169 12       		.uleb128 0x12
 8796 016a 06       		.uleb128 0x6
 8797 016b 40       		.uleb128 0x40
 8798 016c 18       		.uleb128 0x18
 8799 016d 9742     		.uleb128 0x2117
 8800 016f 19       		.uleb128 0x19
 8801 0170 01       		.uleb128 0x1
 8802 0171 13       		.uleb128 0x13
ARM GAS  D:\Windows\AppData\Local\Temp\ccP1kfgz.s 			page 181


 8803 0172 00       		.byte	0
 8804 0173 00       		.byte	0
 8805 0174 19       		.uleb128 0x19
 8806 0175 05       		.uleb128 0x5
 8807 0176 00       		.byte	0
 8808 0177 03       		.uleb128 0x3
 8809 0178 08       		.uleb128 0x8
 8810 0179 3A       		.uleb128 0x3a
 8811 017a 0B       		.uleb128 0xb
 8812 017b 3B       		.uleb128 0x3b
 8813 017c 05       		.uleb128 0x5
 8814 017d 49       		.uleb128 0x49
 8815 017e 13       		.uleb128 0x13
 8816 017f 02       		.uleb128 0x2
 8817 0180 17       		.uleb128 0x17
 8818 0181 00       		.byte	0
 8819 0182 00       		.byte	0
 8820 0183 1A       		.uleb128 0x1a
 8821 0184 34       		.uleb128 0x34
 8822 0185 00       		.byte	0
 8823 0186 03       		.uleb128 0x3
 8824 0187 0E       		.uleb128 0xe
 8825 0188 3A       		.uleb128 0x3a
 8826 0189 0B       		.uleb128 0xb
 8827 018a 3B       		.uleb128 0x3b
 8828 018b 05       		.uleb128 0x5
 8829 018c 49       		.uleb128 0x49
 8830 018d 13       		.uleb128 0x13
 8831 018e 02       		.uleb128 0x2
 8832 018f 17       		.uleb128 0x17
 8833 0190 00       		.byte	0
 8834 0191 00       		.byte	0
 8835 0192 1B       		.uleb128 0x1b
 8836 0193 34       		.uleb128 0x34
 8837 0194 00       		.byte	0
 8838 0195 03       		.uleb128 0x3
 8839 0196 08       		.uleb128 0x8
 8840 0197 3A       		.uleb128 0x3a
 8841 0198 0B       		.uleb128 0xb
 8842 0199 3B       		.uleb128 0x3b
 8843 019a 05       		.uleb128 0x5
 8844 019b 49       		.uleb128 0x49
 8845 019c 13       		.uleb128 0x13
 8846 019d 02       		.uleb128 0x2
 8847 019e 17       		.uleb128 0x17
 8848 019f 00       		.byte	0
 8849 01a0 00       		.byte	0
 8850 01a1 1C       		.uleb128 0x1c
 8851 01a2 34       		.uleb128 0x34
 8852 01a3 00       		.byte	0
 8853 01a4 03       		.uleb128 0x3
 8854 01a5 0E       		.uleb128 0xe
 8855 01a6 3A       		.uleb128 0x3a
 8856 01a7 0B       		.uleb128 0xb
 8857 01a8 3B       		.uleb128 0x3b
 8858 01a9 05       		.uleb128 0x5
 8859 01aa 49       		.uleb128 0x49
ARM GAS  D:\Windows\AppData\Local\Temp\ccP1kfgz.s 			page 182


 8860 01ab 13       		.uleb128 0x13
 8861 01ac 3F       		.uleb128 0x3f
 8862 01ad 19       		.uleb128 0x19
 8863 01ae 3C       		.uleb128 0x3c
 8864 01af 19       		.uleb128 0x19
 8865 01b0 00       		.byte	0
 8866 01b1 00       		.byte	0
 8867 01b2 1D       		.uleb128 0x1d
 8868 01b3 35       		.uleb128 0x35
 8869 01b4 00       		.byte	0
 8870 01b5 49       		.uleb128 0x49
 8871 01b6 13       		.uleb128 0x13
 8872 01b7 00       		.byte	0
 8873 01b8 00       		.byte	0
 8874 01b9 1E       		.uleb128 0x1e
 8875 01ba 01       		.uleb128 0x1
 8876 01bb 01       		.byte	0x1
 8877 01bc 49       		.uleb128 0x49
 8878 01bd 13       		.uleb128 0x13
 8879 01be 01       		.uleb128 0x1
 8880 01bf 13       		.uleb128 0x13
 8881 01c0 00       		.byte	0
 8882 01c1 00       		.byte	0
 8883 01c2 1F       		.uleb128 0x1f
 8884 01c3 21       		.uleb128 0x21
 8885 01c4 00       		.byte	0
 8886 01c5 49       		.uleb128 0x49
 8887 01c6 13       		.uleb128 0x13
 8888 01c7 2F       		.uleb128 0x2f
 8889 01c8 0B       		.uleb128 0xb
 8890 01c9 00       		.byte	0
 8891 01ca 00       		.byte	0
 8892 01cb 20       		.uleb128 0x20
 8893 01cc 34       		.uleb128 0x34
 8894 01cd 00       		.byte	0
 8895 01ce 03       		.uleb128 0x3
 8896 01cf 0E       		.uleb128 0xe
 8897 01d0 3A       		.uleb128 0x3a
 8898 01d1 0B       		.uleb128 0xb
 8899 01d2 3B       		.uleb128 0x3b
 8900 01d3 0B       		.uleb128 0xb
 8901 01d4 49       		.uleb128 0x49
 8902 01d5 13       		.uleb128 0x13
 8903 01d6 3F       		.uleb128 0x3f
 8904 01d7 19       		.uleb128 0x19
 8905 01d8 02       		.uleb128 0x2
 8906 01d9 18       		.uleb128 0x18
 8907 01da 00       		.byte	0
 8908 01db 00       		.byte	0
 8909 01dc 21       		.uleb128 0x21
 8910 01dd 2E       		.uleb128 0x2e
 8911 01de 01       		.byte	0x1
 8912 01df 3F       		.uleb128 0x3f
 8913 01e0 19       		.uleb128 0x19
 8914 01e1 03       		.uleb128 0x3
 8915 01e2 0E       		.uleb128 0xe
 8916 01e3 3A       		.uleb128 0x3a
ARM GAS  D:\Windows\AppData\Local\Temp\ccP1kfgz.s 			page 183


 8917 01e4 0B       		.uleb128 0xb
 8918 01e5 3B       		.uleb128 0x3b
 8919 01e6 0B       		.uleb128 0xb
 8920 01e7 27       		.uleb128 0x27
 8921 01e8 19       		.uleb128 0x19
 8922 01e9 49       		.uleb128 0x49
 8923 01ea 13       		.uleb128 0x13
 8924 01eb 3C       		.uleb128 0x3c
 8925 01ec 19       		.uleb128 0x19
 8926 01ed 01       		.uleb128 0x1
 8927 01ee 13       		.uleb128 0x13
 8928 01ef 00       		.byte	0
 8929 01f0 00       		.byte	0
 8930 01f1 22       		.uleb128 0x22
 8931 01f2 05       		.uleb128 0x5
 8932 01f3 00       		.byte	0
 8933 01f4 49       		.uleb128 0x49
 8934 01f5 13       		.uleb128 0x13
 8935 01f6 00       		.byte	0
 8936 01f7 00       		.byte	0
 8937 01f8 23       		.uleb128 0x23
 8938 01f9 2E       		.uleb128 0x2e
 8939 01fa 00       		.byte	0
 8940 01fb 3F       		.uleb128 0x3f
 8941 01fc 19       		.uleb128 0x19
 8942 01fd 03       		.uleb128 0x3
 8943 01fe 0E       		.uleb128 0xe
 8944 01ff 3A       		.uleb128 0x3a
 8945 0200 0B       		.uleb128 0xb
 8946 0201 3B       		.uleb128 0x3b
 8947 0202 0B       		.uleb128 0xb
 8948 0203 27       		.uleb128 0x27
 8949 0204 19       		.uleb128 0x19
 8950 0205 49       		.uleb128 0x49
 8951 0206 13       		.uleb128 0x13
 8952 0207 3C       		.uleb128 0x3c
 8953 0208 19       		.uleb128 0x19
 8954 0209 00       		.byte	0
 8955 020a 00       		.byte	0
 8956 020b 24       		.uleb128 0x24
 8957 020c 2E       		.uleb128 0x2e
 8958 020d 00       		.byte	0
 8959 020e 3F       		.uleb128 0x3f
 8960 020f 19       		.uleb128 0x19
 8961 0210 03       		.uleb128 0x3
 8962 0211 0E       		.uleb128 0xe
 8963 0212 3A       		.uleb128 0x3a
 8964 0213 0B       		.uleb128 0xb
 8965 0214 3B       		.uleb128 0x3b
 8966 0215 0B       		.uleb128 0xb
 8967 0216 27       		.uleb128 0x27
 8968 0217 19       		.uleb128 0x19
 8969 0218 3C       		.uleb128 0x3c
 8970 0219 19       		.uleb128 0x19
 8971 021a 00       		.byte	0
 8972 021b 00       		.byte	0
 8973 021c 25       		.uleb128 0x25
ARM GAS  D:\Windows\AppData\Local\Temp\ccP1kfgz.s 			page 184


 8974 021d 2E       		.uleb128 0x2e
 8975 021e 01       		.byte	0x1
 8976 021f 3F       		.uleb128 0x3f
 8977 0220 19       		.uleb128 0x19
 8978 0221 03       		.uleb128 0x3
 8979 0222 0E       		.uleb128 0xe
 8980 0223 3A       		.uleb128 0x3a
 8981 0224 0B       		.uleb128 0xb
 8982 0225 3B       		.uleb128 0x3b
 8983 0226 0B       		.uleb128 0xb
 8984 0227 27       		.uleb128 0x27
 8985 0228 19       		.uleb128 0x19
 8986 0229 3C       		.uleb128 0x3c
 8987 022a 19       		.uleb128 0x19
 8988 022b 01       		.uleb128 0x1
 8989 022c 13       		.uleb128 0x13
 8990 022d 00       		.byte	0
 8991 022e 00       		.byte	0
 8992 022f 26       		.uleb128 0x26
 8993 0230 2E       		.uleb128 0x2e
 8994 0231 01       		.byte	0x1
 8995 0232 3F       		.uleb128 0x3f
 8996 0233 19       		.uleb128 0x19
 8997 0234 03       		.uleb128 0x3
 8998 0235 0E       		.uleb128 0xe
 8999 0236 3A       		.uleb128 0x3a
 9000 0237 0B       		.uleb128 0xb
 9001 0238 3B       		.uleb128 0x3b
 9002 0239 0B       		.uleb128 0xb
 9003 023a 27       		.uleb128 0x27
 9004 023b 19       		.uleb128 0x19
 9005 023c 3C       		.uleb128 0x3c
 9006 023d 19       		.uleb128 0x19
 9007 023e 00       		.byte	0
 9008 023f 00       		.byte	0
 9009 0240 00       		.byte	0
 9010              		.section	.debug_loc,"",%progbits
 9011              	.Ldebug_loc0:
 9012              	.LLST0:
 9013 0000 00000000 		.4byte	.LVL0
 9014 0004 06000000 		.4byte	.LVL2
 9015 0008 0100     		.2byte	0x1
 9016 000a 50       		.byte	0x50
 9017 000b 06000000 		.4byte	.LVL2
 9018 000f 4E000000 		.4byte	.LFE74
 9019 0013 0100     		.2byte	0x1
 9020 0015 54       		.byte	0x54
 9021 0016 00000000 		.4byte	0
 9022 001a 00000000 		.4byte	0
 9023              	.LLST1:
 9024 001e 00000000 		.4byte	.LVL14
 9025 0022 06000000 		.4byte	.LVL16
 9026 0026 0100     		.2byte	0x1
 9027 0028 50       		.byte	0x50
 9028 0029 06000000 		.4byte	.LVL16
 9029 002d 4E000000 		.4byte	.LFE75
 9030 0031 0100     		.2byte	0x1
ARM GAS  D:\Windows\AppData\Local\Temp\ccP1kfgz.s 			page 185


 9031 0033 54       		.byte	0x54
 9032 0034 00000000 		.4byte	0
 9033 0038 00000000 		.4byte	0
 9034              	.LLST2:
 9035 003c 00000000 		.4byte	.LVL139
 9036 0040 19000000 		.4byte	.LVL141-1
 9037 0044 0100     		.2byte	0x1
 9038 0046 50       		.byte	0x50
 9039 0047 19000000 		.4byte	.LVL141-1
 9040 004b FC010000 		.4byte	.LFE69
 9041 004f 0400     		.2byte	0x4
 9042 0051 F3       		.byte	0xf3
 9043 0052 01       		.uleb128 0x1
 9044 0053 50       		.byte	0x50
 9045 0054 9F       		.byte	0x9f
 9046 0055 00000000 		.4byte	0
 9047 0059 00000000 		.4byte	0
 9048              	.LLST3:
 9049 005d 0A000000 		.4byte	.LVL140
 9050 0061 C2000000 		.4byte	.LVL145
 9051 0065 0100     		.2byte	0x1
 9052 0067 54       		.byte	0x54
 9053 0068 C2000000 		.4byte	.LVL145
 9054 006c E0000000 		.4byte	.LVL148
 9055 0070 0400     		.2byte	0x4
 9056 0072 74       		.byte	0x74
 9057 0073 E000     		.sleb128 96
 9058 0075 9F       		.byte	0x9f
 9059 0076 E0000000 		.4byte	.LVL148
 9060 007a 30010000 		.4byte	.LVL149
 9061 007e 0100     		.2byte	0x1
 9062 0080 54       		.byte	0x54
 9063 0081 30010000 		.4byte	.LVL149
 9064 0085 36010000 		.4byte	.LVL150
 9065 0089 0400     		.2byte	0x4
 9066 008b 74       		.byte	0x74
 9067 008c E000     		.sleb128 96
 9068 008e 9F       		.byte	0x9f
 9069 008f 00000000 		.4byte	0
 9070 0093 00000000 		.4byte	0
 9071              	.LLST4:
 9072 0097 0A000000 		.4byte	.LVL140
 9073 009b 36010000 		.4byte	.LVL150
 9074 009f 0200     		.2byte	0x2
 9075 00a1 30       		.byte	0x30
 9076 00a2 9F       		.byte	0x9f
 9077 00a3 36010000 		.4byte	.LVL150
 9078 00a7 54010000 		.4byte	.LVL155
 9079 00ab 0100     		.2byte	0x1
 9080 00ad 53       		.byte	0x53
 9081 00ae 00000000 		.4byte	0
 9082 00b2 00000000 		.4byte	0
 9083              	.LLST5:
 9084 00b6 3E010000 		.4byte	.LVL151
 9085 00ba 4C010000 		.4byte	.LVL153
 9086 00be 0100     		.2byte	0x1
 9087 00c0 52       		.byte	0x52
ARM GAS  D:\Windows\AppData\Local\Temp\ccP1kfgz.s 			page 186


 9088 00c1 4E010000 		.4byte	.LVL154
 9089 00c5 54010000 		.4byte	.LVL155
 9090 00c9 0100     		.2byte	0x1
 9091 00cb 52       		.byte	0x52
 9092 00cc 54010000 		.4byte	.LVL155
 9093 00d0 6B010000 		.4byte	.LVL157-1
 9094 00d4 0100     		.2byte	0x1
 9095 00d6 53       		.byte	0x53
 9096 00d7 00000000 		.4byte	0
 9097 00db 00000000 		.4byte	0
 9098              	.LLST6:
 9099 00df 00000000 		.4byte	.LVL262
 9100 00e3 08000000 		.4byte	.LVL263
 9101 00e7 0100     		.2byte	0x1
 9102 00e9 50       		.byte	0x50
 9103 00ea 08000000 		.4byte	.LVL263
 9104 00ee AC000000 		.4byte	.LVL286
 9105 00f2 0100     		.2byte	0x1
 9106 00f4 55       		.byte	0x55
 9107 00f5 AC000000 		.4byte	.LVL286
 9108 00f9 B8000000 		.4byte	.LFE82
 9109 00fd 0100     		.2byte	0x1
 9110 00ff 50       		.byte	0x50
 9111 0100 00000000 		.4byte	0
 9112 0104 00000000 		.4byte	0
 9113              	.LLST7:
 9114 0108 00000000 		.4byte	.LVL262
 9115 010c 0B000000 		.4byte	.LVL264-1
 9116 0110 0100     		.2byte	0x1
 9117 0112 51       		.byte	0x51
 9118 0113 0B000000 		.4byte	.LVL264-1
 9119 0117 B4000000 		.4byte	.LVL288
 9120 011b 0100     		.2byte	0x1
 9121 011d 54       		.byte	0x54
 9122 011e B4000000 		.4byte	.LVL288
 9123 0122 B8000000 		.4byte	.LFE82
 9124 0126 0400     		.2byte	0x4
 9125 0128 F3       		.byte	0xf3
 9126 0129 01       		.uleb128 0x1
 9127 012a 51       		.byte	0x51
 9128 012b 9F       		.byte	0x9f
 9129 012c 00000000 		.4byte	0
 9130 0130 00000000 		.4byte	0
 9131              	.LLST8:
 9132 0134 00000000 		.4byte	.LVL300
 9133 0138 1B000000 		.4byte	.LVL301-1
 9134 013c 0100     		.2byte	0x1
 9135 013e 50       		.byte	0x50
 9136 013f 1B000000 		.4byte	.LVL301-1
 9137 0143 F4000000 		.4byte	.LFE70
 9138 0147 0400     		.2byte	0x4
 9139 0149 F3       		.byte	0xf3
 9140 014a 01       		.uleb128 0x1
 9141 014b 50       		.byte	0x50
 9142 014c 9F       		.byte	0x9f
 9143 014d 00000000 		.4byte	0
 9144 0151 00000000 		.4byte	0
ARM GAS  D:\Windows\AppData\Local\Temp\ccP1kfgz.s 			page 187


 9145              	.LLST9:
 9146 0155 20000000 		.4byte	.LVL302
 9147 0159 92000000 		.4byte	.LVL305
 9148 015d 0200     		.2byte	0x2
 9149 015f 30       		.byte	0x30
 9150 0160 9F       		.byte	0x9f
 9151 0161 92000000 		.4byte	.LVL305
 9152 0165 B0000000 		.4byte	.LVL310
 9153 0169 0100     		.2byte	0x1
 9154 016b 53       		.byte	0x53
 9155 016c 00000000 		.4byte	0
 9156 0170 00000000 		.4byte	0
 9157              	.LLST10:
 9158 0174 9A000000 		.4byte	.LVL306
 9159 0178 A8000000 		.4byte	.LVL308
 9160 017c 0100     		.2byte	0x1
 9161 017e 52       		.byte	0x52
 9162 017f AA000000 		.4byte	.LVL309
 9163 0183 B0000000 		.4byte	.LVL310
 9164 0187 0100     		.2byte	0x1
 9165 0189 52       		.byte	0x52
 9166 018a B0000000 		.4byte	.LVL310
 9167 018e C7000000 		.4byte	.LVL312-1
 9168 0192 0100     		.2byte	0x1
 9169 0194 53       		.byte	0x53
 9170 0195 00000000 		.4byte	0
 9171 0199 00000000 		.4byte	0
 9172              	.LLST11:
 9173 019d 00000000 		.4byte	.LVL329
 9174 01a1 1F000000 		.4byte	.LVL330-1
 9175 01a5 0100     		.2byte	0x1
 9176 01a7 50       		.byte	0x50
 9177 01a8 1F000000 		.4byte	.LVL330-1
 9178 01ac 0C010000 		.4byte	.LFE71
 9179 01b0 0400     		.2byte	0x4
 9180 01b2 F3       		.byte	0xf3
 9181 01b3 01       		.uleb128 0x1
 9182 01b4 50       		.byte	0x50
 9183 01b5 9F       		.byte	0x9f
 9184 01b6 00000000 		.4byte	0
 9185 01ba 00000000 		.4byte	0
 9186              	.LLST12:
 9187 01be 24000000 		.4byte	.LVL331
 9188 01c2 9A000000 		.4byte	.LVL334
 9189 01c6 0200     		.2byte	0x2
 9190 01c8 30       		.byte	0x30
 9191 01c9 9F       		.byte	0x9f
 9192 01ca 9A000000 		.4byte	.LVL334
 9193 01ce BC000000 		.4byte	.LVL339
 9194 01d2 0100     		.2byte	0x1
 9195 01d4 53       		.byte	0x53
 9196 01d5 00000000 		.4byte	0
 9197 01d9 00000000 		.4byte	0
 9198              	.LLST13:
 9199 01dd A4000000 		.4byte	.LVL335
 9200 01e1 B4000000 		.4byte	.LVL337
 9201 01e5 0100     		.2byte	0x1
ARM GAS  D:\Windows\AppData\Local\Temp\ccP1kfgz.s 			page 188


 9202 01e7 52       		.byte	0x52
 9203 01e8 B6000000 		.4byte	.LVL338
 9204 01ec BC000000 		.4byte	.LVL339
 9205 01f0 0100     		.2byte	0x1
 9206 01f2 52       		.byte	0x52
 9207 01f3 BC000000 		.4byte	.LVL339
 9208 01f7 D7000000 		.4byte	.LVL341-1
 9209 01fb 0100     		.2byte	0x1
 9210 01fd 53       		.byte	0x53
 9211 01fe 00000000 		.4byte	0
 9212 0202 00000000 		.4byte	0
 9213              	.LLST14:
 9214 0206 00000000 		.4byte	.LVL358
 9215 020a 1F000000 		.4byte	.LVL359-1
 9216 020e 0100     		.2byte	0x1
 9217 0210 50       		.byte	0x50
 9218 0211 1F000000 		.4byte	.LVL359-1
 9219 0215 0C010000 		.4byte	.LFE72
 9220 0219 0400     		.2byte	0x4
 9221 021b F3       		.byte	0xf3
 9222 021c 01       		.uleb128 0x1
 9223 021d 50       		.byte	0x50
 9224 021e 9F       		.byte	0x9f
 9225 021f 00000000 		.4byte	0
 9226 0223 00000000 		.4byte	0
 9227              	.LLST15:
 9228 0227 24000000 		.4byte	.LVL360
 9229 022b 9A000000 		.4byte	.LVL363
 9230 022f 0200     		.2byte	0x2
 9231 0231 30       		.byte	0x30
 9232 0232 9F       		.byte	0x9f
 9233 0233 9A000000 		.4byte	.LVL363
 9234 0237 BC000000 		.4byte	.LVL368
 9235 023b 0100     		.2byte	0x1
 9236 023d 53       		.byte	0x53
 9237 023e 00000000 		.4byte	0
 9238 0242 00000000 		.4byte	0
 9239              	.LLST16:
 9240 0246 A4000000 		.4byte	.LVL364
 9241 024a B4000000 		.4byte	.LVL366
 9242 024e 0100     		.2byte	0x1
 9243 0250 52       		.byte	0x52
 9244 0251 B6000000 		.4byte	.LVL367
 9245 0255 BC000000 		.4byte	.LVL368
 9246 0259 0100     		.2byte	0x1
 9247 025b 52       		.byte	0x52
 9248 025c BC000000 		.4byte	.LVL368
 9249 0260 D7000000 		.4byte	.LVL370-1
 9250 0264 0100     		.2byte	0x1
 9251 0266 53       		.byte	0x53
 9252 0267 00000000 		.4byte	0
 9253 026b 00000000 		.4byte	0
 9254              	.LLST17:
 9255 026f 00000000 		.4byte	.LVL387
 9256 0273 2C000000 		.4byte	.LVL389
 9257 0277 0100     		.2byte	0x1
 9258 0279 50       		.byte	0x50
ARM GAS  D:\Windows\AppData\Local\Temp\ccP1kfgz.s 			page 189


 9259 027a 2C000000 		.4byte	.LVL389
 9260 027e 50000000 		.4byte	.LVL392
 9261 0282 0400     		.2byte	0x4
 9262 0284 F3       		.byte	0xf3
 9263 0285 01       		.uleb128 0x1
 9264 0286 50       		.byte	0x50
 9265 0287 9F       		.byte	0x9f
 9266 0288 50000000 		.4byte	.LVL392
 9267 028c 60000000 		.4byte	.LVL393
 9268 0290 0100     		.2byte	0x1
 9269 0292 50       		.byte	0x50
 9270 0293 60000000 		.4byte	.LVL393
 9271 0297 D4000000 		.4byte	.LFE73
 9272 029b 0400     		.2byte	0x4
 9273 029d F3       		.byte	0xf3
 9274 029e 01       		.uleb128 0x1
 9275 029f 50       		.byte	0x50
 9276 02a0 9F       		.byte	0x9f
 9277 02a1 00000000 		.4byte	0
 9278 02a5 00000000 		.4byte	0
 9279              	.LLST18:
 9280 02a9 02000000 		.4byte	.LVL388
 9281 02ad 66000000 		.4byte	.LVL394
 9282 02b1 0200     		.2byte	0x2
 9283 02b3 30       		.byte	0x30
 9284 02b4 9F       		.byte	0x9f
 9285 02b5 66000000 		.4byte	.LVL394
 9286 02b9 88000000 		.4byte	.LVL399
 9287 02bd 0100     		.2byte	0x1
 9288 02bf 53       		.byte	0x53
 9289 02c0 00000000 		.4byte	0
 9290 02c4 00000000 		.4byte	0
 9291              	.LLST19:
 9292 02c8 70000000 		.4byte	.LVL395
 9293 02cc 80000000 		.4byte	.LVL397
 9294 02d0 0100     		.2byte	0x1
 9295 02d2 52       		.byte	0x52
 9296 02d3 82000000 		.4byte	.LVL398
 9297 02d7 88000000 		.4byte	.LVL399
 9298 02db 0100     		.2byte	0x1
 9299 02dd 52       		.byte	0x52
 9300 02de 88000000 		.4byte	.LVL399
 9301 02e2 A3000000 		.4byte	.LVL401-1
 9302 02e6 0100     		.2byte	0x1
 9303 02e8 53       		.byte	0x53
 9304 02e9 00000000 		.4byte	0
 9305 02ed 00000000 		.4byte	0
 9306              		.section	.debug_aranges,"",%progbits
 9307 0000 04020000 		.4byte	0x204
 9308 0004 0200     		.2byte	0x2
 9309 0006 00000000 		.4byte	.Ldebug_info0
 9310 000a 04       		.byte	0x4
 9311 000b 00       		.byte	0
 9312 000c 0000     		.2byte	0
 9313 000e 0000     		.2byte	0
 9314 0010 00000000 		.4byte	.LFB74
 9315 0014 4E000000 		.4byte	.LFE74-.LFB74
ARM GAS  D:\Windows\AppData\Local\Temp\ccP1kfgz.s 			page 190


 9316 0018 00000000 		.4byte	.LFB75
 9317 001c 4E000000 		.4byte	.LFE75-.LFB75
 9318 0020 00000000 		.4byte	.LFB68
 9319 0024 08010000 		.4byte	.LFE68-.LFB68
 9320 0028 00000000 		.4byte	.LFB76
 9321 002c 34000000 		.4byte	.LFE76-.LFB76
 9322 0030 00000000 		.4byte	.LFB77
 9323 0034 34000000 		.4byte	.LFE77-.LFB77
 9324 0038 00000000 		.4byte	.LFB83
 9325 003c 20000000 		.4byte	.LFE83-.LFB83
 9326 0040 00000000 		.4byte	.LFB84
 9327 0044 20000000 		.4byte	.LFE84-.LFB84
 9328 0048 00000000 		.4byte	.LFB85
 9329 004c 20000000 		.4byte	.LFE85-.LFB85
 9330 0050 00000000 		.4byte	.LFB86
 9331 0054 20000000 		.4byte	.LFE86-.LFB86
 9332 0058 00000000 		.4byte	.LFB87
 9333 005c 20000000 		.4byte	.LFE87-.LFB87
 9334 0060 00000000 		.4byte	.LFB88
 9335 0064 20000000 		.4byte	.LFE88-.LFB88
 9336 0068 00000000 		.4byte	.LFB89
 9337 006c 20000000 		.4byte	.LFE89-.LFB89
 9338 0070 00000000 		.4byte	.LFB90
 9339 0074 20000000 		.4byte	.LFE90-.LFB90
 9340 0078 00000000 		.4byte	.LFB91
 9341 007c 20000000 		.4byte	.LFE91-.LFB91
 9342 0080 00000000 		.4byte	.LFB92
 9343 0084 20000000 		.4byte	.LFE92-.LFB92
 9344 0088 00000000 		.4byte	.LFB93
 9345 008c 20000000 		.4byte	.LFE93-.LFB93
 9346 0090 00000000 		.4byte	.LFB94
 9347 0094 20000000 		.4byte	.LFE94-.LFB94
 9348 0098 00000000 		.4byte	.LFB95
 9349 009c 20000000 		.4byte	.LFE95-.LFB95
 9350 00a0 00000000 		.4byte	.LFB96
 9351 00a4 20000000 		.4byte	.LFE96-.LFB96
 9352 00a8 00000000 		.4byte	.LFB97
 9353 00ac 20000000 		.4byte	.LFE97-.LFB97
 9354 00b0 00000000 		.4byte	.LFB98
 9355 00b4 20000000 		.4byte	.LFE98-.LFB98
 9356 00b8 00000000 		.4byte	.LFB99
 9357 00bc 20000000 		.4byte	.LFE99-.LFB99
 9358 00c0 00000000 		.4byte	.LFB100
 9359 00c4 20000000 		.4byte	.LFE100-.LFB100
 9360 00c8 00000000 		.4byte	.LFB101
 9361 00cc 20000000 		.4byte	.LFE101-.LFB101
 9362 00d0 00000000 		.4byte	.LFB80
 9363 00d4 1C000000 		.4byte	.LFE80-.LFB80
 9364 00d8 00000000 		.4byte	.LFB81
 9365 00dc 1C000000 		.4byte	.LFE81-.LFB81
 9366 00e0 00000000 		.4byte	.LFB102
 9367 00e4 20000000 		.4byte	.LFE102-.LFB102
 9368 00e8 00000000 		.4byte	.LFB103
 9369 00ec 20000000 		.4byte	.LFE103-.LFB103
 9370 00f0 00000000 		.4byte	.LFB104
 9371 00f4 20000000 		.4byte	.LFE104-.LFB104
 9372 00f8 00000000 		.4byte	.LFB63
ARM GAS  D:\Windows\AppData\Local\Temp\ccP1kfgz.s 			page 191


 9373 00fc 9C000000 		.4byte	.LFE63-.LFB63
 9374 0100 00000000 		.4byte	.LFB69
 9375 0104 FC010000 		.4byte	.LFE69-.LFB69
 9376 0108 00000000 		.4byte	.LFB78
 9377 010c 3E020000 		.4byte	.LFE78-.LFB78
 9378 0110 00000000 		.4byte	.LFB82
 9379 0114 B8000000 		.4byte	.LFE82-.LFB82
 9380 0118 00000000 		.4byte	.LFB105
 9381 011c 20000000 		.4byte	.LFE105-.LFB105
 9382 0120 00000000 		.4byte	.LFB106
 9383 0124 20000000 		.4byte	.LFE106-.LFB106
 9384 0128 00000000 		.4byte	.LFB107
 9385 012c 20000000 		.4byte	.LFE107-.LFB107
 9386 0130 00000000 		.4byte	.LFB108
 9387 0134 20000000 		.4byte	.LFE108-.LFB108
 9388 0138 00000000 		.4byte	.LFB109
 9389 013c 20000000 		.4byte	.LFE109-.LFB109
 9390 0140 00000000 		.4byte	.LFB64
 9391 0144 34000000 		.4byte	.LFE64-.LFB64
 9392 0148 00000000 		.4byte	.LFB70
 9393 014c F4000000 		.4byte	.LFE70-.LFB70
 9394 0150 00000000 		.4byte	.LFB110
 9395 0154 20000000 		.4byte	.LFE110-.LFB110
 9396 0158 00000000 		.4byte	.LFB111
 9397 015c 20000000 		.4byte	.LFE111-.LFB111
 9398 0160 00000000 		.4byte	.LFB112
 9399 0164 20000000 		.4byte	.LFE112-.LFB112
 9400 0168 00000000 		.4byte	.LFB113
 9401 016c 20000000 		.4byte	.LFE113-.LFB113
 9402 0170 00000000 		.4byte	.LFB114
 9403 0174 20000000 		.4byte	.LFE114-.LFB114
 9404 0178 00000000 		.4byte	.LFB65
 9405 017c 40000000 		.4byte	.LFE65-.LFB65
 9406 0180 00000000 		.4byte	.LFB71
 9407 0184 0C010000 		.4byte	.LFE71-.LFB71
 9408 0188 00000000 		.4byte	.LFB115
 9409 018c 20000000 		.4byte	.LFE115-.LFB115
 9410 0190 00000000 		.4byte	.LFB116
 9411 0194 20000000 		.4byte	.LFE116-.LFB116
 9412 0198 00000000 		.4byte	.LFB117
 9413 019c 20000000 		.4byte	.LFE117-.LFB117
 9414 01a0 00000000 		.4byte	.LFB118
 9415 01a4 20000000 		.4byte	.LFE118-.LFB118
 9416 01a8 00000000 		.4byte	.LFB119
 9417 01ac 20000000 		.4byte	.LFE119-.LFB119
 9418 01b0 00000000 		.4byte	.LFB66
 9419 01b4 40000000 		.4byte	.LFE66-.LFB66
 9420 01b8 00000000 		.4byte	.LFB72
 9421 01bc 0C010000 		.4byte	.LFE72-.LFB72
 9422 01c0 00000000 		.4byte	.LFB120
 9423 01c4 20000000 		.4byte	.LFE120-.LFB120
 9424 01c8 00000000 		.4byte	.LFB121
 9425 01cc 20000000 		.4byte	.LFE121-.LFB121
 9426 01d0 00000000 		.4byte	.LFB122
 9427 01d4 20000000 		.4byte	.LFE122-.LFB122
 9428 01d8 00000000 		.4byte	.LFB123
 9429 01dc 20000000 		.4byte	.LFE123-.LFB123
ARM GAS  D:\Windows\AppData\Local\Temp\ccP1kfgz.s 			page 192


 9430 01e0 00000000 		.4byte	.LFB124
 9431 01e4 20000000 		.4byte	.LFE124-.LFB124
 9432 01e8 00000000 		.4byte	.LFB67
 9433 01ec 40000000 		.4byte	.LFE67-.LFB67
 9434 01f0 00000000 		.4byte	.LFB73
 9435 01f4 D4000000 		.4byte	.LFE73-.LFB73
 9436 01f8 00000000 		.4byte	.LFB79
 9437 01fc 64000000 		.4byte	.LFE79-.LFB79
 9438 0200 00000000 		.4byte	0
 9439 0204 00000000 		.4byte	0
 9440              		.section	.debug_ranges,"",%progbits
 9441              	.Ldebug_ranges0:
 9442 0000 3E010000 		.4byte	.LBB2
 9443 0004 4C010000 		.4byte	.LBE2
 9444 0008 4E010000 		.4byte	.LBB3
 9445 000c FC010000 		.4byte	.LBE3
 9446 0010 00000000 		.4byte	0
 9447 0014 00000000 		.4byte	0
 9448 0018 9A000000 		.4byte	.LBB4
 9449 001c A8000000 		.4byte	.LBE4
 9450 0020 AA000000 		.4byte	.LBB5
 9451 0024 F4000000 		.4byte	.LBE5
 9452 0028 00000000 		.4byte	0
 9453 002c 00000000 		.4byte	0
 9454 0030 A4000000 		.4byte	.LBB6
 9455 0034 B4000000 		.4byte	.LBE6
 9456 0038 B6000000 		.4byte	.LBB7
 9457 003c 0C010000 		.4byte	.LBE7
 9458 0040 00000000 		.4byte	0
 9459 0044 00000000 		.4byte	0
 9460 0048 A4000000 		.4byte	.LBB8
 9461 004c B4000000 		.4byte	.LBE8
 9462 0050 B6000000 		.4byte	.LBB9
 9463 0054 0C010000 		.4byte	.LBE9
 9464 0058 00000000 		.4byte	0
 9465 005c 00000000 		.4byte	0
 9466 0060 70000000 		.4byte	.LBB10
 9467 0064 80000000 		.4byte	.LBE10
 9468 0068 82000000 		.4byte	.LBB11
 9469 006c D4000000 		.4byte	.LBE11
 9470 0070 00000000 		.4byte	0
 9471 0074 00000000 		.4byte	0
 9472 0078 00000000 		.4byte	.LFB74
 9473 007c 4E000000 		.4byte	.LFE74
 9474 0080 00000000 		.4byte	.LFB75
 9475 0084 4E000000 		.4byte	.LFE75
 9476 0088 00000000 		.4byte	.LFB68
 9477 008c 08010000 		.4byte	.LFE68
 9478 0090 00000000 		.4byte	.LFB76
 9479 0094 34000000 		.4byte	.LFE76
 9480 0098 00000000 		.4byte	.LFB77
 9481 009c 34000000 		.4byte	.LFE77
 9482 00a0 00000000 		.4byte	.LFB83
 9483 00a4 20000000 		.4byte	.LFE83
 9484 00a8 00000000 		.4byte	.LFB84
 9485 00ac 20000000 		.4byte	.LFE84
 9486 00b0 00000000 		.4byte	.LFB85
ARM GAS  D:\Windows\AppData\Local\Temp\ccP1kfgz.s 			page 193


 9487 00b4 20000000 		.4byte	.LFE85
 9488 00b8 00000000 		.4byte	.LFB86
 9489 00bc 20000000 		.4byte	.LFE86
 9490 00c0 00000000 		.4byte	.LFB87
 9491 00c4 20000000 		.4byte	.LFE87
 9492 00c8 00000000 		.4byte	.LFB88
 9493 00cc 20000000 		.4byte	.LFE88
 9494 00d0 00000000 		.4byte	.LFB89
 9495 00d4 20000000 		.4byte	.LFE89
 9496 00d8 00000000 		.4byte	.LFB90
 9497 00dc 20000000 		.4byte	.LFE90
 9498 00e0 00000000 		.4byte	.LFB91
 9499 00e4 20000000 		.4byte	.LFE91
 9500 00e8 00000000 		.4byte	.LFB92
 9501 00ec 20000000 		.4byte	.LFE92
 9502 00f0 00000000 		.4byte	.LFB93
 9503 00f4 20000000 		.4byte	.LFE93
 9504 00f8 00000000 		.4byte	.LFB94
 9505 00fc 20000000 		.4byte	.LFE94
 9506 0100 00000000 		.4byte	.LFB95
 9507 0104 20000000 		.4byte	.LFE95
 9508 0108 00000000 		.4byte	.LFB96
 9509 010c 20000000 		.4byte	.LFE96
 9510 0110 00000000 		.4byte	.LFB97
 9511 0114 20000000 		.4byte	.LFE97
 9512 0118 00000000 		.4byte	.LFB98
 9513 011c 20000000 		.4byte	.LFE98
 9514 0120 00000000 		.4byte	.LFB99
 9515 0124 20000000 		.4byte	.LFE99
 9516 0128 00000000 		.4byte	.LFB100
 9517 012c 20000000 		.4byte	.LFE100
 9518 0130 00000000 		.4byte	.LFB101
 9519 0134 20000000 		.4byte	.LFE101
 9520 0138 00000000 		.4byte	.LFB80
 9521 013c 1C000000 		.4byte	.LFE80
 9522 0140 00000000 		.4byte	.LFB81
 9523 0144 1C000000 		.4byte	.LFE81
 9524 0148 00000000 		.4byte	.LFB102
 9525 014c 20000000 		.4byte	.LFE102
 9526 0150 00000000 		.4byte	.LFB103
 9527 0154 20000000 		.4byte	.LFE103
 9528 0158 00000000 		.4byte	.LFB104
 9529 015c 20000000 		.4byte	.LFE104
 9530 0160 00000000 		.4byte	.LFB63
 9531 0164 9C000000 		.4byte	.LFE63
 9532 0168 00000000 		.4byte	.LFB69
 9533 016c FC010000 		.4byte	.LFE69
 9534 0170 00000000 		.4byte	.LFB78
 9535 0174 3E020000 		.4byte	.LFE78
 9536 0178 00000000 		.4byte	.LFB82
 9537 017c B8000000 		.4byte	.LFE82
 9538 0180 00000000 		.4byte	.LFB105
 9539 0184 20000000 		.4byte	.LFE105
 9540 0188 00000000 		.4byte	.LFB106
 9541 018c 20000000 		.4byte	.LFE106
 9542 0190 00000000 		.4byte	.LFB107
 9543 0194 20000000 		.4byte	.LFE107
ARM GAS  D:\Windows\AppData\Local\Temp\ccP1kfgz.s 			page 194


 9544 0198 00000000 		.4byte	.LFB108
 9545 019c 20000000 		.4byte	.LFE108
 9546 01a0 00000000 		.4byte	.LFB109
 9547 01a4 20000000 		.4byte	.LFE109
 9548 01a8 00000000 		.4byte	.LFB64
 9549 01ac 34000000 		.4byte	.LFE64
 9550 01b0 00000000 		.4byte	.LFB70
 9551 01b4 F4000000 		.4byte	.LFE70
 9552 01b8 00000000 		.4byte	.LFB110
 9553 01bc 20000000 		.4byte	.LFE110
 9554 01c0 00000000 		.4byte	.LFB111
 9555 01c4 20000000 		.4byte	.LFE111
 9556 01c8 00000000 		.4byte	.LFB112
 9557 01cc 20000000 		.4byte	.LFE112
 9558 01d0 00000000 		.4byte	.LFB113
 9559 01d4 20000000 		.4byte	.LFE113
 9560 01d8 00000000 		.4byte	.LFB114
 9561 01dc 20000000 		.4byte	.LFE114
 9562 01e0 00000000 		.4byte	.LFB65
 9563 01e4 40000000 		.4byte	.LFE65
 9564 01e8 00000000 		.4byte	.LFB71
 9565 01ec 0C010000 		.4byte	.LFE71
 9566 01f0 00000000 		.4byte	.LFB115
 9567 01f4 20000000 		.4byte	.LFE115
 9568 01f8 00000000 		.4byte	.LFB116
 9569 01fc 20000000 		.4byte	.LFE116
 9570 0200 00000000 		.4byte	.LFB117
 9571 0204 20000000 		.4byte	.LFE117
 9572 0208 00000000 		.4byte	.LFB118
 9573 020c 20000000 		.4byte	.LFE118
 9574 0210 00000000 		.4byte	.LFB119
 9575 0214 20000000 		.4byte	.LFE119
 9576 0218 00000000 		.4byte	.LFB66
 9577 021c 40000000 		.4byte	.LFE66
 9578 0220 00000000 		.4byte	.LFB72
 9579 0224 0C010000 		.4byte	.LFE72
 9580 0228 00000000 		.4byte	.LFB120
 9581 022c 20000000 		.4byte	.LFE120
 9582 0230 00000000 		.4byte	.LFB121
 9583 0234 20000000 		.4byte	.LFE121
 9584 0238 00000000 		.4byte	.LFB122
 9585 023c 20000000 		.4byte	.LFE122
 9586 0240 00000000 		.4byte	.LFB123
 9587 0244 20000000 		.4byte	.LFE123
 9588 0248 00000000 		.4byte	.LFB124
 9589 024c 20000000 		.4byte	.LFE124
 9590 0250 00000000 		.4byte	.LFB67
 9591 0254 40000000 		.4byte	.LFE67
 9592 0258 00000000 		.4byte	.LFB73
 9593 025c D4000000 		.4byte	.LFE73
 9594 0260 00000000 		.4byte	.LFB79
 9595 0264 64000000 		.4byte	.LFE79
 9596 0268 00000000 		.4byte	0
 9597 026c 00000000 		.4byte	0
 9598              		.section	.debug_line,"",%progbits
 9599              	.Ldebug_line0:
 9600 0000 58090000 		.section	.debug_str,"MS",%progbits,1
ARM GAS  D:\Windows\AppData\Local\Temp\ccP1kfgz.s 			page 195


 9600      02003702 
 9600      00000201 
 9600      FB0E0D00 
 9600      01010101 
 9601              	.LASF52:
 9602 0000 6432325F 		.ascii	"d22_write\000"
 9602      77726974 
 9602      6500
 9603              	.LASF34:
 9604 000a 64365F77 		.ascii	"d6_write\000"
 9604      72697465 
 9604      00
 9605              	.LASF130:
 9606 0013 43794465 		.ascii	"CyDelay\000"
 9606      6C617900 
 9607              	.LASF106:
 9608 001b 62335F61 		.ascii	"b3_arr\000"
 9608      727200
 9609              	.LASF71:
 9610 0022 6232355F 		.ascii	"b25_write\000"
 9610      77726974 
 9610      6500
 9611              	.LASF80:
 9612 002c 62335F63 		.ascii	"b3_crit_isr\000"
 9612      7269745F 
 9612      69737200 
 9613              	.LASF136:
 9614 0038 62325F63 		.ascii	"b2_critical_timer_Stop\000"
 9614      72697469 
 9614      63616C5F 
 9614      74696D65 
 9614      725F5374 
 9615              	.LASF146:
 9616 004f 443A5C44 		.ascii	"D:\\Downloads\\FRUCD\\Node-Jaguar\\Node-Jaguar\\Nod"
 9616      6F776E6C 
 9616      6F616473 
 9616      5C465255 
 9616      43445C4E 
 9617 007d 652D4A61 		.ascii	"e-Jaguar.cydsn\000"
 9617      67756172 
 9617      2E637964 
 9617      736E00
 9618              	.LASF103:
 9619 008c 74616368 		.ascii	"tach_arr\000"
 9619      5F617272 
 9619      00
 9620              	.LASF85:
 9621 0095 63335F77 		.ascii	"c3_write\000"
 9621      72697465 
 9621      00
 9622              	.LASF92:
 9623 009e 626D735F 		.ascii	"bms_temp_map\000"
 9623      74656D70 
 9623      5F6D6170 
 9623      00
 9624              	.LASF115:
 9625 00ab 62325F63 		.ascii	"b2_crit_led\000"
ARM GAS  D:\Windows\AppData\Local\Temp\ccP1kfgz.s 			page 196


 9625      7269745F 
 9625      6C656400 
 9626              	.LASF60:
 9627 00b7 6231325F 		.ascii	"b12_write\000"
 9627      77726974 
 9627      6500
 9628              	.LASF39:
 9629 00c1 6431315F 		.ascii	"d11_write\000"
 9629      77726974 
 9629      6500
 9630              	.LASF83:
 9631 00cb 63355F77 		.ascii	"c5_write\000"
 9631      72697465 
 9631      00
 9632              	.LASF11:
 9633 00d4 756E7369 		.ascii	"unsigned int\000"
 9633      676E6564 
 9633      20696E74 
 9633      00
 9634              	.LASF6:
 9635 00e1 5F5F696E 		.ascii	"__int32_t\000"
 9635      7433325F 
 9635      7400
 9636              	.LASF134:
 9637 00eb 62315F63 		.ascii	"b1_crit_int_StartEx\000"
 9637      7269745F 
 9637      696E745F 
 9637      53746172 
 9637      74457800 
 9638              	.LASF23:
 9639 00ff 77726974 		.ascii	"write_all_stat\000"
 9639      655F616C 
 9639      6C5F7374 
 9639      617400
 9640              	.LASF36:
 9641 010e 64385F77 		.ascii	"d8_write\000"
 9641      72697465 
 9641      00
 9642              	.LASF147:
 9643 0117 6C65645F 		.ascii	"led_writetest\000"
 9643      77726974 
 9643      65746573 
 9643      7400
 9644              	.LASF62:
 9645 0125 6231345F 		.ascii	"b14_write\000"
 9645      77726974 
 9645      6500
 9646              	.LASF41:
 9647 012f 6431335F 		.ascii	"d13_write\000"
 9647      77726974 
 9647      6500
 9648              	.LASF57:
 9649 0139 73746570 		.ascii	"steps\000"
 9649      7300
 9650              	.LASF43:
 9651 013f 6431355F 		.ascii	"d15_write\000"
 9651      77726974 
ARM GAS  D:\Windows\AppData\Local\Temp\ccP1kfgz.s 			page 197


 9651      6500
 9652              	.LASF17:
 9653 0149 666C6F61 		.ascii	"float\000"
 9653      7400
 9654              	.LASF123:
 9655 014f 4C45445F 		.ascii	"LED_Driver2_MasterSendStop\000"
 9655      44726976 
 9655      6572325F 
 9655      4D617374 
 9655      65725365 
 9656              	.LASF111:
 9657 016a 62335F63 		.ascii	"b3_critical\000"
 9657      72697469 
 9657      63616C00 
 9658              	.LASF56:
 9659 0176 74616368 		.ascii	"tach_pct\000"
 9659      5F706374 
 9659      00
 9660              	.LASF107:
 9661 017f 63315F61 		.ascii	"c1_arr\000"
 9661      727200
 9662              	.LASF10:
 9663 0186 6C6F6E67 		.ascii	"long long unsigned int\000"
 9663      206C6F6E 
 9663      6720756E 
 9663      7369676E 
 9663      65642069 
 9664              	.LASF77:
 9665 019d 6233335F 		.ascii	"b33_write\000"
 9665      77726974 
 9665      6500
 9666              	.LASF4:
 9667 01a7 5F5F7569 		.ascii	"__uint16_t\000"
 9667      6E743136 
 9667      5F7400
 9668              	.LASF116:
 9669 01b2 62335F63 		.ascii	"b3_crit_led\000"
 9669      7269745F 
 9669      6C656400 
 9670              	.LASF22:
 9671 01be 77726974 		.ascii	"write_all_tach\000"
 9671      655F616C 
 9671      6C5F7461 
 9671      636800
 9672              	.LASF29:
 9673 01cd 64315F77 		.ascii	"d1_write\000"
 9673      72697465 
 9673      00
 9674              	.LASF142:
 9675 01d6 62335F63 		.ascii	"b3_crit_int_StartEx\000"
 9675      7269745F 
 9675      696E745F 
 9675      53746172 
 9675      74457800 
 9676              	.LASF28:
 9677 01ea 6C65645F 		.ascii	"led_update_stat\000"
 9677      75706461 
ARM GAS  D:\Windows\AppData\Local\Temp\ccP1kfgz.s 			page 198


 9677      74655F73 
 9677      74617400 
 9678              	.LASF31:
 9679 01fa 64335F77 		.ascii	"d3_write\000"
 9679      72697465 
 9679      00
 9680              	.LASF88:
 9681 0203 63315F63 		.ascii	"c1_crit_isr\000"
 9681      7269745F 
 9681      69737200 
 9682              	.LASF90:
 9683 020f 77726974 		.ascii	"write_startup_stat\000"
 9683      655F7374 
 9683      61727475 
 9683      705F7374 
 9683      617400
 9684              	.LASF45:
 9685 0222 6431375F 		.ascii	"d17_write\000"
 9685      77726974 
 9685      6500
 9686              	.LASF101:
 9687 022c 62797465 		.ascii	"byte07_2\000"
 9687      30375F32 
 9687      00
 9688              	.LASF105:
 9689 0235 62325F61 		.ascii	"b2_arr\000"
 9689      727200
 9690              	.LASF55:
 9691 023c 4D54525F 		.ascii	"MTR_RPM\000"
 9691      52504D00 
 9692              	.LASF137:
 9693 0244 62325F63 		.ascii	"b2_critical_timer_Start\000"
 9693      72697469 
 9693      63616C5F 
 9693      74696D65 
 9693      725F5374 
 9694              	.LASF79:
 9695 025c 6233355F 		.ascii	"b35_write\000"
 9695      77726974 
 9695      6500
 9696              	.LASF132:
 9697 0266 62315F63 		.ascii	"b1_critical_timer_Stop\000"
 9697      72697469 
 9697      63616C5F 
 9697      74696D65 
 9697      725F5374 
 9698              	.LASF19:
 9699 027d 63686172 		.ascii	"char\000"
 9699      00
 9700              	.LASF68:
 9701 0282 6232325F 		.ascii	"b22_write\000"
 9701      77726974 
 9701      6500
 9702              	.LASF48:
 9703 028c 6C65645F 		.ascii	"led_on\000"
 9703      6F6E00
 9704              	.LASF138:
ARM GAS  D:\Windows\AppData\Local\Temp\ccP1kfgz.s 			page 199


 9705 0293 62325F63 		.ascii	"b2_crit_int_StartEx\000"
 9705      7269745F 
 9705      696E745F 
 9705      53746172 
 9705      74457800 
 9706              	.LASF51:
 9707 02a7 6432315F 		.ascii	"d21_write\000"
 9707      77726974 
 9707      6500
 9708              	.LASF33:
 9709 02b1 64355F77 		.ascii	"d5_write\000"
 9709      72697465 
 9709      00
 9710              	.LASF110:
 9711 02ba 62325F63 		.ascii	"b2_critical\000"
 9711      72697469 
 9711      63616C00 
 9712              	.LASF108:
 9713 02c6 74616368 		.ascii	"tach_critical\000"
 9713      5F637269 
 9713      74696361 
 9713      6C00
 9714              	.LASF70:
 9715 02d4 6232345F 		.ascii	"b24_write\000"
 9715      77726974 
 9715      6500
 9716              	.LASF93:
 9717 02de 6D74725F 		.ascii	"mtr_temp_map\000"
 9717      74656D70 
 9717      5F6D6170 
 9717      00
 9718              	.LASF12:
 9719 02eb 75696E74 		.ascii	"uint8_t\000"
 9719      385F7400 
 9720              	.LASF27:
 9721 02f3 6C65645F 		.ascii	"led_update_tach\000"
 9721      75706461 
 9721      74655F74 
 9721      61636800 
 9722              	.LASF47:
 9723 0303 6431395F 		.ascii	"d19_write\000"
 9723      77726974 
 9723      6500
 9724              	.LASF86:
 9725 030d 63325F77 		.ascii	"c2_write\000"
 9725      72697465 
 9725      00
 9726              	.LASF58:
 9727 0316 77726974 		.ascii	"write_startup_tach\000"
 9727      655F7374 
 9727      61727475 
 9727      705F7461 
 9727      636800
 9728              	.LASF59:
 9729 0329 6231315F 		.ascii	"b11_write\000"
 9729      77726974 
 9729      6500
ARM GAS  D:\Windows\AppData\Local\Temp\ccP1kfgz.s 			page 200


 9730              	.LASF9:
 9731 0333 6C6F6E67 		.ascii	"long long int\000"
 9731      206C6F6E 
 9731      6720696E 
 9731      7400
 9732              	.LASF38:
 9733 0341 6431305F 		.ascii	"d10_write\000"
 9733      77726974 
 9733      6500
 9734              	.LASF125:
 9735 034b 4C45445F 		.ascii	"LED_Driver2_Start\000"
 9735      44726976 
 9735      6572325F 
 9735      53746172 
 9735      7400
 9736              	.LASF113:
 9737 035d 74616368 		.ascii	"tach_crit_led\000"
 9737      5F637269 
 9737      745F6C65 
 9737      6400
 9738              	.LASF66:
 9739 036b 424D535F 		.ascii	"BMS_TEMP\000"
 9739      54454D50 
 9739      00
 9740              	.LASF128:
 9741 0374 74616368 		.ascii	"tach_critical_timer_Start\000"
 9741      5F637269 
 9741      74696361 
 9741      6C5F7469 
 9741      6D65725F 
 9742              	.LASF112:
 9743 038e 63315F63 		.ascii	"c1_critical\000"
 9743      72697469 
 9743      63616C00 
 9744              	.LASF24:
 9745 039a 626F6F6C 		.ascii	"bool\000"
 9745      00
 9746              	.LASF148:
 9747 039f 63315F63 		.ascii	"c1_crit_int_StartEx\000"
 9747      7269745F 
 9747      696E745F 
 9747      53746172 
 9747      74457800 
 9748              	.LASF126:
 9749 03b3 74616368 		.ascii	"tach_crit_int_Stop\000"
 9749      5F637269 
 9749      745F696E 
 9749      745F5374 
 9749      6F7000
 9750              	.LASF20:
 9751 03c6 63796973 		.ascii	"cyisraddress\000"
 9751      72616464 
 9751      72657373 
 9751      00
 9752              	.LASF99:
 9753 03d3 62797465 		.ascii	"byte05_2\000"
 9753      30355F32 
ARM GAS  D:\Windows\AppData\Local\Temp\ccP1kfgz.s 			page 201


 9753      00
 9754              	.LASF64:
 9755 03dc 62315F63 		.ascii	"b1_crit_isr\000"
 9755      7269745F 
 9755      69737200 
 9756              	.LASF16:
 9757 03e8 75696E74 		.ascii	"uint32\000"
 9757      333200
 9758              	.LASF35:
 9759 03ef 64375F77 		.ascii	"d7_write\000"
 9759      72697465 
 9759      00
 9760              	.LASF117:
 9761 03f8 63315F63 		.ascii	"c1_crit_led\000"
 9761      7269745F 
 9761      6C656400 
 9762              	.LASF84:
 9763 0404 63345F77 		.ascii	"c4_write\000"
 9763      72697465 
 9763      00
 9764              	.LASF61:
 9765 040d 6231335F 		.ascii	"b13_write\000"
 9765      77726974 
 9765      6500
 9766              	.LASF118:
 9767 0417 4C45445F 		.ascii	"LED_Driver1_MasterSendStart\000"
 9767      44726976 
 9767      6572315F 
 9767      4D617374 
 9767      65725365 
 9768              	.LASF40:
 9769 0433 6431325F 		.ascii	"d12_write\000"
 9769      77726974 
 9769      6500
 9770              	.LASF13:
 9771 043d 75696E74 		.ascii	"uint16_t\000"
 9771      31365F74 
 9771      00
 9772              	.LASF63:
 9773 0446 6231355F 		.ascii	"b15_write\000"
 9773      77726974 
 9773      6500
 9774              	.LASF82:
 9775 0450 4D54525F 		.ascii	"MTR_CTRL_TEMP\000"
 9775      4354524C 
 9775      5F54454D 
 9775      5000
 9776              	.LASF49:
 9777 045e 6C65645F 		.ascii	"led_off\000"
 9777      6F666600 
 9778              	.LASF140:
 9779 0466 62335F63 		.ascii	"b3_critical_timer_Stop\000"
 9779      72697469 
 9779      63616C5F 
 9779      74696D65 
 9779      725F5374 
 9780              	.LASF2:
ARM GAS  D:\Windows\AppData\Local\Temp\ccP1kfgz.s 			page 202


 9781 047d 73686F72 		.ascii	"short int\000"
 9781      7420696E 
 9781      7400
 9782              	.LASF25:
 9783 0487 616C6C6F 		.ascii	"allon\000"
 9783      6E00
 9784              	.LASF7:
 9785 048d 6C6F6E67 		.ascii	"long int\000"
 9785      20696E74 
 9785      00
 9786              	.LASF26:
 9787 0496 6C65645F 		.ascii	"led_driver_init\000"
 9787      64726976 
 9787      65725F69 
 9787      6E697400 
 9788              	.LASF91:
 9789 04a6 49544D5F 		.ascii	"ITM_RxBuffer\000"
 9789      52784275 
 9789      66666572 
 9789      00
 9790              	.LASF145:
 9791 04b3 6C65645F 		.ascii	"led_manager.c\000"
 9791      6D616E61 
 9791      6765722E 
 9791      6300
 9792              	.LASF37:
 9793 04c1 64395F77 		.ascii	"d9_write\000"
 9793      72697465 
 9793      00
 9794              	.LASF121:
 9795 04ca 4C45445F 		.ascii	"LED_Driver2_MasterWriteByte\000"
 9795      44726976 
 9795      6572325F 
 9795      4D617374 
 9795      65725772 
 9796              	.LASF53:
 9797 04e6 74616368 		.ascii	"tach_crit_isr\000"
 9797      5F637269 
 9797      745F6973 
 9797      7200
 9798              	.LASF104:
 9799 04f4 62315F61 		.ascii	"b1_arr\000"
 9799      727200
 9800              	.LASF74:
 9801 04fb 4D54525F 		.ascii	"MTR_TEMP\000"
 9801      54454D50 
 9801      00
 9802              	.LASF102:
 9803 0504 62797465 		.ascii	"byte08_2\000"
 9803      30385F32 
 9803      00
 9804              	.LASF3:
 9805 050d 5F5F7569 		.ascii	"__uint8_t\000"
 9805      6E74385F 
 9805      7400
 9806              	.LASF76:
 9807 0517 6233325F 		.ascii	"b32_write\000"
ARM GAS  D:\Windows\AppData\Local\Temp\ccP1kfgz.s 			page 203


 9807      77726974 
 9807      6500
 9808              	.LASF42:
 9809 0521 6431345F 		.ascii	"d14_write\000"
 9809      77726974 
 9809      6500
 9810              	.LASF109:
 9811 052b 62315F63 		.ascii	"b1_critical\000"
 9811      72697469 
 9811      63616C00 
 9812              	.LASF127:
 9813 0537 74616368 		.ascii	"tach_critical_timer_Stop\000"
 9813      5F637269 
 9813      74696361 
 9813      6C5F7469 
 9813      6D65725F 
 9814              	.LASF54:
 9815 0550 6C65645F 		.ascii	"led_write_tach\000"
 9815      77726974 
 9815      655F7461 
 9815      636800
 9816              	.LASF44:
 9817 055f 6431365F 		.ascii	"d16_write\000"
 9817      77726974 
 9817      6500
 9818              	.LASF21:
 9819 0569 73697A65 		.ascii	"sizetype\000"
 9819      74797065 
 9819      00
 9820              	.LASF143:
 9821 0572 63315F63 		.ascii	"c1_critical_timer_Start\000"
 9821      72697469 
 9821      63616C5F 
 9821      74696D65 
 9821      725F5374 
 9822              	.LASF8:
 9823 058a 6C6F6E67 		.ascii	"long unsigned int\000"
 9823      20756E73 
 9823      69676E65 
 9823      6420696E 
 9823      7400
 9824              	.LASF72:
 9825 059c 62325F63 		.ascii	"b2_crit_isr\000"
 9825      7269745F 
 9825      69737200 
 9826              	.LASF14:
 9827 05a8 696E7433 		.ascii	"int32_t\000"
 9827      325F7400 
 9828              	.LASF95:
 9829 05b0 62797465 		.ascii	"byte05\000"
 9829      303500
 9830              	.LASF96:
 9831 05b7 62797465 		.ascii	"byte06\000"
 9831      303600
 9832              	.LASF97:
 9833 05be 62797465 		.ascii	"byte07\000"
 9833      303700
ARM GAS  D:\Windows\AppData\Local\Temp\ccP1kfgz.s 			page 204


 9834              	.LASF98:
 9835 05c5 62797465 		.ascii	"byte08\000"
 9835      303800
 9836              	.LASF139:
 9837 05cc 62335F63 		.ascii	"b3_crit_int_Stop\000"
 9837      7269745F 
 9837      696E745F 
 9837      53746F70 
 9837      00
 9838              	.LASF119:
 9839 05dd 4C45445F 		.ascii	"LED_Driver1_MasterWriteByte\000"
 9839      44726976 
 9839      6572315F 
 9839      4D617374 
 9839      65725772 
 9840              	.LASF114:
 9841 05f9 62315F63 		.ascii	"b1_crit_led\000"
 9841      7269745F 
 9841      6C656400 
 9842              	.LASF78:
 9843 0605 6233345F 		.ascii	"b34_write\000"
 9843      77726974 
 9843      6500
 9844              	.LASF120:
 9845 060f 4C45445F 		.ascii	"LED_Driver2_MasterSendStart\000"
 9845      44726976 
 9845      6572325F 
 9845      4D617374 
 9845      65725365 
 9846              	.LASF1:
 9847 062b 756E7369 		.ascii	"unsigned char\000"
 9847      676E6564 
 9847      20636861 
 9847      7200
 9848              	.LASF144:
 9849 0639 474E5520 		.ascii	"GNU C 4.9.3 20150303 (release) [ARM/embedded-4_9-br"
 9849      4320342E 
 9849      392E3320 
 9849      32303135 
 9849      30333033 
 9850 066c 616E6368 		.ascii	"anch revision 221220] -mcpu=cortex-m3 -mthumb -g -O"
 9850      20726576 
 9850      6973696F 
 9850      6E203232 
 9850      31323230 
 9851 069f 67202D66 		.ascii	"g -ffunction-sections -ffat-lto-objects\000"
 9851      66756E63 
 9851      74696F6E 
 9851      2D736563 
 9851      74696F6E 
 9852              	.LASF94:
 9853 06c7 6D74725F 		.ascii	"mtr_ctrl_temp_map\000"
 9853      6374726C 
 9853      5F74656D 
 9853      705F6D61 
 9853      7000
 9854              	.LASF141:
ARM GAS  D:\Windows\AppData\Local\Temp\ccP1kfgz.s 			page 205


 9855 06d9 62335F63 		.ascii	"b3_critical_timer_Start\000"
 9855      72697469 
 9855      63616C5F 
 9855      74696D65 
 9855      725F5374 
 9856              	.LASF30:
 9857 06f1 64325F77 		.ascii	"d2_write\000"
 9857      72697465 
 9857      00
 9858              	.LASF67:
 9859 06fa 6232315F 		.ascii	"b21_write\000"
 9859      77726974 
 9859      6500
 9860              	.LASF50:
 9861 0704 6432305F 		.ascii	"d20_write\000"
 9861      77726974 
 9861      6500
 9862              	.LASF32:
 9863 070e 64345F77 		.ascii	"d4_write\000"
 9863      72697465 
 9863      00
 9864              	.LASF69:
 9865 0717 6232335F 		.ascii	"b23_write\000"
 9865      77726974 
 9865      6500
 9866              	.LASF133:
 9867 0721 62315F63 		.ascii	"b1_critical_timer_Start\000"
 9867      72697469 
 9867      63616C5F 
 9867      74696D65 
 9867      725F5374 
 9868              	.LASF65:
 9869 0739 6C65645F 		.ascii	"led_write_b1\000"
 9869      77726974 
 9869      655F6231 
 9869      00
 9870              	.LASF73:
 9871 0746 6C65645F 		.ascii	"led_write_b2\000"
 9871      77726974 
 9871      655F6232 
 9871      00
 9872              	.LASF81:
 9873 0753 6C65645F 		.ascii	"led_write_b3\000"
 9873      77726974 
 9873      655F6233 
 9873      00
 9874              	.LASF46:
 9875 0760 6431385F 		.ascii	"d18_write\000"
 9875      77726974 
 9875      6500
 9876              	.LASF0:
 9877 076a 7369676E 		.ascii	"signed char\000"
 9877      65642063 
 9877      68617200 
 9878              	.LASF87:
 9879 0776 63315F77 		.ascii	"c1_write\000"
 9879      72697465 
ARM GAS  D:\Windows\AppData\Local\Temp\ccP1kfgz.s 			page 206


 9879      00
 9880              	.LASF5:
 9881 077f 73686F72 		.ascii	"short unsigned int\000"
 9881      7420756E 
 9881      7369676E 
 9881      65642069 
 9881      6E7400
 9882              	.LASF122:
 9883 0792 4C45445F 		.ascii	"LED_Driver1_MasterSendStop\000"
 9883      44726976 
 9883      6572315F 
 9883      4D617374 
 9883      65725365 
 9884              	.LASF135:
 9885 07ad 62325F63 		.ascii	"b2_crit_int_Stop\000"
 9885      7269745F 
 9885      696E745F 
 9885      53746F70 
 9885      00
 9886              	.LASF124:
 9887 07be 4C45445F 		.ascii	"LED_Driver1_Start\000"
 9887      44726976 
 9887      6572315F 
 9887      53746172 
 9887      7400
 9888              	.LASF15:
 9889 07d0 75696E74 		.ascii	"uint8\000"
 9889      3800
 9890              	.LASF18:
 9891 07d6 646F7562 		.ascii	"double\000"
 9891      6C6500
 9892              	.LASF131:
 9893 07dd 62315F63 		.ascii	"b1_crit_int_Stop\000"
 9893      7269745F 
 9893      696E745F 
 9893      53746F70 
 9893      00
 9894              	.LASF100:
 9895 07ee 62797465 		.ascii	"byte06_2\000"
 9895      30365F32 
 9895      00
 9896              	.LASF89:
 9897 07f7 6C65645F 		.ascii	"led_write_c1\000"
 9897      77726974 
 9897      655F6331 
 9897      00
 9898              	.LASF75:
 9899 0804 6233315F 		.ascii	"b31_write\000"
 9899      77726974 
 9899      6500
 9900              	.LASF129:
 9901 080e 74616368 		.ascii	"tach_crit_int_StartEx\000"
 9901      5F637269 
 9901      745F696E 
 9901      745F5374 
 9901      61727445 
 9902              		.ident	"GCC: (GNU Tools for ARM Embedded Processors) 4.9.3 20150303 (release) [ARM/embedded-4_9-br
ARM GAS  D:\Windows\AppData\Local\Temp\ccP1kfgz.s 			page 207


