ARM GAS  D:\Windows\AppData\Local\Temp\cckj3R1l.s 			page 1


   1              		.syntax unified
   2              		.cpu cortex-m3
   3              		.fpu softvfp
   4              		.eabi_attribute 20, 1
   5              		.eabi_attribute 21, 1
   6              		.eabi_attribute 23, 3
   7              		.eabi_attribute 24, 1
   8              		.eabi_attribute 25, 1
   9              		.eabi_attribute 26, 1
  10              		.eabi_attribute 30, 6
  11              		.eabi_attribute 34, 1
  12              		.eabi_attribute 18, 4
  13              		.thumb
  14              		.file	"LED_Driver2_INT.c"
  15              		.text
  16              	.Ltext0:
  17              		.cfi_sections	.debug_frame
  18              		.section	.text.LED_Driver2_ISR,"ax",%progbits
  19              		.align	2
  20              		.global	LED_Driver2_ISR
  21              		.thumb
  22              		.thumb_func
  23              		.type	LED_Driver2_ISR, %function
  24              	LED_Driver2_ISR:
  25              	.LFB0:
  26              		.file 1 "Generated_Source\\PSoC5\\LED_Driver2_INT.c"
   1:Generated_Source\PSoC5/LED_Driver2_INT.c **** /*******************************************************************************
   2:Generated_Source\PSoC5/LED_Driver2_INT.c **** * File Name: LED_Driver2_INT.c
   3:Generated_Source\PSoC5/LED_Driver2_INT.c **** * Version 3.50
   4:Generated_Source\PSoC5/LED_Driver2_INT.c **** *
   5:Generated_Source\PSoC5/LED_Driver2_INT.c **** * Description:
   6:Generated_Source\PSoC5/LED_Driver2_INT.c **** *  This file provides the source code of Interrupt Service Routine (ISR)
   7:Generated_Source\PSoC5/LED_Driver2_INT.c **** *  for the I2C component.
   8:Generated_Source\PSoC5/LED_Driver2_INT.c **** *
   9:Generated_Source\PSoC5/LED_Driver2_INT.c **** ********************************************************************************
  10:Generated_Source\PSoC5/LED_Driver2_INT.c **** * Copyright 2008-2015, Cypress Semiconductor Corporation. All rights reserved.
  11:Generated_Source\PSoC5/LED_Driver2_INT.c **** * You may use this file only in accordance with the license, terms, conditions,
  12:Generated_Source\PSoC5/LED_Driver2_INT.c **** * disclaimers, and limitations in the end user license agreement accompanying
  13:Generated_Source\PSoC5/LED_Driver2_INT.c **** * the software package with which this file was provided.
  14:Generated_Source\PSoC5/LED_Driver2_INT.c **** *******************************************************************************/
  15:Generated_Source\PSoC5/LED_Driver2_INT.c **** 
  16:Generated_Source\PSoC5/LED_Driver2_INT.c **** #include "LED_Driver2_PVT.h"
  17:Generated_Source\PSoC5/LED_Driver2_INT.c **** #include "cyapicallbacks.h"
  18:Generated_Source\PSoC5/LED_Driver2_INT.c **** 
  19:Generated_Source\PSoC5/LED_Driver2_INT.c **** 
  20:Generated_Source\PSoC5/LED_Driver2_INT.c **** /*******************************************************************************
  21:Generated_Source\PSoC5/LED_Driver2_INT.c **** *  Place your includes, defines and code here.
  22:Generated_Source\PSoC5/LED_Driver2_INT.c **** ********************************************************************************/
  23:Generated_Source\PSoC5/LED_Driver2_INT.c **** /* `#START LED_Driver2_ISR_intc` */
  24:Generated_Source\PSoC5/LED_Driver2_INT.c **** 
  25:Generated_Source\PSoC5/LED_Driver2_INT.c **** /* `#END` */
  26:Generated_Source\PSoC5/LED_Driver2_INT.c **** 
  27:Generated_Source\PSoC5/LED_Driver2_INT.c **** 
  28:Generated_Source\PSoC5/LED_Driver2_INT.c **** /*******************************************************************************
  29:Generated_Source\PSoC5/LED_Driver2_INT.c **** * Function Name: LED_Driver2_ISR
  30:Generated_Source\PSoC5/LED_Driver2_INT.c **** ********************************************************************************
  31:Generated_Source\PSoC5/LED_Driver2_INT.c **** *
ARM GAS  D:\Windows\AppData\Local\Temp\cckj3R1l.s 			page 2


  32:Generated_Source\PSoC5/LED_Driver2_INT.c **** * Summary:
  33:Generated_Source\PSoC5/LED_Driver2_INT.c **** *  The handler for the I2C interrupt. The slave and master operations are
  34:Generated_Source\PSoC5/LED_Driver2_INT.c **** *  handled here.
  35:Generated_Source\PSoC5/LED_Driver2_INT.c **** *
  36:Generated_Source\PSoC5/LED_Driver2_INT.c **** * Parameters:
  37:Generated_Source\PSoC5/LED_Driver2_INT.c **** *  None.
  38:Generated_Source\PSoC5/LED_Driver2_INT.c **** *
  39:Generated_Source\PSoC5/LED_Driver2_INT.c **** * Return:
  40:Generated_Source\PSoC5/LED_Driver2_INT.c **** *  None.
  41:Generated_Source\PSoC5/LED_Driver2_INT.c **** *
  42:Generated_Source\PSoC5/LED_Driver2_INT.c **** * Reentrant:
  43:Generated_Source\PSoC5/LED_Driver2_INT.c **** *  No.
  44:Generated_Source\PSoC5/LED_Driver2_INT.c **** *
  45:Generated_Source\PSoC5/LED_Driver2_INT.c **** *******************************************************************************/
  46:Generated_Source\PSoC5/LED_Driver2_INT.c **** CY_ISR(LED_Driver2_ISR)
  47:Generated_Source\PSoC5/LED_Driver2_INT.c **** {
  27              		.loc 1 47 0
  28              		.cfi_startproc
  29              		@ args = 0, pretend = 0, frame = 8
  30              		@ frame_needed = 1, uses_anonymous_args = 0
  31 0000 80B5     		push	{r7, lr}
  32              		.cfi_def_cfa_offset 8
  33              		.cfi_offset 7, -8
  34              		.cfi_offset 14, -4
  35 0002 82B0     		sub	sp, sp, #8
  36              		.cfi_def_cfa_offset 16
  37 0004 00AF     		add	r7, sp, #0
  38              		.cfi_def_cfa_register 7
  48:Generated_Source\PSoC5/LED_Driver2_INT.c **** #if (LED_Driver2_MODE_SLAVE_ENABLED)
  49:Generated_Source\PSoC5/LED_Driver2_INT.c ****    uint8  tmp8;
  50:Generated_Source\PSoC5/LED_Driver2_INT.c **** #endif  /* (LED_Driver2_MODE_SLAVE_ENABLED) */
  51:Generated_Source\PSoC5/LED_Driver2_INT.c **** 
  52:Generated_Source\PSoC5/LED_Driver2_INT.c ****     uint8  tmpCsr;
  53:Generated_Source\PSoC5/LED_Driver2_INT.c ****     
  54:Generated_Source\PSoC5/LED_Driver2_INT.c **** #ifdef LED_Driver2_ISR_ENTRY_CALLBACK
  55:Generated_Source\PSoC5/LED_Driver2_INT.c ****     LED_Driver2_ISR_EntryCallback();
  56:Generated_Source\PSoC5/LED_Driver2_INT.c **** #endif /* LED_Driver2_ISR_ENTRY_CALLBACK */
  57:Generated_Source\PSoC5/LED_Driver2_INT.c ****     
  58:Generated_Source\PSoC5/LED_Driver2_INT.c **** 
  59:Generated_Source\PSoC5/LED_Driver2_INT.c **** #if(LED_Driver2_TIMEOUT_FF_ENABLED)
  60:Generated_Source\PSoC5/LED_Driver2_INT.c ****     if(0u != LED_Driver2_TimeoutGetStatus())
  61:Generated_Source\PSoC5/LED_Driver2_INT.c ****     {
  62:Generated_Source\PSoC5/LED_Driver2_INT.c ****         LED_Driver2_TimeoutReset();
  63:Generated_Source\PSoC5/LED_Driver2_INT.c ****         LED_Driver2_state = LED_Driver2_SM_EXIT_IDLE;
  64:Generated_Source\PSoC5/LED_Driver2_INT.c ****         /* LED_Driver2_CSR_REG should be cleared after reset */
  65:Generated_Source\PSoC5/LED_Driver2_INT.c ****     }
  66:Generated_Source\PSoC5/LED_Driver2_INT.c **** #endif /* (LED_Driver2_TIMEOUT_FF_ENABLED) */
  67:Generated_Source\PSoC5/LED_Driver2_INT.c **** 
  68:Generated_Source\PSoC5/LED_Driver2_INT.c **** 
  69:Generated_Source\PSoC5/LED_Driver2_INT.c ****     tmpCsr = LED_Driver2_CSR_REG;      /* Make copy as interrupts clear */
  39              		.loc 1 69 0
  40 0006 A74B     		ldr	r3, .L34
  41 0008 1B78     		ldrb	r3, [r3]
  42 000a FB71     		strb	r3, [r7, #7]
  70:Generated_Source\PSoC5/LED_Driver2_INT.c **** 
  71:Generated_Source\PSoC5/LED_Driver2_INT.c **** #if(LED_Driver2_MODE_MULTI_MASTER_SLAVE_ENABLED)
  72:Generated_Source\PSoC5/LED_Driver2_INT.c ****     if(LED_Driver2_CHECK_START_GEN(LED_Driver2_MCSR_REG))
ARM GAS  D:\Windows\AppData\Local\Temp\cckj3R1l.s 			page 3


  73:Generated_Source\PSoC5/LED_Driver2_INT.c ****     {
  74:Generated_Source\PSoC5/LED_Driver2_INT.c ****         LED_Driver2_CLEAR_START_GEN;
  75:Generated_Source\PSoC5/LED_Driver2_INT.c **** 
  76:Generated_Source\PSoC5/LED_Driver2_INT.c ****         /* Set transfer complete and error flags */
  77:Generated_Source\PSoC5/LED_Driver2_INT.c ****         LED_Driver2_mstrStatus |= (LED_Driver2_MSTAT_ERR_XFER |
  78:Generated_Source\PSoC5/LED_Driver2_INT.c ****                                         LED_Driver2_GET_MSTAT_CMPLT);
  79:Generated_Source\PSoC5/LED_Driver2_INT.c **** 
  80:Generated_Source\PSoC5/LED_Driver2_INT.c ****         /* Slave was addressed */
  81:Generated_Source\PSoC5/LED_Driver2_INT.c ****         LED_Driver2_state = LED_Driver2_SM_SLAVE;
  82:Generated_Source\PSoC5/LED_Driver2_INT.c ****     }
  83:Generated_Source\PSoC5/LED_Driver2_INT.c **** #endif /* (LED_Driver2_MODE_MULTI_MASTER_SLAVE_ENABLED) */
  84:Generated_Source\PSoC5/LED_Driver2_INT.c **** 
  85:Generated_Source\PSoC5/LED_Driver2_INT.c **** 
  86:Generated_Source\PSoC5/LED_Driver2_INT.c **** #if(LED_Driver2_MODE_MULTI_MASTER_ENABLED)
  87:Generated_Source\PSoC5/LED_Driver2_INT.c ****     if(LED_Driver2_CHECK_LOST_ARB(tmpCsr))
  88:Generated_Source\PSoC5/LED_Driver2_INT.c ****     {
  89:Generated_Source\PSoC5/LED_Driver2_INT.c ****         /* Set errors */
  90:Generated_Source\PSoC5/LED_Driver2_INT.c ****         LED_Driver2_mstrStatus |= (LED_Driver2_MSTAT_ERR_XFER     |
  91:Generated_Source\PSoC5/LED_Driver2_INT.c ****                                         LED_Driver2_MSTAT_ERR_ARB_LOST |
  92:Generated_Source\PSoC5/LED_Driver2_INT.c ****                                         LED_Driver2_GET_MSTAT_CMPLT);
  93:Generated_Source\PSoC5/LED_Driver2_INT.c **** 
  94:Generated_Source\PSoC5/LED_Driver2_INT.c ****         LED_Driver2_DISABLE_INT_ON_STOP; /* Interrupt on Stop is enabled by write */
  95:Generated_Source\PSoC5/LED_Driver2_INT.c **** 
  96:Generated_Source\PSoC5/LED_Driver2_INT.c ****         #if(LED_Driver2_MODE_MULTI_MASTER_SLAVE_ENABLED)
  97:Generated_Source\PSoC5/LED_Driver2_INT.c ****             if(LED_Driver2_CHECK_ADDRESS_STS(tmpCsr))
  98:Generated_Source\PSoC5/LED_Driver2_INT.c ****             {
  99:Generated_Source\PSoC5/LED_Driver2_INT.c ****                 /* Slave was addressed */
 100:Generated_Source\PSoC5/LED_Driver2_INT.c ****                 LED_Driver2_state = LED_Driver2_SM_SLAVE;
 101:Generated_Source\PSoC5/LED_Driver2_INT.c ****             }
 102:Generated_Source\PSoC5/LED_Driver2_INT.c ****             else
 103:Generated_Source\PSoC5/LED_Driver2_INT.c ****             {
 104:Generated_Source\PSoC5/LED_Driver2_INT.c ****                 LED_Driver2_BUS_RELEASE;
 105:Generated_Source\PSoC5/LED_Driver2_INT.c **** 
 106:Generated_Source\PSoC5/LED_Driver2_INT.c ****                 LED_Driver2_state = LED_Driver2_SM_EXIT_IDLE;
 107:Generated_Source\PSoC5/LED_Driver2_INT.c ****             }
 108:Generated_Source\PSoC5/LED_Driver2_INT.c ****         #else
 109:Generated_Source\PSoC5/LED_Driver2_INT.c ****             LED_Driver2_BUS_RELEASE;
 110:Generated_Source\PSoC5/LED_Driver2_INT.c **** 
 111:Generated_Source\PSoC5/LED_Driver2_INT.c ****             LED_Driver2_state = LED_Driver2_SM_EXIT_IDLE;
 112:Generated_Source\PSoC5/LED_Driver2_INT.c **** 
 113:Generated_Source\PSoC5/LED_Driver2_INT.c ****         #endif /* (LED_Driver2_MODE_MULTI_MASTER_SLAVE_ENABLED) */
 114:Generated_Source\PSoC5/LED_Driver2_INT.c ****     }
 115:Generated_Source\PSoC5/LED_Driver2_INT.c **** #endif /* (LED_Driver2_MODE_MULTI_MASTER_ENABLED) */
 116:Generated_Source\PSoC5/LED_Driver2_INT.c **** 
 117:Generated_Source\PSoC5/LED_Driver2_INT.c ****     /* Check for master operation mode */
 118:Generated_Source\PSoC5/LED_Driver2_INT.c ****     if(LED_Driver2_CHECK_SM_MASTER)
  43              		.loc 1 118 0
  44 000c A64B     		ldr	r3, .L34+4
  45 000e 1B78     		ldrb	r3, [r3]
  46 0010 DBB2     		uxtb	r3, r3
  47 0012 03F04003 		and	r3, r3, #64
  48 0016 DBB2     		uxtb	r3, r3
  49 0018 002B     		cmp	r3, #0
  50 001a 00F0D081 		beq	.L2
 119:Generated_Source\PSoC5/LED_Driver2_INT.c ****     {
 120:Generated_Source\PSoC5/LED_Driver2_INT.c ****     #if(LED_Driver2_MODE_MASTER_ENABLED)
 121:Generated_Source\PSoC5/LED_Driver2_INT.c ****         if(LED_Driver2_CHECK_BYTE_COMPLETE(tmpCsr))
ARM GAS  D:\Windows\AppData\Local\Temp\cckj3R1l.s 			page 4


  51              		.loc 1 121 0
  52 001e FB79     		ldrb	r3, [r7, #7]	@ zero_extendqisi2
  53 0020 03F00103 		and	r3, r3, #1
  54 0024 002B     		cmp	r3, #0
  55 0026 00F0A781 		beq	.L3
 122:Generated_Source\PSoC5/LED_Driver2_INT.c ****         {
 123:Generated_Source\PSoC5/LED_Driver2_INT.c ****             switch (LED_Driver2_state)
  56              		.loc 1 123 0
  57 002a 9F4B     		ldr	r3, .L34+4
  58 002c 1B78     		ldrb	r3, [r3]
  59 002e DBB2     		uxtb	r3, r3
  60 0030 453B     		subs	r3, r3, #69
  61 0032 052B     		cmp	r3, #5
  62 0034 00F29C81 		bhi	.L4
  63 0038 01A2     		adr	r2, .L6
  64 003a 52F823F0 		ldr	pc, [r2, r3, lsl #2]
  65 003e 00BF     		.p2align 2
  66              	.L6:
  67 0040 59000000 		.word	.L5+1
  68 0044 A1010000 		.word	.L7+1
  69 0048 71030000 		.word	.L4+1
  70 004c 71030000 		.word	.L4+1
  71 0050 59000000 		.word	.L5+1
  72 0054 D9020000 		.word	.L8+1
  73              		.p2align 1
  74              	.L5:
 124:Generated_Source\PSoC5/LED_Driver2_INT.c ****             {
 125:Generated_Source\PSoC5/LED_Driver2_INT.c ****             case LED_Driver2_SM_MSTR_WR_ADDR:  /* After address is sent, write data */
 126:Generated_Source\PSoC5/LED_Driver2_INT.c ****             case LED_Driver2_SM_MSTR_RD_ADDR:  /* After address is sent, read data */
 127:Generated_Source\PSoC5/LED_Driver2_INT.c **** 
 128:Generated_Source\PSoC5/LED_Driver2_INT.c ****                 tmpCsr &= ((uint8) ~LED_Driver2_CSR_STOP_STATUS); /* Clear Stop bit history on addr
  75              		.loc 1 128 0
  76 0058 FB79     		ldrb	r3, [r7, #7]
  77 005a 23F02003 		bic	r3, r3, #32
  78 005e FB71     		strb	r3, [r7, #7]
 129:Generated_Source\PSoC5/LED_Driver2_INT.c **** 
 130:Generated_Source\PSoC5/LED_Driver2_INT.c ****                 if(LED_Driver2_CHECK_ADDR_ACK(tmpCsr))
  79              		.loc 1 130 0
  80 0060 FB79     		ldrb	r3, [r7, #7]
  81 0062 03F00A03 		and	r3, r3, #10
  82 0066 DBB2     		uxtb	r3, r3
  83 0068 082B     		cmp	r3, #8
  84 006a 54D1     		bne	.L9
 131:Generated_Source\PSoC5/LED_Driver2_INT.c ****                 {
 132:Generated_Source\PSoC5/LED_Driver2_INT.c ****                     /* Setup for transmit or receive of data */
 133:Generated_Source\PSoC5/LED_Driver2_INT.c ****                     if(LED_Driver2_state == LED_Driver2_SM_MSTR_WR_ADDR)   /* TRANSMIT data */
  85              		.loc 1 133 0
  86 006c 8E4B     		ldr	r3, .L34+4
  87 006e 1B78     		ldrb	r3, [r3]
  88 0070 DBB2     		uxtb	r3, r3
  89 0072 452B     		cmp	r3, #69
  90 0074 42D1     		bne	.L10
 134:Generated_Source\PSoC5/LED_Driver2_INT.c ****                     {
 135:Generated_Source\PSoC5/LED_Driver2_INT.c ****                         /* Check if at least one byte to transfer */
 136:Generated_Source\PSoC5/LED_Driver2_INT.c ****                         if(LED_Driver2_mstrWrBufSize > 0u)
  91              		.loc 1 136 0
  92 0076 8D4B     		ldr	r3, .L34+8
ARM GAS  D:\Windows\AppData\Local\Temp\cckj3R1l.s 			page 5


  93 0078 1B78     		ldrb	r3, [r3]
  94 007a DBB2     		uxtb	r3, r3
  95 007c 002B     		cmp	r3, #0
  96 007e 15D0     		beq	.L11
 137:Generated_Source\PSoC5/LED_Driver2_INT.c ****                         {
 138:Generated_Source\PSoC5/LED_Driver2_INT.c ****                             /* Load the 1st data byte */
 139:Generated_Source\PSoC5/LED_Driver2_INT.c ****                             LED_Driver2_DATA_REG = LED_Driver2_mstrWrBufPtr[0u];
  97              		.loc 1 139 0
  98 0080 8B4A     		ldr	r2, .L34+12
  99 0082 8C4B     		ldr	r3, .L34+16
 100 0084 1B68     		ldr	r3, [r3]
 101 0086 1B78     		ldrb	r3, [r3]
 102 0088 DBB2     		uxtb	r3, r3
 103 008a 1370     		strb	r3, [r2]
 140:Generated_Source\PSoC5/LED_Driver2_INT.c ****                             LED_Driver2_TRANSMIT_DATA;
 104              		.loc 1 140 0
 105 008c 8A4B     		ldr	r3, .L34+20
 106 008e 0622     		movs	r2, #6
 107 0090 1A70     		strb	r2, [r3]
 108 0092 8A4B     		ldr	r3, .L34+24
 109 0094 FF22     		movs	r2, #255
 110 0096 1A70     		strb	r2, [r3]
 111 0098 894B     		ldr	r3, .L34+28
 112 009a 0022     		movs	r2, #0
 113 009c 1A70     		strb	r2, [r3]
 141:Generated_Source\PSoC5/LED_Driver2_INT.c ****                             LED_Driver2_mstrWrBufIndex = 1u;   /* Set index to 2nd element */
 114              		.loc 1 141 0
 115 009e 894B     		ldr	r3, .L34+32
 116 00a0 0122     		movs	r2, #1
 117 00a2 1A70     		strb	r2, [r3]
 142:Generated_Source\PSoC5/LED_Driver2_INT.c **** 
 143:Generated_Source\PSoC5/LED_Driver2_INT.c ****                             /* Set transmit state until done */
 144:Generated_Source\PSoC5/LED_Driver2_INT.c ****                             LED_Driver2_state = LED_Driver2_SM_MSTR_WR_DATA;
 118              		.loc 1 144 0
 119 00a4 804B     		ldr	r3, .L34+4
 120 00a6 4622     		movs	r2, #70
 121 00a8 1A70     		strb	r2, [r3]
 122 00aa 78E0     		b	.L15
 123              	.L11:
 145:Generated_Source\PSoC5/LED_Driver2_INT.c ****                         }
 146:Generated_Source\PSoC5/LED_Driver2_INT.c ****                         /* End of buffer: complete writing */
 147:Generated_Source\PSoC5/LED_Driver2_INT.c ****                         else if(LED_Driver2_CHECK_NO_STOP(LED_Driver2_mstrControl))
 124              		.loc 1 147 0
 125 00ac 864B     		ldr	r3, .L34+36
 126 00ae 1B78     		ldrb	r3, [r3]
 127 00b0 DBB2     		uxtb	r3, r3
 128 00b2 03F00203 		and	r3, r3, #2
 129 00b6 002B     		cmp	r3, #0
 130 00b8 0ED0     		beq	.L13
 148:Generated_Source\PSoC5/LED_Driver2_INT.c ****                         {
 149:Generated_Source\PSoC5/LED_Driver2_INT.c ****                             /* Set write complete and master halted */
 150:Generated_Source\PSoC5/LED_Driver2_INT.c ****                             LED_Driver2_mstrStatus |= (LED_Driver2_MSTAT_XFER_HALT |
 131              		.loc 1 150 0
 132 00ba 844B     		ldr	r3, .L34+40
 133 00bc 1B78     		ldrb	r3, [r3]
 134 00be DBB2     		uxtb	r3, r3
 135 00c0 43F00A03 		orr	r3, r3, #10
ARM GAS  D:\Windows\AppData\Local\Temp\cckj3R1l.s 			page 6


 136 00c4 DAB2     		uxtb	r2, r3
 137 00c6 814B     		ldr	r3, .L34+40
 138 00c8 1A70     		strb	r2, [r3]
 151:Generated_Source\PSoC5/LED_Driver2_INT.c ****                                                             LED_Driver2_MSTAT_WR_CMPLT);
 152:Generated_Source\PSoC5/LED_Driver2_INT.c **** 
 153:Generated_Source\PSoC5/LED_Driver2_INT.c ****                             LED_Driver2_state = LED_Driver2_SM_MSTR_HALT; /* Expect ReStart */
 139              		.loc 1 153 0
 140 00ca 774B     		ldr	r3, .L34+4
 141 00cc 6022     		movs	r2, #96
 142 00ce 1A70     		strb	r2, [r3]
 154:Generated_Source\PSoC5/LED_Driver2_INT.c ****                             LED_Driver2_DisableInt();
 143              		.loc 1 154 0
 144 00d0 7F4B     		ldr	r3, .L34+44
 145 00d2 0222     		movs	r2, #2
 146 00d4 1A60     		str	r2, [r3]
 147 00d6 62E0     		b	.L15
 148              	.L13:
 155:Generated_Source\PSoC5/LED_Driver2_INT.c ****                         }
 156:Generated_Source\PSoC5/LED_Driver2_INT.c ****                         else
 157:Generated_Source\PSoC5/LED_Driver2_INT.c ****                         {
 158:Generated_Source\PSoC5/LED_Driver2_INT.c ****                             LED_Driver2_ENABLE_INT_ON_STOP; /* Enable interrupt on Stop, to catch i
 149              		.loc 1 158 0
 150 00d8 7E4A     		ldr	r2, .L34+48
 151 00da 7E4B     		ldr	r3, .L34+48
 152 00dc 1B78     		ldrb	r3, [r3]
 153 00de DBB2     		uxtb	r3, r3
 154 00e0 43F02003 		orr	r3, r3, #32
 155 00e4 DBB2     		uxtb	r3, r3
 156 00e6 1370     		strb	r3, [r2]
 159:Generated_Source\PSoC5/LED_Driver2_INT.c ****                             LED_Driver2_GENERATE_STOP;
 157              		.loc 1 159 0
 158 00e8 734B     		ldr	r3, .L34+20
 159 00ea 5222     		movs	r2, #82
 160 00ec 1A70     		strb	r2, [r3]
 161 00ee 734B     		ldr	r3, .L34+24
 162 00f0 FF22     		movs	r2, #255
 163 00f2 1A70     		strb	r2, [r3]
 164 00f4 724B     		ldr	r3, .L34+28
 165 00f6 0022     		movs	r2, #0
 166 00f8 1A70     		strb	r2, [r3]
 167 00fa 50E0     		b	.L15
 168              	.L10:
 160:Generated_Source\PSoC5/LED_Driver2_INT.c ****                         }
 161:Generated_Source\PSoC5/LED_Driver2_INT.c ****                     }
 162:Generated_Source\PSoC5/LED_Driver2_INT.c ****                     else  /* Master receive data */
 163:Generated_Source\PSoC5/LED_Driver2_INT.c ****                     {
 164:Generated_Source\PSoC5/LED_Driver2_INT.c ****                         LED_Driver2_READY_TO_READ; /* Release bus to read data */
 169              		.loc 1 164 0
 170 00fc 6E4B     		ldr	r3, .L34+20
 171 00fe 0222     		movs	r2, #2
 172 0100 1A70     		strb	r2, [r3]
 173 0102 6E4B     		ldr	r3, .L34+24
 174 0104 FF22     		movs	r2, #255
 175 0106 1A70     		strb	r2, [r3]
 176 0108 6D4B     		ldr	r3, .L34+28
 177 010a 0022     		movs	r2, #0
 178 010c 1A70     		strb	r2, [r3]
ARM GAS  D:\Windows\AppData\Local\Temp\cckj3R1l.s 			page 7


 165:Generated_Source\PSoC5/LED_Driver2_INT.c **** 
 166:Generated_Source\PSoC5/LED_Driver2_INT.c ****                         LED_Driver2_state  = LED_Driver2_SM_MSTR_RD_DATA;
 179              		.loc 1 166 0
 180 010e 664B     		ldr	r3, .L34+4
 181 0110 4A22     		movs	r2, #74
 182 0112 1A70     		strb	r2, [r3]
 167:Generated_Source\PSoC5/LED_Driver2_INT.c ****                     }
 168:Generated_Source\PSoC5/LED_Driver2_INT.c ****                 }
 169:Generated_Source\PSoC5/LED_Driver2_INT.c ****                 /* Address is NACKed */
 170:Generated_Source\PSoC5/LED_Driver2_INT.c ****                 else if(LED_Driver2_CHECK_ADDR_NAK(tmpCsr))
 171:Generated_Source\PSoC5/LED_Driver2_INT.c ****                 {
 172:Generated_Source\PSoC5/LED_Driver2_INT.c ****                     /* Set Address NAK error */
 173:Generated_Source\PSoC5/LED_Driver2_INT.c ****                     LED_Driver2_mstrStatus |= (LED_Driver2_MSTAT_ERR_XFER |
 174:Generated_Source\PSoC5/LED_Driver2_INT.c ****                                                     LED_Driver2_MSTAT_ERR_ADDR_NAK);
 175:Generated_Source\PSoC5/LED_Driver2_INT.c **** 
 176:Generated_Source\PSoC5/LED_Driver2_INT.c ****                     if(LED_Driver2_CHECK_NO_STOP(LED_Driver2_mstrControl))
 177:Generated_Source\PSoC5/LED_Driver2_INT.c ****                     {
 178:Generated_Source\PSoC5/LED_Driver2_INT.c ****                         LED_Driver2_mstrStatus |= (LED_Driver2_MSTAT_XFER_HALT |
 179:Generated_Source\PSoC5/LED_Driver2_INT.c ****                                                         LED_Driver2_GET_MSTAT_CMPLT);
 180:Generated_Source\PSoC5/LED_Driver2_INT.c **** 
 181:Generated_Source\PSoC5/LED_Driver2_INT.c ****                         LED_Driver2_state = LED_Driver2_SM_MSTR_HALT; /* Expect RESTART */
 182:Generated_Source\PSoC5/LED_Driver2_INT.c ****                         LED_Driver2_DisableInt();
 183:Generated_Source\PSoC5/LED_Driver2_INT.c ****                     }
 184:Generated_Source\PSoC5/LED_Driver2_INT.c ****                     else  /* Do normal Stop */
 185:Generated_Source\PSoC5/LED_Driver2_INT.c ****                     {
 186:Generated_Source\PSoC5/LED_Driver2_INT.c ****                         LED_Driver2_ENABLE_INT_ON_STOP; /* Enable interrupt on Stop, to catch it */
 187:Generated_Source\PSoC5/LED_Driver2_INT.c ****                         LED_Driver2_GENERATE_STOP;
 188:Generated_Source\PSoC5/LED_Driver2_INT.c ****                     }
 189:Generated_Source\PSoC5/LED_Driver2_INT.c ****                 }
 190:Generated_Source\PSoC5/LED_Driver2_INT.c ****                 else
 191:Generated_Source\PSoC5/LED_Driver2_INT.c ****                 {
 192:Generated_Source\PSoC5/LED_Driver2_INT.c ****                     /* Address phase is not set for some reason: error */
 193:Generated_Source\PSoC5/LED_Driver2_INT.c ****                     #if(LED_Driver2_TIMEOUT_ENABLED)
 194:Generated_Source\PSoC5/LED_Driver2_INT.c ****                         /* Exit interrupt to take chance for timeout timer to handle this case */
 195:Generated_Source\PSoC5/LED_Driver2_INT.c ****                         LED_Driver2_DisableInt();
 196:Generated_Source\PSoC5/LED_Driver2_INT.c ****                         LED_Driver2_ClearPendingInt();
 197:Generated_Source\PSoC5/LED_Driver2_INT.c ****                     #else
 198:Generated_Source\PSoC5/LED_Driver2_INT.c ****                         /* Block execution flow: unexpected condition */
 199:Generated_Source\PSoC5/LED_Driver2_INT.c ****                         CYASSERT(0u != 0u);
 200:Generated_Source\PSoC5/LED_Driver2_INT.c ****                     #endif /* (LED_Driver2_TIMEOUT_ENABLED) */
 201:Generated_Source\PSoC5/LED_Driver2_INT.c ****                 }
 202:Generated_Source\PSoC5/LED_Driver2_INT.c ****                 break;
 183              		.loc 1 202 0
 184 0114 30E1     		b	.L3
 185              	.L9:
 170:Generated_Source\PSoC5/LED_Driver2_INT.c ****                 {
 186              		.loc 1 170 0
 187 0116 FB79     		ldrb	r3, [r7, #7]
 188 0118 03F00A03 		and	r3, r3, #10
 189 011c DBB2     		uxtb	r3, r3
 190 011e 0A2B     		cmp	r3, #10
 191 0120 39D1     		bne	.L16
 173:Generated_Source\PSoC5/LED_Driver2_INT.c ****                                                     LED_Driver2_MSTAT_ERR_ADDR_NAK);
 192              		.loc 1 173 0
 193 0122 6A4B     		ldr	r3, .L34+40
 194 0124 1B78     		ldrb	r3, [r3]
 195 0126 DBB2     		uxtb	r3, r3
ARM GAS  D:\Windows\AppData\Local\Temp\cckj3R1l.s 			page 8


 196 0128 63F05F03 		orn	r3, r3, #95
 197 012c DAB2     		uxtb	r2, r3
 198 012e 674B     		ldr	r3, .L34+40
 199 0130 1A70     		strb	r2, [r3]
 176:Generated_Source\PSoC5/LED_Driver2_INT.c ****                     {
 200              		.loc 1 176 0
 201 0132 654B     		ldr	r3, .L34+36
 202 0134 1B78     		ldrb	r3, [r3]
 203 0136 DBB2     		uxtb	r3, r3
 204 0138 03F00203 		and	r3, r3, #2
 205 013c 002B     		cmp	r3, #0
 206 013e 18D0     		beq	.L17
 179:Generated_Source\PSoC5/LED_Driver2_INT.c **** 
 207              		.loc 1 179 0
 208 0140 594B     		ldr	r3, .L34+4
 209 0142 1B78     		ldrb	r3, [r3]
 210 0144 DBB2     		uxtb	r3, r3
 211 0146 03F00803 		and	r3, r3, #8
 178:Generated_Source\PSoC5/LED_Driver2_INT.c ****                                                         LED_Driver2_GET_MSTAT_CMPLT);
 212              		.loc 1 178 0
 213 014a 002B     		cmp	r3, #0
 214 014c 01D0     		beq	.L18
 178:Generated_Source\PSoC5/LED_Driver2_INT.c ****                                                         LED_Driver2_GET_MSTAT_CMPLT);
 215              		.loc 1 178 0 is_stmt 0 discriminator 1
 216 014e 0923     		movs	r3, #9
 217 0150 00E0     		b	.L19
 218              	.L18:
 178:Generated_Source\PSoC5/LED_Driver2_INT.c ****                                                         LED_Driver2_GET_MSTAT_CMPLT);
 219              		.loc 1 178 0 discriminator 2
 220 0152 0A23     		movs	r3, #10
 221              	.L19:
 178:Generated_Source\PSoC5/LED_Driver2_INT.c ****                                                         LED_Driver2_GET_MSTAT_CMPLT);
 222              		.loc 1 178 0 discriminator 4
 223 0154 DAB2     		uxtb	r2, r3
 224 0156 5D4B     		ldr	r3, .L34+40
 225 0158 1B78     		ldrb	r3, [r3]
 226 015a DBB2     		uxtb	r3, r3
 227 015c 1343     		orrs	r3, r3, r2
 228 015e DAB2     		uxtb	r2, r3
 229 0160 5A4B     		ldr	r3, .L34+40
 230 0162 1A70     		strb	r2, [r3]
 181:Generated_Source\PSoC5/LED_Driver2_INT.c ****                         LED_Driver2_DisableInt();
 231              		.loc 1 181 0 is_stmt 1 discriminator 4
 232 0164 504B     		ldr	r3, .L34+4
 233 0166 6022     		movs	r2, #96
 234 0168 1A70     		strb	r2, [r3]
 182:Generated_Source\PSoC5/LED_Driver2_INT.c ****                     }
 235              		.loc 1 182 0 discriminator 4
 236 016a 594B     		ldr	r3, .L34+44
 237 016c 0222     		movs	r2, #2
 238 016e 1A60     		str	r2, [r3]
 239 0170 15E0     		b	.L15
 240              	.L17:
 186:Generated_Source\PSoC5/LED_Driver2_INT.c ****                         LED_Driver2_GENERATE_STOP;
 241              		.loc 1 186 0
 242 0172 584A     		ldr	r2, .L34+48
 243 0174 574B     		ldr	r3, .L34+48
ARM GAS  D:\Windows\AppData\Local\Temp\cckj3R1l.s 			page 9


 244 0176 1B78     		ldrb	r3, [r3]
 245 0178 DBB2     		uxtb	r3, r3
 246 017a 43F02003 		orr	r3, r3, #32
 247 017e DBB2     		uxtb	r3, r3
 248 0180 1370     		strb	r3, [r2]
 187:Generated_Source\PSoC5/LED_Driver2_INT.c ****                     }
 249              		.loc 1 187 0
 250 0182 4D4B     		ldr	r3, .L34+20
 251 0184 5222     		movs	r2, #82
 252 0186 1A70     		strb	r2, [r3]
 253 0188 4C4B     		ldr	r3, .L34+24
 254 018a FF22     		movs	r2, #255
 255 018c 1A70     		strb	r2, [r3]
 256 018e 4C4B     		ldr	r3, .L34+28
 257 0190 0022     		movs	r2, #0
 258 0192 1A70     		strb	r2, [r3]
 259              		.loc 1 202 0
 260 0194 F0E0     		b	.L3
 261              	.L16:
 199:Generated_Source\PSoC5/LED_Driver2_INT.c ****                     #endif /* (LED_Driver2_TIMEOUT_ENABLED) */
 262              		.loc 1 199 0 discriminator 1
 263 0196 0020     		movs	r0, #0
 264 0198 FFF7FEFF 		bl	CyHalt
 265              		.loc 1 202 0 discriminator 1
 266 019c ECE0     		b	.L3
 267              	.L15:
 268              		.loc 1 202 0 is_stmt 0 discriminator 2
 269 019e EBE0     		b	.L3
 270              	.L7:
 203:Generated_Source\PSoC5/LED_Driver2_INT.c **** 
 204:Generated_Source\PSoC5/LED_Driver2_INT.c ****             case LED_Driver2_SM_MSTR_WR_DATA:
 205:Generated_Source\PSoC5/LED_Driver2_INT.c **** 
 206:Generated_Source\PSoC5/LED_Driver2_INT.c ****                 if(LED_Driver2_CHECK_DATA_ACK(tmpCsr))
 271              		.loc 1 206 0 is_stmt 1
 272 01a0 FB79     		ldrb	r3, [r7, #7]	@ zero_extendqisi2
 273 01a2 03F00203 		and	r3, r3, #2
 274 01a6 002B     		cmp	r3, #0
 275 01a8 4AD1     		bne	.L21
 207:Generated_Source\PSoC5/LED_Driver2_INT.c ****                 {
 208:Generated_Source\PSoC5/LED_Driver2_INT.c ****                     /* Check if end of buffer */
 209:Generated_Source\PSoC5/LED_Driver2_INT.c ****                     if(LED_Driver2_mstrWrBufIndex  < LED_Driver2_mstrWrBufSize)
 276              		.loc 1 209 0
 277 01aa 464B     		ldr	r3, .L34+32
 278 01ac 1B78     		ldrb	r3, [r3]
 279 01ae DAB2     		uxtb	r2, r3
 280 01b0 3E4B     		ldr	r3, .L34+8
 281 01b2 1B78     		ldrb	r3, [r3]
 282 01b4 DBB2     		uxtb	r3, r3
 283 01b6 9A42     		cmp	r2, r3
 284 01b8 1AD2     		bcs	.L22
 210:Generated_Source\PSoC5/LED_Driver2_INT.c ****                     {
 211:Generated_Source\PSoC5/LED_Driver2_INT.c ****                         LED_Driver2_DATA_REG =
 285              		.loc 1 211 0
 286 01ba 3D4A     		ldr	r2, .L34+12
 212:Generated_Source\PSoC5/LED_Driver2_INT.c ****                                                  LED_Driver2_mstrWrBufPtr[LED_Driver2_mstrWrBufInde
 287              		.loc 1 212 0
 288 01bc 3D4B     		ldr	r3, .L34+16
ARM GAS  D:\Windows\AppData\Local\Temp\cckj3R1l.s 			page 10


 289 01be 1B68     		ldr	r3, [r3]
 290 01c0 4049     		ldr	r1, .L34+32
 291 01c2 0978     		ldrb	r1, [r1]
 292 01c4 C9B2     		uxtb	r1, r1
 293 01c6 0B44     		add	r3, r3, r1
 294 01c8 1B78     		ldrb	r3, [r3]
 295 01ca DBB2     		uxtb	r3, r3
 211:Generated_Source\PSoC5/LED_Driver2_INT.c ****                                                  LED_Driver2_mstrWrBufPtr[LED_Driver2_mstrWrBufInde
 296              		.loc 1 211 0
 297 01cc 1370     		strb	r3, [r2]
 213:Generated_Source\PSoC5/LED_Driver2_INT.c ****                         LED_Driver2_TRANSMIT_DATA;
 298              		.loc 1 213 0
 299 01ce 3A4B     		ldr	r3, .L34+20
 300 01d0 0622     		movs	r2, #6
 301 01d2 1A70     		strb	r2, [r3]
 302 01d4 394B     		ldr	r3, .L34+24
 303 01d6 FF22     		movs	r2, #255
 304 01d8 1A70     		strb	r2, [r3]
 305 01da 394B     		ldr	r3, .L34+28
 306 01dc 0022     		movs	r2, #0
 307 01de 1A70     		strb	r2, [r3]
 214:Generated_Source\PSoC5/LED_Driver2_INT.c ****                         LED_Driver2_mstrWrBufIndex++;
 308              		.loc 1 214 0
 309 01e0 384B     		ldr	r3, .L34+32
 310 01e2 1B78     		ldrb	r3, [r3]
 311 01e4 DBB2     		uxtb	r3, r3
 312 01e6 0133     		adds	r3, r3, #1
 313 01e8 DAB2     		uxtb	r2, r3
 314 01ea 364B     		ldr	r3, .L34+32
 315 01ec 1A70     		strb	r2, [r3]
 316 01ee 57E0     		b	.L25
 317              	.L22:
 215:Generated_Source\PSoC5/LED_Driver2_INT.c ****                     }
 216:Generated_Source\PSoC5/LED_Driver2_INT.c ****                     /* End of buffer: complete writing */
 217:Generated_Source\PSoC5/LED_Driver2_INT.c ****                     else if(LED_Driver2_CHECK_NO_STOP(LED_Driver2_mstrControl))
 318              		.loc 1 217 0
 319 01f0 354B     		ldr	r3, .L34+36
 320 01f2 1B78     		ldrb	r3, [r3]
 321 01f4 DBB2     		uxtb	r3, r3
 322 01f6 03F00203 		and	r3, r3, #2
 323 01fa 002B     		cmp	r3, #0
 324 01fc 0ED0     		beq	.L24
 218:Generated_Source\PSoC5/LED_Driver2_INT.c ****                     {
 219:Generated_Source\PSoC5/LED_Driver2_INT.c ****                         /* Set write complete and master halted */
 220:Generated_Source\PSoC5/LED_Driver2_INT.c ****                         LED_Driver2_mstrStatus |= (LED_Driver2_MSTAT_XFER_HALT |
 325              		.loc 1 220 0
 326 01fe 334B     		ldr	r3, .L34+40
 327 0200 1B78     		ldrb	r3, [r3]
 328 0202 DBB2     		uxtb	r3, r3
 329 0204 43F00A03 		orr	r3, r3, #10
 330 0208 DAB2     		uxtb	r2, r3
 331 020a 304B     		ldr	r3, .L34+40
 332 020c 1A70     		strb	r2, [r3]
 221:Generated_Source\PSoC5/LED_Driver2_INT.c ****                                                         LED_Driver2_MSTAT_WR_CMPLT);
 222:Generated_Source\PSoC5/LED_Driver2_INT.c **** 
 223:Generated_Source\PSoC5/LED_Driver2_INT.c ****                         LED_Driver2_state = LED_Driver2_SM_MSTR_HALT;    /* Expect restart */
 333              		.loc 1 223 0
ARM GAS  D:\Windows\AppData\Local\Temp\cckj3R1l.s 			page 11


 334 020e 264B     		ldr	r3, .L34+4
 335 0210 6022     		movs	r2, #96
 336 0212 1A70     		strb	r2, [r3]
 224:Generated_Source\PSoC5/LED_Driver2_INT.c ****                         LED_Driver2_DisableInt();
 337              		.loc 1 224 0
 338 0214 2E4B     		ldr	r3, .L34+44
 339 0216 0222     		movs	r2, #2
 340 0218 1A60     		str	r2, [r3]
 341 021a 41E0     		b	.L25
 342              	.L24:
 225:Generated_Source\PSoC5/LED_Driver2_INT.c ****                     }
 226:Generated_Source\PSoC5/LED_Driver2_INT.c ****                     else  /* Do normal Stop */
 227:Generated_Source\PSoC5/LED_Driver2_INT.c ****                     {
 228:Generated_Source\PSoC5/LED_Driver2_INT.c ****                         LED_Driver2_ENABLE_INT_ON_STOP;    /* Enable interrupt on Stop, to catch it
 343              		.loc 1 228 0
 344 021c 2D4A     		ldr	r2, .L34+48
 345 021e 2D4B     		ldr	r3, .L34+48
 346 0220 1B78     		ldrb	r3, [r3]
 347 0222 DBB2     		uxtb	r3, r3
 348 0224 43F02003 		orr	r3, r3, #32
 349 0228 DBB2     		uxtb	r3, r3
 350 022a 1370     		strb	r3, [r2]
 229:Generated_Source\PSoC5/LED_Driver2_INT.c ****                         LED_Driver2_GENERATE_STOP;
 351              		.loc 1 229 0
 352 022c 224B     		ldr	r3, .L34+20
 353 022e 5222     		movs	r2, #82
 354 0230 1A70     		strb	r2, [r3]
 355 0232 224B     		ldr	r3, .L34+24
 356 0234 FF22     		movs	r2, #255
 357 0236 1A70     		strb	r2, [r3]
 358 0238 214B     		ldr	r3, .L34+28
 359 023a 0022     		movs	r2, #0
 360 023c 1A70     		strb	r2, [r3]
 230:Generated_Source\PSoC5/LED_Driver2_INT.c ****                     }
 231:Generated_Source\PSoC5/LED_Driver2_INT.c ****                 }
 232:Generated_Source\PSoC5/LED_Driver2_INT.c ****                 /* Last byte NAKed: end writing */
 233:Generated_Source\PSoC5/LED_Driver2_INT.c ****                 else if(LED_Driver2_CHECK_NO_STOP(LED_Driver2_mstrControl))
 234:Generated_Source\PSoC5/LED_Driver2_INT.c ****                 {
 235:Generated_Source\PSoC5/LED_Driver2_INT.c ****                     /* Set write complete, short transfer and master halted */
 236:Generated_Source\PSoC5/LED_Driver2_INT.c ****                     LED_Driver2_mstrStatus |= (LED_Driver2_MSTAT_ERR_XFER       |
 237:Generated_Source\PSoC5/LED_Driver2_INT.c ****                                                     LED_Driver2_MSTAT_ERR_SHORT_XFER |
 238:Generated_Source\PSoC5/LED_Driver2_INT.c ****                                                     LED_Driver2_MSTAT_XFER_HALT      |
 239:Generated_Source\PSoC5/LED_Driver2_INT.c ****                                                     LED_Driver2_MSTAT_WR_CMPLT);
 240:Generated_Source\PSoC5/LED_Driver2_INT.c **** 
 241:Generated_Source\PSoC5/LED_Driver2_INT.c ****                     LED_Driver2_state = LED_Driver2_SM_MSTR_HALT;    /* Expect ReStart */
 242:Generated_Source\PSoC5/LED_Driver2_INT.c ****                     LED_Driver2_DisableInt();
 243:Generated_Source\PSoC5/LED_Driver2_INT.c ****                 }
 244:Generated_Source\PSoC5/LED_Driver2_INT.c ****                 else  /* Do normal Stop */
 245:Generated_Source\PSoC5/LED_Driver2_INT.c ****                 {
 246:Generated_Source\PSoC5/LED_Driver2_INT.c ****                     LED_Driver2_ENABLE_INT_ON_STOP;    /* Enable interrupt on Stop, to catch it */
 247:Generated_Source\PSoC5/LED_Driver2_INT.c ****                     LED_Driver2_GENERATE_STOP;
 248:Generated_Source\PSoC5/LED_Driver2_INT.c **** 
 249:Generated_Source\PSoC5/LED_Driver2_INT.c ****                     /* Set short transfer and error flag */
 250:Generated_Source\PSoC5/LED_Driver2_INT.c ****                     LED_Driver2_mstrStatus |= (LED_Driver2_MSTAT_ERR_SHORT_XFER |
 251:Generated_Source\PSoC5/LED_Driver2_INT.c ****                                                     LED_Driver2_MSTAT_ERR_XFER);
 252:Generated_Source\PSoC5/LED_Driver2_INT.c ****                 }
 253:Generated_Source\PSoC5/LED_Driver2_INT.c **** 
ARM GAS  D:\Windows\AppData\Local\Temp\cckj3R1l.s 			page 12


 254:Generated_Source\PSoC5/LED_Driver2_INT.c ****                 break;
 361              		.loc 1 254 0
 362 023e 9BE0     		b	.L3
 363              	.L21:
 233:Generated_Source\PSoC5/LED_Driver2_INT.c ****                 {
 364              		.loc 1 233 0
 365 0240 214B     		ldr	r3, .L34+36
 366 0242 1B78     		ldrb	r3, [r3]
 367 0244 DBB2     		uxtb	r3, r3
 368 0246 03F00203 		and	r3, r3, #2
 369 024a 002B     		cmp	r3, #0
 370 024c 0ED0     		beq	.L26
 236:Generated_Source\PSoC5/LED_Driver2_INT.c ****                                                     LED_Driver2_MSTAT_ERR_SHORT_XFER |
 371              		.loc 1 236 0
 372 024e 1F4B     		ldr	r3, .L34+40
 373 0250 1B78     		ldrb	r3, [r3]
 374 0252 DBB2     		uxtb	r3, r3
 375 0254 63F06503 		orn	r3, r3, #101
 376 0258 DAB2     		uxtb	r2, r3
 377 025a 1C4B     		ldr	r3, .L34+40
 378 025c 1A70     		strb	r2, [r3]
 241:Generated_Source\PSoC5/LED_Driver2_INT.c ****                     LED_Driver2_DisableInt();
 379              		.loc 1 241 0
 380 025e 124B     		ldr	r3, .L34+4
 381 0260 6022     		movs	r2, #96
 382 0262 1A70     		strb	r2, [r3]
 242:Generated_Source\PSoC5/LED_Driver2_INT.c ****                 }
 383              		.loc 1 242 0
 384 0264 1A4B     		ldr	r3, .L34+44
 385 0266 0222     		movs	r2, #2
 386 0268 1A60     		str	r2, [r3]
 387 026a 19E0     		b	.L25
 388              	.L26:
 246:Generated_Source\PSoC5/LED_Driver2_INT.c ****                     LED_Driver2_GENERATE_STOP;
 389              		.loc 1 246 0
 390 026c 194A     		ldr	r2, .L34+48
 391 026e 194B     		ldr	r3, .L34+48
 392 0270 1B78     		ldrb	r3, [r3]
 393 0272 DBB2     		uxtb	r3, r3
 394 0274 43F02003 		orr	r3, r3, #32
 395 0278 DBB2     		uxtb	r3, r3
 396 027a 1370     		strb	r3, [r2]
 247:Generated_Source\PSoC5/LED_Driver2_INT.c **** 
 397              		.loc 1 247 0
 398 027c 0E4B     		ldr	r3, .L34+20
 399 027e 5222     		movs	r2, #82
 400 0280 1A70     		strb	r2, [r3]
 401 0282 0E4B     		ldr	r3, .L34+24
 402 0284 FF22     		movs	r2, #255
 403 0286 1A70     		strb	r2, [r3]
 404 0288 0D4B     		ldr	r3, .L34+28
 405 028a 0022     		movs	r2, #0
 406 028c 1A70     		strb	r2, [r3]
 250:Generated_Source\PSoC5/LED_Driver2_INT.c ****                                                     LED_Driver2_MSTAT_ERR_XFER);
 407              		.loc 1 250 0
 408 028e 0F4B     		ldr	r3, .L34+40
 409 0290 1B78     		ldrb	r3, [r3]
ARM GAS  D:\Windows\AppData\Local\Temp\cckj3R1l.s 			page 13


 410 0292 DBB2     		uxtb	r3, r3
 411 0294 63F06F03 		orn	r3, r3, #111
 412 0298 DAB2     		uxtb	r2, r3
 413 029a 0C4B     		ldr	r3, .L34+40
 414 029c 1A70     		strb	r2, [r3]
 415              		.loc 1 254 0
 416 029e 6BE0     		b	.L3
 417              	.L25:
 418              		.loc 1 254 0 is_stmt 0 discriminator 4
 419 02a0 6AE0     		b	.L3
 420              	.L35:
 421 02a2 00BF     		.align	2
 422              	.L34:
 423 02a4 6C640040 		.word	1073767532
 424 02a8 00000000 		.word	LED_Driver2_state
 425 02ac 00000000 		.word	LED_Driver2_mstrWrBufSize
 426 02b0 0C640040 		.word	1073767436
 427 02b4 00000000 		.word	LED_Driver2_mstrWrBufPtr
 428 02b8 7F640040 		.word	1073767551
 429 02bc 1C640040 		.word	1073767452
 430 02c0 5C640040 		.word	1073767516
 431 02c4 00000000 		.word	LED_Driver2_mstrWrBufIndex
 432 02c8 00000000 		.word	LED_Driver2_mstrControl
 433 02cc 00000000 		.word	LED_Driver2_mstrStatus
 434 02d0 80E100E0 		.word	-536813184
 435 02d4 8C640040 		.word	1073767564
 436              	.L8:
 255:Generated_Source\PSoC5/LED_Driver2_INT.c **** 
 256:Generated_Source\PSoC5/LED_Driver2_INT.c ****             case LED_Driver2_SM_MSTR_RD_DATA:
 257:Generated_Source\PSoC5/LED_Driver2_INT.c **** 
 258:Generated_Source\PSoC5/LED_Driver2_INT.c ****                 LED_Driver2_mstrRdBufPtr[LED_Driver2_mstrRdBufIndex] = LED_Driver2_DATA_REG;
 437              		.loc 1 258 0 is_stmt 1
 438 02d8 404B     		ldr	r3, .L36
 439 02da 1B68     		ldr	r3, [r3]
 440 02dc 404A     		ldr	r2, .L36+4
 441 02de 1278     		ldrb	r2, [r2]
 442 02e0 D2B2     		uxtb	r2, r2
 443 02e2 1344     		add	r3, r3, r2
 444 02e4 3F4A     		ldr	r2, .L36+8
 445 02e6 1278     		ldrb	r2, [r2]
 446 02e8 D2B2     		uxtb	r2, r2
 447 02ea 1A70     		strb	r2, [r3]
 259:Generated_Source\PSoC5/LED_Driver2_INT.c ****                 LED_Driver2_mstrRdBufIndex++;
 448              		.loc 1 259 0
 449 02ec 3C4B     		ldr	r3, .L36+4
 450 02ee 1B78     		ldrb	r3, [r3]
 451 02f0 DBB2     		uxtb	r3, r3
 452 02f2 0133     		adds	r3, r3, #1
 453 02f4 DAB2     		uxtb	r2, r3
 454 02f6 3A4B     		ldr	r3, .L36+4
 455 02f8 1A70     		strb	r2, [r3]
 260:Generated_Source\PSoC5/LED_Driver2_INT.c **** 
 261:Generated_Source\PSoC5/LED_Driver2_INT.c ****                 /* Check if end of buffer */
 262:Generated_Source\PSoC5/LED_Driver2_INT.c ****                 if(LED_Driver2_mstrRdBufIndex < LED_Driver2_mstrRdBufSize)
 456              		.loc 1 262 0
 457 02fa 394B     		ldr	r3, .L36+4
 458 02fc 1B78     		ldrb	r3, [r3]
ARM GAS  D:\Windows\AppData\Local\Temp\cckj3R1l.s 			page 14


 459 02fe DAB2     		uxtb	r2, r3
 460 0300 394B     		ldr	r3, .L36+12
 461 0302 1B78     		ldrb	r3, [r3]
 462 0304 DBB2     		uxtb	r3, r3
 463 0306 9A42     		cmp	r2, r3
 464 0308 09D2     		bcs	.L27
 263:Generated_Source\PSoC5/LED_Driver2_INT.c ****                 {
 264:Generated_Source\PSoC5/LED_Driver2_INT.c ****                     LED_Driver2_ACK_AND_RECEIVE;       /* ACK and receive byte */
 465              		.loc 1 264 0
 466 030a 384B     		ldr	r3, .L36+16
 467 030c 0222     		movs	r2, #2
 468 030e 1A70     		strb	r2, [r3]
 469 0310 374B     		ldr	r3, .L36+20
 470 0312 FF22     		movs	r2, #255
 471 0314 1A70     		strb	r2, [r3]
 472 0316 374B     		ldr	r3, .L36+24
 473 0318 0022     		movs	r2, #0
 474 031a 1A70     		strb	r2, [r3]
 475 031c 27E0     		b	.L28
 476              	.L27:
 265:Generated_Source\PSoC5/LED_Driver2_INT.c ****                 }
 266:Generated_Source\PSoC5/LED_Driver2_INT.c ****                 /* End of buffer: complete reading */
 267:Generated_Source\PSoC5/LED_Driver2_INT.c ****                 else if(LED_Driver2_CHECK_NO_STOP(LED_Driver2_mstrControl))
 477              		.loc 1 267 0
 478 031e 364B     		ldr	r3, .L36+28
 479 0320 1B78     		ldrb	r3, [r3]
 480 0322 DBB2     		uxtb	r3, r3
 481 0324 03F00203 		and	r3, r3, #2
 482 0328 002B     		cmp	r3, #0
 483 032a 0ED0     		beq	.L29
 268:Generated_Source\PSoC5/LED_Driver2_INT.c ****                 {
 269:Generated_Source\PSoC5/LED_Driver2_INT.c ****                     /* Set read complete and master halted */
 270:Generated_Source\PSoC5/LED_Driver2_INT.c ****                     LED_Driver2_mstrStatus |= (LED_Driver2_MSTAT_XFER_HALT |
 484              		.loc 1 270 0
 485 032c 334B     		ldr	r3, .L36+32
 486 032e 1B78     		ldrb	r3, [r3]
 487 0330 DBB2     		uxtb	r3, r3
 488 0332 43F00903 		orr	r3, r3, #9
 489 0336 DAB2     		uxtb	r2, r3
 490 0338 304B     		ldr	r3, .L36+32
 491 033a 1A70     		strb	r2, [r3]
 271:Generated_Source\PSoC5/LED_Driver2_INT.c ****                                                     LED_Driver2_MSTAT_RD_CMPLT);
 272:Generated_Source\PSoC5/LED_Driver2_INT.c **** 
 273:Generated_Source\PSoC5/LED_Driver2_INT.c ****                     LED_Driver2_state = LED_Driver2_SM_MSTR_HALT;    /* Expect ReStart */
 492              		.loc 1 273 0
 493 033c 304B     		ldr	r3, .L36+36
 494 033e 6022     		movs	r2, #96
 495 0340 1A70     		strb	r2, [r3]
 274:Generated_Source\PSoC5/LED_Driver2_INT.c ****                     LED_Driver2_DisableInt();
 496              		.loc 1 274 0
 497 0342 304B     		ldr	r3, .L36+40
 498 0344 0222     		movs	r2, #2
 499 0346 1A60     		str	r2, [r3]
 500 0348 11E0     		b	.L28
 501              	.L29:
 275:Generated_Source\PSoC5/LED_Driver2_INT.c ****                 }
 276:Generated_Source\PSoC5/LED_Driver2_INT.c ****                 else
ARM GAS  D:\Windows\AppData\Local\Temp\cckj3R1l.s 			page 15


 277:Generated_Source\PSoC5/LED_Driver2_INT.c ****                 {
 278:Generated_Source\PSoC5/LED_Driver2_INT.c ****                     LED_Driver2_ENABLE_INT_ON_STOP;
 502              		.loc 1 278 0
 503 034a 2F4A     		ldr	r2, .L36+44
 504 034c 2E4B     		ldr	r3, .L36+44
 505 034e 1B78     		ldrb	r3, [r3]
 506 0350 DBB2     		uxtb	r3, r3
 507 0352 43F02003 		orr	r3, r3, #32
 508 0356 DBB2     		uxtb	r3, r3
 509 0358 1370     		strb	r3, [r2]
 279:Generated_Source\PSoC5/LED_Driver2_INT.c ****                     LED_Driver2_NAK_AND_RECEIVE;       /* NACK and TRY to generate Stop */
 510              		.loc 1 279 0
 511 035a 244B     		ldr	r3, .L36+16
 512 035c 1222     		movs	r2, #18
 513 035e 1A70     		strb	r2, [r3]
 514 0360 234B     		ldr	r3, .L36+20
 515 0362 FF22     		movs	r2, #255
 516 0364 1A70     		strb	r2, [r3]
 517 0366 234B     		ldr	r3, .L36+24
 518 0368 0022     		movs	r2, #0
 519 036a 1A70     		strb	r2, [r3]
 280:Generated_Source\PSoC5/LED_Driver2_INT.c ****                 }
 281:Generated_Source\PSoC5/LED_Driver2_INT.c ****                 break;
 520              		.loc 1 281 0
 521 036c 04E0     		b	.L3
 522              	.L28:
 523 036e 03E0     		b	.L3
 524              	.L4:
 282:Generated_Source\PSoC5/LED_Driver2_INT.c **** 
 283:Generated_Source\PSoC5/LED_Driver2_INT.c ****             default: /* This is an invalid state and should not occur */
 284:Generated_Source\PSoC5/LED_Driver2_INT.c **** 
 285:Generated_Source\PSoC5/LED_Driver2_INT.c ****             #if(LED_Driver2_TIMEOUT_ENABLED)
 286:Generated_Source\PSoC5/LED_Driver2_INT.c ****                 /* Exit interrupt to take chance for timeout timer to handles this case */
 287:Generated_Source\PSoC5/LED_Driver2_INT.c ****                 LED_Driver2_DisableInt();
 288:Generated_Source\PSoC5/LED_Driver2_INT.c ****                 LED_Driver2_ClearPendingInt();
 289:Generated_Source\PSoC5/LED_Driver2_INT.c ****             #else
 290:Generated_Source\PSoC5/LED_Driver2_INT.c ****                 /* Block execution flow: unexpected condition */
 291:Generated_Source\PSoC5/LED_Driver2_INT.c ****                 CYASSERT(0u != 0u);
 525              		.loc 1 291 0
 526 0370 0020     		movs	r0, #0
 527 0372 FFF7FEFF 		bl	CyHalt
 292:Generated_Source\PSoC5/LED_Driver2_INT.c ****             #endif /* (LED_Driver2_TIMEOUT_ENABLED) */
 293:Generated_Source\PSoC5/LED_Driver2_INT.c **** 
 294:Generated_Source\PSoC5/LED_Driver2_INT.c ****                 break;
 528              		.loc 1 294 0
 529 0376 00BF     		nop
 530              	.L3:
 295:Generated_Source\PSoC5/LED_Driver2_INT.c ****             }
 296:Generated_Source\PSoC5/LED_Driver2_INT.c ****         }
 297:Generated_Source\PSoC5/LED_Driver2_INT.c **** 
 298:Generated_Source\PSoC5/LED_Driver2_INT.c ****         /* Catches Stop: end of transaction */
 299:Generated_Source\PSoC5/LED_Driver2_INT.c ****         if(LED_Driver2_CHECK_STOP_STS(tmpCsr))
 531              		.loc 1 299 0
 532 0378 FB79     		ldrb	r3, [r7, #7]	@ zero_extendqisi2
 533 037a 03F02003 		and	r3, r3, #32
 534 037e 002B     		cmp	r3, #0
 535 0380 28D0     		beq	.L1
ARM GAS  D:\Windows\AppData\Local\Temp\cckj3R1l.s 			page 16


 300:Generated_Source\PSoC5/LED_Driver2_INT.c ****         {
 301:Generated_Source\PSoC5/LED_Driver2_INT.c ****             LED_Driver2_mstrStatus |= LED_Driver2_GET_MSTAT_CMPLT;
 536              		.loc 1 301 0
 537 0382 1F4B     		ldr	r3, .L36+36
 538 0384 1B78     		ldrb	r3, [r3]
 539 0386 DBB2     		uxtb	r3, r3
 540 0388 03F00803 		and	r3, r3, #8
 541 038c 002B     		cmp	r3, #0
 542 038e 01D0     		beq	.L31
 543              		.loc 1 301 0 is_stmt 0 discriminator 1
 544 0390 0123     		movs	r3, #1
 545 0392 00E0     		b	.L32
 546              	.L31:
 547              		.loc 1 301 0 discriminator 2
 548 0394 0223     		movs	r3, #2
 549              	.L32:
 550              		.loc 1 301 0 discriminator 4
 551 0396 DAB2     		uxtb	r2, r3
 552 0398 184B     		ldr	r3, .L36+32
 553 039a 1B78     		ldrb	r3, [r3]
 554 039c DBB2     		uxtb	r3, r3
 555 039e 1343     		orrs	r3, r3, r2
 556 03a0 DAB2     		uxtb	r2, r3
 557 03a2 164B     		ldr	r3, .L36+32
 558 03a4 1A70     		strb	r2, [r3]
 302:Generated_Source\PSoC5/LED_Driver2_INT.c **** 
 303:Generated_Source\PSoC5/LED_Driver2_INT.c ****             LED_Driver2_DISABLE_INT_ON_STOP;
 559              		.loc 1 303 0 is_stmt 1 discriminator 4
 560 03a6 184A     		ldr	r2, .L36+44
 561 03a8 174B     		ldr	r3, .L36+44
 562 03aa 1B78     		ldrb	r3, [r3]
 563 03ac DBB2     		uxtb	r3, r3
 564 03ae 23F02003 		bic	r3, r3, #32
 565 03b2 DBB2     		uxtb	r3, r3
 566 03b4 1370     		strb	r3, [r2]
 304:Generated_Source\PSoC5/LED_Driver2_INT.c ****             LED_Driver2_state = LED_Driver2_SM_IDLE;
 567              		.loc 1 304 0 discriminator 4
 568 03b6 124B     		ldr	r3, .L36+36
 569 03b8 1022     		movs	r2, #16
 570 03ba 1A70     		strb	r2, [r3]
 571 03bc 0AE0     		b	.L1
 572              	.L2:
 305:Generated_Source\PSoC5/LED_Driver2_INT.c ****         }
 306:Generated_Source\PSoC5/LED_Driver2_INT.c ****     #endif /* (LED_Driver2_MODE_MASTER_ENABLED) */
 307:Generated_Source\PSoC5/LED_Driver2_INT.c ****     }
 308:Generated_Source\PSoC5/LED_Driver2_INT.c ****     else if(LED_Driver2_CHECK_SM_SLAVE)
 573              		.loc 1 308 0
 574 03be 104B     		ldr	r3, .L36+36
 575 03c0 1B78     		ldrb	r3, [r3]
 576 03c2 DBB2     		uxtb	r3, r3
 577 03c4 03F01003 		and	r3, r3, #16
 578 03c8 DBB2     		uxtb	r3, r3
 579 03ca 002B     		cmp	r3, #0
 580 03cc 02D1     		bne	.L1
 309:Generated_Source\PSoC5/LED_Driver2_INT.c ****     {
 310:Generated_Source\PSoC5/LED_Driver2_INT.c ****     #if(LED_Driver2_MODE_SLAVE_ENABLED)
 311:Generated_Source\PSoC5/LED_Driver2_INT.c **** 
ARM GAS  D:\Windows\AppData\Local\Temp\cckj3R1l.s 			page 17


 312:Generated_Source\PSoC5/LED_Driver2_INT.c ****         if((LED_Driver2_CHECK_STOP_STS(tmpCsr)) || /* Stop || Restart */
 313:Generated_Source\PSoC5/LED_Driver2_INT.c ****            (LED_Driver2_CHECK_BYTE_COMPLETE(tmpCsr) && LED_Driver2_CHECK_ADDRESS_STS(tmpCsr)))
 314:Generated_Source\PSoC5/LED_Driver2_INT.c ****         {
 315:Generated_Source\PSoC5/LED_Driver2_INT.c ****             /* Catch end of master write transaction: use interrupt on Stop */
 316:Generated_Source\PSoC5/LED_Driver2_INT.c ****             /* The Stop bit history on address phase does not have correct state */
 317:Generated_Source\PSoC5/LED_Driver2_INT.c ****             if(LED_Driver2_SM_SL_WR_DATA == LED_Driver2_state)
 318:Generated_Source\PSoC5/LED_Driver2_INT.c ****             {
 319:Generated_Source\PSoC5/LED_Driver2_INT.c ****                 LED_Driver2_DISABLE_INT_ON_STOP;
 320:Generated_Source\PSoC5/LED_Driver2_INT.c **** 
 321:Generated_Source\PSoC5/LED_Driver2_INT.c ****                 LED_Driver2_slStatus &= ((uint8) ~LED_Driver2_SSTAT_WR_BUSY);
 322:Generated_Source\PSoC5/LED_Driver2_INT.c ****                 LED_Driver2_slStatus |= ((uint8)  LED_Driver2_SSTAT_WR_CMPLT);
 323:Generated_Source\PSoC5/LED_Driver2_INT.c **** 
 324:Generated_Source\PSoC5/LED_Driver2_INT.c ****                 LED_Driver2_state = LED_Driver2_SM_IDLE;
 325:Generated_Source\PSoC5/LED_Driver2_INT.c ****             }
 326:Generated_Source\PSoC5/LED_Driver2_INT.c ****         }
 327:Generated_Source\PSoC5/LED_Driver2_INT.c **** 
 328:Generated_Source\PSoC5/LED_Driver2_INT.c ****         if(LED_Driver2_CHECK_BYTE_COMPLETE(tmpCsr))
 329:Generated_Source\PSoC5/LED_Driver2_INT.c ****         {
 330:Generated_Source\PSoC5/LED_Driver2_INT.c ****             /* The address only issued after Start or ReStart: so check the address
 331:Generated_Source\PSoC5/LED_Driver2_INT.c ****                to catch these events:
 332:Generated_Source\PSoC5/LED_Driver2_INT.c ****                 FF : sets an address phase with a byte_complete interrupt trigger.
 333:Generated_Source\PSoC5/LED_Driver2_INT.c ****                 UDB: sets an address phase immediately after Start or ReStart. */
 334:Generated_Source\PSoC5/LED_Driver2_INT.c ****             if(LED_Driver2_CHECK_ADDRESS_STS(tmpCsr))
 335:Generated_Source\PSoC5/LED_Driver2_INT.c ****             {
 336:Generated_Source\PSoC5/LED_Driver2_INT.c ****             /* Check for software address detection */
 337:Generated_Source\PSoC5/LED_Driver2_INT.c ****             #if(LED_Driver2_SW_ADRR_DECODE)
 338:Generated_Source\PSoC5/LED_Driver2_INT.c ****                 tmp8 = LED_Driver2_GET_SLAVE_ADDR(LED_Driver2_DATA_REG);
 339:Generated_Source\PSoC5/LED_Driver2_INT.c **** 
 340:Generated_Source\PSoC5/LED_Driver2_INT.c ****                 if(tmp8 == LED_Driver2_slAddress)   /* Check for address match */
 341:Generated_Source\PSoC5/LED_Driver2_INT.c ****                 {
 342:Generated_Source\PSoC5/LED_Driver2_INT.c ****                     if(0u != (LED_Driver2_DATA_REG & LED_Driver2_READ_FLAG))
 343:Generated_Source\PSoC5/LED_Driver2_INT.c ****                     {
 344:Generated_Source\PSoC5/LED_Driver2_INT.c ****                         /* Place code to prepare read buffer here                  */
 345:Generated_Source\PSoC5/LED_Driver2_INT.c ****                         /* `#START LED_Driver2_SW_PREPARE_READ_BUF_interrupt` */
 346:Generated_Source\PSoC5/LED_Driver2_INT.c **** 
 347:Generated_Source\PSoC5/LED_Driver2_INT.c ****                         /* `#END` */
 348:Generated_Source\PSoC5/LED_Driver2_INT.c **** 
 349:Generated_Source\PSoC5/LED_Driver2_INT.c ****                     #ifdef LED_Driver2_SW_PREPARE_READ_BUF_CALLBACK
 350:Generated_Source\PSoC5/LED_Driver2_INT.c ****                         LED_Driver2_SwPrepareReadBuf_Callback();
 351:Generated_Source\PSoC5/LED_Driver2_INT.c ****                     #endif /* LED_Driver2_SW_PREPARE_READ_BUF_CALLBACK */
 352:Generated_Source\PSoC5/LED_Driver2_INT.c ****                         
 353:Generated_Source\PSoC5/LED_Driver2_INT.c ****                         /* Prepare next operation to read, get data and place in data register */
 354:Generated_Source\PSoC5/LED_Driver2_INT.c ****                         if(LED_Driver2_slRdBufIndex < LED_Driver2_slRdBufSize)
 355:Generated_Source\PSoC5/LED_Driver2_INT.c ****                         {
 356:Generated_Source\PSoC5/LED_Driver2_INT.c ****                             /* Load first data byte from array */
 357:Generated_Source\PSoC5/LED_Driver2_INT.c ****                             LED_Driver2_DATA_REG = LED_Driver2_slRdBufPtr[LED_Driver2_slRdBufIndex]
 358:Generated_Source\PSoC5/LED_Driver2_INT.c ****                             LED_Driver2_ACK_AND_TRANSMIT;
 359:Generated_Source\PSoC5/LED_Driver2_INT.c ****                             LED_Driver2_slRdBufIndex++;
 360:Generated_Source\PSoC5/LED_Driver2_INT.c **** 
 361:Generated_Source\PSoC5/LED_Driver2_INT.c ****                             LED_Driver2_slStatus |= LED_Driver2_SSTAT_RD_BUSY;
 362:Generated_Source\PSoC5/LED_Driver2_INT.c ****                         }
 363:Generated_Source\PSoC5/LED_Driver2_INT.c ****                         else    /* Overflow: provide 0xFF on bus */
 364:Generated_Source\PSoC5/LED_Driver2_INT.c ****                         {
 365:Generated_Source\PSoC5/LED_Driver2_INT.c ****                             LED_Driver2_DATA_REG = LED_Driver2_OVERFLOW_RETURN;
 366:Generated_Source\PSoC5/LED_Driver2_INT.c ****                             LED_Driver2_ACK_AND_TRANSMIT;
 367:Generated_Source\PSoC5/LED_Driver2_INT.c **** 
 368:Generated_Source\PSoC5/LED_Driver2_INT.c ****                             LED_Driver2_slStatus  |= (LED_Driver2_SSTAT_RD_BUSY |
ARM GAS  D:\Windows\AppData\Local\Temp\cckj3R1l.s 			page 18


 369:Generated_Source\PSoC5/LED_Driver2_INT.c ****                                                            LED_Driver2_SSTAT_RD_ERR_OVFL);
 370:Generated_Source\PSoC5/LED_Driver2_INT.c ****                         }
 371:Generated_Source\PSoC5/LED_Driver2_INT.c **** 
 372:Generated_Source\PSoC5/LED_Driver2_INT.c ****                         LED_Driver2_state = LED_Driver2_SM_SL_RD_DATA;
 373:Generated_Source\PSoC5/LED_Driver2_INT.c ****                     }
 374:Generated_Source\PSoC5/LED_Driver2_INT.c ****                     else  /* Write transaction: receive 1st byte */
 375:Generated_Source\PSoC5/LED_Driver2_INT.c ****                     {
 376:Generated_Source\PSoC5/LED_Driver2_INT.c ****                         LED_Driver2_ACK_AND_RECEIVE;
 377:Generated_Source\PSoC5/LED_Driver2_INT.c ****                         LED_Driver2_state = LED_Driver2_SM_SL_WR_DATA;
 378:Generated_Source\PSoC5/LED_Driver2_INT.c **** 
 379:Generated_Source\PSoC5/LED_Driver2_INT.c ****                         LED_Driver2_slStatus |= LED_Driver2_SSTAT_WR_BUSY;
 380:Generated_Source\PSoC5/LED_Driver2_INT.c ****                         LED_Driver2_ENABLE_INT_ON_STOP;
 381:Generated_Source\PSoC5/LED_Driver2_INT.c ****                     }
 382:Generated_Source\PSoC5/LED_Driver2_INT.c ****                 }
 383:Generated_Source\PSoC5/LED_Driver2_INT.c ****                 else
 384:Generated_Source\PSoC5/LED_Driver2_INT.c ****                 {
 385:Generated_Source\PSoC5/LED_Driver2_INT.c ****                     /*     Place code to compare for additional address here    */
 386:Generated_Source\PSoC5/LED_Driver2_INT.c ****                     /* `#START LED_Driver2_SW_ADDR_COMPARE_interruptStart` */
 387:Generated_Source\PSoC5/LED_Driver2_INT.c **** 
 388:Generated_Source\PSoC5/LED_Driver2_INT.c ****                     /* `#END` */
 389:Generated_Source\PSoC5/LED_Driver2_INT.c **** 
 390:Generated_Source\PSoC5/LED_Driver2_INT.c ****                 #ifdef LED_Driver2_SW_ADDR_COMPARE_ENTRY_CALLBACK
 391:Generated_Source\PSoC5/LED_Driver2_INT.c ****                     LED_Driver2_SwAddrCompare_EntryCallback();
 392:Generated_Source\PSoC5/LED_Driver2_INT.c ****                 #endif /* LED_Driver2_SW_ADDR_COMPARE_ENTRY_CALLBACK */
 393:Generated_Source\PSoC5/LED_Driver2_INT.c ****                     
 394:Generated_Source\PSoC5/LED_Driver2_INT.c ****                     LED_Driver2_NAK_AND_RECEIVE;   /* NACK address */
 395:Generated_Source\PSoC5/LED_Driver2_INT.c **** 
 396:Generated_Source\PSoC5/LED_Driver2_INT.c ****                     /* Place code to end of condition for NACK generation here */
 397:Generated_Source\PSoC5/LED_Driver2_INT.c ****                     /* `#START LED_Driver2_SW_ADDR_COMPARE_interruptEnd`  */
 398:Generated_Source\PSoC5/LED_Driver2_INT.c **** 
 399:Generated_Source\PSoC5/LED_Driver2_INT.c ****                     /* `#END` */
 400:Generated_Source\PSoC5/LED_Driver2_INT.c **** 
 401:Generated_Source\PSoC5/LED_Driver2_INT.c ****                 #ifdef LED_Driver2_SW_ADDR_COMPARE_EXIT_CALLBACK
 402:Generated_Source\PSoC5/LED_Driver2_INT.c ****                     LED_Driver2_SwAddrCompare_ExitCallback();
 403:Generated_Source\PSoC5/LED_Driver2_INT.c ****                 #endif /* LED_Driver2_SW_ADDR_COMPARE_EXIT_CALLBACK */
 404:Generated_Source\PSoC5/LED_Driver2_INT.c ****                 }
 405:Generated_Source\PSoC5/LED_Driver2_INT.c **** 
 406:Generated_Source\PSoC5/LED_Driver2_INT.c ****             #else /* (LED_Driver2_HW_ADRR_DECODE) */
 407:Generated_Source\PSoC5/LED_Driver2_INT.c **** 
 408:Generated_Source\PSoC5/LED_Driver2_INT.c ****                 if(0u != (LED_Driver2_DATA_REG & LED_Driver2_READ_FLAG))
 409:Generated_Source\PSoC5/LED_Driver2_INT.c ****                 {
 410:Generated_Source\PSoC5/LED_Driver2_INT.c ****                     /* Place code to prepare read buffer here                  */
 411:Generated_Source\PSoC5/LED_Driver2_INT.c ****                     /* `#START LED_Driver2_HW_PREPARE_READ_BUF_interrupt` */
 412:Generated_Source\PSoC5/LED_Driver2_INT.c **** 
 413:Generated_Source\PSoC5/LED_Driver2_INT.c ****                     /* `#END` */
 414:Generated_Source\PSoC5/LED_Driver2_INT.c ****                     
 415:Generated_Source\PSoC5/LED_Driver2_INT.c ****                 #ifdef LED_Driver2_HW_PREPARE_READ_BUF_CALLBACK
 416:Generated_Source\PSoC5/LED_Driver2_INT.c ****                     LED_Driver2_HwPrepareReadBuf_Callback();
 417:Generated_Source\PSoC5/LED_Driver2_INT.c ****                 #endif /* LED_Driver2_HW_PREPARE_READ_BUF_CALLBACK */
 418:Generated_Source\PSoC5/LED_Driver2_INT.c **** 
 419:Generated_Source\PSoC5/LED_Driver2_INT.c ****                     /* Prepare next operation to read, get data and place in data register */
 420:Generated_Source\PSoC5/LED_Driver2_INT.c ****                     if(LED_Driver2_slRdBufIndex < LED_Driver2_slRdBufSize)
 421:Generated_Source\PSoC5/LED_Driver2_INT.c ****                     {
 422:Generated_Source\PSoC5/LED_Driver2_INT.c ****                         /* Load first data byte from array */
 423:Generated_Source\PSoC5/LED_Driver2_INT.c ****                         LED_Driver2_DATA_REG = LED_Driver2_slRdBufPtr[LED_Driver2_slRdBufIndex];
 424:Generated_Source\PSoC5/LED_Driver2_INT.c ****                         LED_Driver2_ACK_AND_TRANSMIT;
 425:Generated_Source\PSoC5/LED_Driver2_INT.c ****                         LED_Driver2_slRdBufIndex++;
ARM GAS  D:\Windows\AppData\Local\Temp\cckj3R1l.s 			page 19


 426:Generated_Source\PSoC5/LED_Driver2_INT.c **** 
 427:Generated_Source\PSoC5/LED_Driver2_INT.c ****                         LED_Driver2_slStatus |= LED_Driver2_SSTAT_RD_BUSY;
 428:Generated_Source\PSoC5/LED_Driver2_INT.c ****                     }
 429:Generated_Source\PSoC5/LED_Driver2_INT.c ****                     else    /* Overflow: provide 0xFF on bus */
 430:Generated_Source\PSoC5/LED_Driver2_INT.c ****                     {
 431:Generated_Source\PSoC5/LED_Driver2_INT.c ****                         LED_Driver2_DATA_REG = LED_Driver2_OVERFLOW_RETURN;
 432:Generated_Source\PSoC5/LED_Driver2_INT.c ****                         LED_Driver2_ACK_AND_TRANSMIT;
 433:Generated_Source\PSoC5/LED_Driver2_INT.c **** 
 434:Generated_Source\PSoC5/LED_Driver2_INT.c ****                         LED_Driver2_slStatus  |= (LED_Driver2_SSTAT_RD_BUSY |
 435:Generated_Source\PSoC5/LED_Driver2_INT.c ****                                                        LED_Driver2_SSTAT_RD_ERR_OVFL);
 436:Generated_Source\PSoC5/LED_Driver2_INT.c ****                     }
 437:Generated_Source\PSoC5/LED_Driver2_INT.c **** 
 438:Generated_Source\PSoC5/LED_Driver2_INT.c ****                     LED_Driver2_state = LED_Driver2_SM_SL_RD_DATA;
 439:Generated_Source\PSoC5/LED_Driver2_INT.c ****                 }
 440:Generated_Source\PSoC5/LED_Driver2_INT.c ****                 else  /* Write transaction: receive 1st byte */
 441:Generated_Source\PSoC5/LED_Driver2_INT.c ****                 {
 442:Generated_Source\PSoC5/LED_Driver2_INT.c ****                     LED_Driver2_ACK_AND_RECEIVE;
 443:Generated_Source\PSoC5/LED_Driver2_INT.c ****                     LED_Driver2_state = LED_Driver2_SM_SL_WR_DATA;
 444:Generated_Source\PSoC5/LED_Driver2_INT.c **** 
 445:Generated_Source\PSoC5/LED_Driver2_INT.c ****                     LED_Driver2_slStatus |= LED_Driver2_SSTAT_WR_BUSY;
 446:Generated_Source\PSoC5/LED_Driver2_INT.c ****                     LED_Driver2_ENABLE_INT_ON_STOP;
 447:Generated_Source\PSoC5/LED_Driver2_INT.c ****                 }
 448:Generated_Source\PSoC5/LED_Driver2_INT.c **** 
 449:Generated_Source\PSoC5/LED_Driver2_INT.c ****             #endif /* (LED_Driver2_SW_ADRR_DECODE) */
 450:Generated_Source\PSoC5/LED_Driver2_INT.c ****             }
 451:Generated_Source\PSoC5/LED_Driver2_INT.c ****             /* Data states */
 452:Generated_Source\PSoC5/LED_Driver2_INT.c ****             /* Data master writes into slave */
 453:Generated_Source\PSoC5/LED_Driver2_INT.c ****             else if(LED_Driver2_state == LED_Driver2_SM_SL_WR_DATA)
 454:Generated_Source\PSoC5/LED_Driver2_INT.c ****             {
 455:Generated_Source\PSoC5/LED_Driver2_INT.c ****                 if(LED_Driver2_slWrBufIndex < LED_Driver2_slWrBufSize)
 456:Generated_Source\PSoC5/LED_Driver2_INT.c ****                 {
 457:Generated_Source\PSoC5/LED_Driver2_INT.c ****                     tmp8 = LED_Driver2_DATA_REG;
 458:Generated_Source\PSoC5/LED_Driver2_INT.c ****                     LED_Driver2_ACK_AND_RECEIVE;
 459:Generated_Source\PSoC5/LED_Driver2_INT.c ****                     LED_Driver2_slWrBufPtr[LED_Driver2_slWrBufIndex] = tmp8;
 460:Generated_Source\PSoC5/LED_Driver2_INT.c ****                     LED_Driver2_slWrBufIndex++;
 461:Generated_Source\PSoC5/LED_Driver2_INT.c ****                 }
 462:Generated_Source\PSoC5/LED_Driver2_INT.c ****                 else  /* of array: complete write, send NACK */
 463:Generated_Source\PSoC5/LED_Driver2_INT.c ****                 {
 464:Generated_Source\PSoC5/LED_Driver2_INT.c ****                     LED_Driver2_NAK_AND_RECEIVE;
 465:Generated_Source\PSoC5/LED_Driver2_INT.c **** 
 466:Generated_Source\PSoC5/LED_Driver2_INT.c ****                     LED_Driver2_slStatus |= LED_Driver2_SSTAT_WR_ERR_OVFL;
 467:Generated_Source\PSoC5/LED_Driver2_INT.c ****                 }
 468:Generated_Source\PSoC5/LED_Driver2_INT.c ****             }
 469:Generated_Source\PSoC5/LED_Driver2_INT.c ****             /* Data master reads from slave */
 470:Generated_Source\PSoC5/LED_Driver2_INT.c ****             else if(LED_Driver2_state == LED_Driver2_SM_SL_RD_DATA)
 471:Generated_Source\PSoC5/LED_Driver2_INT.c ****             {
 472:Generated_Source\PSoC5/LED_Driver2_INT.c ****                 if(LED_Driver2_CHECK_DATA_ACK(tmpCsr))
 473:Generated_Source\PSoC5/LED_Driver2_INT.c ****                 {
 474:Generated_Source\PSoC5/LED_Driver2_INT.c ****                     if(LED_Driver2_slRdBufIndex < LED_Driver2_slRdBufSize)
 475:Generated_Source\PSoC5/LED_Driver2_INT.c ****                     {
 476:Generated_Source\PSoC5/LED_Driver2_INT.c ****                          /* Get data from array */
 477:Generated_Source\PSoC5/LED_Driver2_INT.c ****                         LED_Driver2_DATA_REG = LED_Driver2_slRdBufPtr[LED_Driver2_slRdBufIndex];
 478:Generated_Source\PSoC5/LED_Driver2_INT.c ****                         LED_Driver2_TRANSMIT_DATA;
 479:Generated_Source\PSoC5/LED_Driver2_INT.c ****                         LED_Driver2_slRdBufIndex++;
 480:Generated_Source\PSoC5/LED_Driver2_INT.c ****                     }
 481:Generated_Source\PSoC5/LED_Driver2_INT.c ****                     else   /* Overflow: provide 0xFF on bus */
 482:Generated_Source\PSoC5/LED_Driver2_INT.c ****                     {
ARM GAS  D:\Windows\AppData\Local\Temp\cckj3R1l.s 			page 20


 483:Generated_Source\PSoC5/LED_Driver2_INT.c ****                         LED_Driver2_DATA_REG = LED_Driver2_OVERFLOW_RETURN;
 484:Generated_Source\PSoC5/LED_Driver2_INT.c ****                         LED_Driver2_TRANSMIT_DATA;
 485:Generated_Source\PSoC5/LED_Driver2_INT.c **** 
 486:Generated_Source\PSoC5/LED_Driver2_INT.c ****                         LED_Driver2_slStatus |= LED_Driver2_SSTAT_RD_ERR_OVFL;
 487:Generated_Source\PSoC5/LED_Driver2_INT.c ****                     }
 488:Generated_Source\PSoC5/LED_Driver2_INT.c ****                 }
 489:Generated_Source\PSoC5/LED_Driver2_INT.c ****                 else  /* Last byte was NACKed: read complete */
 490:Generated_Source\PSoC5/LED_Driver2_INT.c ****                 {
 491:Generated_Source\PSoC5/LED_Driver2_INT.c ****                     /* Only NACK appears on bus */
 492:Generated_Source\PSoC5/LED_Driver2_INT.c ****                     LED_Driver2_DATA_REG = LED_Driver2_OVERFLOW_RETURN;
 493:Generated_Source\PSoC5/LED_Driver2_INT.c ****                     LED_Driver2_NAK_AND_TRANSMIT;
 494:Generated_Source\PSoC5/LED_Driver2_INT.c **** 
 495:Generated_Source\PSoC5/LED_Driver2_INT.c ****                     LED_Driver2_slStatus &= ((uint8) ~LED_Driver2_SSTAT_RD_BUSY);
 496:Generated_Source\PSoC5/LED_Driver2_INT.c ****                     LED_Driver2_slStatus |= ((uint8)  LED_Driver2_SSTAT_RD_CMPLT);
 497:Generated_Source\PSoC5/LED_Driver2_INT.c **** 
 498:Generated_Source\PSoC5/LED_Driver2_INT.c ****                     LED_Driver2_state = LED_Driver2_SM_IDLE;
 499:Generated_Source\PSoC5/LED_Driver2_INT.c ****                 }
 500:Generated_Source\PSoC5/LED_Driver2_INT.c ****             }
 501:Generated_Source\PSoC5/LED_Driver2_INT.c ****             else
 502:Generated_Source\PSoC5/LED_Driver2_INT.c ****             {
 503:Generated_Source\PSoC5/LED_Driver2_INT.c ****             #if(LED_Driver2_TIMEOUT_ENABLED)
 504:Generated_Source\PSoC5/LED_Driver2_INT.c ****                 /* Exit interrupt to take chance for timeout timer to handle this case */
 505:Generated_Source\PSoC5/LED_Driver2_INT.c ****                 LED_Driver2_DisableInt();
 506:Generated_Source\PSoC5/LED_Driver2_INT.c ****                 LED_Driver2_ClearPendingInt();
 507:Generated_Source\PSoC5/LED_Driver2_INT.c ****             #else
 508:Generated_Source\PSoC5/LED_Driver2_INT.c ****                 /* Block execution flow: unexpected condition */
 509:Generated_Source\PSoC5/LED_Driver2_INT.c ****                 CYASSERT(0u != 0u);
 510:Generated_Source\PSoC5/LED_Driver2_INT.c ****             #endif /* (LED_Driver2_TIMEOUT_ENABLED) */
 511:Generated_Source\PSoC5/LED_Driver2_INT.c ****             }
 512:Generated_Source\PSoC5/LED_Driver2_INT.c ****         }
 513:Generated_Source\PSoC5/LED_Driver2_INT.c ****     #endif /* (LED_Driver2_MODE_SLAVE_ENABLED) */
 514:Generated_Source\PSoC5/LED_Driver2_INT.c ****     }
 515:Generated_Source\PSoC5/LED_Driver2_INT.c ****     else
 516:Generated_Source\PSoC5/LED_Driver2_INT.c ****     {
 517:Generated_Source\PSoC5/LED_Driver2_INT.c ****         /* The FSM skips master and slave processing: return to IDLE */
 518:Generated_Source\PSoC5/LED_Driver2_INT.c ****         LED_Driver2_state = LED_Driver2_SM_IDLE;
 581              		.loc 1 518 0
 582 03ce 0C4B     		ldr	r3, .L36+36
 583 03d0 1022     		movs	r2, #16
 584 03d2 1A70     		strb	r2, [r3]
 585              	.L1:
 519:Generated_Source\PSoC5/LED_Driver2_INT.c ****     }
 520:Generated_Source\PSoC5/LED_Driver2_INT.c **** 
 521:Generated_Source\PSoC5/LED_Driver2_INT.c **** #ifdef LED_Driver2_ISR_EXIT_CALLBACK
 522:Generated_Source\PSoC5/LED_Driver2_INT.c ****     LED_Driver2_ISR_ExitCallback();
 523:Generated_Source\PSoC5/LED_Driver2_INT.c **** #endif /* LED_Driver2_ISR_EXIT_CALLBACK */    
 524:Generated_Source\PSoC5/LED_Driver2_INT.c **** }
 586              		.loc 1 524 0
 587 03d4 0837     		adds	r7, r7, #8
 588              		.cfi_def_cfa_offset 8
 589 03d6 BD46     		mov	sp, r7
 590              		.cfi_def_cfa_register 13
 591              		@ sp needed
 592 03d8 80BD     		pop	{r7, pc}
 593              	.L37:
 594 03da 00BF     		.align	2
 595              	.L36:
ARM GAS  D:\Windows\AppData\Local\Temp\cckj3R1l.s 			page 21


 596 03dc 00000000 		.word	LED_Driver2_mstrRdBufPtr
 597 03e0 00000000 		.word	LED_Driver2_mstrRdBufIndex
 598 03e4 0C640040 		.word	1073767436
 599 03e8 00000000 		.word	LED_Driver2_mstrRdBufSize
 600 03ec 7F640040 		.word	1073767551
 601 03f0 1C640040 		.word	1073767452
 602 03f4 5C640040 		.word	1073767516
 603 03f8 00000000 		.word	LED_Driver2_mstrControl
 604 03fc 00000000 		.word	LED_Driver2_mstrStatus
 605 0400 00000000 		.word	LED_Driver2_state
 606 0404 80E100E0 		.word	-536813184
 607 0408 8C640040 		.word	1073767564
 608              		.cfi_endproc
 609              	.LFE0:
 610              		.size	LED_Driver2_ISR, .-LED_Driver2_ISR
 611              		.text
 612              	.Letext0:
 613              		.file 2 "Generated_Source\\PSoC5\\cytypes.h"
 614              		.file 3 "Generated_Source\\PSoC5\\LED_Driver2_PVT.h"
 615              		.section	.debug_info,"",%progbits
 616              	.Ldebug_info0:
 617 0000 4B010000 		.4byte	0x14b
 618 0004 0400     		.2byte	0x4
 619 0006 00000000 		.4byte	.Ldebug_abbrev0
 620 000a 04       		.byte	0x4
 621 000b 01       		.uleb128 0x1
 622 000c B3000000 		.4byte	.LASF26
 623 0010 01       		.byte	0x1
 624 0011 CB010000 		.4byte	.LASF27
 625 0015 F4010000 		.4byte	.LASF28
 626 0019 00000000 		.4byte	.Ldebug_ranges0+0
 627 001d 00000000 		.4byte	0
 628 0021 00000000 		.4byte	.Ldebug_line0
 629 0025 02       		.uleb128 0x2
 630 0026 01       		.byte	0x1
 631 0027 06       		.byte	0x6
 632 0028 31020000 		.4byte	.LASF0
 633 002c 02       		.uleb128 0x2
 634 002d 01       		.byte	0x1
 635 002e 08       		.byte	0x8
 636 002f 66000000 		.4byte	.LASF1
 637 0033 02       		.uleb128 0x2
 638 0034 02       		.byte	0x2
 639 0035 05       		.byte	0x5
 640 0036 B8010000 		.4byte	.LASF2
 641 003a 02       		.uleb128 0x2
 642 003b 02       		.byte	0x2
 643 003c 07       		.byte	0x7
 644 003d 21000000 		.4byte	.LASF3
 645 0041 02       		.uleb128 0x2
 646 0042 04       		.byte	0x4
 647 0043 05       		.byte	0x5
 648 0044 C2010000 		.4byte	.LASF4
 649 0048 02       		.uleb128 0x2
 650 0049 04       		.byte	0x4
 651 004a 07       		.byte	0x7
 652 004b 94000000 		.4byte	.LASF5
ARM GAS  D:\Windows\AppData\Local\Temp\cckj3R1l.s 			page 22


 653 004f 02       		.uleb128 0x2
 654 0050 08       		.byte	0x8
 655 0051 05       		.byte	0x5
 656 0052 A5010000 		.4byte	.LASF6
 657 0056 02       		.uleb128 0x2
 658 0057 08       		.byte	0x8
 659 0058 07       		.byte	0x7
 660 0059 6C010000 		.4byte	.LASF7
 661 005d 03       		.uleb128 0x3
 662 005e 04       		.byte	0x4
 663 005f 05       		.byte	0x5
 664 0060 696E7400 		.ascii	"int\000"
 665 0064 02       		.uleb128 0x2
 666 0065 04       		.byte	0x4
 667 0066 07       		.byte	0x7
 668 0067 5F010000 		.4byte	.LASF8
 669 006b 04       		.uleb128 0x4
 670 006c A6000000 		.4byte	.LASF9
 671 0070 02       		.byte	0x2
 672 0071 3801     		.2byte	0x138
 673 0073 2C000000 		.4byte	0x2c
 674 0077 04       		.uleb128 0x4
 675 0078 58010000 		.4byte	.LASF10
 676 007c 02       		.byte	0x2
 677 007d 3A01     		.2byte	0x13a
 678 007f 48000000 		.4byte	0x48
 679 0083 02       		.uleb128 0x2
 680 0084 04       		.byte	0x4
 681 0085 04       		.byte	0x4
 682 0086 60000000 		.4byte	.LASF11
 683 008a 02       		.uleb128 0x2
 684 008b 08       		.byte	0x8
 685 008c 04       		.byte	0x4
 686 008d 41010000 		.4byte	.LASF12
 687 0091 02       		.uleb128 0x2
 688 0092 01       		.byte	0x1
 689 0093 08       		.byte	0x8
 690 0094 B3010000 		.4byte	.LASF13
 691 0098 04       		.uleb128 0x4
 692 0099 74000000 		.4byte	.LASF14
 693 009d 02       		.byte	0x2
 694 009e E201     		.2byte	0x1e2
 695 00a0 A4000000 		.4byte	0xa4
 696 00a4 05       		.uleb128 0x5
 697 00a5 6B000000 		.4byte	0x6b
 698 00a9 04       		.uleb128 0x4
 699 00aa 1B000000 		.4byte	.LASF15
 700 00ae 02       		.byte	0x2
 701 00af E401     		.2byte	0x1e4
 702 00b1 B5000000 		.4byte	0xb5
 703 00b5 05       		.uleb128 0x5
 704 00b6 77000000 		.4byte	0x77
 705 00ba 02       		.uleb128 0x2
 706 00bb 04       		.byte	0x4
 707 00bc 07       		.byte	0x7
 708 00bd 9C010000 		.4byte	.LASF16
 709 00c1 06       		.uleb128 0x6
ARM GAS  D:\Windows\AppData\Local\Temp\cckj3R1l.s 			page 23


 710 00c2 48010000 		.4byte	.LASF29
 711 00c6 01       		.byte	0x1
 712 00c7 2E       		.byte	0x2e
 713 00c8 00000000 		.4byte	.LFB0
 714 00cc 0C040000 		.4byte	.LFE0-.LFB0
 715 00d0 01       		.uleb128 0x1
 716 00d1 9C       		.byte	0x9c
 717 00d2 E5000000 		.4byte	0xe5
 718 00d6 07       		.uleb128 0x7
 719 00d7 AC000000 		.4byte	.LASF30
 720 00db 01       		.byte	0x1
 721 00dc 34       		.byte	0x34
 722 00dd 6B000000 		.4byte	0x6b
 723 00e1 02       		.uleb128 0x2
 724 00e2 91       		.byte	0x91
 725 00e3 77       		.sleb128 -9
 726 00e4 00       		.byte	0
 727 00e5 08       		.uleb128 0x8
 728 00e6 4E000000 		.4byte	.LASF17
 729 00ea 03       		.byte	0x3
 730 00eb 23       		.byte	0x23
 731 00ec A4000000 		.4byte	0xa4
 732 00f0 08       		.uleb128 0x8
 733 00f1 57020000 		.4byte	.LASF18
 734 00f5 03       		.byte	0x3
 735 00f6 27       		.byte	0x27
 736 00f7 A4000000 		.4byte	0xa4
 737 00fb 08       		.uleb128 0x8
 738 00fc 6E020000 		.4byte	.LASF19
 739 0100 03       		.byte	0x3
 740 0101 28       		.byte	0x28
 741 0102 A4000000 		.4byte	0xa4
 742 0106 08       		.uleb128 0x8
 743 0107 83010000 		.4byte	.LASF20
 744 010b 03       		.byte	0x3
 745 010c 2B       		.byte	0x2b
 746 010d 11010000 		.4byte	0x111
 747 0111 09       		.uleb128 0x9
 748 0112 04       		.byte	0x4
 749 0113 A4000000 		.4byte	0xa4
 750 0117 08       		.uleb128 0x8
 751 0118 3D020000 		.4byte	.LASF21
 752 011c 03       		.byte	0x3
 753 011d 2C       		.byte	0x2c
 754 011e A4000000 		.4byte	0xa4
 755 0122 08       		.uleb128 0x8
 756 0123 79000000 		.4byte	.LASF22
 757 0127 03       		.byte	0x3
 758 0128 2D       		.byte	0x2d
 759 0129 A4000000 		.4byte	0xa4
 760 012d 08       		.uleb128 0x8
 761 012e 86020000 		.4byte	.LASF23
 762 0132 03       		.byte	0x3
 763 0133 30       		.byte	0x30
 764 0134 11010000 		.4byte	0x111
 765 0138 08       		.uleb128 0x8
 766 0139 34000000 		.4byte	.LASF24
ARM GAS  D:\Windows\AppData\Local\Temp\cckj3R1l.s 			page 24


 767 013d 03       		.byte	0x3
 768 013e 31       		.byte	0x31
 769 013f A4000000 		.4byte	0xa4
 770 0143 08       		.uleb128 0x8
 771 0144 00000000 		.4byte	.LASF25
 772 0148 03       		.byte	0x3
 773 0149 32       		.byte	0x32
 774 014a A4000000 		.4byte	0xa4
 775 014e 00       		.byte	0
 776              		.section	.debug_abbrev,"",%progbits
 777              	.Ldebug_abbrev0:
 778 0000 01       		.uleb128 0x1
 779 0001 11       		.uleb128 0x11
 780 0002 01       		.byte	0x1
 781 0003 25       		.uleb128 0x25
 782 0004 0E       		.uleb128 0xe
 783 0005 13       		.uleb128 0x13
 784 0006 0B       		.uleb128 0xb
 785 0007 03       		.uleb128 0x3
 786 0008 0E       		.uleb128 0xe
 787 0009 1B       		.uleb128 0x1b
 788 000a 0E       		.uleb128 0xe
 789 000b 55       		.uleb128 0x55
 790 000c 17       		.uleb128 0x17
 791 000d 11       		.uleb128 0x11
 792 000e 01       		.uleb128 0x1
 793 000f 10       		.uleb128 0x10
 794 0010 17       		.uleb128 0x17
 795 0011 00       		.byte	0
 796 0012 00       		.byte	0
 797 0013 02       		.uleb128 0x2
 798 0014 24       		.uleb128 0x24
 799 0015 00       		.byte	0
 800 0016 0B       		.uleb128 0xb
 801 0017 0B       		.uleb128 0xb
 802 0018 3E       		.uleb128 0x3e
 803 0019 0B       		.uleb128 0xb
 804 001a 03       		.uleb128 0x3
 805 001b 0E       		.uleb128 0xe
 806 001c 00       		.byte	0
 807 001d 00       		.byte	0
 808 001e 03       		.uleb128 0x3
 809 001f 24       		.uleb128 0x24
 810 0020 00       		.byte	0
 811 0021 0B       		.uleb128 0xb
 812 0022 0B       		.uleb128 0xb
 813 0023 3E       		.uleb128 0x3e
 814 0024 0B       		.uleb128 0xb
 815 0025 03       		.uleb128 0x3
 816 0026 08       		.uleb128 0x8
 817 0027 00       		.byte	0
 818 0028 00       		.byte	0
 819 0029 04       		.uleb128 0x4
 820 002a 16       		.uleb128 0x16
 821 002b 00       		.byte	0
 822 002c 03       		.uleb128 0x3
 823 002d 0E       		.uleb128 0xe
ARM GAS  D:\Windows\AppData\Local\Temp\cckj3R1l.s 			page 25


 824 002e 3A       		.uleb128 0x3a
 825 002f 0B       		.uleb128 0xb
 826 0030 3B       		.uleb128 0x3b
 827 0031 05       		.uleb128 0x5
 828 0032 49       		.uleb128 0x49
 829 0033 13       		.uleb128 0x13
 830 0034 00       		.byte	0
 831 0035 00       		.byte	0
 832 0036 05       		.uleb128 0x5
 833 0037 35       		.uleb128 0x35
 834 0038 00       		.byte	0
 835 0039 49       		.uleb128 0x49
 836 003a 13       		.uleb128 0x13
 837 003b 00       		.byte	0
 838 003c 00       		.byte	0
 839 003d 06       		.uleb128 0x6
 840 003e 2E       		.uleb128 0x2e
 841 003f 01       		.byte	0x1
 842 0040 3F       		.uleb128 0x3f
 843 0041 19       		.uleb128 0x19
 844 0042 03       		.uleb128 0x3
 845 0043 0E       		.uleb128 0xe
 846 0044 3A       		.uleb128 0x3a
 847 0045 0B       		.uleb128 0xb
 848 0046 3B       		.uleb128 0x3b
 849 0047 0B       		.uleb128 0xb
 850 0048 27       		.uleb128 0x27
 851 0049 19       		.uleb128 0x19
 852 004a 11       		.uleb128 0x11
 853 004b 01       		.uleb128 0x1
 854 004c 12       		.uleb128 0x12
 855 004d 06       		.uleb128 0x6
 856 004e 40       		.uleb128 0x40
 857 004f 18       		.uleb128 0x18
 858 0050 9642     		.uleb128 0x2116
 859 0052 19       		.uleb128 0x19
 860 0053 01       		.uleb128 0x1
 861 0054 13       		.uleb128 0x13
 862 0055 00       		.byte	0
 863 0056 00       		.byte	0
 864 0057 07       		.uleb128 0x7
 865 0058 34       		.uleb128 0x34
 866 0059 00       		.byte	0
 867 005a 03       		.uleb128 0x3
 868 005b 0E       		.uleb128 0xe
 869 005c 3A       		.uleb128 0x3a
 870 005d 0B       		.uleb128 0xb
 871 005e 3B       		.uleb128 0x3b
 872 005f 0B       		.uleb128 0xb
 873 0060 49       		.uleb128 0x49
 874 0061 13       		.uleb128 0x13
 875 0062 02       		.uleb128 0x2
 876 0063 18       		.uleb128 0x18
 877 0064 00       		.byte	0
 878 0065 00       		.byte	0
 879 0066 08       		.uleb128 0x8
 880 0067 34       		.uleb128 0x34
ARM GAS  D:\Windows\AppData\Local\Temp\cckj3R1l.s 			page 26


 881 0068 00       		.byte	0
 882 0069 03       		.uleb128 0x3
 883 006a 0E       		.uleb128 0xe
 884 006b 3A       		.uleb128 0x3a
 885 006c 0B       		.uleb128 0xb
 886 006d 3B       		.uleb128 0x3b
 887 006e 0B       		.uleb128 0xb
 888 006f 49       		.uleb128 0x49
 889 0070 13       		.uleb128 0x13
 890 0071 3F       		.uleb128 0x3f
 891 0072 19       		.uleb128 0x19
 892 0073 3C       		.uleb128 0x3c
 893 0074 19       		.uleb128 0x19
 894 0075 00       		.byte	0
 895 0076 00       		.byte	0
 896 0077 09       		.uleb128 0x9
 897 0078 0F       		.uleb128 0xf
 898 0079 00       		.byte	0
 899 007a 0B       		.uleb128 0xb
 900 007b 0B       		.uleb128 0xb
 901 007c 49       		.uleb128 0x49
 902 007d 13       		.uleb128 0x13
 903 007e 00       		.byte	0
 904 007f 00       		.byte	0
 905 0080 00       		.byte	0
 906              		.section	.debug_aranges,"",%progbits
 907 0000 1C000000 		.4byte	0x1c
 908 0004 0200     		.2byte	0x2
 909 0006 00000000 		.4byte	.Ldebug_info0
 910 000a 04       		.byte	0x4
 911 000b 00       		.byte	0
 912 000c 0000     		.2byte	0
 913 000e 0000     		.2byte	0
 914 0010 00000000 		.4byte	.LFB0
 915 0014 0C040000 		.4byte	.LFE0-.LFB0
 916 0018 00000000 		.4byte	0
 917 001c 00000000 		.4byte	0
 918              		.section	.debug_ranges,"",%progbits
 919              	.Ldebug_ranges0:
 920 0000 00000000 		.4byte	.LFB0
 921 0004 0C040000 		.4byte	.LFE0
 922 0008 00000000 		.4byte	0
 923 000c 00000000 		.4byte	0
 924              		.section	.debug_line,"",%progbits
 925              	.Ldebug_line0:
 926 0000 1E010000 		.section	.debug_str,"MS",%progbits,1
 926      02006100 
 926      00000201 
 926      FB0E0D00 
 926      01010101 
 927              	.LASF25:
 928 0000 4C45445F 		.ascii	"LED_Driver2_mstrWrBufIndex\000"
 928      44726976 
 928      6572325F 
 928      6D737472 
 928      57724275 
 929              	.LASF15:
ARM GAS  D:\Windows\AppData\Local\Temp\cckj3R1l.s 			page 27


 930 001b 72656733 		.ascii	"reg32\000"
 930      3200
 931              	.LASF3:
 932 0021 73686F72 		.ascii	"short unsigned int\000"
 932      7420756E 
 932      7369676E 
 932      65642069 
 932      6E7400
 933              	.LASF24:
 934 0034 4C45445F 		.ascii	"LED_Driver2_mstrWrBufSize\000"
 934      44726976 
 934      6572325F 
 934      6D737472 
 934      57724275 
 935              	.LASF17:
 936 004e 4C45445F 		.ascii	"LED_Driver2_state\000"
 936      44726976 
 936      6572325F 
 936      73746174 
 936      6500
 937              	.LASF11:
 938 0060 666C6F61 		.ascii	"float\000"
 938      7400
 939              	.LASF1:
 940 0066 756E7369 		.ascii	"unsigned char\000"
 940      676E6564 
 940      20636861 
 940      7200
 941              	.LASF14:
 942 0074 72656738 		.ascii	"reg8\000"
 942      00
 943              	.LASF22:
 944 0079 4C45445F 		.ascii	"LED_Driver2_mstrRdBufIndex\000"
 944      44726976 
 944      6572325F 
 944      6D737472 
 944      52644275 
 945              	.LASF5:
 946 0094 6C6F6E67 		.ascii	"long unsigned int\000"
 946      20756E73 
 946      69676E65 
 946      6420696E 
 946      7400
 947              	.LASF9:
 948 00a6 75696E74 		.ascii	"uint8\000"
 948      3800
 949              	.LASF30:
 950 00ac 746D7043 		.ascii	"tmpCsr\000"
 950      737200
 951              	.LASF26:
 952 00b3 474E5520 		.ascii	"GNU C 4.9.3 20150303 (release) [ARM/embedded-4_9-br"
 952      4320342E 
 952      392E3320 
 952      32303135 
 952      30333033 
 953 00e6 616E6368 		.ascii	"anch revision 221220] -mcpu=cortex-m3 -mthumb -g -O"
 953      20726576 
ARM GAS  D:\Windows\AppData\Local\Temp\cckj3R1l.s 			page 28


 953      6973696F 
 953      6E203232 
 953      31323230 
 954 0119 30202D66 		.ascii	"0 -ffunction-sections -ffat-lto-objects\000"
 954      66756E63 
 954      74696F6E 
 954      2D736563 
 954      74696F6E 
 955              	.LASF12:
 956 0141 646F7562 		.ascii	"double\000"
 956      6C6500
 957              	.LASF29:
 958 0148 4C45445F 		.ascii	"LED_Driver2_ISR\000"
 958      44726976 
 958      6572325F 
 958      49535200 
 959              	.LASF10:
 960 0158 75696E74 		.ascii	"uint32\000"
 960      333200
 961              	.LASF8:
 962 015f 756E7369 		.ascii	"unsigned int\000"
 962      676E6564 
 962      20696E74 
 962      00
 963              	.LASF7:
 964 016c 6C6F6E67 		.ascii	"long long unsigned int\000"
 964      206C6F6E 
 964      6720756E 
 964      7369676E 
 964      65642069 
 965              	.LASF20:
 966 0183 4C45445F 		.ascii	"LED_Driver2_mstrRdBufPtr\000"
 966      44726976 
 966      6572325F 
 966      6D737472 
 966      52644275 
 967              	.LASF16:
 968 019c 73697A65 		.ascii	"sizetype\000"
 968      74797065 
 968      00
 969              	.LASF6:
 970 01a5 6C6F6E67 		.ascii	"long long int\000"
 970      206C6F6E 
 970      6720696E 
 970      7400
 971              	.LASF13:
 972 01b3 63686172 		.ascii	"char\000"
 972      00
 973              	.LASF2:
 974 01b8 73686F72 		.ascii	"short int\000"
 974      7420696E 
 974      7400
 975              	.LASF4:
 976 01c2 6C6F6E67 		.ascii	"long int\000"
 976      20696E74 
 976      00
 977              	.LASF27:
ARM GAS  D:\Windows\AppData\Local\Temp\cckj3R1l.s 			page 29


 978 01cb 47656E65 		.ascii	"Generated_Source\\PSoC5\\LED_Driver2_INT.c\000"
 978      72617465 
 978      645F536F 
 978      75726365 
 978      5C50536F 
 979              	.LASF28:
 980 01f4 443A5C44 		.ascii	"D:\\Downloads\\FRUCD\\Node-Jaguar\\Node-Jaguar\\Nod"
 980      6F776E6C 
 980      6F616473 
 980      5C465255 
 980      43445C4E 
 981 0222 652D4A61 		.ascii	"e-Jaguar.cydsn\000"
 981      67756172 
 981      2E637964 
 981      736E00
 982              	.LASF0:
 983 0231 7369676E 		.ascii	"signed char\000"
 983      65642063 
 983      68617200 
 984              	.LASF21:
 985 023d 4C45445F 		.ascii	"LED_Driver2_mstrRdBufSize\000"
 985      44726976 
 985      6572325F 
 985      6D737472 
 985      52644275 
 986              	.LASF18:
 987 0257 4C45445F 		.ascii	"LED_Driver2_mstrStatus\000"
 987      44726976 
 987      6572325F 
 987      6D737472 
 987      53746174 
 988              	.LASF19:
 989 026e 4C45445F 		.ascii	"LED_Driver2_mstrControl\000"
 989      44726976 
 989      6572325F 
 989      6D737472 
 989      436F6E74 
 990              	.LASF23:
 991 0286 4C45445F 		.ascii	"LED_Driver2_mstrWrBufPtr\000"
 991      44726976 
 991      6572325F 
 991      6D737472 
 991      57724275 
 992              		.ident	"GCC: (GNU Tools for ARM Embedded Processors) 4.9.3 20150303 (release) [ARM/embedded-4_9-br
