ARM GAS  D:\Windows\AppData\Local\Temp\ccKoXaCI.s 			page 1


   1              		.syntax unified
   2              		.cpu cortex-m3
   3              		.fpu softvfp
   4              		.eabi_attribute 20, 1
   5              		.eabi_attribute 21, 1
   6              		.eabi_attribute 23, 3
   7              		.eabi_attribute 24, 1
   8              		.eabi_attribute 25, 1
   9              		.eabi_attribute 26, 1
  10              		.eabi_attribute 30, 1
  11              		.eabi_attribute 34, 1
  12              		.eabi_attribute 18, 4
  13              		.thumb
  14              		.file	"LED_Driver2.c"
  15              		.text
  16              	.Ltext0:
  17              		.cfi_sections	.debug_frame
  18              		.section	.text.LED_Driver2_Init,"ax",%progbits
  19              		.align	2
  20              		.global	LED_Driver2_Init
  21              		.thumb
  22              		.thumb_func
  23              		.type	LED_Driver2_Init, %function
  24              	LED_Driver2_Init:
  25              	.LFB0:
  26              		.file 1 "Generated_Source\\PSoC5\\LED_Driver2.c"
   1:Generated_Source\PSoC5/LED_Driver2.c **** /*******************************************************************************
   2:Generated_Source\PSoC5/LED_Driver2.c **** * File Name: LED_Driver2.c
   3:Generated_Source\PSoC5/LED_Driver2.c **** * Version 3.50
   4:Generated_Source\PSoC5/LED_Driver2.c **** *
   5:Generated_Source\PSoC5/LED_Driver2.c **** * Description:
   6:Generated_Source\PSoC5/LED_Driver2.c **** *  This file provides the source code of APIs for the I2C component.
   7:Generated_Source\PSoC5/LED_Driver2.c **** *  The actual protocol and operation code resides in the interrupt service
   8:Generated_Source\PSoC5/LED_Driver2.c **** *  routine file.
   9:Generated_Source\PSoC5/LED_Driver2.c **** *
  10:Generated_Source\PSoC5/LED_Driver2.c **** *******************************************************************************
  11:Generated_Source\PSoC5/LED_Driver2.c **** * Copyright 2008-2015, Cypress Semiconductor Corporation. All rights reserved.
  12:Generated_Source\PSoC5/LED_Driver2.c **** * You may use this file only in accordance with the license, terms, conditions,
  13:Generated_Source\PSoC5/LED_Driver2.c **** * disclaimers, and limitations in the end user license agreement accompanying
  14:Generated_Source\PSoC5/LED_Driver2.c **** * the software package with which this file was provided.
  15:Generated_Source\PSoC5/LED_Driver2.c **** *******************************************************************************/
  16:Generated_Source\PSoC5/LED_Driver2.c **** 
  17:Generated_Source\PSoC5/LED_Driver2.c **** #include "LED_Driver2_PVT.h"
  18:Generated_Source\PSoC5/LED_Driver2.c **** 
  19:Generated_Source\PSoC5/LED_Driver2.c **** 
  20:Generated_Source\PSoC5/LED_Driver2.c **** /**********************************
  21:Generated_Source\PSoC5/LED_Driver2.c **** *      System variables
  22:Generated_Source\PSoC5/LED_Driver2.c **** **********************************/
  23:Generated_Source\PSoC5/LED_Driver2.c **** 
  24:Generated_Source\PSoC5/LED_Driver2.c **** uint8 LED_Driver2_initVar = 0u; /* Defines if component was initialized */
  25:Generated_Source\PSoC5/LED_Driver2.c **** 
  26:Generated_Source\PSoC5/LED_Driver2.c **** volatile uint8 LED_Driver2_state;  /* Current state of I2C FSM */
  27:Generated_Source\PSoC5/LED_Driver2.c **** 
  28:Generated_Source\PSoC5/LED_Driver2.c **** 
  29:Generated_Source\PSoC5/LED_Driver2.c **** /*******************************************************************************
  30:Generated_Source\PSoC5/LED_Driver2.c **** * Function Name: LED_Driver2_Init
  31:Generated_Source\PSoC5/LED_Driver2.c **** ********************************************************************************
ARM GAS  D:\Windows\AppData\Local\Temp\ccKoXaCI.s 			page 2


  32:Generated_Source\PSoC5/LED_Driver2.c **** *
  33:Generated_Source\PSoC5/LED_Driver2.c **** * Summary:
  34:Generated_Source\PSoC5/LED_Driver2.c **** *  Initializes I2C registers with initial values provided from customizer.
  35:Generated_Source\PSoC5/LED_Driver2.c **** *
  36:Generated_Source\PSoC5/LED_Driver2.c **** * Parameters:
  37:Generated_Source\PSoC5/LED_Driver2.c **** *  None.
  38:Generated_Source\PSoC5/LED_Driver2.c **** *
  39:Generated_Source\PSoC5/LED_Driver2.c **** * Return:
  40:Generated_Source\PSoC5/LED_Driver2.c **** *  None.
  41:Generated_Source\PSoC5/LED_Driver2.c **** *
  42:Generated_Source\PSoC5/LED_Driver2.c **** * Global variables:
  43:Generated_Source\PSoC5/LED_Driver2.c **** *  None.
  44:Generated_Source\PSoC5/LED_Driver2.c **** *
  45:Generated_Source\PSoC5/LED_Driver2.c **** * Reentrant:
  46:Generated_Source\PSoC5/LED_Driver2.c **** *  No.
  47:Generated_Source\PSoC5/LED_Driver2.c **** *
  48:Generated_Source\PSoC5/LED_Driver2.c **** *******************************************************************************/
  49:Generated_Source\PSoC5/LED_Driver2.c **** void LED_Driver2_Init(void) 
  50:Generated_Source\PSoC5/LED_Driver2.c **** {
  27              		.loc 1 50 0
  28              		.cfi_startproc
  29              		@ args = 0, pretend = 0, frame = 0
  30              		@ frame_needed = 0, uses_anonymous_args = 0
  31 0000 38B5     		push	{r3, r4, r5, lr}
  32              		.cfi_def_cfa_offset 16
  33              		.cfi_offset 3, -16
  34              		.cfi_offset 4, -12
  35              		.cfi_offset 5, -8
  36              		.cfi_offset 14, -4
  51:Generated_Source\PSoC5/LED_Driver2.c **** #if (LED_Driver2_FF_IMPLEMENTED)
  52:Generated_Source\PSoC5/LED_Driver2.c ****     /* Configure fixed function block */
  53:Generated_Source\PSoC5/LED_Driver2.c ****     LED_Driver2_CFG_REG  = LED_Driver2_DEFAULT_CFG;
  54:Generated_Source\PSoC5/LED_Driver2.c ****     LED_Driver2_XCFG_REG = LED_Driver2_DEFAULT_XCFG;
  55:Generated_Source\PSoC5/LED_Driver2.c ****     LED_Driver2_ADDR_REG = LED_Driver2_DEFAULT_ADDR;
  56:Generated_Source\PSoC5/LED_Driver2.c ****     LED_Driver2_CLKDIV1_REG = LO8(LED_Driver2_DEFAULT_DIVIDE_FACTOR);
  57:Generated_Source\PSoC5/LED_Driver2.c ****     LED_Driver2_CLKDIV2_REG = HI8(LED_Driver2_DEFAULT_DIVIDE_FACTOR);
  58:Generated_Source\PSoC5/LED_Driver2.c **** 
  59:Generated_Source\PSoC5/LED_Driver2.c **** #else
  60:Generated_Source\PSoC5/LED_Driver2.c ****     uint8 intState;
  61:Generated_Source\PSoC5/LED_Driver2.c **** 
  62:Generated_Source\PSoC5/LED_Driver2.c ****     /* Configure control and interrupt sources */
  63:Generated_Source\PSoC5/LED_Driver2.c ****     LED_Driver2_CFG_REG      = LED_Driver2_DEFAULT_CFG;
  37              		.loc 1 63 0
  38 0002 0024     		movs	r4, #0
  39 0004 144B     		ldr	r3, .L3
  40 0006 1C70     		strb	r4, [r3]
  64:Generated_Source\PSoC5/LED_Driver2.c ****     LED_Driver2_INT_MASK_REG = LED_Driver2_DEFAULT_INT_MASK;
  41              		.loc 1 64 0
  42 0008 0125     		movs	r5, #1
  43 000a 0C33     		adds	r3, r3, #12
  44 000c 1D70     		strb	r5, [r3]
  65:Generated_Source\PSoC5/LED_Driver2.c **** 
  66:Generated_Source\PSoC5/LED_Driver2.c ****     /* Enable interrupt generation in status */
  67:Generated_Source\PSoC5/LED_Driver2.c ****     intState = CyEnterCriticalSection();
  45              		.loc 1 67 0
  46 000e FFF7FEFF 		bl	CyEnterCriticalSection
  47              	.LVL0:
ARM GAS  D:\Windows\AppData\Local\Temp\ccKoXaCI.s 			page 3


  68:Generated_Source\PSoC5/LED_Driver2.c ****     LED_Driver2_INT_ENABLE_REG |= LED_Driver2_INTR_ENABLE;
  48              		.loc 1 68 0
  49 0012 124A     		ldr	r2, .L3+4
  50 0014 1378     		ldrb	r3, [r2]	@ zero_extendqisi2
  51 0016 43F01003 		orr	r3, r3, #16
  52 001a 1370     		strb	r3, [r2]
  69:Generated_Source\PSoC5/LED_Driver2.c ****     CyExitCriticalSection(intState);
  53              		.loc 1 69 0
  54 001c FFF7FEFF 		bl	CyExitCriticalSection
  55              	.LVL1:
  70:Generated_Source\PSoC5/LED_Driver2.c **** 
  71:Generated_Source\PSoC5/LED_Driver2.c ****     /* Configure bit counter */
  72:Generated_Source\PSoC5/LED_Driver2.c ****     #if (LED_Driver2_MODE_SLAVE_ENABLED)
  73:Generated_Source\PSoC5/LED_Driver2.c ****         LED_Driver2_PERIOD_REG = LED_Driver2_DEFAULT_PERIOD;
  74:Generated_Source\PSoC5/LED_Driver2.c ****     #endif  /* (LED_Driver2_MODE_SLAVE_ENABLED) */
  75:Generated_Source\PSoC5/LED_Driver2.c **** 
  76:Generated_Source\PSoC5/LED_Driver2.c ****     /* Configure clock generator */
  77:Generated_Source\PSoC5/LED_Driver2.c ****     #if (LED_Driver2_MODE_MASTER_ENABLED)
  78:Generated_Source\PSoC5/LED_Driver2.c ****         LED_Driver2_MCLK_PRD_REG = LED_Driver2_DEFAULT_MCLK_PRD;
  56              		.loc 1 78 0
  57 0020 0F22     		movs	r2, #15
  58 0022 0F4B     		ldr	r3, .L3+8
  59 0024 1A70     		strb	r2, [r3]
  79:Generated_Source\PSoC5/LED_Driver2.c ****         LED_Driver2_MCLK_CMP_REG = LED_Driver2_DEFAULT_MCLK_CMP;
  60              		.loc 1 79 0
  61 0026 0822     		movs	r2, #8
  62 0028 1033     		adds	r3, r3, #16
  63 002a 1A70     		strb	r2, [r3]
  80:Generated_Source\PSoC5/LED_Driver2.c ****     #endif /* (LED_Driver2_MODE_MASTER_ENABLED) */
  81:Generated_Source\PSoC5/LED_Driver2.c **** #endif /* (LED_Driver2_FF_IMPLEMENTED) */
  82:Generated_Source\PSoC5/LED_Driver2.c **** 
  83:Generated_Source\PSoC5/LED_Driver2.c **** #if (LED_Driver2_TIMEOUT_ENABLED)
  84:Generated_Source\PSoC5/LED_Driver2.c ****     LED_Driver2_TimeoutInit();
  85:Generated_Source\PSoC5/LED_Driver2.c **** #endif /* (LED_Driver2_TIMEOUT_ENABLED) */
  86:Generated_Source\PSoC5/LED_Driver2.c **** 
  87:Generated_Source\PSoC5/LED_Driver2.c ****     /* Configure internal interrupt */
  88:Generated_Source\PSoC5/LED_Driver2.c ****     CyIntDisable    (LED_Driver2_ISR_NUMBER);
  64              		.loc 1 88 0
  65 002c 0222     		movs	r2, #2
  66 002e 0D4B     		ldr	r3, .L3+12
  67 0030 1A60     		str	r2, [r3]
  89:Generated_Source\PSoC5/LED_Driver2.c ****     CyIntSetPriority(LED_Driver2_ISR_NUMBER, LED_Driver2_ISR_PRIORITY);
  68              		.loc 1 89 0
  69 0032 2846     		mov	r0, r5
  70 0034 0721     		movs	r1, #7
  71 0036 FFF7FEFF 		bl	CyIntSetPriority
  72              	.LVL2:
  90:Generated_Source\PSoC5/LED_Driver2.c ****     #if (LED_Driver2_INTERN_I2C_INTR_HANDLER)
  91:Generated_Source\PSoC5/LED_Driver2.c ****         (void) CyIntSetVector(LED_Driver2_ISR_NUMBER, &LED_Driver2_ISR);
  73              		.loc 1 91 0
  74 003a 2846     		mov	r0, r5
  75 003c 0A49     		ldr	r1, .L3+16
  76 003e FFF7FEFF 		bl	CyIntSetVector
  77              	.LVL3:
  92:Generated_Source\PSoC5/LED_Driver2.c ****     #endif /* (LED_Driver2_INTERN_I2C_INTR_HANDLER) */
  93:Generated_Source\PSoC5/LED_Driver2.c **** 
  94:Generated_Source\PSoC5/LED_Driver2.c ****     /* Set FSM to default state */
ARM GAS  D:\Windows\AppData\Local\Temp\ccKoXaCI.s 			page 4


  95:Generated_Source\PSoC5/LED_Driver2.c ****     LED_Driver2_state = LED_Driver2_SM_IDLE;
  78              		.loc 1 95 0
  79 0042 1022     		movs	r2, #16
  80 0044 094B     		ldr	r3, .L3+20
  81 0046 1A70     		strb	r2, [r3]
  96:Generated_Source\PSoC5/LED_Driver2.c **** 
  97:Generated_Source\PSoC5/LED_Driver2.c **** #if (LED_Driver2_MODE_SLAVE_ENABLED)
  98:Generated_Source\PSoC5/LED_Driver2.c ****     /* Clear status and buffers index */
  99:Generated_Source\PSoC5/LED_Driver2.c ****     LED_Driver2_slStatus = 0u;
 100:Generated_Source\PSoC5/LED_Driver2.c ****     LED_Driver2_slRdBufIndex = 0u;
 101:Generated_Source\PSoC5/LED_Driver2.c ****     LED_Driver2_slWrBufIndex = 0u;
 102:Generated_Source\PSoC5/LED_Driver2.c **** 
 103:Generated_Source\PSoC5/LED_Driver2.c ****     /* Configure matched address */
 104:Generated_Source\PSoC5/LED_Driver2.c ****     LED_Driver2_SlaveSetAddress(LED_Driver2_DEFAULT_ADDR);
 105:Generated_Source\PSoC5/LED_Driver2.c **** #endif /* (LED_Driver2_MODE_SLAVE_ENABLED) */
 106:Generated_Source\PSoC5/LED_Driver2.c **** 
 107:Generated_Source\PSoC5/LED_Driver2.c **** #if (LED_Driver2_MODE_MASTER_ENABLED)
 108:Generated_Source\PSoC5/LED_Driver2.c ****     /* Clear status and buffers index */
 109:Generated_Source\PSoC5/LED_Driver2.c ****     LED_Driver2_mstrStatus = 0u;
  82              		.loc 1 109 0
  83 0048 094B     		ldr	r3, .L3+24
  84 004a 1C70     		strb	r4, [r3]
 110:Generated_Source\PSoC5/LED_Driver2.c ****     LED_Driver2_mstrRdBufIndex = 0u;
  85              		.loc 1 110 0
  86 004c 094B     		ldr	r3, .L3+28
  87 004e 1C70     		strb	r4, [r3]
 111:Generated_Source\PSoC5/LED_Driver2.c ****     LED_Driver2_mstrWrBufIndex = 0u;
  88              		.loc 1 111 0
  89 0050 094B     		ldr	r3, .L3+32
  90 0052 1C70     		strb	r4, [r3]
  91 0054 38BD     		pop	{r3, r4, r5, pc}
  92              	.L4:
  93 0056 00BF     		.align	2
  94              	.L3:
  95 0058 7F640040 		.word	1073767551
  96 005c 9B640040 		.word	1073767579
  97 0060 2B650040 		.word	1073767723
  98 0064 80E100E0 		.word	-536813184
  99 0068 00000000 		.word	LED_Driver2_ISR
 100 006c 00000000 		.word	LED_Driver2_state
 101 0070 00000000 		.word	LED_Driver2_mstrStatus
 102 0074 00000000 		.word	LED_Driver2_mstrRdBufIndex
 103 0078 00000000 		.word	LED_Driver2_mstrWrBufIndex
 104              		.cfi_endproc
 105              	.LFE0:
 106              		.size	LED_Driver2_Init, .-LED_Driver2_Init
 107              		.section	.text.LED_Driver2_Enable,"ax",%progbits
 108              		.align	2
 109              		.global	LED_Driver2_Enable
 110              		.thumb
 111              		.thumb_func
 112              		.type	LED_Driver2_Enable, %function
 113              	LED_Driver2_Enable:
 114              	.LFB1:
 112:Generated_Source\PSoC5/LED_Driver2.c **** #endif /* (LED_Driver2_MODE_MASTER_ENABLED) */
 113:Generated_Source\PSoC5/LED_Driver2.c **** }
 114:Generated_Source\PSoC5/LED_Driver2.c **** 
ARM GAS  D:\Windows\AppData\Local\Temp\ccKoXaCI.s 			page 5


 115:Generated_Source\PSoC5/LED_Driver2.c **** 
 116:Generated_Source\PSoC5/LED_Driver2.c **** /*******************************************************************************
 117:Generated_Source\PSoC5/LED_Driver2.c **** * Function Name: LED_Driver2_Enable
 118:Generated_Source\PSoC5/LED_Driver2.c **** ********************************************************************************
 119:Generated_Source\PSoC5/LED_Driver2.c **** *
 120:Generated_Source\PSoC5/LED_Driver2.c **** * Summary:
 121:Generated_Source\PSoC5/LED_Driver2.c **** *  Enables I2C operations.
 122:Generated_Source\PSoC5/LED_Driver2.c **** *
 123:Generated_Source\PSoC5/LED_Driver2.c **** * Parameters:
 124:Generated_Source\PSoC5/LED_Driver2.c **** *  None.
 125:Generated_Source\PSoC5/LED_Driver2.c **** *
 126:Generated_Source\PSoC5/LED_Driver2.c **** * Return:
 127:Generated_Source\PSoC5/LED_Driver2.c **** *  None.
 128:Generated_Source\PSoC5/LED_Driver2.c **** *
 129:Generated_Source\PSoC5/LED_Driver2.c **** * Global variables:
 130:Generated_Source\PSoC5/LED_Driver2.c **** *  None.
 131:Generated_Source\PSoC5/LED_Driver2.c **** *
 132:Generated_Source\PSoC5/LED_Driver2.c **** *******************************************************************************/
 133:Generated_Source\PSoC5/LED_Driver2.c **** void LED_Driver2_Enable(void) 
 134:Generated_Source\PSoC5/LED_Driver2.c **** {
 115              		.loc 1 134 0
 116              		.cfi_startproc
 117              		@ args = 0, pretend = 0, frame = 0
 118              		@ frame_needed = 0, uses_anonymous_args = 0
 119              		@ link register save eliminated.
 135:Generated_Source\PSoC5/LED_Driver2.c **** #if (LED_Driver2_FF_IMPLEMENTED)
 136:Generated_Source\PSoC5/LED_Driver2.c ****     uint8 intState;
 137:Generated_Source\PSoC5/LED_Driver2.c **** 
 138:Generated_Source\PSoC5/LED_Driver2.c ****     /* Enable power to block */
 139:Generated_Source\PSoC5/LED_Driver2.c ****     intState = CyEnterCriticalSection();
 140:Generated_Source\PSoC5/LED_Driver2.c ****     LED_Driver2_ACT_PWRMGR_REG  |= LED_Driver2_ACT_PWR_EN;
 141:Generated_Source\PSoC5/LED_Driver2.c ****     LED_Driver2_STBY_PWRMGR_REG |= LED_Driver2_STBY_PWR_EN;
 142:Generated_Source\PSoC5/LED_Driver2.c ****     CyExitCriticalSection(intState);
 143:Generated_Source\PSoC5/LED_Driver2.c **** #else
 144:Generated_Source\PSoC5/LED_Driver2.c ****     #if (LED_Driver2_MODE_SLAVE_ENABLED)
 145:Generated_Source\PSoC5/LED_Driver2.c ****         /* Enable bit counter */
 146:Generated_Source\PSoC5/LED_Driver2.c ****         uint8 intState = CyEnterCriticalSection();
 147:Generated_Source\PSoC5/LED_Driver2.c ****         LED_Driver2_COUNTER_AUX_CTL_REG |= LED_Driver2_CNT7_ENABLE;
 148:Generated_Source\PSoC5/LED_Driver2.c ****         CyExitCriticalSection(intState);
 149:Generated_Source\PSoC5/LED_Driver2.c ****     #endif /* (LED_Driver2_MODE_SLAVE_ENABLED) */
 150:Generated_Source\PSoC5/LED_Driver2.c **** 
 151:Generated_Source\PSoC5/LED_Driver2.c ****     /* Enable slave or master bits */
 152:Generated_Source\PSoC5/LED_Driver2.c ****     LED_Driver2_CFG_REG |= LED_Driver2_ENABLE_MS;
 120              		.loc 1 152 0
 121 0000 024A     		ldr	r2, .L6
 122 0002 1378     		ldrb	r3, [r2]	@ zero_extendqisi2
 123 0004 43F00203 		orr	r3, r3, #2
 124 0008 1370     		strb	r3, [r2]
 125 000a 7047     		bx	lr
 126              	.L7:
 127              		.align	2
 128              	.L6:
 129 000c 7F640040 		.word	1073767551
 130              		.cfi_endproc
 131              	.LFE1:
 132              		.size	LED_Driver2_Enable, .-LED_Driver2_Enable
 133              		.section	.text.LED_Driver2_Start,"ax",%progbits
ARM GAS  D:\Windows\AppData\Local\Temp\ccKoXaCI.s 			page 6


 134              		.align	2
 135              		.global	LED_Driver2_Start
 136              		.thumb
 137              		.thumb_func
 138              		.type	LED_Driver2_Start, %function
 139              	LED_Driver2_Start:
 140              	.LFB2:
 153:Generated_Source\PSoC5/LED_Driver2.c **** #endif /* (LED_Driver2_FF_IMPLEMENTED) */
 154:Generated_Source\PSoC5/LED_Driver2.c **** 
 155:Generated_Source\PSoC5/LED_Driver2.c **** #if (LED_Driver2_TIMEOUT_ENABLED)
 156:Generated_Source\PSoC5/LED_Driver2.c ****     LED_Driver2_TimeoutEnable();
 157:Generated_Source\PSoC5/LED_Driver2.c **** #endif /* (LED_Driver2_TIMEOUT_ENABLED) */
 158:Generated_Source\PSoC5/LED_Driver2.c **** }
 159:Generated_Source\PSoC5/LED_Driver2.c **** 
 160:Generated_Source\PSoC5/LED_Driver2.c **** 
 161:Generated_Source\PSoC5/LED_Driver2.c **** /*******************************************************************************
 162:Generated_Source\PSoC5/LED_Driver2.c **** * Function Name: LED_Driver2_Start
 163:Generated_Source\PSoC5/LED_Driver2.c **** ********************************************************************************
 164:Generated_Source\PSoC5/LED_Driver2.c **** *
 165:Generated_Source\PSoC5/LED_Driver2.c **** * Summary:
 166:Generated_Source\PSoC5/LED_Driver2.c **** *  Starts the I2C hardware. Enables Active mode power template bits or clock
 167:Generated_Source\PSoC5/LED_Driver2.c **** *  gating as appropriate. It is required to be executed before I2C bus
 168:Generated_Source\PSoC5/LED_Driver2.c **** *  operation.
 169:Generated_Source\PSoC5/LED_Driver2.c **** *
 170:Generated_Source\PSoC5/LED_Driver2.c **** * Parameters:
 171:Generated_Source\PSoC5/LED_Driver2.c **** *  None.
 172:Generated_Source\PSoC5/LED_Driver2.c **** *
 173:Generated_Source\PSoC5/LED_Driver2.c **** * Return:
 174:Generated_Source\PSoC5/LED_Driver2.c **** *  None.
 175:Generated_Source\PSoC5/LED_Driver2.c **** *
 176:Generated_Source\PSoC5/LED_Driver2.c **** * Side Effects:
 177:Generated_Source\PSoC5/LED_Driver2.c **** *  This component automatically enables its interrupt.  If I2C is enabled !
 178:Generated_Source\PSoC5/LED_Driver2.c **** *  without the interrupt enabled, it can lock up the I2C bus.
 179:Generated_Source\PSoC5/LED_Driver2.c **** *
 180:Generated_Source\PSoC5/LED_Driver2.c **** * Global variables:
 181:Generated_Source\PSoC5/LED_Driver2.c **** *  LED_Driver2_initVar - This variable is used to check the initial
 182:Generated_Source\PSoC5/LED_Driver2.c **** *                             configuration, modified on the first
 183:Generated_Source\PSoC5/LED_Driver2.c **** *                             function call.
 184:Generated_Source\PSoC5/LED_Driver2.c **** *
 185:Generated_Source\PSoC5/LED_Driver2.c **** * Reentrant:
 186:Generated_Source\PSoC5/LED_Driver2.c **** *  No.
 187:Generated_Source\PSoC5/LED_Driver2.c **** *
 188:Generated_Source\PSoC5/LED_Driver2.c **** *******************************************************************************/
 189:Generated_Source\PSoC5/LED_Driver2.c **** void LED_Driver2_Start(void) 
 190:Generated_Source\PSoC5/LED_Driver2.c **** {
 141              		.loc 1 190 0
 142              		.cfi_startproc
 143              		@ args = 0, pretend = 0, frame = 0
 144              		@ frame_needed = 0, uses_anonymous_args = 0
 145 0000 08B5     		push	{r3, lr}
 146              		.cfi_def_cfa_offset 8
 147              		.cfi_offset 3, -8
 148              		.cfi_offset 14, -4
 191:Generated_Source\PSoC5/LED_Driver2.c ****     if (0u == LED_Driver2_initVar)
 149              		.loc 1 191 0
 150 0002 074B     		ldr	r3, .L11
 151 0004 1B78     		ldrb	r3, [r3]	@ zero_extendqisi2
ARM GAS  D:\Windows\AppData\Local\Temp\ccKoXaCI.s 			page 7


 152 0006 23B9     		cbnz	r3, .L9
 192:Generated_Source\PSoC5/LED_Driver2.c ****     {
 193:Generated_Source\PSoC5/LED_Driver2.c ****         LED_Driver2_Init();
 153              		.loc 1 193 0
 154 0008 FFF7FEFF 		bl	LED_Driver2_Init
 155              	.LVL4:
 194:Generated_Source\PSoC5/LED_Driver2.c ****         LED_Driver2_initVar = 1u; /* Component initialized */
 156              		.loc 1 194 0
 157 000c 0122     		movs	r2, #1
 158 000e 044B     		ldr	r3, .L11
 159 0010 1A70     		strb	r2, [r3]
 160              	.L9:
 195:Generated_Source\PSoC5/LED_Driver2.c ****     }
 196:Generated_Source\PSoC5/LED_Driver2.c **** 
 197:Generated_Source\PSoC5/LED_Driver2.c ****     LED_Driver2_Enable();
 161              		.loc 1 197 0
 162 0012 FFF7FEFF 		bl	LED_Driver2_Enable
 163              	.LVL5:
 198:Generated_Source\PSoC5/LED_Driver2.c ****     LED_Driver2_EnableInt();
 164              		.loc 1 198 0
 165 0016 0222     		movs	r2, #2
 166 0018 024B     		ldr	r3, .L11+4
 167 001a 1A60     		str	r2, [r3]
 168 001c 08BD     		pop	{r3, pc}
 169              	.L12:
 170 001e 00BF     		.align	2
 171              	.L11:
 172 0020 00000000 		.word	.LANCHOR0
 173 0024 00E100E0 		.word	-536813312
 174              		.cfi_endproc
 175              	.LFE2:
 176              		.size	LED_Driver2_Start, .-LED_Driver2_Start
 177              		.section	.text.LED_Driver2_Stop,"ax",%progbits
 178              		.align	2
 179              		.global	LED_Driver2_Stop
 180              		.thumb
 181              		.thumb_func
 182              		.type	LED_Driver2_Stop, %function
 183              	LED_Driver2_Stop:
 184              	.LFB3:
 199:Generated_Source\PSoC5/LED_Driver2.c **** }
 200:Generated_Source\PSoC5/LED_Driver2.c **** 
 201:Generated_Source\PSoC5/LED_Driver2.c **** 
 202:Generated_Source\PSoC5/LED_Driver2.c **** /*******************************************************************************
 203:Generated_Source\PSoC5/LED_Driver2.c **** * Function Name: LED_Driver2_Stop
 204:Generated_Source\PSoC5/LED_Driver2.c **** ********************************************************************************
 205:Generated_Source\PSoC5/LED_Driver2.c **** *
 206:Generated_Source\PSoC5/LED_Driver2.c **** * Summary:
 207:Generated_Source\PSoC5/LED_Driver2.c **** *  Disables I2C hardware and disables I2C interrupt. Disables Active mode power
 208:Generated_Source\PSoC5/LED_Driver2.c **** *  template bits or clock gating as appropriate.
 209:Generated_Source\PSoC5/LED_Driver2.c **** *
 210:Generated_Source\PSoC5/LED_Driver2.c **** * Parameters:
 211:Generated_Source\PSoC5/LED_Driver2.c **** *  None.
 212:Generated_Source\PSoC5/LED_Driver2.c **** *
 213:Generated_Source\PSoC5/LED_Driver2.c **** * Return:
 214:Generated_Source\PSoC5/LED_Driver2.c **** *  None.
 215:Generated_Source\PSoC5/LED_Driver2.c **** *
ARM GAS  D:\Windows\AppData\Local\Temp\ccKoXaCI.s 			page 8


 216:Generated_Source\PSoC5/LED_Driver2.c **** *******************************************************************************/
 217:Generated_Source\PSoC5/LED_Driver2.c **** void LED_Driver2_Stop(void) 
 218:Generated_Source\PSoC5/LED_Driver2.c **** {
 185              		.loc 1 218 0
 186              		.cfi_startproc
 187              		@ args = 0, pretend = 0, frame = 0
 188              		@ frame_needed = 0, uses_anonymous_args = 0
 189              		@ link register save eliminated.
 219:Generated_Source\PSoC5/LED_Driver2.c ****     LED_Driver2_DisableInt();
 190              		.loc 1 219 0
 191 0000 0222     		movs	r2, #2
 192 0002 0A4B     		ldr	r3, .L14
 193 0004 1A60     		str	r2, [r3]
 220:Generated_Source\PSoC5/LED_Driver2.c **** 
 221:Generated_Source\PSoC5/LED_Driver2.c **** #if (LED_Driver2_TIMEOUT_ENABLED)
 222:Generated_Source\PSoC5/LED_Driver2.c ****     LED_Driver2_TimeoutStop();
 223:Generated_Source\PSoC5/LED_Driver2.c **** #endif  /* End (LED_Driver2_TIMEOUT_ENABLED) */
 224:Generated_Source\PSoC5/LED_Driver2.c **** 
 225:Generated_Source\PSoC5/LED_Driver2.c **** #if (LED_Driver2_FF_IMPLEMENTED)
 226:Generated_Source\PSoC5/LED_Driver2.c ****     {
 227:Generated_Source\PSoC5/LED_Driver2.c ****         uint8 intState;
 228:Generated_Source\PSoC5/LED_Driver2.c ****         uint16 blockResetCycles;
 229:Generated_Source\PSoC5/LED_Driver2.c **** 
 230:Generated_Source\PSoC5/LED_Driver2.c ****         /* Store registers effected by block disable */
 231:Generated_Source\PSoC5/LED_Driver2.c ****         LED_Driver2_backup.addr    = LED_Driver2_ADDR_REG;
 232:Generated_Source\PSoC5/LED_Driver2.c ****         LED_Driver2_backup.clkDiv1 = LED_Driver2_CLKDIV1_REG;
 233:Generated_Source\PSoC5/LED_Driver2.c ****         LED_Driver2_backup.clkDiv2 = LED_Driver2_CLKDIV2_REG;
 234:Generated_Source\PSoC5/LED_Driver2.c **** 
 235:Generated_Source\PSoC5/LED_Driver2.c ****         /* Calculate number of cycles to reset block */
 236:Generated_Source\PSoC5/LED_Driver2.c ****         blockResetCycles = ((uint16) ((uint16) LED_Driver2_CLKDIV2_REG << 8u) | LED_Driver2_CLKDIV1
 237:Generated_Source\PSoC5/LED_Driver2.c **** 
 238:Generated_Source\PSoC5/LED_Driver2.c ****         /* Disable block */
 239:Generated_Source\PSoC5/LED_Driver2.c ****         LED_Driver2_CFG_REG &= (uint8) ~LED_Driver2_CFG_EN_SLAVE;
 240:Generated_Source\PSoC5/LED_Driver2.c ****         /* Wait for block reset before disable power */
 241:Generated_Source\PSoC5/LED_Driver2.c ****         CyDelayCycles((uint32) blockResetCycles);
 242:Generated_Source\PSoC5/LED_Driver2.c **** 
 243:Generated_Source\PSoC5/LED_Driver2.c ****         /* Disable power to block */
 244:Generated_Source\PSoC5/LED_Driver2.c ****         intState = CyEnterCriticalSection();
 245:Generated_Source\PSoC5/LED_Driver2.c ****         LED_Driver2_ACT_PWRMGR_REG  &= (uint8) ~LED_Driver2_ACT_PWR_EN;
 246:Generated_Source\PSoC5/LED_Driver2.c ****         LED_Driver2_STBY_PWRMGR_REG &= (uint8) ~LED_Driver2_STBY_PWR_EN;
 247:Generated_Source\PSoC5/LED_Driver2.c ****         CyExitCriticalSection(intState);
 248:Generated_Source\PSoC5/LED_Driver2.c **** 
 249:Generated_Source\PSoC5/LED_Driver2.c ****         /* Enable block */
 250:Generated_Source\PSoC5/LED_Driver2.c ****         LED_Driver2_CFG_REG |= (uint8) LED_Driver2_ENABLE_MS;
 251:Generated_Source\PSoC5/LED_Driver2.c **** 
 252:Generated_Source\PSoC5/LED_Driver2.c ****         /* Restore registers effected by block disable. Ticket ID#198004 */
 253:Generated_Source\PSoC5/LED_Driver2.c ****         LED_Driver2_ADDR_REG    = LED_Driver2_backup.addr;
 254:Generated_Source\PSoC5/LED_Driver2.c ****         LED_Driver2_ADDR_REG    = LED_Driver2_backup.addr;
 255:Generated_Source\PSoC5/LED_Driver2.c ****         LED_Driver2_CLKDIV1_REG = LED_Driver2_backup.clkDiv1;
 256:Generated_Source\PSoC5/LED_Driver2.c ****         LED_Driver2_CLKDIV2_REG = LED_Driver2_backup.clkDiv2;
 257:Generated_Source\PSoC5/LED_Driver2.c ****     }
 258:Generated_Source\PSoC5/LED_Driver2.c **** #else
 259:Generated_Source\PSoC5/LED_Driver2.c **** 
 260:Generated_Source\PSoC5/LED_Driver2.c ****     /* Disable slave or master bits */
 261:Generated_Source\PSoC5/LED_Driver2.c ****     LED_Driver2_CFG_REG &= (uint8) ~LED_Driver2_ENABLE_MS;
 194              		.loc 1 261 0
 195 0006 0A49     		ldr	r1, .L14+4
ARM GAS  D:\Windows\AppData\Local\Temp\ccKoXaCI.s 			page 9


 196 0008 0B78     		ldrb	r3, [r1]	@ zero_extendqisi2
 197 000a 03F0FD03 		and	r3, r3, #253
 198 000e 0B70     		strb	r3, [r1]
 262:Generated_Source\PSoC5/LED_Driver2.c **** 
 263:Generated_Source\PSoC5/LED_Driver2.c **** #if (LED_Driver2_MODE_SLAVE_ENABLED)
 264:Generated_Source\PSoC5/LED_Driver2.c ****     {
 265:Generated_Source\PSoC5/LED_Driver2.c ****         /* Disable bit counter */
 266:Generated_Source\PSoC5/LED_Driver2.c ****         uint8 intState = CyEnterCriticalSection();
 267:Generated_Source\PSoC5/LED_Driver2.c ****         LED_Driver2_COUNTER_AUX_CTL_REG &= (uint8) ~LED_Driver2_CNT7_ENABLE;
 268:Generated_Source\PSoC5/LED_Driver2.c ****         CyExitCriticalSection(intState);
 269:Generated_Source\PSoC5/LED_Driver2.c ****     }
 270:Generated_Source\PSoC5/LED_Driver2.c **** #endif /* (LED_Driver2_MODE_SLAVE_ENABLED) */
 271:Generated_Source\PSoC5/LED_Driver2.c **** 
 272:Generated_Source\PSoC5/LED_Driver2.c ****     /* Clear interrupt source register */
 273:Generated_Source\PSoC5/LED_Driver2.c ****     (void) LED_Driver2_CSR_REG;
 199              		.loc 1 273 0
 200 0010 084B     		ldr	r3, .L14+8
 201 0012 1B78     		ldrb	r3, [r3]	@ zero_extendqisi2
 274:Generated_Source\PSoC5/LED_Driver2.c **** #endif /* (LED_Driver2_FF_IMPLEMENTED) */
 275:Generated_Source\PSoC5/LED_Driver2.c **** 
 276:Generated_Source\PSoC5/LED_Driver2.c ****     /* Disable interrupt on stop (enabled by write transaction) */
 277:Generated_Source\PSoC5/LED_Driver2.c ****     LED_Driver2_DISABLE_INT_ON_STOP;
 202              		.loc 1 277 0
 203 0014 0C31     		adds	r1, r1, #12
 204 0016 0B78     		ldrb	r3, [r1]	@ zero_extendqisi2
 205 0018 03F0DF03 		and	r3, r3, #223
 206 001c 0B70     		strb	r3, [r1]
 278:Generated_Source\PSoC5/LED_Driver2.c ****     LED_Driver2_ClearPendingInt();
 207              		.loc 1 278 0
 208 001e 064B     		ldr	r3, .L14+12
 209 0020 1A60     		str	r2, [r3]
 279:Generated_Source\PSoC5/LED_Driver2.c **** 
 280:Generated_Source\PSoC5/LED_Driver2.c ****     /* Reset FSM to default state */
 281:Generated_Source\PSoC5/LED_Driver2.c ****     LED_Driver2_state = LED_Driver2_SM_IDLE;
 210              		.loc 1 281 0
 211 0022 1022     		movs	r2, #16
 212 0024 054B     		ldr	r3, .L14+16
 213 0026 1A70     		strb	r2, [r3]
 214 0028 7047     		bx	lr
 215              	.L15:
 216 002a 00BF     		.align	2
 217              	.L14:
 218 002c 80E100E0 		.word	-536813184
 219 0030 7F640040 		.word	1073767551
 220 0034 6B640040 		.word	1073767531
 221 0038 80E200E0 		.word	-536812928
 222 003c 00000000 		.word	LED_Driver2_state
 223              		.cfi_endproc
 224              	.LFE3:
 225              		.size	LED_Driver2_Stop, .-LED_Driver2_Stop
 226              		.comm	LED_Driver2_state,1,1
 227              		.global	LED_Driver2_initVar
 228              		.bss
 229              		.set	.LANCHOR0,. + 0
 230              		.type	LED_Driver2_initVar, %object
 231              		.size	LED_Driver2_initVar, 1
 232              	LED_Driver2_initVar:
ARM GAS  D:\Windows\AppData\Local\Temp\ccKoXaCI.s 			page 10


 233 0000 00       		.space	1
 234              		.text
 235              	.Letext0:
 236              		.file 2 "Generated_Source\\PSoC5\\cytypes.h"
 237              		.file 3 "Generated_Source\\PSoC5\\LED_Driver2_PVT.h"
 238              		.file 4 "Generated_Source\\PSoC5\\CyLib.h"