ARM GAS  D:\Windows\AppData\Local\Temp\cc583QXE.s 			page 1


   1              		.syntax unified
   2              		.cpu cortex-m3
   3              		.fpu softvfp
   4              		.eabi_attribute 20, 1
   5              		.eabi_attribute 21, 1
   6              		.eabi_attribute 23, 3
   7              		.eabi_attribute 24, 1
   8              		.eabi_attribute 25, 1
   9              		.eabi_attribute 26, 1
  10              		.eabi_attribute 30, 1
  11              		.eabi_attribute 34, 1
  12              		.eabi_attribute 18, 4
  13              		.thumb
  14              		.file	"main.c"
  15              		.text
  16              	.Ltext0:
  17              		.cfi_sections	.debug_frame
  18              		.section	.text.nodeCheckStart,"ax",%progbits
  19              		.align	2
  20              		.global	nodeCheckStart
  21              		.thumb
  22              		.thumb_func
  23              		.type	nodeCheckStart, %function
  24              	nodeCheckStart:
  25              	.LFB63:
  26              		.file 1 "main.c"
   1:main.c        **** #include <project.h>
   2:main.c        **** #include <stdio.h>
   3:main.c        **** #include "can_manga.h"
   4:main.c        **** 
   5:main.c        **** #define PWM_PULSE_WIDTH_STEP        (10u)
   6:main.c        **** #define SWITCH_PRESSED              (0u)
   7:main.c        **** #define PWM_MESSAGE_ID              (0x1AAu)
   8:main.c        **** #define PWM_MESSAGE_IDE             (0u)    /* Standard message */
   9:main.c        **** #define PWM_MESSAGE_IRQ             (0u)    /* No transmit IRQ */
  10:main.c        **** #define PWM_MESSAGE_RTR             (0u)    /* No RTR */
  11:main.c        **** #define CAN_RX_MAILBOX_0_SHIFT      (1u)
  12:main.c        **** #define CAN_RX_MAILBOX_1_SHIFT      (2u)
  13:main.c        **** #define DATA_SIZE                   (6u)
  14:main.c        **** #define ONE_BYTE_OFFSET             (8u)
  15:main.c        **** 
  16:main.c        **** #define PEDAL_TIMEOUT 100 // Timeout after (PEDAL_TIMEOUT * 10)ms
  17:main.c        **** 
  18:main.c        **** /* Function prototypes */
  19:main.c        **** //CY_ISR_PROTO(ISR_CAN);
  20:main.c        **** 
  21:main.c        **** /* Global variables used to store configuration and data for BASIC CAN mailbox */
  22:main.c        **** //CAN_DATA_BYTES_MSG dataPWM;
  23:main.c        **** //CAN_TX_MSG messagePWM;
  24:main.c        **** 
  25:main.c        **** /* Global variable used to store PWM pulse width value */
  26:main.c        **** //uint8 pulseWidthValue = 0u;
  27:main.c        **** 
  28:main.c        **** /* Global variable used to store receive message mailbox number */
  29:main.c        **** //volatile uint8 receiveMailboxNumber = 0xFFu;
  30:main.c        **** 
  31:main.c        **** void nodeCheckStart()
ARM GAS  D:\Windows\AppData\Local\Temp\cc583QXE.s 			page 2


  32:main.c        **** {
  27              		.loc 1 32 0
  28              		.cfi_startproc
  29              		@ args = 0, pretend = 0, frame = 0
  30              		@ frame_needed = 0, uses_anonymous_args = 0
  31 0000 08B5     		push	{r3, lr}
  32              		.cfi_def_cfa_offset 8
  33              		.cfi_offset 3, -8
  34              		.cfi_offset 14, -4
  33:main.c        ****     Node_Timer_Start();
  35              		.loc 1 33 0
  36 0002 FFF7FEFF 		bl	Node_Timer_Start
  37              	.LVL0:
  34:main.c        ****     isr_nodeok_Start();
  38              		.loc 1 34 0
  39 0006 FFF7FEFF 		bl	isr_nodeok_Start
  40              	.LVL1:
  41 000a 08BD     		pop	{r3, pc}
  42              		.cfi_endproc
  43              	.LFE63:
  44              		.size	nodeCheckStart, .-nodeCheckStart
  45              		.section	.text.main,"ax",%progbits
  46              		.align	2
  47              		.global	main
  48              		.thumb
  49              		.thumb_func
  50              		.type	main, %function
  51              	main:
  52              	.LFB64:
  35:main.c        **** }
  36:main.c        **** 
  37:main.c        **** typedef enum 
  38:main.c        **** {
  39:main.c        **** 	Startup,
  40:main.c        **** 	LV,
  41:main.c        **** 	Precharging,
  42:main.c        **** 	HV_Enabled,
  43:main.c        **** 	Drive,
  44:main.c        **** 	Fault
  45:main.c        ****     
  46:main.c        **** }Dash_State;
  47:main.c        **** 
  48:main.c        **** typedef enum 
  49:main.c        **** {
  50:main.c        **** 	OK,
  51:main.c        **** 	fromLV,
  52:main.c        **** 	fromPrecharging,
  53:main.c        **** 	fromHV_Enabled,
  54:main.c        **** 	fromDrive,
  55:main.c        ****     fromFault,
  56:main.c        ****     nodeFailure
  57:main.c        ****     
  58:main.c        **** }Error_State;
  59:main.c        **** 
  60:main.c        **** /* Switch state defines -- Active High*/ 
  61:main.c        **** #define SWITCH_ON         (1u)
  62:main.c        **** #define SWITCH_OFF        (0u)
ARM GAS  D:\Windows\AppData\Local\Temp\cc583QXE.s 			page 3


  63:main.c        **** /* Switch debounce delay in milliseconds */
  64:main.c        **** #define SWITCH_DEBOUNCE_UNIT   (1u)
  65:main.c        **** /* Number of debounce units to count delay, before consider that switch is pressed */
  66:main.c        **** #define SWITCH_DEBOUNCE_PERIOD (10u)
  67:main.c        **** /* Function prototypes */
  68:main.c        **** static uint32 ReadSwSwitch(void);
  69:main.c        **** 
  70:main.c        **** /* Global variable used to store switch state */
  71:main.c        **** uint8 HVSwitch = SWITCH_OFF;
  72:main.c        **** uint8 DriveSwitch = SWITCH_OFF;
  73:main.c        **** //volatile Dash_State state = Startup;
  74:main.c        **** 
  75:main.c        **** // Global variables used to track status of nodes
  76:main.c        **** volatile uint32_t pedalOK = 0; // for pedal node
  77:main.c        **** 
  78:main.c        **** //CY_ISR(isr_can_handler){
  79:main.c        ****     
  80:main.c        **** //    can_send_status(state);
  81:main.c        ****     
  82:main.c        **** //}
  83:main.c        **** 
  84:main.c        **** /*******************************************************************************
  85:main.c        **** * Function Name: main
  86:main.c        **** ********************************************************************************
  87:main.c        **** *
  88:main.c        **** * Summary:
  89:main.c        **** *  main() performs the following functions:
  90:main.c        **** *  1: Initializes a structure for the Basic CAN mailbox to send messages.
  91:main.c        **** *  2: Starts the CAN and LCD components.
  92:main.c        **** *  3: When received Message 1, sends the PWM pulse width and displays
  93:main.c        **** *     received switch status and value of PWM pulse width on an LCD; 
  94:main.c        **** *     When received Message 2, display received ADC data on an LCD.
  95:main.c        **** *
  96:main.c        **** * Parameters:
  97:main.c        **** *  None.
  98:main.c        **** *
  99:main.c        **** * Return:
 100:main.c        **** *  None.
 101:main.c        **** *
 102:main.c        **** *******************************************************************************/
 103:main.c        **** 
 104:main.c        **** int main()
 105:main.c        **** {   
  53              		.loc 1 105 0
  54              		.cfi_startproc
  55              		@ args = 0, pretend = 0, frame = 8
  56              		@ frame_needed = 0, uses_anonymous_args = 0
  57 0000 2DE9F043 		push	{r4, r5, r6, r7, r8, r9, lr}
  58              		.cfi_def_cfa_offset 28
  59              		.cfi_offset 4, -28
  60              		.cfi_offset 5, -24
  61              		.cfi_offset 6, -20
  62              		.cfi_offset 7, -16
  63              		.cfi_offset 8, -12
  64              		.cfi_offset 9, -8
  65              		.cfi_offset 14, -4
  66 0004 83B0     		sub	sp, sp, #12
ARM GAS  D:\Windows\AppData\Local\Temp\cc583QXE.s 			page 4


  67              		.cfi_def_cfa_offset 40
  68              	.LVL2:
 106:main.c        ****     Dash_State state = Startup;
 107:main.c        ****     Error_State error_state = OK;
 108:main.c        ****     
 109:main.c        ****     //precharging time counter
 110:main.c        ****     volatile uint32_t PrechargingTimeCount = 0;
  69              		.loc 1 110 0
  70 0006 0024     		movs	r4, #0
  71 0008 0194     		str	r4, [sp, #4]
  72              	.LVL3:
 111:main.c        ****     uint32_t DriveTimeCount = 0;
 112:main.c        ****     
 113:main.c        ****     //CyDelay(5000);
 114:main.c        ****     //Initialize CAN
 115:main.c        ****     //CAN_GlobalIntEnable();
 116:main.c        ****     //CAN_Init();
 117:main.c        ****     //CAN_Start();
 118:main.c        ****     
 119:main.c        ****     /* Set CAN interrupt handler to local routine */
 120:main.c        ****     //CyIntSetVector(CAN_ISR_NUMBER, ISR_CAN);   
 121:main.c        ****     
 122:main.c        ****     //CAN_Timer_Start();
 123:main.c        ****     //isr_can_StartEx(isr_can_handler);    
 124:main.c        **** 
 125:main.c        ****     CyGlobalIntEnable;
  73              		.loc 1 125 0
  74              	@ 125 "main.c" 1
  75 000a 62B6     		CPSIE   i
  76              	@ 0 "" 2
 126:main.c        ****     
 127:main.c        ****     //while(1){
 128:main.c        ****     //}
 129:main.c        ****     
 130:main.c        ****     //char8 txData[DATA_SIZE];
 131:main.c        ****     //uint16 adcData;
 132:main.c        ****     
 133:main.c        ****     /* BASIC CAN mailbox configuration */
 134:main.c        ****     //messagePWM.dlc = CAN_TX_DLC_MAX_VALUE;
 135:main.c        ****     //messagePWM.id  = PWM_MESSAGE_ID;
 136:main.c        ****     //messagePWM.ide = PWM_MESSAGE_IDE;
 137:main.c        ****     //messagePWM.irq = PWM_MESSAGE_IRQ;
 138:main.c        ****     //messagePWM.msg = &dataPWM;
 139:main.c        ****     //messagePWM.rtr = PWM_MESSAGE_RTR;
 140:main.c        **** 
 141:main.c        ****     
 142:main.c        ****     /* Display value of ADC output on LCD */
 143:main.c        ****     //LCD_Position(0u, 0u);
 144:main.c        ****     //LCD_PrintString("ADC");
 145:main.c        **** 
 146:main.c        ****     /* Display state of switch on LCD */
 147:main.c        ****     //LCD_Position(1u, 0u);
 148:main.c        ****     //LCD_PrintString("SW");
 149:main.c        **** 
 150:main.c        ****     /* Display state of PWM pulse width on LCD */
 151:main.c        ****     //LCD_Position(0u, 10u);
 152:main.c        ****     //LCD_PrintString("PWM");
ARM GAS  D:\Windows\AppData\Local\Temp\cc583QXE.s 			page 5


 153:main.c        **** 
 154:main.c        ****     //test_inject(data_queue, &data_tail);
 155:main.c        ****     
 156:main.c        ****     nodeCheckStart();
  77              		.loc 1 156 0
  78              		.thumb
  79 000c FFF7FEFF 		bl	nodeCheckStart
  80              	.LVL4:
 111:main.c        ****     uint32_t DriveTimeCount = 0;
  81              		.loc 1 111 0
  82 0010 2646     		mov	r6, r4
 107:main.c        ****     
  83              		.loc 1 107 0
  84 0012 2546     		mov	r5, r4
  85 0014 1BE0     		b	.L4
  86              	.LVL5:
  87              	.L23:
  88              	.LBB2:
 157:main.c        ****     
 158:main.c        ****     for(;;)
 159:main.c        ****     {
 160:main.c        ****         //LED_Write(~LED_ReadDataReg());    
 161:main.c        ****         
 162:main.c        ****         //can_send_status(state);
 163:main.c        ****         //CyDelay(2000);
 164:main.c        ****         // Check if all nodes are OK
 165:main.c        ****         if (pedalOK > PEDAL_TIMEOUT)
 166:main.c        ****         {
 167:main.c        ****             can_send_cmd(1,0,0); // setInterlock. 
 168:main.c        ****             state = Fault;
 169:main.c        ****             error_state = nodeFailure;
 170:main.c        ****         }
 171:main.c        ****         
 172:main.c        ****         switch(state)
 173:main.c        ****         {    
 174:main.c        ****             //CyDelay(1000);
 175:main.c        ****             case Startup:
 176:main.c        ****   
 177:main.c        ****                 //CyDelay(5000);
 178:main.c        ****                 //Initialize CAN
 179:main.c        ****                 CAN_GlobalIntEnable();
 180:main.c        ****                 CAN_Init();
 181:main.c        ****                 CAN_Start();
 182:main.c        ****                 CyDelay(1000);
 183:main.c        ****                 //nodeCheckStart(); EDIT UNCOMMENT
 184:main.c        ****                 
 185:main.c        ****                 //CyDelay(5000);
 186:main.c        ****                 can_send_status(state, error_state);
 187:main.c        **** 
 188:main.c        ****                 //CyGlobalIntEnable;
 189:main.c        ****                 //CAN_GlobalIntDisable();
 190:main.c        ****                 //CyGlobalIntDisable;
 191:main.c        ****                 //LCD_Start();
 192:main.c        ****                 
 193:main.c        ****                 //UI
 194:main.c        ****                 
 195:main.c        ****                 Buzzer_Write(1);
ARM GAS  D:\Windows\AppData\Local\Temp\cc583QXE.s 			page 6


 196:main.c        ****                 CyDelay(50);
 197:main.c        ****                 
 198:main.c        ****                 
 199:main.c        ****                 /*
 200:main.c        ****                 //Active Low
 201:main.c        ****                 RGB3_1_Write(1);
 202:main.c        ****                 RGB2_1_Write(1);
 203:main.c        ****                 RGB1_1_Write(1);
 204:main.c        ****                 
 205:main.c        ****                 RGB3_2_Write(1);
 206:main.c        ****                 RGB2_2_Write(1);
 207:main.c        ****                 RGB1_2_Write(1);
 208:main.c        ****                 
 209:main.c        ****                 //RGB Testing
 210:main.c        ****                 RGB3_1_Write(0);
 211:main.c        ****                 CyDelay(2000);
 212:main.c        ****                 RGB3_1_Write(1);
 213:main.c        ****                 RGB2_1_Write(0);
 214:main.c        ****                 CyDelay(2000);
 215:main.c        ****                 RGB2_1_Write(1);
 216:main.c        ****                 RGB1_1_Write(0);
 217:main.c        ****                 CyDelay(2000);
 218:main.c        ****                 RGB1_1_Write(1);
 219:main.c        ****                 RGB3_2_Write(0);
 220:main.c        ****                 CyDelay(2000);
 221:main.c        ****                 RGB3_2_Write(1);
 222:main.c        ****                 RGB2_2_Write(0);
 223:main.c        ****                 CyDelay(2000);
 224:main.c        ****                 RGB2_2_Write(1);
 225:main.c        ****                 RGB1_2_Write(0);
 226:main.c        ****                 CyDelay(2000);
 227:main.c        ****                 RGB1_2_Write(1);
 228:main.c        ****                 */
 229:main.c        ****                 
 230:main.c        ****                 
 231:main.c        ****                 Buzzer_Write(0);
 232:main.c        ****                 
 233:main.c        ****                 state = LV;
 234:main.c        ****                 
 235:main.c        ****             break;
 236:main.c        ****                 
 237:main.c        ****             case LV:
 238:main.c        ****                 
 239:main.c        ****                 can_send_cmd(0,0,0);
 240:main.c        ****                 CAN_GlobalIntEnable();
 241:main.c        ****                 CAN_Init();
 242:main.c        ****                 CAN_Start();
 243:main.c        ****                 //nodeCheckStart();
 244:main.c        ****           
 245:main.c        ****                 can_send_status(state, error_state);
 246:main.c        **** 
 247:main.c        ****                 /*
 248:main.c        ****                 LCD_Position(1u, 10u);
 249:main.c        ****                 LCD_PrintInt16(data_queue[0].id);
 250:main.c        ****                 
 251:main.c        ****                 uint16_t temp = can_read(data_queue, data_head, data_tail, 0x07FF, 0);
 252:main.c        ****                 
ARM GAS  D:\Windows\AppData\Local\Temp\cc583QXE.s 			page 7


 253:main.c        ****                 LCD_Position(0u, 0u);
 254:main.c        ****                 LCD_PrintInt16(temp);
 255:main.c        ****                 
 256:main.c        ****                 temp = can_read(data_queue, data_head, data_tail, 0x07FF, 1);
 257:main.c        ****                 LCD_Position(1u, 0u);
 258:main.c        ****                 LCD_PrintInt8(temp);
 259:main.c        ****                 
 260:main.c        ****                 temp = can_read(data_queue, data_head, data_tail, 0x07FF, 2);
 261:main.c        ****                 LCD_Position(0u, 10u);
 262:main.c        ****                 LCD_PrintInt8(temp);
 263:main.c        ****                 */                
 264:main.c        ****                 //UI
 265:main.c        ****                 
 266:main.c        ****                 Buzzer_Write(0);
 267:main.c        ****                 
 268:main.c        ****                 // pick a color, all on. 
 269:main.c        ****                 RGB3_1_Write(0);
 270:main.c        ****                 RGB2_1_Write(1);
 271:main.c        ****                 RGB1_1_Write(0);
 272:main.c        **** 
 273:main.c        ****                 if (Drive_Read())
 274:main.c        ****                 {
 275:main.c        ****                     state = Fault;
 276:main.c        ****                     error_state = fromLV;
  89              		.loc 1 276 0
  90 0016 0125     		movs	r5, #1
  91              	.LVL6:
 275:main.c        ****                     error_state = fromLV;
  92              		.loc 1 275 0
  93 0018 0524     		movs	r4, #5
  94              	.LVL7:
  95 001a 18E0     		b	.L4
  96              	.LVL8:
  97              	.L24:
 277:main.c        ****                     break;
 278:main.c        ****                 }
 279:main.c        ****             
 280:main.c        ****                 if (HV_Read())    /* Switch state changed status */
 281:main.c        ****                 {
 282:main.c        ****                     state = Precharging;
  98              		.loc 1 282 0
  99 001c 0224     		movs	r4, #2
 100              	.LVL9:
 101 001e 16E0     		b	.L4
 102              	.LVL10:
 103              	.L25:
 104              	.LBB3:
 283:main.c        ****                     break;
 284:main.c        ****                 } 
 285:main.c        ****                 
 286:main.c        ****             break;
 287:main.c        ****                 
 288:main.c        ****             case Precharging:
 289:main.c        ****                 CAN_GlobalIntEnable();
 290:main.c        ****                 CAN_Init();
 291:main.c        ****                 CAN_Start();
 292:main.c        ****                 //nodeCheckStart();
ARM GAS  D:\Windows\AppData\Local\Temp\cc583QXE.s 			page 8


 293:main.c        ****                 
 294:main.c        ****                 can_send_status(state, error_state);
 295:main.c        ****                 
 296:main.c        ****                 RGB3_1_Write(0);
 297:main.c        ****                 RGB2_1_Write(0);
 298:main.c        ****                 RGB1_1_Write(1);
 299:main.c        **** 
 300:main.c        ****                 Buzzer_Write(0);
 301:main.c        ****                                 
 302:main.c        ****                 PrechargingTimeCount = 0;
 303:main.c        ****                 
 304:main.c        ****                 while(1)
 305:main.c        ****                 {
 306:main.c        ****                     can_send_cmd(1,0,0); // setInterlock
 307:main.c        ****                 
 308:main.c        ****                     // UNUSED //uint8_t MainState = can_read(data_queue, data_head, data_tail, 0x05
 309:main.c        ****                     uint8_t CapacitorVolt = getCapacitorVoltage(); //can_read(data_queue, data_head
 310:main.c        ****                     // UNUSED //uint8_t NomialVolt =  can_read(data_queue, data_head, data_tail, 0x
 311:main.c        ****                 
 312:main.c        ****                     if(CapacitorVolt >= 0x16) // need to be tuned
 313:main.c        ****                     {
 314:main.c        ****                         state = HV_Enabled;
 105              		.loc 1 314 0
 106 0020 0324     		movs	r4, #3
 107              	.LVL11:
 108 0022 14E0     		b	.L4
 109              	.LVL12:
 110              	.L26:
 315:main.c        ****                         break;
 316:main.c        ****                     }
 317:main.c        ****                 
 318:main.c        ****                 
 319:main.c        ****                     PrechargingTimeCount++;
 320:main.c        ****                 
 321:main.c        ****                     if (PrechargingTimeCount == 10)
 322:main.c        ****                     {
 323:main.c        ****                         state = Fault;
 324:main.c        ****                         error_state = fromPrecharging;
 111              		.loc 1 324 0
 112 0024 0225     		movs	r5, #2
 113              	.LVL13:
 323:main.c        ****                         error_state = fromPrecharging;
 114              		.loc 1 323 0
 115 0026 0524     		movs	r4, #5
 116              	.LVL14:
 117 0028 11E0     		b	.L4
 118              	.LVL15:
 119              	.L27:
 120              	.LBE3:
 325:main.c        ****                         break;
 326:main.c        ****                     }
 327:main.c        ****                 
 328:main.c        ****                     CyDelay(1000);
 329:main.c        ****                 }    
 330:main.c        ****                 
 331:main.c        ****             break;
 332:main.c        **** 	        
ARM GAS  D:\Windows\AppData\Local\Temp\cc583QXE.s 			page 9


 333:main.c        ****             case HV_Enabled:
 334:main.c        ****                 CAN_GlobalIntEnable();
 335:main.c        ****                 CAN_Init();
 336:main.c        ****                 CAN_Start();
 337:main.c        ****                 
 338:main.c        ****                 //nodeCheckStart();
 339:main.c        ****                 
 340:main.c        ****                 can_send_status(state, error_state);
 341:main.c        ****                 
 342:main.c        ****                 // Blue
 343:main.c        ****                 RGB3_1_Write(1);
 344:main.c        ****                 RGB2_1_Write(1);
 345:main.c        ****                 RGB1_1_Write(0);
 346:main.c        ****                 //CyDelay(5000); ///for debug
 347:main.c        ****                 
 348:main.c        ****                 Buzzer_Write(0);
 349:main.c        ****                 
 350:main.c        ****                 if (Drive_Read())
 351:main.c        ****                 {
 352:main.c        ****                     CyDelay(1000); // wait for the brake msg to be sent
 353:main.c        ****                     if(getErrorTolerance() == 1) // 100 for error tolerance /// needs to be getErro
 354:main.c        ****                     {
 355:main.c        ****                         Buzzer_Write(1);
 356:main.c        ****                         CyDelay(1000);
 357:main.c        ****                         Buzzer_Write(0);
 358:main.c        ****                         state = Drive;
 359:main.c        ****                         break;
 360:main.c        ****                     }
 361:main.c        ****                     else
 362:main.c        ****                     {
 363:main.c        ****                         state = Fault;
 364:main.c        ****                         error_state = fromHV_Enabled;
 121              		.loc 1 364 0
 122 002a 0325     		movs	r5, #3
 123              	.LVL16:
 363:main.c        ****                         error_state = fromHV_Enabled;
 124              		.loc 1 363 0
 125 002c 0524     		movs	r4, #5
 126              	.LVL17:
 127 002e 0EE0     		b	.L4
 128              	.LVL18:
 129              	.L28:
 365:main.c        ****                         break;
 366:main.c        ****                     }                     
 367:main.c        ****                 }
 368:main.c        ****                 
 369:main.c        ****                 // if capacitor voltage is undervoltage, change the threshold 0x16
 370:main.c        ****                 if(!HV_Read() | getCapacitorVoltage() < 0x16)
 371:main.c        ****                 {
 372:main.c        ****                     state = LV;
 373:main.c        ****                     DriveTimeCount = 0;
 130              		.loc 1 373 0
 131 0030 0026     		movs	r6, #0
 132              	.LVL19:
 372:main.c        ****                     DriveTimeCount = 0;
 133              		.loc 1 372 0
 134 0032 0124     		movs	r4, #1
ARM GAS  D:\Windows\AppData\Local\Temp\cc583QXE.s 			page 10


 135              	.LVL20:
 136 0034 0BE0     		b	.L4
 137              	.LVL21:
 138              	.L32:
 374:main.c        ****                     break;
 375:main.c        ****                 }
 376:main.c        ****                 
 377:main.c        ****             break;
 378:main.c        ****                 
 379:main.c        **** 	        case Drive:
 380:main.c        ****                 //CAN_GlobalIntEnable();
 381:main.c        ****                 //CAN_Init();
 382:main.c        ****                 //CAN_Start();
 383:main.c        ****                 
 384:main.c        ****                 can_send_status(state, error_state);
 385:main.c        ****                 // Green
 386:main.c        ****                 RGB3_1_Write(1);
 387:main.c        ****                 RGB2_1_Write(0);
 388:main.c        ****                 RGB1_1_Write(1);
 389:main.c        ****                 //CyDelay(10000); // debug
 390:main.c        ****                 
 391:main.c        ****                 //Buzzer_Write(1);
 392:main.c        ****                 //CyDelay(5000);
 393:main.c        ****                 //Buzzer_Write(0);
 394:main.c        ****                 
 395:main.c        ****                 //CyDelay(500);
 396:main.c        ****                 
 397:main.c        ****                 
 398:main.c        ****                 uint8_t ACK = 0xFF;
 399:main.c        ****                 
 400:main.c        ****                 DriveTimeCount++;
 401:main.c        ****                 if (DriveTimeCount > 100) //EDIT: was 100!
 402:main.c        ****                 {
 403:main.c        ****                     DriveTimeCount = 0; 
 404:main.c        ****                     ACK = getAckRx();
 405:main.c        ****                 }
 406:main.c        ****    
 407:main.c        ****                 uint8_t ABS_Motor_RPM = getABSMotorRPM();
 408:main.c        ****                 uint8_t Throttle_High = getPedalHigh();//manga_getThrottleHigh(); // use 123 for pe
 409:main.c        ****                 uint8_t Throttle_Low = getPedalLow();//manga_getThrottleLow();
 410:main.c        ****                 can_send_cmd(1,Throttle_High,Throttle_Low); // setInterlock 
 411:main.c        ****                 
 412:main.c        ****                 //check if everything is going well
 413:main.c        ****                 if (!HV_Read())
 414:main.c        ****                     state = LV;
 415:main.c        ****                 
 416:main.c        ****                 if (!Drive_Read())
 417:main.c        ****                     state = HV_Enabled;
 418:main.c        ****                 
 419:main.c        ****                 if ((ACK != 0xFF) | 
 420:main.c        ****                     (!getCurtisHeartBeatCheck())) // EDIT: Removed | CurtisFaultCheck from this 
 421:main.c        ****                 {
 422:main.c        ****                     state = Fault;
 423:main.c        ****                     error_state = fromDrive;
 424:main.c        ****                     DriveTimeCount = 0;
 139              		.loc 1 424 0
 140 0036 0026     		movs	r6, #0
ARM GAS  D:\Windows\AppData\Local\Temp\cc583QXE.s 			page 11


 141              	.LVL22:
 423:main.c        ****                     DriveTimeCount = 0;
 142              		.loc 1 423 0
 143 0038 0425     		movs	r5, #4
 144              	.LVL23:
 422:main.c        ****                     error_state = fromDrive;
 145              		.loc 1 422 0
 146 003a 0524     		movs	r4, #5
 147              	.LVL24:
 148 003c 07E0     		b	.L4
 149              	.LVL25:
 150              	.L33:
 425:main.c        ****                     break;
 426:main.c        ****                 }
 427:main.c        ****                 
 428:main.c        ****                     
 429:main.c        ****                 // need to map ABS_Motor_RPM into 1-253 scale.
 430:main.c        ****                 
 431:main.c        ****                 /*
 432:main.c        ****                 if (ABS_Motor_RPM>=253)
 433:main.c        ****                 {
 434:main.c        ****                     direction=-1;
 435:main.c        ****                 }
 436:main.c        ****                 else if (ABS_Motor_RPM<=1)
 437:main.c        ****                 {
 438:main.c        ****                     direction=1;
 439:main.c        ****                 }
 440:main.c        ****                 value+=direction;
 441:main.c        ****                 //CyDelay(100);
 442:main.c        ****                 */
 443:main.c        ****             break;
 444:main.c        ****                 
 445:main.c        **** 	        case Fault:
 446:main.c        ****                 
 447:main.c        ****                 CAN_GlobalIntEnable();
 448:main.c        ****                 CAN_Init();
 449:main.c        ****                 CAN_Start();
 450:main.c        ****                 //nodeCheckStart();
 451:main.c        ****                 
 452:main.c        ****                 can_send_status(state, error_state);
 453:main.c        ****                 
 454:main.c        ****                 //
 455:main.c        ****                 // RGB code goes here
 456:main.c        ****                 // flashing red
 457:main.c        ****                 RGB3_1_Write(1);
 458:main.c        ****                 RGB2_1_Write(1);
 459:main.c        ****                 RGB1_1_Write(1);
 460:main.c        ****                 
 461:main.c        ****                 RGB3_1_Write(0);
 462:main.c        ****                 CyDelay(1000);
 463:main.c        ****                 RGB3_1_Write(1);
 464:main.c        ****                 CyDelay(1000);
 465:main.c        ****                 
 466:main.c        ****                 Buzzer_Write(0);
 467:main.c        ****                 
 468:main.c        ****                 if(error_state == fromLV)
 469:main.c        ****                 {
ARM GAS  D:\Windows\AppData\Local\Temp\cc583QXE.s 			page 12


 470:main.c        ****                     if(!Drive_Read())
 471:main.c        ****                     {
 472:main.c        ****                         state = LV;
 473:main.c        ****                         error_state = OK;
 151              		.loc 1 473 0
 152 003e 0025     		movs	r5, #0
 153              	.LVL26:
 472:main.c        ****                         error_state = OK;
 154              		.loc 1 472 0
 155 0040 0124     		movs	r4, #1
 156              	.LVL27:
 157 0042 04E0     		b	.L4
 158              	.LVL28:
 159              	.L34:
 474:main.c        ****                     }
 475:main.c        ****                 }
 476:main.c        ****                 else if (error_state == fromPrecharging)
 477:main.c        ****                 {
 478:main.c        ****                     if(!Drive_Read() && !HV_Read())
 479:main.c        ****                     {
 480:main.c        ****                         state = LV;
 481:main.c        ****                         error_state = OK;
 160              		.loc 1 481 0
 161 0044 0025     		movs	r5, #0
 162              	.LVL29:
 480:main.c        ****                         error_state = OK;
 163              		.loc 1 480 0
 164 0046 0124     		movs	r4, #1
 165              	.LVL30:
 166 0048 01E0     		b	.L4
 167              	.LVL31:
 168              	.L35:
 482:main.c        ****                     }
 483:main.c        ****                 }
 484:main.c        ****                 else if (error_state == fromHV_Enabled)
 485:main.c        ****                 {
 486:main.c        ****                     if(!Drive_Read())
 487:main.c        ****                     {
 488:main.c        ****                         state = HV_Enabled;
 489:main.c        ****                         error_state = OK;
 169              		.loc 1 489 0
 170 004a 0025     		movs	r5, #0
 171              	.LVL32:
 488:main.c        ****                         error_state = OK;
 172              		.loc 1 488 0
 173 004c 0324     		movs	r4, #3
 174              	.LVL33:
 175              	.L4:
 176              	.LBE2:
 165:main.c        ****         {
 177              		.loc 1 165 0
 178 004e A54B     		ldr	r3, .L37
 179 0050 1B68     		ldr	r3, [r3]
 180 0052 642B     		cmp	r3, #100
 181 0054 06D9     		bls	.L5
 167:main.c        ****             state = Fault;
 182              		.loc 1 167 0
ARM GAS  D:\Windows\AppData\Local\Temp\cc583QXE.s 			page 13


 183 0056 0120     		movs	r0, #1
 184 0058 0021     		movs	r1, #0
 185 005a 0A46     		mov	r2, r1
 186 005c FFF7FEFF 		bl	can_send_cmd
 187              	.LVL34:
 169:main.c        ****         }
 188              		.loc 1 169 0
 189 0060 0625     		movs	r5, #6
 168:main.c        ****             error_state = nodeFailure;
 190              		.loc 1 168 0
 191 0062 0524     		movs	r4, #5
 192              	.LVL35:
 193              	.L5:
 172:main.c        ****         {    
 194              		.loc 1 172 0
 195 0064 052C     		cmp	r4, #5
 196 0066 00F23281 		bhi	.L6
 197 006a DFE804F0 		tbb	[pc, r4]
 198              	.L8:
 199 006e 03       		.byte	(.L7-.L8)/2
 200 006f 1C       		.byte	(.L9-.L8)/2
 201 0070 40       		.byte	(.L10-.L8)/2
 202 0071 6E       		.byte	(.L11-.L8)/2
 203 0072 A7       		.byte	(.L12-.L8)/2
 204 0073 E2       		.byte	(.L13-.L8)/2
 205              		.p2align 1
 206              	.L7:
 207              	.LBB5:
 179:main.c        ****                 CAN_Init();
 208              		.loc 1 179 0
 209 0074 FFF7FEFF 		bl	CAN_GlobalIntEnable
 210              	.LVL36:
 180:main.c        ****                 CAN_Start();
 211              		.loc 1 180 0
 212 0078 FFF7FEFF 		bl	CAN_Init
 213              	.LVL37:
 181:main.c        ****                 CyDelay(1000);
 214              		.loc 1 181 0
 215 007c FFF7FEFF 		bl	CAN_Start
 216              	.LVL38:
 182:main.c        ****                 //nodeCheckStart(); EDIT UNCOMMENT
 217              		.loc 1 182 0
 218 0080 4FF47A70 		mov	r0, #1000
 219 0084 FFF7FEFF 		bl	CyDelay
 220              	.LVL39:
 186:main.c        **** 
 221              		.loc 1 186 0
 222 0088 2046     		mov	r0, r4
 223 008a 2946     		mov	r1, r5
 224 008c FFF7FEFF 		bl	can_send_status
 225              	.LVL40:
 195:main.c        ****                 CyDelay(50);
 226              		.loc 1 195 0
 227 0090 0120     		movs	r0, #1
 228 0092 FFF7FEFF 		bl	Buzzer_Write
 229              	.LVL41:
 196:main.c        ****                 
ARM GAS  D:\Windows\AppData\Local\Temp\cc583QXE.s 			page 14


 230              		.loc 1 196 0
 231 0096 3220     		movs	r0, #50
 232 0098 FFF7FEFF 		bl	CyDelay
 233              	.LVL42:
 231:main.c        ****                 
 234              		.loc 1 231 0
 235 009c 0020     		movs	r0, #0
 236 009e FFF7FEFF 		bl	Buzzer_Write
 237              	.LVL43:
 233:main.c        ****                 
 238              		.loc 1 233 0
 239 00a2 0124     		movs	r4, #1
 235:main.c        ****                 
 240              		.loc 1 235 0
 241 00a4 D3E7     		b	.L4
 242              	.LVL44:
 243              	.L9:
 239:main.c        ****                 CAN_GlobalIntEnable();
 244              		.loc 1 239 0
 245 00a6 0020     		movs	r0, #0
 246 00a8 0146     		mov	r1, r0
 247 00aa 0246     		mov	r2, r0
 248 00ac FFF7FEFF 		bl	can_send_cmd
 249              	.LVL45:
 240:main.c        ****                 CAN_Init();
 250              		.loc 1 240 0
 251 00b0 FFF7FEFF 		bl	CAN_GlobalIntEnable
 252              	.LVL46:
 241:main.c        ****                 CAN_Start();
 253              		.loc 1 241 0
 254 00b4 FFF7FEFF 		bl	CAN_Init
 255              	.LVL47:
 242:main.c        ****                 //nodeCheckStart();
 256              		.loc 1 242 0
 257 00b8 FFF7FEFF 		bl	CAN_Start
 258              	.LVL48:
 245:main.c        **** 
 259              		.loc 1 245 0
 260 00bc 2046     		mov	r0, r4
 261 00be 2946     		mov	r1, r5
 262 00c0 FFF7FEFF 		bl	can_send_status
 263              	.LVL49:
 266:main.c        ****                 
 264              		.loc 1 266 0
 265 00c4 0020     		movs	r0, #0
 266 00c6 FFF7FEFF 		bl	Buzzer_Write
 267              	.LVL50:
 269:main.c        ****                 RGB2_1_Write(1);
 268              		.loc 1 269 0
 269 00ca 0020     		movs	r0, #0
 270 00cc FFF7FEFF 		bl	RGB3_1_Write
 271              	.LVL51:
 270:main.c        ****                 RGB1_1_Write(0);
 272              		.loc 1 270 0
 273 00d0 0120     		movs	r0, #1
 274 00d2 FFF7FEFF 		bl	RGB2_1_Write
 275              	.LVL52:
ARM GAS  D:\Windows\AppData\Local\Temp\cc583QXE.s 			page 15


 271:main.c        **** 
 276              		.loc 1 271 0
 277 00d6 0020     		movs	r0, #0
 278 00d8 FFF7FEFF 		bl	RGB1_1_Write
 279              	.LVL53:
 273:main.c        ****                 {
 280              		.loc 1 273 0
 281 00dc FFF7FEFF 		bl	Drive_Read
 282              	.LVL54:
 283 00e0 0028     		cmp	r0, #0
 284 00e2 98D1     		bne	.L23
 280:main.c        ****                 {
 285              		.loc 1 280 0
 286 00e4 FFF7FEFF 		bl	HV_Read
 287              	.LVL55:
 288 00e8 0028     		cmp	r0, #0
 289 00ea 97D1     		bne	.L24
 290 00ec AFE7     		b	.L4
 291              	.L10:
 289:main.c        ****                 CAN_Init();
 292              		.loc 1 289 0
 293 00ee FFF7FEFF 		bl	CAN_GlobalIntEnable
 294              	.LVL56:
 290:main.c        ****                 CAN_Start();
 295              		.loc 1 290 0
 296 00f2 FFF7FEFF 		bl	CAN_Init
 297              	.LVL57:
 291:main.c        ****                 //nodeCheckStart();
 298              		.loc 1 291 0
 299 00f6 FFF7FEFF 		bl	CAN_Start
 300              	.LVL58:
 294:main.c        ****                 
 301              		.loc 1 294 0
 302 00fa 2046     		mov	r0, r4
 303 00fc 2946     		mov	r1, r5
 304 00fe FFF7FEFF 		bl	can_send_status
 305              	.LVL59:
 296:main.c        ****                 RGB2_1_Write(0);
 306              		.loc 1 296 0
 307 0102 0020     		movs	r0, #0
 308 0104 FFF7FEFF 		bl	RGB3_1_Write
 309              	.LVL60:
 297:main.c        ****                 RGB1_1_Write(1);
 310              		.loc 1 297 0
 311 0108 0020     		movs	r0, #0
 312 010a FFF7FEFF 		bl	RGB2_1_Write
 313              	.LVL61:
 298:main.c        **** 
 314              		.loc 1 298 0
 315 010e 0120     		movs	r0, #1
 316 0110 FFF7FEFF 		bl	RGB1_1_Write
 317              	.LVL62:
 300:main.c        ****                                 
 318              		.loc 1 300 0
 319 0114 0020     		movs	r0, #0
 320 0116 FFF7FEFF 		bl	Buzzer_Write
 321              	.LVL63:
ARM GAS  D:\Windows\AppData\Local\Temp\cc583QXE.s 			page 16


 302:main.c        ****                 
 322              		.loc 1 302 0
 323 011a 0023     		movs	r3, #0
 324 011c 0193     		str	r3, [sp, #4]
 325              	.L15:
 326              	.LBB4:
 306:main.c        ****                 
 327              		.loc 1 306 0
 328 011e 0120     		movs	r0, #1
 329 0120 0021     		movs	r1, #0
 330 0122 0A46     		mov	r2, r1
 331 0124 FFF7FEFF 		bl	can_send_cmd
 332              	.LVL64:
 309:main.c        ****                     // UNUSED //uint8_t NomialVolt =  can_read(data_queue, data_head, data_tail, 0x
 333              		.loc 1 309 0
 334 0128 FFF7FEFF 		bl	getCapacitorVoltage
 335              	.LVL65:
 312:main.c        ****                     {
 336              		.loc 1 312 0
 337 012c 1528     		cmp	r0, #21
 338 012e 3FF677AF 		bhi	.L25
 319:main.c        ****                 
 339              		.loc 1 319 0
 340 0132 019B     		ldr	r3, [sp, #4]
 341 0134 0133     		adds	r3, r3, #1
 342 0136 0193     		str	r3, [sp, #4]
 321:main.c        ****                     {
 343              		.loc 1 321 0
 344 0138 019B     		ldr	r3, [sp, #4]
 345 013a 0A2B     		cmp	r3, #10
 346 013c 3FF472AF 		beq	.L26
 328:main.c        ****                 }    
 347              		.loc 1 328 0
 348 0140 4FF47A70 		mov	r0, #1000
 349              	.LVL66:
 350 0144 FFF7FEFF 		bl	CyDelay
 351              	.LVL67:
 352              	.LBE4:
 329:main.c        ****                 
 353              		.loc 1 329 0
 354 0148 E9E7     		b	.L15
 355              	.L11:
 334:main.c        ****                 CAN_Init();
 356              		.loc 1 334 0
 357 014a FFF7FEFF 		bl	CAN_GlobalIntEnable
 358              	.LVL68:
 335:main.c        ****                 CAN_Start();
 359              		.loc 1 335 0
 360 014e FFF7FEFF 		bl	CAN_Init
 361              	.LVL69:
 336:main.c        ****                 
 362              		.loc 1 336 0
 363 0152 FFF7FEFF 		bl	CAN_Start
 364              	.LVL70:
 340:main.c        ****                 
 365              		.loc 1 340 0
 366 0156 2046     		mov	r0, r4
ARM GAS  D:\Windows\AppData\Local\Temp\cc583QXE.s 			page 17


 367 0158 2946     		mov	r1, r5
 368 015a FFF7FEFF 		bl	can_send_status
 369              	.LVL71:
 343:main.c        ****                 RGB2_1_Write(1);
 370              		.loc 1 343 0
 371 015e 0120     		movs	r0, #1
 372 0160 FFF7FEFF 		bl	RGB3_1_Write
 373              	.LVL72:
 344:main.c        ****                 RGB1_1_Write(0);
 374              		.loc 1 344 0
 375 0164 0120     		movs	r0, #1
 376 0166 FFF7FEFF 		bl	RGB2_1_Write
 377              	.LVL73:
 345:main.c        ****                 //CyDelay(5000); ///for debug
 378              		.loc 1 345 0
 379 016a 0020     		movs	r0, #0
 380 016c FFF7FEFF 		bl	RGB1_1_Write
 381              	.LVL74:
 348:main.c        ****                 
 382              		.loc 1 348 0
 383 0170 0020     		movs	r0, #0
 384 0172 FFF7FEFF 		bl	Buzzer_Write
 385              	.LVL75:
 350:main.c        ****                 {
 386              		.loc 1 350 0
 387 0176 FFF7FEFF 		bl	Drive_Read
 388              	.LVL76:
 389 017a 98B1     		cbz	r0, .L16
 352:main.c        ****                     if(getErrorTolerance() == 1) // 100 for error tolerance /// needs to be getErro
 390              		.loc 1 352 0
 391 017c 4FF47A70 		mov	r0, #1000
 392 0180 FFF7FEFF 		bl	CyDelay
 393              	.LVL77:
 353:main.c        ****                     {
 394              		.loc 1 353 0
 395 0184 FFF7FEFF 		bl	getErrorTolerance
 396              	.LVL78:
 397 0188 0128     		cmp	r0, #1
 398 018a 7FF44EAF 		bne	.L27
 355:main.c        ****                         CyDelay(1000);
 399              		.loc 1 355 0
 400 018e FFF7FEFF 		bl	Buzzer_Write
 401              	.LVL79:
 356:main.c        ****                         Buzzer_Write(0);
 402              		.loc 1 356 0
 403 0192 4FF47A70 		mov	r0, #1000
 404 0196 FFF7FEFF 		bl	CyDelay
 405              	.LVL80:
 357:main.c        ****                         state = Drive;
 406              		.loc 1 357 0
 407 019a 0020     		movs	r0, #0
 408 019c FFF7FEFF 		bl	Buzzer_Write
 409              	.LVL81:
 358:main.c        ****                         break;
 410              		.loc 1 358 0
 411 01a0 0424     		movs	r4, #4
 359:main.c        ****                     }
ARM GAS  D:\Windows\AppData\Local\Temp\cc583QXE.s 			page 18


 412              		.loc 1 359 0
 413 01a2 54E7     		b	.L4
 414              	.LVL82:
 415              	.L16:
 370:main.c        ****                 {
 416              		.loc 1 370 0
 417 01a4 FFF7FEFF 		bl	HV_Read
 418              	.LVL83:
 419 01a8 8146     		mov	r9, r0
 420 01aa FFF7FEFF 		bl	getCapacitorVoltage
 421              	.LVL84:
 422 01ae B9F1000F 		cmp	r9, #0
 423 01b2 18BF     		it	ne
 424 01b4 1528     		cmpne	r0, #21
 425 01b6 7FF63BAF 		bls	.L28
 426 01ba 48E7     		b	.L4
 427              	.L12:
 384:main.c        ****                 // Green
 428              		.loc 1 384 0
 429 01bc 2046     		mov	r0, r4
 430 01be 2946     		mov	r1, r5
 431 01c0 FFF7FEFF 		bl	can_send_status
 432              	.LVL85:
 386:main.c        ****                 RGB2_1_Write(0);
 433              		.loc 1 386 0
 434 01c4 0120     		movs	r0, #1
 435 01c6 FFF7FEFF 		bl	RGB3_1_Write
 436              	.LVL86:
 387:main.c        ****                 RGB1_1_Write(1);
 437              		.loc 1 387 0
 438 01ca 0020     		movs	r0, #0
 439 01cc FFF7FEFF 		bl	RGB2_1_Write
 440              	.LVL87:
 388:main.c        ****                 //CyDelay(10000); // debug
 441              		.loc 1 388 0
 442 01d0 0120     		movs	r0, #1
 443 01d2 FFF7FEFF 		bl	RGB1_1_Write
 444              	.LVL88:
 400:main.c        ****                 if (DriveTimeCount > 100) //EDIT: was 100!
 445              		.loc 1 400 0
 446 01d6 0136     		adds	r6, r6, #1
 447              	.LVL89:
 401:main.c        ****                 {
 448              		.loc 1 401 0
 449 01d8 642E     		cmp	r6, #100
 450 01da 04D9     		bls	.L29
 451              	.LVL90:
 404:main.c        ****                 }
 452              		.loc 1 404 0
 453 01dc FFF7FEFF 		bl	getAckRx
 454              	.LVL91:
 455 01e0 8146     		mov	r9, r0
 456              	.LVL92:
 403:main.c        ****                     ACK = getAckRx();
 457              		.loc 1 403 0
 458 01e2 0026     		movs	r6, #0
 459 01e4 01E0     		b	.L17
ARM GAS  D:\Windows\AppData\Local\Temp\cc583QXE.s 			page 19


 460              	.LVL93:
 461              	.L29:
 398:main.c        ****                 
 462              		.loc 1 398 0
 463 01e6 4FF0FF09 		mov	r9, #255
 464              	.LVL94:
 465              	.L17:
 407:main.c        ****                 uint8_t Throttle_High = getPedalHigh();//manga_getThrottleHigh(); // use 123 for pe
 466              		.loc 1 407 0
 467 01ea FFF7FEFF 		bl	getABSMotorRPM
 468              	.LVL95:
 408:main.c        ****                 uint8_t Throttle_Low = getPedalLow();//manga_getThrottleLow();
 469              		.loc 1 408 0
 470 01ee FFF7FEFF 		bl	getPedalHigh
 471              	.LVL96:
 472 01f2 0746     		mov	r7, r0
 473              	.LVL97:
 409:main.c        ****                 can_send_cmd(1,Throttle_High,Throttle_Low); // setInterlock 
 474              		.loc 1 409 0
 475 01f4 FFF7FEFF 		bl	getPedalLow
 476              	.LVL98:
 477 01f8 8046     		mov	r8, r0
 478              	.LVL99:
 410:main.c        ****                 
 479              		.loc 1 410 0
 480 01fa 0120     		movs	r0, #1
 481 01fc B9B2     		uxth	r1, r7
 482 01fe 1FFA88F2 		uxth	r2, r8
 483 0202 FFF7FEFF 		bl	can_send_cmd
 484              	.LVL100:
 413:main.c        ****                     state = LV;
 485              		.loc 1 413 0
 486 0206 FFF7FEFF 		bl	HV_Read
 487              	.LVL101:
 488 020a 00B9     		cbnz	r0, .L18
 414:main.c        ****                 
 489              		.loc 1 414 0
 490 020c 0124     		movs	r4, #1
 491              	.LVL102:
 492              	.L18:
 416:main.c        ****                     state = HV_Enabled;
 493              		.loc 1 416 0
 494 020e FFF7FEFF 		bl	Drive_Read
 495              	.LVL103:
 496 0212 00B9     		cbnz	r0, .L19
 417:main.c        ****                 
 497              		.loc 1 417 0
 498 0214 0324     		movs	r4, #3
 499              	.LVL104:
 500              	.L19:
 420:main.c        ****                 {
 501              		.loc 1 420 0
 502 0216 FFF7FEFF 		bl	getCurtisHeartBeatCheck
 503              	.LVL105:
 419:main.c        ****                     (!getCurtisHeartBeatCheck())) // EDIT: Removed | CurtisFaultCheck from this 
 504              		.loc 1 419 0
 505 021a B0FA80F0 		clz	r0, r0
ARM GAS  D:\Windows\AppData\Local\Temp\cc583QXE.s 			page 20


 506 021e 4009     		lsrs	r0, r0, #5
 507 0220 B9F1FF0F 		cmp	r9, #255
 508 0224 18BF     		it	ne
 509 0226 40F00100 		orrne	r0, r0, #1
 510 022a 0028     		cmp	r0, #0
 511 022c 7FF403AF 		bne	.L32
 512 0230 0DE7     		b	.L4
 513              	.LVL106:
 514              	.L13:
 447:main.c        ****                 CAN_Init();
 515              		.loc 1 447 0
 516 0232 FFF7FEFF 		bl	CAN_GlobalIntEnable
 517              	.LVL107:
 448:main.c        ****                 CAN_Start();
 518              		.loc 1 448 0
 519 0236 FFF7FEFF 		bl	CAN_Init
 520              	.LVL108:
 449:main.c        ****                 //nodeCheckStart();
 521              		.loc 1 449 0
 522 023a FFF7FEFF 		bl	CAN_Start
 523              	.LVL109:
 452:main.c        ****                 
 524              		.loc 1 452 0
 525 023e 2046     		mov	r0, r4
 526 0240 2946     		mov	r1, r5
 527 0242 FFF7FEFF 		bl	can_send_status
 528              	.LVL110:
 457:main.c        ****                 RGB2_1_Write(1);
 529              		.loc 1 457 0
 530 0246 0120     		movs	r0, #1
 531 0248 FFF7FEFF 		bl	RGB3_1_Write
 532              	.LVL111:
 458:main.c        ****                 RGB1_1_Write(1);
 533              		.loc 1 458 0
 534 024c 0120     		movs	r0, #1
 535 024e FFF7FEFF 		bl	RGB2_1_Write
 536              	.LVL112:
 459:main.c        ****                 
 537              		.loc 1 459 0
 538 0252 0120     		movs	r0, #1
 539 0254 FFF7FEFF 		bl	RGB1_1_Write
 540              	.LVL113:
 461:main.c        ****                 CyDelay(1000);
 541              		.loc 1 461 0
 542 0258 0020     		movs	r0, #0
 543 025a FFF7FEFF 		bl	RGB3_1_Write
 544              	.LVL114:
 462:main.c        ****                 RGB3_1_Write(1);
 545              		.loc 1 462 0
 546 025e 4FF47A70 		mov	r0, #1000
 547 0262 FFF7FEFF 		bl	CyDelay
 548              	.LVL115:
 463:main.c        ****                 CyDelay(1000);
 549              		.loc 1 463 0
 550 0266 0120     		movs	r0, #1
 551 0268 FFF7FEFF 		bl	RGB3_1_Write
 552              	.LVL116:
ARM GAS  D:\Windows\AppData\Local\Temp\cc583QXE.s 			page 21


 464:main.c        ****                 
 553              		.loc 1 464 0
 554 026c 4FF47A70 		mov	r0, #1000
 555 0270 FFF7FEFF 		bl	CyDelay
 556              	.LVL117:
 466:main.c        ****                 
 557              		.loc 1 466 0
 558 0274 0020     		movs	r0, #0
 559 0276 FFF7FEFF 		bl	Buzzer_Write
 560              	.LVL118:
 468:main.c        ****                 {
 561              		.loc 1 468 0
 562 027a 012D     		cmp	r5, #1
 563 027c 05D1     		bne	.L20
 470:main.c        ****                     {
 564              		.loc 1 470 0
 565 027e FFF7FEFF 		bl	Drive_Read
 566              	.LVL119:
 567 0282 0028     		cmp	r0, #0
 568 0284 3FF4DBAE 		beq	.L33
 569 0288 E1E6     		b	.L4
 570              	.L20:
 476:main.c        ****                 {
 571              		.loc 1 476 0
 572 028a 022D     		cmp	r5, #2
 573 028c 0AD1     		bne	.L21
 478:main.c        ****                     {
 574              		.loc 1 478 0
 575 028e FFF7FEFF 		bl	Drive_Read
 576              	.LVL120:
 577 0292 0028     		cmp	r0, #0
 578 0294 7FF4DBAE 		bne	.L4
 478:main.c        ****                     {
 579              		.loc 1 478 0 is_stmt 0 discriminator 1
 580 0298 FFF7FEFF 		bl	HV_Read
 581              	.LVL121:
 582 029c 0028     		cmp	r0, #0
 583 029e 3FF4D1AE 		beq	.L34
 584 02a2 D4E6     		b	.L4
 585              	.L21:
 484:main.c        ****                 {
 586              		.loc 1 484 0 is_stmt 1
 587 02a4 032D     		cmp	r5, #3
 588 02a6 05D1     		bne	.L22
 486:main.c        ****                     {
 589              		.loc 1 486 0
 590 02a8 FFF7FEFF 		bl	Drive_Read
 591              	.LVL122:
 592 02ac 0028     		cmp	r0, #0
 593 02ae 3FF4CCAE 		beq	.L35
 594 02b2 CCE6     		b	.L4
 595              	.L22:
 490:main.c        ****                     }
 491:main.c        ****                 }
 492:main.c        ****                 else if (error_state == fromDrive)
 596              		.loc 1 492 0
 597 02b4 042D     		cmp	r5, #4
ARM GAS  D:\Windows\AppData\Local\Temp\cc583QXE.s 			page 22


 598 02b6 7FF4CAAE 		bne	.L4
 493:main.c        ****                 {   
 494:main.c        ****                     can_send_cmd(1,Throttle_High,Throttle_Low); // setInterlock
 599              		.loc 1 494 0
 600 02ba 0120     		movs	r0, #1
 601 02bc B9B2     		uxth	r1, r7
 602 02be 1FFA88F2 		uxth	r2, r8
 603 02c2 FFF7FEFF 		bl	can_send_cmd
 604              	.LVL123:
 495:main.c        ****                     
 496:main.c        ****                     CyDelay(200);
 605              		.loc 1 496 0
 606 02c6 C820     		movs	r0, #200
 607 02c8 FFF7FEFF 		bl	CyDelay
 608              	.LVL124:
 609 02cc BFE6     		b	.L4
 610              	.L6:
 497:main.c        ****                     
 498:main.c        ****                     // Curtis Come back online again without error
 499:main.c        ****                     /*
 500:main.c        ****                     if((getCurtisHeartBeatCheck())) // EDIT: Removed !(Curtis_Fault_Check(data_queu
 501:main.c        ****                     {
 502:main.c        ****                         state = LV;
 503:main.c        ****                         error_state = OK;
 504:main.c        ****                     }
 505:main.c        ****                     else if(0xFF == getAckRx()) //ACK received
 506:main.c        ****                     {
 507:main.c        ****                         state = HV_Enabled;
 508:main.c        ****                         error_state = OK;
 509:main.c        ****                     } 
 510:main.c        ****                     */
 511:main.c        ****                 }
 512:main.c        ****                 else if (error_state == nodeFailure)
 513:main.c        ****                 {
 514:main.c        ****                     state = Fault;
 515:main.c        ****                 }
 516:main.c        ****             break;
 517:main.c        ****                 
 518:main.c        ****             default:
 519:main.c        ****                 RGB3_1_Write(1);
 611              		.loc 1 519 0
 612 02ce 0120     		movs	r0, #1
 613 02d0 FFF7FEFF 		bl	RGB3_1_Write
 614              	.LVL125:
 520:main.c        ****                 RGB2_1_Write(1);
 615              		.loc 1 520 0
 616 02d4 0120     		movs	r0, #1
 617 02d6 FFF7FEFF 		bl	RGB2_1_Write
 618              	.LVL126:
 521:main.c        ****                 RGB1_1_Write(1);
 619              		.loc 1 521 0
 620 02da 0120     		movs	r0, #1
 621 02dc FFF7FEFF 		bl	RGB1_1_Write
 622              	.LVL127:
 623 02e0 B5E6     		b	.L4
 624              	.L38:
 625 02e2 00BF     		.align	2
ARM GAS  D:\Windows\AppData\Local\Temp\cc583QXE.s 			page 23


 626              	.L37:
 627 02e4 00000000 		.word	.LANCHOR0
 628              	.LBE5:
 629              		.cfi_endproc
 630              	.LFE64:
 631              		.size	main, .-main
 632              		.section	.text.ISR_CAN,"ax",%progbits
 633              		.align	2
 634              		.global	ISR_CAN
 635              		.thumb
 636              		.thumb_func
 637              		.type	ISR_CAN, %function
 638              	ISR_CAN:
 639              	.LFB65:
 522:main.c        ****         }// end of switch
 523:main.c        ****         
 524:main.c        ****         
 525:main.c        ****         //if (receiveMailboxNumber == CAN_RX_MAILBOX_switchStatus)
 526:main.c        ****         //{
 527:main.c        ****             //LCD_Position(1u, 3u);
 528:main.c        ****             //send
 529:main.c        ****             //if (CAN_RX_DATA_BYTE1(CAN_RX_MAILBOX_switchStatus) == SWITCH_PRESSED)
 530:main.c        ****             //{
 531:main.c        ****                 /* Display received switch status on LCD */
 532:main.c        ****             
 533:main.c        ****                 //LCD_PrintString("pressed ");
 534:main.c        **** 
 535:main.c        ****                 /* Increase the PWM pulse width */
 536:main.c        ****                 //pulseWidthValue += PWM_PULSE_WIDTH_STEP;
 537:main.c        **** 
 538:main.c        ****                 /* Send message with the new PWM pulse width */
 539:main.c        ****                 //dataPWM.byte[0u] = pulseWidthValue;
 540:main.c        ****                 //CAN_SendMsg(&messagePWM);
 541:main.c        **** 
 542:main.c        ****                 /* Display value of PWM pulse width on LCD */
 543:main.c        ****                 //LCD_Position(0u, 14u);
 544:main.c        ****                 //LCD_PrintInt8(pulseWidthValue);
 545:main.c        **** 
 546:main.c        ****             //}
 547:main.c        ****             //else
 548:main.c        ****             //{
 549:main.c        ****                 /* Display received switch status on LCD */
 550:main.c        ****             //    LCD_PrintString("released");
 551:main.c        ****             //}
 552:main.c        ****             //receiveMailboxNumber = 0xFFu;
 553:main.c        ****         //}
 554:main.c        ****         
 555:main.c        ****         //received
 556:main.c        **** 
 557:main.c        ****         //if (receiveMailboxNumber == CAN_RX_MAILBOX_ADCdata)
 558:main.c        ****         //{
 559:main.c        ****         //    adcData = ((uint16) ((uint16) CAN_RX_DATA_BYTE1(CAN_RX_MAILBOX_ADCdata) << ONE_BYTE_O
 560:main.c        ****         //    CAN_RX_DATA_BYTE2(CAN_RX_MAILBOX_ADCdata);
 561:main.c        ****             
 562:main.c        ****             /* Display received ADC data on LCD */
 563:main.c        ****        //     sprintf(txData, "%u.%.3u", (adcData / 1000u), (adcData % 1000u));
 564:main.c        ****         //    txData[DATA_SIZE - 1u] = (char8) '\0';
ARM GAS  D:\Windows\AppData\Local\Temp\cc583QXE.s 			page 24


 565:main.c        ****             
 566:main.c        ****         //    LCD_Position(0u, 4u);
 567:main.c        ****          //   LCD_PrintString(txData);
 568:main.c        ****          //   receiveMailboxNumber = 0xFFu;
 569:main.c        ****         //}
 570:main.c        ****     } 
 571:main.c        **** }
 572:main.c        **** 
 573:main.c        **** /*
 574:main.c        **** // 0 for HV, 1 for Drive
 575:main.c        **** static uint32 ReadSwSwitch(uint8_t choice)
 576:main.c        **** {
 577:main.c        ****     uint32 heldDown;
 578:main.c        ****     uint32 swStatus;
 579:main.c        **** 
 580:main.c        ****     swStatus = 0u;  // Switch is not active 
 581:main.c        ****     heldDown = 0u;  // Reset debounce counter
 582:main.c        **** 
 583:main.c        ****     
 584:main.c        ****     if (choice)
 585:main.c        ****         swStatus = Drive_Read();
 586:main.c        ****     else
 587:main.c        ****         swStatus = HV_Read();
 588:main.c        **** 
 589:main.c        ****     return (swStatus);
 590:main.c        **** }
 591:main.c        **** */
 592:main.c        **** /*******************************************************************************
 593:main.c        **** * Function Name: ISR_CAN
 594:main.c        **** ********************************************************************************
 595:main.c        **** *
 596:main.c        **** * Summary:
 597:main.c        **** *  This ISR is executed at a Receive Message event and set receiveMailboxNumber
 598:main.c        **** *  global variable with receive message mailbox number.
 599:main.c        **** *
 600:main.c        **** * Parameters:
 601:main.c        **** *  None.
 602:main.c        **** *
 603:main.c        **** * Return:
 604:main.c        **** *  None.
 605:main.c        **** *
 606:main.c        **** *******************************************************************************/
 607:main.c        **** CY_ISR(ISR_CAN)
 608:main.c        **** {   
 640              		.loc 1 608 0
 641              		.cfi_startproc
 642              		@ args = 0, pretend = 0, frame = 0
 643              		@ frame_needed = 0, uses_anonymous_args = 0
 644              		@ link register save eliminated.
 609:main.c        ****     /* Clear Receive Message flag */
 610:main.c        ****     CAN_INT_SR_REG.byte[1u] = CAN_RX_MESSAGE_MASK;
 645              		.loc 1 610 0
 646 0000 1022     		movs	r2, #16
 647 0002 044B     		ldr	r3, .L40
 648 0004 5A70     		strb	r2, [r3, #1]
 611:main.c        **** 
 612:main.c        ****     /* Set the isrFlag */
ARM GAS  D:\Windows\AppData\Local\Temp\cc583QXE.s 			page 25


 613:main.c        ****     //isrFlag = 1u;    
 614:main.c        **** 
 615:main.c        ****     /* Acknowledges receipt of new message */
 616:main.c        ****     CAN_RX_ACK_MESSAGE(CAN_RX_MAILBOX_0);
 649              		.loc 1 616 0
 650 0006 044A     		ldr	r2, .L40+4
 651 0008 1378     		ldrb	r3, [r2]	@ zero_extendqisi2
 652 000a 43F00103 		orr	r3, r3, #1
 653 000e 1370     		strb	r3, [r2]
 654 0010 7047     		bx	lr
 655              	.L41:
 656 0012 00BF     		.align	2
 657              	.L40:
 658 0014 00A00040 		.word	1073782784
 659 0018 A0A00040 		.word	1073782944
 660              		.cfi_endproc
 661              	.LFE65:
 662              		.size	ISR_CAN, .-ISR_CAN
 663              		.global	pedalOK
 664              		.global	DriveSwitch
 665              		.global	HVSwitch
 666              		.bss
 667              		.align	2
 668              		.set	.LANCHOR0,. + 0
 669              		.type	pedalOK, %object
 670              		.size	pedalOK, 4
 671              	pedalOK:
 672 0000 00000000 		.space	4
 673              		.type	DriveSwitch, %object
 674              		.size	DriveSwitch, 1
 675              	DriveSwitch:
 676 0004 00       		.space	1
 677              		.type	HVSwitch, %object
 678              		.size	HVSwitch, 1
 679              	HVSwitch:
 680 0005 00       		.space	1
 681 0006 0000     		.text
 682              	.Letext0:
 683              		.file 2 "d:\\programming\\cypress\\psoc creator\\4.0\\psoc creator\\import\\gnu\\arm\\4.9.3\\arm-n
 684              		.file 3 "d:\\programming\\cypress\\psoc creator\\4.0\\psoc creator\\import\\gnu\\arm\\4.9.3\\arm-n
 685              		.file 4 "Generated_Source\\PSoC5/cytypes.h"
 686              		.file 5 "Generated_Source\\PSoC5/CAN.h"
 687              		.file 6 "Generated_Source\\PSoC5/core_cm3.h"
 688              		.file 7 "Generated_Source\\PSoC5/Node_Timer.h"
 689              		.file 8 "Generated_Source\\PSoC5/isr_nodeok.h"
 690              		.file 9 "can_manga.h"
 691              		.file 10 "Generated_Source\\PSoC5/CyLib.h"
 692              		.file 11 "Generated_Source\\PSoC5/Buzzer.h"
 693              		.file 12 "Generated_Source\\PSoC5/RGB3_1.h"
 694              		.file 13 "Generated_Source\\PSoC5/RGB2_1.h"
 695              		.file 14 "Generated_Source\\PSoC5/RGB1_1.h"
 696              		.file 15 "Generated_Source\\PSoC5/Drive.h"
 697              		.file 16 "Generated_Source\\PSoC5/HV.h"